Certificate:
    Data:
        Version: 3 (0x2)
        Serial Number:
            0c:cb:fc:c3:a6:3f:21:c5:68:83:e3:fd:5d:2a:ab:29
        Signature Algorithm: sha256WithRSAEncryption
        Issuer: C=fr, ST=idf, L=paris, O=vitamui, OU=authorities, CN=ca_root_vitamui
        Validity
            Not Before: Jan 17 11:40:14 2020 GMT
            Not After : Jan 16 11:40:14 2023 GMT
        Subject: C=fr, ST=idf, L=paris, O=vitamui, CN=vitamui-vitam-external
        Subject Public Key Info:
            Public Key Algorithm: rsaEncryption
                RSA Public-Key: (4096 bit)
                Modulus:
                    00:e4:1d:6f:73:03:90:0f:0e:c6:3a:d4:26:6c:9f:
                    9b:53:2b:02:7a:45:06:d1:29:c7:47:89:21:db:8a:
                    61:ab:6d:38:c7:de:71:7f:5d:bd:68:0a:e6:84:1b:
                    81:e1:4c:1e:3b:f8:82:ac:f4:f1:9e:e9:07:54:ff:
                    c8:2a:1d:65:3b:56:ef:76:de:eb:ef:15:db:b3:e3:
                    e1:bd:22:ef:58:72:f9:ba:db:82:e0:f7:1d:74:01:
                    88:cd:fe:83:27:1d:a0:a3:d8:37:e6:29:4e:e5:de:
                    e3:ee:98:2e:e0:41:7e:f3:e7:d1:81:03:01:45:1a:
                    bf:21:dc:fd:43:58:39:7b:eb:fd:0b:17:39:48:8f:
                    68:4c:a4:0b:e5:dd:bf:69:d7:f0:59:82:3c:a1:d0:
                    03:a9:82:d3:6f:9f:01:fe:fd:3e:9f:a6:6e:c9:eb:
                    87:96:04:51:19:eb:96:f5:c9:83:ff:d3:7c:12:e0:
                    4f:df:eb:54:5b:fc:2a:ee:dd:47:40:47:73:f1:98:
                    8d:85:b0:52:e9:dd:64:dd:18:8a:ed:3e:f4:b0:4b:
                    ea:71:e3:79:78:a6:94:7e:10:8a:c8:dd:91:31:fe:
                    4d:27:9b:70:8a:68:91:7c:88:4e:c6:84:c4:d6:6a:
                    f5:94:db:44:89:d0:7d:f9:10:a2:34:d8:76:6d:46:
                    d6:52:09:ea:9a:aa:02:c7:91:d5:73:92:24:7d:0f:
                    13:4f:bb:31:42:21:08:d0:70:8a:3b:7f:20:2b:86:
                    28:aa:64:40:34:f0:1e:60:1c:bf:23:ca:e4:c7:a9:
                    d3:86:7c:4d:46:d7:1f:6b:a3:1c:fe:3f:0e:18:cb:
                    f3:b8:9f:b3:e7:bd:94:e9:35:f9:27:2c:94:8d:f0:
                    68:41:21:ea:ce:59:0e:9f:92:c6:d7:8f:63:e9:a8:
                    d4:3a:fa:e7:97:cf:b6:66:a7:03:64:9e:5c:a1:0b:
                    6b:5c:df:33:59:8e:9b:67:a7:93:69:f4:b1:8e:f5:
                    07:ea:2e:9f:aa:41:aa:bf:5a:88:67:b6:31:bb:e6:
                    f6:30:ab:2b:8e:36:81:c5:5c:61:e0:d7:dd:ef:e9:
                    3d:9c:2f:5c:68:ea:03:4d:b5:b9:eb:fc:6b:0e:b9:
                    b1:ca:76:70:25:3e:68:46:2e:61:e4:fe:df:8b:3d:
                    e7:f3:c9:9a:7b:9a:7d:48:33:43:0f:43:98:1b:f3:
                    36:75:16:02:78:c6:9d:74:7a:93:ae:ce:8d:e6:63:
                    a8:cd:af:ba:0c:f7:33:1c:67:89:99:54:d1:d0:ae:
                    0a:e4:71:4d:60:f6:e6:8b:44:c8:34:79:a9:6d:01:
                    84:c2:8e:1c:ac:c4:6c:fb:4b:20:a7:17:be:00:c5:
                    af:b4:c1
                Exponent: 65537 (0x10001)
        X509v3 extensions:
            Netscape Comment: 
                Certificat SSL VITAMUI
            X509v3 Subject Key Identifier: 
                86:0E:3B:54:F5:6E:38:23:F5:52:43:E2:45:3E:C3:FF:1B:7F:F3:05
            X509v3 Authority Key Identifier: 
                keyid:0D:42:D1:01:69:B1:6B:65:E1:AF:B4:00:37:89:2E:62:1C:5D:C3:FC
                DirName:/C=fr/ST=idf/L=paris/O=vitamui/OU=authorities/CN=ca_root_vitamui
                serial:0C:CB:FC:C3:A6:3F:21:C5:68:83:E3:FD:5D:2A:AB:16

            X509v3 Issuer Alternative Name: 
                <EMPTY>

            X509v3 Basic Constraints: critical
                CA:FALSE
    Signature Algorithm: sha256WithRSAEncryption
         70:be:b8:6c:61:79:b2:1b:f0:d3:8a:c1:c9:26:8f:11:9b:72:
         15:2d:6b:98:ae:96:b6:9f:3c:4c:89:e4:0f:3a:d0:39:98:a9:
         8f:7e:4b:37:00:9c:52:ce:18:29:80:ba:88:54:13:6f:c5:00:
         e5:bf:92:61:3c:66:df:7d:c7:25:0b:cd:13:ed:e8:08:5e:5c:
         f7:83:f5:47:fc:b6:6f:6f:64:c1:8a:49:b1:1a:45:b7:88:d1:
         ef:d2:fe:2c:a0:e0:7a:3e:fe:b8:45:ed:f1:b9:ef:79:6d:c6:
         ac:94:e8:cd:a1:26:01:0d:35:9a:88:b4:8c:15:15:d9:15:b7:
         5b:9d:c1:5b:a1:83:51:8d:8d:13:18:12:86:55:84:78:3d:2f:
         25:c5:5a:51:87:b1:c7:af:e9:4b:bc:79:1c:42:0a:ee:fb:8d:
         43:b3:ec:96:39:f3:c8:0f:e8:61:03:da:83:3b:9f:e6:7a:04:
         ee:33:86:a7:ce:6f:90:29:0f:cb:b5:59:c2:cf:db:7e:92:bd:
         22:32:ee:f7:47:00:06:fe:ae:46:81:c8:cb:25:b1:c6:f8:ff:
         b5:65:0a:e3:0f:15:dc:68:67:57:79:30:8b:8c:5d:bc:3b:31:
         7c:29:13:13:1d:4e:cc:75:86:3a:d6:b8:33:d6:7e:8e:23:1f:
         eb:f5:68:2b:0c:b6:0f:f6:a5:c3:43:ed:c5:a3:3b:cb:03:11:
         4a:c3:ac:4d:1a:01:9b:78:74:10:ef:d5:06:df:4c:7e:d9:57:
         23:02:8a:c5:b9:2e:dc:ee:08:e0:66:fe:8d:0d:d8:ac:5b:6e:
         72:58:2d:3e:38:0c:5e:d5:ff:28:25:20:c7:d4:d1:ed:3e:68:
         91:99:e1:e8:68:cb:1c:73:10:b2:67:d6:ce:de:7b:7a:67:94:
         49:49:8e:f9:57:20:b5:1d:58:02:47:47:e3:ab:7d:a1:17:c3:
         23:5a:7e:af:ef:d0:cb:9e:8b:61:78:99:fa:50:a0:e9:25:23:
         6d:70:18:a7:46:22:cc:af:80:2a:6d:2a:25:d1:13:ce:f2:01:
         b2:a7:1c:44:c7:c5:f4:18:28:e8:4d:63:07:37:e6:b3:43:3e:
         4f:c6:2b:81:39:3a:63:c6:f4:5a:13:88:c6:79:0f:4b:2d:01:
         53:79:22:cf:9b:24:c9:ea:cc:bb:8d:3c:eb:0d:35:3c:f0:41:
         e1:40:1f:f7:fd:ce:be:24:29:14:77:2a:98:c5:ae:43:5d:c1:
         26:96:5a:0e:11:21:32:d2:2b:31:42:98:84:b7:43:c8:78:95:
         5f:d5:c1:fa:f9:78:97:98:38:ff:26:2f:3b:58:cc:b4:e1:35:
         55:2b:7c:38:72:7e:c0:1d
-----BEGIN CERTIFICATE-----
MIIGYzCCBEugAwIBAgIQDMv8w6Y/IcVog+P9XSqrKTANBgkqhkiG9w0BAQsFADBt
MQswCQYDVQQGEwJmcjEMMAoGA1UECAwDaWRmMQ4wDAYDVQQHDAVwYXJpczEQMA4G
A1UECgwHdml0YW11aTEUMBIGA1UECwwLYXV0aG9yaXRpZXMxGDAWBgNVBAMMD2Nh
X3Jvb3Rfdml0YW11aTAeFw0yMDAxMTcxMTQwMTRaFw0yMzAxMTYxMTQwMTRaMF4x
CzAJBgNVBAYTAmZyMQwwCgYDVQQIDANpZGYxDjAMBgNVBAcMBXBhcmlzMRAwDgYD
VQQKDAd2aXRhbXVpMR8wHQYDVQQDDBZ2aXRhbXVpLXZpdGFtLWV4dGVybmFsMIIC
IjANBgkqhkiG9w0BAQEFAAOCAg8AMIICCgKCAgEA5B1vcwOQDw7GOtQmbJ+bUysC
ekUG0SnHR4kh24phq204x95xf129aArmhBuB4UweO/iCrPTxnukHVP/IKh1lO1bv
dt7r7xXbs+PhvSLvWHL5utuC4PcddAGIzf6DJx2go9g35ilO5d7j7pgu4EF+8+fR
gQMBRRq/Idz9Q1g5e+v9Cxc5SI9oTKQL5d2/adfwWYI8odADqYLTb58B/v0+n6Zu
yeuHlgRRGeuW9cmD/9N8EuBP3+tUW/wq7t1HQEdz8ZiNhbBS6d1k3RiK7T70sEvq
ceN5eKaUfhCKyN2RMf5NJ5twimiRfIhOxoTE1mr1lNtEidB9+RCiNNh2bUbWUgnq
mqoCx5HVc5IkfQ8TT7sxQiEI0HCKO38gK4YoqmRANPAeYBy/I8rkx6nThnxNRtcf
a6Mc/j8OGMvzuJ+z572U6TX5JyyUjfBoQSHqzlkOn5LG149j6ajUOvrnl8+2ZqcD
ZJ5coQtrXN8zWY6bZ6eTafSxjvUH6i6fqkGqv1qIZ7Yxu+b2MKsrjjaBxVxh4Nfd
7+k9nC9caOoDTbW56/xrDrmxynZwJT5oRi5h5P7fiz3n88mae5p9SDNDD0OYG/M2
dRYCeMaddHqTrs6N5mOoza+6DPczHGeJmVTR0K4K5HFNYPbmi0TINHmpbQGEwo4c
rMRs+0sgpxe+AMWvtMECAwEAAaOCAQwwggEIMCUGCWCGSAGG+EIBDQQYFhZDZXJ0
aWZpY2F0IFNTTCBWSVRBTVVJMB0GA1UdDgQWBBSGDjtU9W44I/VSQ+JFPsP/G3/z
BTCBpgYDVR0jBIGeMIGbgBQNQtEBabFrZeGvtAA3iS5iHF3D/KFxpG8wbTELMAkG
A1UEBhMCZnIxDDAKBgNVBAgMA2lkZjEOMAwGA1UEBwwFcGFyaXMxEDAOBgNVBAoM
B3ZpdGFtdWkxFDASBgNVBAsMC2F1dGhvcml0aWVzMRgwFgYDVQQDDA9jYV9yb290
X3ZpdGFtdWmCEAzL/MOmPyHFaIPj/V0qqxYwCQYDVR0SBAIwADAMBgNVHRMBAf8E
AjAAMA0GCSqGSIb3DQEBCwUAA4ICAQBwvrhsYXmyG/DTisHJJo8Rm3IVLWuYrpa2
nzxMieQPOtA5mKmPfks3AJxSzhgpgLqIVBNvxQDlv5JhPGbffcclC80T7egIXlz3
g/VH/LZvb2TBikmxGkW3iNHv0v4soOB6Pv64Re3xue95bcaslOjNoSYBDTWaiLSM
FRXZFbdbncFboYNRjY0TGBKGVYR4PS8lxVpRh7HHr+lLvHkcQgru+41Ds+yWOfPI
D+hhA9qDO5/megTuM4anzm+QKQ/LtVnCz9t+kr0iMu73RwAG/q5GgcjLJbHG+P+1
ZQrjDxXcaGdXeTCLjF28OzF8KRMTHU7MdYY61rgz1n6OIx/r9WgrDLYP9qXDQ+3F
ozvLAxFKw6xNGgGbeHQQ79UG30x+2VcjAorFuS7c7gjgZv6NDdisW25yWC0+OAxe
1f8oJSDH1NHtPmiRmeHoaMsccxCyZ9bO3nt6Z5RJSY75VyC1HVgCR0fjq32hF8Mj
Wn6v79DLnotheJn6UKDpJSNtcBinRiLMr4AqbSol0RPO8gGypxxEx8X0GCjoTWMH
N+azQz5PxiuBOTpjxvRaE4jGeQ9LLQFTeSLPmyTJ6sy7jTzrDTU88EHhQB/3/c6+
JCkUdyqYxa5DXcEmlloOESEy0isxQpiEt0PIeJVf1cH6+XiXmDj/Ji87WMy04TVV
K3w4cn7AHQ==
-----END CERTIFICATE-----
