Certificate:
    Data:
        Version: 3 (0x2)
        Serial Number:
            0c:cb:fc:c3:a6:3f:21:c5:68:83:e3:fd:5d:2a:ab:2b
        Signature Algorithm: sha256WithRSAEncryption
        Issuer: C=fr, ST=idf, L=paris, O=vitamui, OU=authorities, CN=ca_root_vitamui
        Validity
            Not Before: Jan 17 11:40:16 2020 GMT
            Not After : Jan 16 11:40:16 2023 GMT
        Subject: C=fr, ST=idf, L=paris, O=vitamui, CN=vitamui-client-example
        Subject Public Key Info:
            Public Key Algorithm: rsaEncryption
                RSA Public-Key: (4096 bit)
                Modulus:
                    00:a9:86:27:46:9f:6c:87:45:bb:49:0c:f3:55:2d:
                    7a:56:b3:61:d1:b8:aa:65:e6:1a:87:34:0f:20:c0:
                    a1:d4:c5:d9:3a:99:38:20:d3:b6:ba:f5:41:a6:33:
                    1d:59:e8:36:ee:e6:7d:ce:b2:3d:f0:8f:0f:a3:2d:
                    41:6b:60:b6:5c:16:c1:cb:d0:e5:40:e7:5b:3c:31:
                    62:e2:07:76:a8:af:aa:ec:3e:d4:74:35:dd:e3:4b:
                    06:c6:d7:a2:a0:42:de:6e:47:7d:6c:48:93:cb:7a:
                    f1:dc:93:a0:22:64:b9:c2:34:13:43:25:cd:f1:79:
                    ca:6f:9a:5a:1b:53:79:2c:a0:f0:db:72:b9:86:eb:
                    9e:d8:a8:79:3d:84:96:7e:df:9a:91:2f:9c:6f:86:
                    eb:7f:98:c8:0c:ca:99:70:1f:2f:6b:bd:a0:98:f7:
                    09:7e:43:52:bf:de:2e:e0:42:fd:c0:5a:9d:b3:10:
                    bc:fa:46:fd:8b:fe:df:83:6c:17:7f:a8:92:72:91:
                    7a:0d:9e:86:cb:16:ca:5a:5f:34:38:44:c9:a7:26:
                    81:17:62:f1:4b:b9:74:6c:37:b3:58:60:e9:22:89:
                    a3:b2:1b:96:81:d9:a4:d6:54:68:ad:d4:82:47:52:
                    d5:e6:e6:0a:c3:aa:3c:14:51:1f:81:5a:a5:5e:60:
                    41:08:10:da:9e:23:b3:cd:03:c6:29:5a:1d:ff:b2:
                    2d:1f:6b:a9:98:60:5a:d3:f9:50:3d:fa:8a:74:c6:
                    15:8b:09:e9:22:d0:d3:f8:8f:6e:b4:5a:dc:d0:0d:
                    33:3f:8c:ba:b1:fa:cf:72:16:55:42:6f:12:f8:41:
                    e7:7e:b9:e7:76:02:4c:c5:2e:ed:f3:a1:fe:91:9c:
                    24:80:3f:5a:ad:f1:78:98:69:ce:83:6f:d2:bc:02:
                    40:2b:e7:28:d1:98:2a:0f:62:dd:91:f0:00:d8:03:
                    f0:92:bb:97:c2:ff:f7:4d:31:58:00:89:2f:c2:8a:
                    86:3b:97:84:cf:95:4b:23:79:db:57:0a:e3:61:20:
                    e3:66:8a:ee:fe:4f:1d:3c:f6:22:38:ab:b3:00:13:
                    f0:ca:12:d7:80:a8:01:f3:54:42:81:3c:01:b9:da:
                    9a:46:0a:ac:f4:62:8a:e5:6b:93:2d:18:23:87:99:
                    e9:64:23:39:35:06:f1:2f:49:81:d2:2d:4c:69:52:
                    22:57:3f:a4:98:34:a1:90:2f:3d:8a:e4:a3:e1:ed:
                    e7:73:f8:00:71:b2:91:cd:bf:fe:0a:b2:6c:29:d6:
                    c7:b5:43:be:2a:2c:03:d0:8d:05:11:02:4b:61:85:
                    63:6b:fb:aa:2d:f4:0e:f0:51:3a:96:bc:4e:c1:ff:
                    a1:a8:53
                Exponent: 65537 (0x10001)
        X509v3 extensions:
            Netscape Comment: 
                Certificat SSL VITAMUI
            X509v3 Subject Key Identifier: 
                D3:94:F3:46:FB:EF:23:E4:0C:6B:D9:42:C8:DF:23:71:9D:B5:95:48
            X509v3 Authority Key Identifier: 
                keyid:0D:42:D1:01:69:B1:6B:65:E1:AF:B4:00:37:89:2E:62:1C:5D:C3:FC
                DirName:/C=fr/ST=idf/L=paris/O=vitamui/OU=authorities/CN=ca_root_vitamui
                serial:0C:CB:FC:C3:A6:3F:21:C5:68:83:E3:FD:5D:2A:AB:16

            X509v3 Issuer Alternative Name: 
                <EMPTY>

            X509v3 Basic Constraints: critical
                CA:FALSE
    Signature Algorithm: sha256WithRSAEncryption
         5a:45:b4:49:8b:9c:c2:d2:e1:b9:1b:bc:04:e5:49:3a:94:68:
         5d:3d:a7:d8:b6:29:0c:2b:66:e0:e4:c0:96:3c:07:68:70:8f:
         3f:92:f3:92:94:11:a9:6e:b4:3a:0c:9a:3b:80:3f:e2:a3:e2:
         19:d3:ab:1e:43:60:0c:c0:af:66:07:2a:af:7b:e5:98:1d:c7:
         38:06:03:c2:fc:23:8b:33:46:a8:71:ac:21:ff:5e:ab:3f:82:
         1c:52:b5:be:09:4f:67:46:3b:d9:38:cb:e5:2b:74:76:ba:c7:
         c3:70:3e:b7:ef:86:6c:fc:43:d8:41:77:58:1f:85:ae:ec:f6:
         ec:29:c4:12:76:0c:32:76:12:59:dc:6d:70:a9:1d:da:bc:e7:
         5b:0a:13:96:7b:f6:60:09:86:d7:86:d5:12:bf:c2:dd:a8:60:
         58:d0:26:48:48:f8:aa:6c:ef:bb:7c:a4:84:95:db:1a:15:5c:
         83:c5:bd:7d:ba:b4:ee:65:e7:54:6e:9b:0b:a8:c7:22:97:22:
         db:92:1d:22:b3:0f:18:fc:0b:c1:13:97:0e:74:0a:c4:37:e8:
         9e:4f:82:0a:e5:8a:fe:33:41:f3:cc:46:35:4d:d1:23:4f:3d:
         2f:ae:1f:4b:1a:d0:9e:d1:b4:15:56:90:71:4f:80:78:d9:d7:
         2c:64:9a:3f:b4:04:e1:0c:65:70:75:57:04:f4:51:16:38:80:
         39:0c:6c:5d:4b:8a:cb:bc:ad:13:13:99:21:e9:92:3a:c2:99:
         31:7c:6d:5c:10:06:c0:41:85:8c:89:5c:19:5a:d1:35:67:20:
         76:55:35:90:7e:26:55:95:92:d9:54:1d:b9:e0:d5:c2:b1:53:
         25:92:b3:b0:fc:db:56:e9:72:0a:ab:b0:96:a6:2a:3f:5a:d3:
         b9:53:5d:4e:ae:3b:77:e2:a7:65:6a:8b:c2:5f:03:29:e0:e4:
         d0:d3:81:91:15:20:ce:8f:57:65:19:7a:87:bd:21:33:a6:17:
         3f:08:a5:50:33:08:42:32:f0:af:01:63:42:67:ec:42:89:30:
         24:ed:2e:ca:98:79:f9:2f:99:13:6b:ee:f1:05:15:21:d5:f3:
         f0:2a:16:38:d7:29:68:8e:dd:d1:53:b1:90:d9:ff:a5:0f:e5:
         ea:6c:71:03:7f:e5:88:79:49:13:cd:6d:21:4b:7b:22:62:16:
         f6:72:ce:b4:fa:b6:e0:30:1e:61:9a:a6:0b:68:89:c2:66:46:
         bb:d3:fc:3f:fc:a8:91:eb:48:16:04:b6:98:aa:da:b6:92:22:
         10:3d:7c:aa:b6:88:f6:a0:ef:9a:0e:f3:bd:78:01:e6:c1:a5:
         8a:42:7b:b2:ea:76:df:8e
-----BEGIN CERTIFICATE-----
MIIGYzCCBEugAwIBAgIQDMv8w6Y/IcVog+P9XSqrKzANBgkqhkiG9w0BAQsFADBt
MQswCQYDVQQGEwJmcjEMMAoGA1UECAwDaWRmMQ4wDAYDVQQHDAVwYXJpczEQMA4G
A1UECgwHdml0YW11aTEUMBIGA1UECwwLYXV0aG9yaXRpZXMxGDAWBgNVBAMMD2Nh
X3Jvb3Rfdml0YW11aTAeFw0yMDAxMTcxMTQwMTZaFw0yMzAxMTYxMTQwMTZaMF4x
CzAJBgNVBAYTAmZyMQwwCgYDVQQIDANpZGYxDjAMBgNVBAcMBXBhcmlzMRAwDgYD
VQQKDAd2aXRhbXVpMR8wHQYDVQQDDBZ2aXRhbXVpLWNsaWVudC1leGFtcGxlMIIC
IjANBgkqhkiG9w0BAQEFAAOCAg8AMIICCgKCAgEAqYYnRp9sh0W7SQzzVS16VrNh
0biqZeYahzQPIMCh1MXZOpk4INO2uvVBpjMdWeg27uZ9zrI98I8Poy1Ba2C2XBbB
y9DlQOdbPDFi4gd2qK+q7D7UdDXd40sGxteioELebkd9bEiTy3rx3JOgImS5wjQT
QyXN8XnKb5paG1N5LKDw23K5huue2Kh5PYSWft+akS+cb4brf5jIDMqZcB8va72g
mPcJfkNSv94u4EL9wFqdsxC8+kb9i/7fg2wXf6iScpF6DZ6GyxbKWl80OETJpyaB
F2LxS7l0bDezWGDpIomjshuWgdmk1lRordSCR1LV5uYKw6o8FFEfgVqlXmBBCBDa
niOzzQPGKVod/7ItH2upmGBa0/lQPfqKdMYViwnpItDT+I9utFrc0A0zP4y6sfrP
chZVQm8S+EHnfrnndgJMxS7t86H+kZwkgD9arfF4mGnOg2/SvAJAK+co0ZgqD2Ld
kfAA2APwkruXwv/3TTFYAIkvwoqGO5eEz5VLI3nbVwrjYSDjZoru/k8dPPYiOKuz
ABPwyhLXgKgB81RCgTwBudqaRgqs9GKK5WuTLRgjh5npZCM5NQbxL0mB0i1MaVIi
Vz+kmDShkC89iuSj4e3nc/gAcbKRzb/+CrJsKdbHtUO+KiwD0I0FEQJLYYVja/uq
LfQO8FE6lrxOwf+hqFMCAwEAAaOCAQwwggEIMCUGCWCGSAGG+EIBDQQYFhZDZXJ0
aWZpY2F0IFNTTCBWSVRBTVVJMB0GA1UdDgQWBBTTlPNG++8j5Axr2ULI3yNxnbWV
SDCBpgYDVR0jBIGeMIGbgBQNQtEBabFrZeGvtAA3iS5iHF3D/KFxpG8wbTELMAkG
A1UEBhMCZnIxDDAKBgNVBAgMA2lkZjEOMAwGA1UEBwwFcGFyaXMxEDAOBgNVBAoM
B3ZpdGFtdWkxFDASBgNVBAsMC2F1dGhvcml0aWVzMRgwFgYDVQQDDA9jYV9yb290
X3ZpdGFtdWmCEAzL/MOmPyHFaIPj/V0qqxYwCQYDVR0SBAIwADAMBgNVHRMBAf8E
AjAAMA0GCSqGSIb3DQEBCwUAA4ICAQBaRbRJi5zC0uG5G7wE5Uk6lGhdPafYtikM
K2bg5MCWPAdocI8/kvOSlBGpbrQ6DJo7gD/io+IZ06seQ2AMwK9mByqve+WYHcc4
BgPC/COLM0aocawh/16rP4IcUrW+CU9nRjvZOMvlK3R2usfDcD6374Zs/EPYQXdY
H4Wu7PbsKcQSdgwydhJZ3G1wqR3avOdbChOWe/ZgCYbXhtUSv8LdqGBY0CZISPiq
bO+7fKSEldsaFVyDxb19urTuZedUbpsLqMcilyLbkh0isw8Y/AvBE5cOdArEN+ie
T4IK5Yr+M0HzzEY1TdEjTz0vrh9LGtCe0bQVVpBxT4B42dcsZJo/tAThDGVwdVcE
9FEWOIA5DGxdS4rLvK0TE5kh6ZI6wpkxfG1cEAbAQYWMiVwZWtE1ZyB2VTWQfiZV
lZLZVB254NXCsVMlkrOw/NtW6XIKq7CWpio/WtO5U11Orjt34qdlaovCXwMp4OTQ
04GRFSDOj1dlGXqHvSEzphc/CKVQMwhCMvCvAWNCZ+xCiTAk7S7KmHn5L5kTa+7x
BRUh1fPwKhY41ylojt3RU7GQ2f+lD+XqbHEDf+WIeUkTzW0hS3siYhb2cs60+rbg
MB5hmqYLaInCZka70/w//KiR60gWBLaYqtq2kiIQPXyqtoj2oO+aDvO9eAHmwaWK
Qnuy6nbfjg==
-----END CERTIFICATE-----
