Certificate:
    Data:
        Version: 3 (0x2)
        Serial Number: 2 (0x2)
        Signature Algorithm: sha256WithRSAEncryption
        Issuer: C=fr, ST=idf, L=paris, O=vitamui, OU=authorities, CN=ca_root_server
        Validity
            Not Before: Apr 21 08:36:28 2020 GMT
            Not After : Apr 19 08:36:28 2030 GMT
        Subject: C=fr, ST=idf, L=paris, O=vitamui, OU=authorities, CN=ca_intermediate_server
        Subject Public Key Info:
            Public Key Algorithm: rsaEncryption
                RSA Public-Key: (4096 bit)
                Modulus:
                    00:bd:e6:a0:71:7e:ee:35:a9:e0:c2:1b:d0:ec:5c:
                    5d:03:44:58:6b:4c:6e:5c:61:79:fc:d5:7f:62:1f:
                    f6:54:0a:5e:51:f5:40:b5:c2:1e:c0:9c:ff:7b:29:
                    d7:76:8b:02:84:24:12:50:1b:f6:70:b2:6e:d1:2f:
                    d8:e8:65:d6:db:c3:9b:0a:6d:3c:44:0f:b7:6d:c4:
                    c4:76:38:8d:1a:0f:be:eb:2f:20:f5:45:ea:79:00:
                    d5:e7:04:48:84:90:9a:18:8e:e5:fb:8d:9a:54:49:
                    0e:9e:ea:c9:89:9b:44:f2:55:80:7b:42:b3:96:b8:
                    b2:07:b9:eb:74:93:8e:a3:bc:ca:7d:ef:06:e2:45:
                    7e:c8:d1:7b:64:66:a9:69:41:24:df:88:27:4e:87:
                    e8:33:c8:0d:ba:1e:8a:55:9c:e9:17:a3:4b:c3:b5:
                    a8:e8:c9:cc:81:f0:dc:af:c1:7a:18:87:d6:93:2c:
                    38:1a:d2:74:6f:40:7d:13:c8:34:31:fa:d2:a8:16:
                    d2:3d:a6:2b:39:bc:2f:9d:e1:d6:f6:3b:2b:9a:51:
                    ac:80:61:85:79:90:fc:0c:87:31:06:b6:a5:9d:b6:
                    4c:74:90:8f:d3:a5:47:56:14:f9:89:70:2d:a6:b5:
                    18:cc:2a:a0:6d:64:b9:64:55:07:24:d3:69:44:de:
                    47:97:d5:9f:b0:b3:42:bb:55:e9:b6:8e:9b:65:0d:
                    35:c5:24:7a:97:40:3c:90:54:cf:27:0c:5a:ab:28:
                    58:bf:40:33:bd:2c:40:44:85:47:b1:1e:fe:77:59:
                    86:99:44:f1:d9:14:20:81:03:7d:b7:bc:6e:a1:e4:
                    82:03:06:a2:61:0d:f8:fa:07:b5:e9:27:79:1e:11:
                    e7:ed:d3:49:70:c6:13:c7:42:03:65:85:e7:c0:be:
                    c2:69:9c:11:e5:48:58:bf:6e:a1:5b:e8:8f:6b:bd:
                    27:2c:d8:1f:9b:08:1c:5f:7d:36:4d:0b:c7:6d:da:
                    77:0a:c7:49:4e:4b:7a:44:cc:b8:68:cf:9d:a7:12:
                    63:54:59:86:ee:ab:37:f8:4b:4a:25:99:d9:a4:3b:
                    74:18:39:63:c6:3b:09:01:ed:69:75:b7:cb:af:79:
                    31:0d:a3:99:3d:54:30:ea:27:61:c5:a6:82:21:21:
                    c3:d1:69:3b:b1:0a:7e:e7:0e:e0:6e:e7:71:fb:1d:
                    45:cb:1d:3f:55:1d:0d:9a:58:00:29:07:ff:c3:99:
                    83:18:5c:02:ff:04:ed:96:a4:d1:78:ee:ea:5e:c2:
                    28:99:39:49:54:38:81:e6:6c:80:b9:87:7c:46:e8:
                    75:e2:ad:de:5e:4b:e9:49:d0:d0:13:88:7d:aa:b3:
                    09:15:bb
                Exponent: 65537 (0x10001)
        X509v3 extensions:
            Netscape Comment: 
                CA Intermediate
            X509v3 Subject Key Identifier: 
                9A:2B:61:9D:C3:51:A4:1F:D4:93:A3:DE:C4:3E:93:52:54:D2:74:2D
            X509v3 Authority Key Identifier: 
                keyid:C2:E8:30:F1:37:9C:44:C8:CA:BB:E0:6B:F2:B5:DF:2C:7E:27:A5:36
                DirName:/C=fr/ST=idf/L=paris/O=vitamui/OU=authorities/CN=ca_root_server
                serial:01

            X509v3 Basic Constraints: critical
                CA:TRUE, pathlen:0
            X509v3 Issuer Alternative Name: 
                <EMPTY>

            X509v3 Key Usage: 
                Certificate Sign, CRL Sign
            Netscape Cert Type: 
                SSL CA
    Signature Algorithm: sha256WithRSAEncryption
         1d:22:eb:ea:69:c8:e9:48:5a:33:94:44:5b:6d:e8:c3:47:b6:
         43:25:42:25:44:66:46:09:ba:fc:69:ad:2a:1b:fc:a0:c9:d2:
         a3:fa:ca:1f:63:6f:d7:ca:38:be:8d:d0:b3:58:ab:f6:f6:d4:
         12:1b:96:fb:bb:90:0e:6c:52:30:16:68:21:de:28:22:64:47:
         e4:17:02:59:cc:a0:b8:33:c0:fa:f7:17:d7:d9:ad:5c:61:7c:
         7d:f7:4e:3e:38:f2:ed:1f:58:c3:1e:63:d1:99:d5:11:7f:f1:
         b4:43:94:c3:ac:c7:7f:e4:e6:e9:e9:d6:41:4a:0d:36:59:7a:
         28:fb:bb:a3:e0:95:9b:e0:8b:76:75:a4:eb:56:bf:9f:b0:47:
         9d:c5:19:f8:62:c3:d8:9a:d4:29:63:62:93:9c:66:1b:28:9d:
         e0:d5:1a:00:3a:73:31:36:10:f9:e8:4f:21:b4:f5:f9:06:63:
         59:05:1a:81:a7:7e:f9:81:0b:07:fc:48:2d:f4:06:ad:50:7f:
         03:3d:90:59:ac:ee:5e:0d:95:49:2e:54:ce:67:33:33:c6:8b:
         0f:d1:2a:4e:54:d6:79:1c:e4:07:56:6b:16:92:0e:dd:60:b8:
         cd:fe:7d:29:84:77:4a:13:84:af:49:e6:02:2b:a4:e4:e7:c1:
         54:bc:b7:12:84:df:3d:61:b7:07:ad:5f:94:4e:25:e3:81:a0:
         e5:af:f9:18:82:bc:60:ac:95:ef:65:38:d4:ba:09:70:b7:34:
         e2:b1:9e:fb:c5:16:ab:f1:bc:fa:91:05:4c:a6:e4:a0:03:83:
         90:47:c9:49:e9:46:22:bd:c2:99:66:c6:36:b1:2c:e3:ba:84:
         88:bd:e7:8d:dd:74:b0:3b:1e:cc:7d:50:14:16:f0:49:f7:a8:
         26:13:bd:f5:dc:ac:92:d2:4a:d8:94:04:19:2c:a2:9a:ab:bc:
         89:9f:39:bd:68:50:02:81:2e:ae:91:d5:2e:1b:91:29:9a:e9:
         09:83:c4:c0:b0:00:71:77:f7:68:91:28:23:af:01:10:05:19:
         20:6f:cb:e7:fc:8f:80:64:2d:0b:7b:b6:26:d1:2f:97:8a:83:
         c9:fc:11:79:05:88:27:58:dd:21:e5:c8:48:80:95:c6:f8:39:
         fc:59:40:92:a0:f7:2d:82:94:be:c6:9e:d5:f9:3e:03:78:30:
         d6:9e:2d:60:3f:73:90:6b:b9:64:3a:3d:74:9b:08:ac:39:6b:
         1b:c8:c8:18:88:02:5b:79:9b:1d:8a:bf:66:a8:57:da:55:07:
         72:73:9f:18:ea:c2:b5:94:a7:db:13:23:d9:0e:80:bd:77:fc:
         2d:2c:fb:b0:13:ea:85:4b
-----BEGIN CERTIFICATE-----
MIIGeDCCBGCgAwIBAgIBAjANBgkqhkiG9w0BAQsFADBsMQswCQYDVQQGEwJmcjEM
MAoGA1UECAwDaWRmMQ4wDAYDVQQHDAVwYXJpczEQMA4GA1UECgwHdml0YW11aTEU
MBIGA1UECwwLYXV0aG9yaXRpZXMxFzAVBgNVBAMMDmNhX3Jvb3Rfc2VydmVyMB4X
DTIwMDQyMTA4MzYyOFoXDTMwMDQxOTA4MzYyOFowdDELMAkGA1UEBhMCZnIxDDAK
BgNVBAgMA2lkZjEOMAwGA1UEBwwFcGFyaXMxEDAOBgNVBAoMB3ZpdGFtdWkxFDAS
BgNVBAsMC2F1dGhvcml0aWVzMR8wHQYDVQQDDBZjYV9pbnRlcm1lZGlhdGVfc2Vy
dmVyMIICIjANBgkqhkiG9w0BAQEFAAOCAg8AMIICCgKCAgEAveagcX7uNangwhvQ
7FxdA0RYa0xuXGF5/NV/Yh/2VApeUfVAtcIewJz/eynXdosChCQSUBv2cLJu0S/Y
6GXW28ObCm08RA+3bcTEdjiNGg++6y8g9UXqeQDV5wRIhJCaGI7l+42aVEkOnurJ
iZtE8lWAe0KzlriyB7nrdJOOo7zKfe8G4kV+yNF7ZGapaUEk34gnTofoM8gNuh6K
VZzpF6NLw7Wo6MnMgfDcr8F6GIfWkyw4GtJ0b0B9E8g0MfrSqBbSPaYrObwvneHW
9jsrmlGsgGGFeZD8DIcxBralnbZMdJCP06VHVhT5iXAtprUYzCqgbWS5ZFUHJNNp
RN5Hl9WfsLNCu1Xpto6bZQ01xSR6l0A8kFTPJwxaqyhYv0AzvSxARIVHsR7+d1mG
mUTx2RQggQN9t7xuoeSCAwaiYQ34+ge16Sd5HhHn7dNJcMYTx0IDZYXnwL7CaZwR
5UhYv26hW+iPa70nLNgfmwgcX302TQvHbdp3CsdJTkt6RMy4aM+dpxJjVFmG7qs3
+EtKJZnZpDt0GDljxjsJAe1pdbfLr3kxDaOZPVQw6idhxaaCISHD0Wk7sQp+5w7g
budx+x1Fyx0/VR0NmlgAKQf/w5mDGFwC/wTtlqTReO7qXsIomTlJVDiB5myAuYd8
Ruh14q3eXkvpSdDQE4h9qrMJFbsCAwEAAaOCARswggEXMB4GCWCGSAGG+EIBDQQR
Fg9DQSBJbnRlcm1lZGlhdGUwHQYDVR0OBBYEFJorYZ3DUaQf1JOj3sQ+k1JU0nQt
MIGWBgNVHSMEgY4wgYuAFMLoMPE3nETIyrvga/K13yx+J6U2oXCkbjBsMQswCQYD
VQQGEwJmcjEMMAoGA1UECAwDaWRmMQ4wDAYDVQQHDAVwYXJpczEQMA4GA1UECgwH
dml0YW11aTEUMBIGA1UECwwLYXV0aG9yaXRpZXMxFzAVBgNVBAMMDmNhX3Jvb3Rf
c2VydmVyggEBMBIGA1UdEwEB/wQIMAYBAf8CAQAwCQYDVR0SBAIwADALBgNVHQ8E
BAMCAQYwEQYJYIZIAYb4QgEBBAQDAgIEMA0GCSqGSIb3DQEBCwUAA4ICAQAdIuvq
acjpSFozlERbbejDR7ZDJUIlRGZGCbr8aa0qG/ygydKj+sofY2/Xyji+jdCzWKv2
9tQSG5b7u5AObFIwFmgh3igiZEfkFwJZzKC4M8D69xfX2a1cYXx9904+OPLtH1jD
HmPRmdURf/G0Q5TDrMd/5Obp6dZBSg02WXoo+7uj4JWb4It2daTrVr+fsEedxRn4
YsPYmtQpY2KTnGYbKJ3g1RoAOnMxNhD56E8htPX5BmNZBRqBp375gQsH/Egt9Aat
UH8DPZBZrO5eDZVJLlTOZzMzxosP0SpOVNZ5HOQHVmsWkg7dYLjN/n0phHdKE4Sv
SeYCK6Tk58FUvLcShN89YbcHrV+UTiXjgaDlr/kYgrxgrJXvZTjUuglwtzTisZ77
xRar8bz6kQVMpuSgA4OQR8lJ6UYivcKZZsY2sSzjuoSIveeN3XSwOx7MfVAUFvBJ
96gmE7313KyS0krYlAQZLKKaq7yJnzm9aFACgS6ukdUuG5EpmukJg8TAsABxd/do
kSgjrwEQBRkgb8vn/I+AZC0Le7Ym0S+XioPJ/BF5BYgnWN0h5chIgJXG+Dn8WUCS
oPctgpS+xp7V+T4DeDDWni1gP3OQa7lkOj10mwisOWsbyMgYiAJbeZsdir9mqFfa
VQdyc58Y6sK1lKfbEyPZDoC9d/wtLPuwE+qFSw==
-----END CERTIFICATE-----
