Certificate:
    Data:
        Version: 3 (0x2)
        Serial Number: 484 (0x1e4)
    Signature Algorithm: sha256WithRSAEncryption
        Issuer: C=fr, ST=idf, L=paris, O=vitam, OU=authorities, CN=ca_root_server
        Validity
            Not Before: Dec 12 10:42:41 2019 GMT
            Not After : Dec  9 10:42:41 2029 GMT
        Subject: C=fr, ST=idf, L=paris, O=vitam, OU=authorities, CN=ca_root_server
        Subject Public Key Info:
            Public Key Algorithm: rsaEncryption
                Public-Key: (4096 bit)
                Modulus:
                    00:c0:8c:d9:8e:fa:5c:84:34:43:32:a7:8e:b8:74:
                    f1:52:da:97:73:ef:fd:3a:45:3d:bb:a9:94:28:41:
                    f8:f9:1e:ab:c9:d9:00:ca:26:aa:ce:67:9f:f6:e7:
                    89:55:18:fd:1f:d9:7d:9f:fc:d9:5e:a8:b3:5d:23:
                    e7:09:96:57:03:e0:61:36:e7:2c:5b:37:01:0d:0f:
                    b9:1d:d5:5e:22:1f:c2:ed:fd:36:53:fc:12:60:e0:
                    46:52:b7:51:a4:12:aa:d1:ab:b8:c5:90:25:39:a5:
                    6d:43:3b:a6:a1:64:36:69:5c:56:9b:23:be:b6:f0:
                    7b:50:f8:a9:34:39:f0:2b:8f:db:e1:b0:64:8a:46:
                    14:2e:38:ba:01:90:1d:df:94:99:9e:f2:85:1c:52:
                    0f:8f:da:bd:0c:2f:fb:e1:ca:65:a3:10:6c:58:e8:
                    2d:1a:6d:28:f1:0f:98:5a:9e:f6:80:03:75:43:9b:
                    86:f3:6d:14:38:bf:e7:71:c2:e5:eb:67:d6:7f:19:
                    e1:8f:b3:af:fc:d9:79:06:08:c5:69:02:f0:7e:79:
                    ce:b8:b6:48:56:24:5a:d6:27:9f:bb:5c:c6:d8:ea:
                    22:2a:76:16:f6:64:a4:c6:29:43:73:28:cf:6a:00:
                    82:64:e0:3a:ac:a1:0b:e6:70:a0:92:d7:cc:a2:39:
                    79:8e:e6:d1:cb:f5:1b:ae:e9:3d:05:f3:71:c1:2a:
                    21:eb:b7:1f:9a:e3:5f:22:13:e9:2d:f1:e8:db:2c:
                    8b:81:a7:0d:d1:47:ed:5e:6b:54:e9:12:78:18:ad:
                    b1:1e:7a:0b:e7:ef:7e:f6:fc:6d:ee:08:ae:19:c2:
                    6b:5a:3e:cb:36:1a:17:0a:09:7e:ad:b4:77:e0:30:
                    34:b3:8c:31:26:96:4b:ad:1a:d9:3c:df:cd:29:94:
                    a7:93:3d:76:5d:a8:85:7f:22:be:93:ae:1c:af:63:
                    60:62:78:d8:d3:cd:40:8f:cd:14:80:07:bd:d6:f0:
                    b1:0b:82:aa:d4:52:69:59:89:3b:e2:5a:c3:32:4a:
                    20:57:22:f9:67:59:25:f8:3a:e1:5b:b7:f9:0d:39:
                    1d:8f:70:ce:fb:fa:33:05:03:cb:75:18:5b:19:d6:
                    1d:e2:5c:9c:6a:6f:11:f3:d6:b0:ba:44:9c:bb:c1:
                    87:8b:b1:b7:a9:9d:0b:29:1d:39:0f:5a:2b:af:01:
                    be:2f:73:b3:6c:9c:e0:eb:f7:ec:e7:9a:de:84:b4:
                    8a:10:a2:53:af:96:f4:20:c4:a8:22:86:8c:47:87:
                    db:f2:64:e2:d4:80:03:4a:96:27:a2:fa:3a:8d:df:
                    a0:1c:4a:46:f9:da:e3:2d:0e:2a:81:e6:e6:45:6d:
                    6c:3b:89
                Exponent: 65537 (0x10001)
        X509v3 extensions:
            Netscape Comment:
                CA Root
            X509v3 Subject Key Identifier:
                C7:BD:36:FF:58:55:76:8D:DF:07:1F:6F:C8:79:3D:C3:25:DD:D9:80
            X509v3 Authority Key Identifier:
                keyid:C7:BD:36:FF:58:55:76:8D:DF:07:1F:6F:C8:79:3D:C3:25:DD:D9:80

            X509v3 Basic Constraints: critical
                CA:TRUE, pathlen:1
            X509v3 Key Usage:
                Certificate Sign, CRL Sign
            Netscape Cert Type:
                SSL CA
    Signature Algorithm: sha256WithRSAEncryption
         13:99:86:4c:dd:ea:44:ec:18:36:c1:c3:4b:98:b1:a3:1f:d7:
         0e:04:f3:62:25:1f:07:ea:27:c2:26:79:76:2a:63:34:04:73:
         86:5f:35:f9:f9:a8:aa:ba:45:5b:6f:c5:1c:44:25:f4:0d:64:
         4d:16:f8:88:8b:db:17:8b:e8:22:24:d8:9a:5b:0c:5f:e5:6d:
         c4:e0:be:89:73:2a:3d:c7:56:2e:a7:c6:c2:4c:fa:29:9d:a7:
         5d:b4:bb:eb:67:ce:ae:94:83:04:4a:52:e2:31:48:53:db:53:
         54:11:2a:08:58:d3:9e:f5:ed:5a:9d:50:4a:cf:eb:e7:52:ae:
         bc:be:49:92:bc:dc:5b:ae:dc:6f:55:97:48:1d:fb:a9:35:e2:
         5c:57:2f:41:8b:68:78:54:b6:58:01:75:ad:31:81:3a:fc:da:
         c2:41:59:51:00:12:e9:5c:94:45:84:f2:f8:fc:a8:c2:84:37:
         d4:12:e6:b0:a5:21:30:06:c8:45:bc:64:db:cd:da:a4:f8:4e:
         f5:5b:26:d3:9b:ed:88:a1:56:fc:99:bb:96:cd:03:e8:52:2f:
         88:ed:c2:72:3f:0c:10:8a:b1:08:50:c1:bf:04:d6:65:90:62:
         0a:9b:e8:61:e4:be:1a:ea:da:69:50:2f:01:87:5f:39:19:6e:
         fc:f8:4e:39:98:8d:c5:6b:c3:2e:df:1e:99:8c:31:cb:00:37:
         af:70:2b:12:dc:3b:c0:76:77:45:55:95:09:6e:74:f1:e6:8a:
         08:af:bb:58:4f:45:4e:ef:77:b3:c3:7b:a4:5b:98:1b:e6:19:
         e3:ff:f7:14:98:95:85:89:f5:e2:ff:46:70:59:e0:a6:51:bc:
         6d:e9:61:e9:74:26:67:3d:23:40:15:a3:d5:20:17:bb:47:74:
         52:7e:a1:0f:b2:76:9f:e5:3b:60:c2:24:4e:2c:15:db:0b:cf:
         be:86:c5:f2:42:53:5e:ee:c4:73:d4:08:e4:22:df:65:26:d2:
         42:90:2b:7d:13:a6:ab:52:a9:b1:61:37:d9:9f:e0:56:a9:7c:
         42:55:f1:c5:fa:56:9a:fe:b0:08:19:30:77:ad:2c:d9:15:7e:
         db:10:3d:7a:58:e8:8f:b9:e0:1c:f2:27:0a:1f:bf:18:13:c8:
         56:a3:ef:b3:eb:f9:d0:ad:b3:10:62:fe:91:02:64:0b:7b:9e:
         c7:f5:82:20:b0:d4:74:88:ed:29:62:ba:5d:ac:69:ea:df:e3:
         82:b5:ff:47:81:66:1a:b4:d9:80:88:1a:6d:48:ff:db:07:2d:
         68:c6:28:41:5e:da:04:df:37:f5:83:bb:77:f3:16:47:df:53:
         8b:66:ad:ff:23:40:f0:a5
-----BEGIN CERTIFICATE-----
MIIF4DCCA8igAwIBAgICAeQwDQYJKoZIhvcNAQELBQAwajELMAkGA1UEBhMCZnIx
DDAKBgNVBAgMA2lkZjEOMAwGA1UEBwwFcGFyaXMxDjAMBgNVBAoMBXZpdGFtMRQw
EgYDVQQLDAthdXRob3JpdGllczEXMBUGA1UEAwwOY2Ffcm9vdF9zZXJ2ZXIwHhcN
MTkxMjEyMTA0MjQxWhcNMjkxMjA5MTA0MjQxWjBqMQswCQYDVQQGEwJmcjEMMAoG
A1UECAwDaWRmMQ4wDAYDVQQHDAVwYXJpczEOMAwGA1UECgwFdml0YW0xFDASBgNV
BAsMC2F1dGhvcml0aWVzMRcwFQYDVQQDDA5jYV9yb290X3NlcnZlcjCCAiIwDQYJ
KoZIhvcNAQEBBQADggIPADCCAgoCggIBAMCM2Y76XIQ0QzKnjrh08VLal3Pv/TpF
PbuplChB+Pkeq8nZAMomqs5nn/bniVUY/R/ZfZ/82V6os10j5wmWVwPgYTbnLFs3
AQ0PuR3VXiIfwu39NlP8EmDgRlK3UaQSqtGruMWQJTmlbUM7pqFkNmlcVpsjvrbw
e1D4qTQ58CuP2+GwZIpGFC44ugGQHd+UmZ7yhRxSD4/avQwv++HKZaMQbFjoLRpt
KPEPmFqe9oADdUObhvNtFDi/53HC5etn1n8Z4Y+zr/zZeQYIxWkC8H55zri2SFYk
WtYnn7tcxtjqIip2FvZkpMYpQ3Moz2oAgmTgOqyhC+ZwoJLXzKI5eY7m0cv1G67p
PQXzccEqIeu3H5rjXyIT6S3x6Nssi4GnDdFH7V5rVOkSeBitsR56C+fvfvb8be4I
rhnCa1o+yzYaFwoJfq20d+AwNLOMMSaWS60a2TzfzSmUp5M9dl2ohX8ivpOuHK9j
YGJ42NPNQI/NFIAHvdbwsQuCqtRSaVmJO+JawzJKIFci+WdZJfg64Vu3+Q05HY9w
zvv6MwUDy3UYWxnWHeJcnGpvEfPWsLpEnLvBh4uxt6mdCykdOQ9aK68Bvi9zs2yc
4Ov37Oea3oS0ihCiU6+W9CDEqCKGjEeH2/Jk4tSAA0qWJ6L6Oo3foBxKRvna4y0O
KoHm5kVtbDuJAgMBAAGjgY8wgYwwFgYJYIZIAYb4QgENBAkWB0NBIFJvb3QwHQYD
VR0OBBYEFMe9Nv9YVXaN3wcfb8h5PcMl3dmAMB8GA1UdIwQYMBaAFMe9Nv9YVXaN
3wcfb8h5PcMl3dmAMBIGA1UdEwEB/wQIMAYBAf8CAQEwCwYDVR0PBAQDAgEGMBEG
CWCGSAGG+EIBAQQEAwICBDANBgkqhkiG9w0BAQsFAAOCAgEAE5mGTN3qROwYNsHD
S5ixox/XDgTzYiUfB+onwiZ5dipjNARzhl81+fmoqrpFW2/FHEQl9A1kTRb4iIvb
F4voIiTYmlsMX+VtxOC+iXMqPcdWLqfGwkz6KZ2nXbS762fOrpSDBEpS4jFIU9tT
VBEqCFjTnvXtWp1QSs/r51KuvL5JkrzcW67cb1WXSB37qTXiXFcvQYtoeFS2WAF1
rTGBOvzawkFZUQAS6VyURYTy+PyowoQ31BLmsKUhMAbIRbxk283apPhO9Vsm05vt
iKFW/Jm7ls0D6FIviO3Ccj8MEIqxCFDBvwTWZZBiCpvoYeS+GuraaVAvAYdfORlu
/PhOOZiNxWvDLt8emYwxywA3r3ArEtw7wHZ3RVWVCW508eaKCK+7WE9FTu93s8N7
pFuYG+YZ4//3FJiVhYn14v9GcFngplG8belh6XQmZz0jQBWj1SAXu0d0Un6hD7J2
n+U7YMIkTiwV2wvPvobF8kJTXu7Ec9QI5CLfZSbSQpArfROmq1KpsWE32Z/gVql8
QlXxxfpWmv6wCBkwd60s2RV+2xA9eljoj7ngHPInCh+/GBPIVqPvs+v50K2zEGL+
kQJkC3uex/WCILDUdIjtKWK6Xaxp6t/jgrX/R4FmGrTZgIgabUj/2wctaMYoQV7a
BN839YO7d/MWR99Ti2at/yNA8KU=
-----END CERTIFICATE-----
