Certificate:
    Data:
        Version: 3 (0x2)
        Serial Number: 1 (0x1)
        Signature Algorithm: sha256WithRSAEncryption
        Issuer: C=fr, ST=idf, L=paris, O=vitamui, OU=authorities, CN=ca_root_server
        Validity
            Not Before: May  5 09:13:39 2020 GMT
            Not After : May  3 09:13:39 2030 GMT
        Subject: C=fr, ST=idf, L=paris, O=vitamui, OU=authorities, CN=ca_root_server
        Subject Public Key Info:
            Public Key Algorithm: rsaEncryption
                RSA Public-Key: (4096 bit)
                Modulus:
                    00:da:6e:48:80:4f:ab:34:e3:22:05:d3:c2:09:d4:
                    57:63:b0:93:ae:c2:89:69:0f:de:9f:14:27:41:e9:
                    d9:cd:97:12:50:a5:d2:5f:0f:57:7c:ef:be:0e:1e:
                    7d:db:ae:d3:8a:2b:78:6e:87:f5:8d:ce:02:fd:2c:
                    91:82:f9:72:4e:57:46:7a:50:65:0f:ff:e7:cd:cb:
                    d7:77:7f:53:7e:f0:3e:8e:3d:97:ab:e5:04:18:03:
                    74:89:65:5a:de:3b:f8:b0:8a:90:96:4d:05:98:c3:
                    91:e2:04:cb:30:e8:36:be:e6:52:7a:50:c0:0d:af:
                    72:5b:f5:34:fb:f5:16:62:87:df:32:1e:6d:f6:33:
                    08:0b:13:83:34:ff:92:77:4f:eb:76:ff:38:bf:62:
                    f9:29:d3:41:74:58:17:b2:37:3c:e8:45:f6:cc:cd:
                    e5:00:de:e1:7e:70:9d:d0:21:66:3b:99:1e:8c:72:
                    a5:68:95:74:0a:27:44:bf:4a:7e:44:35:2a:0c:49:
                    23:44:86:3f:23:64:b6:3b:96:3a:4f:15:13:25:e0:
                    2d:90:c8:ff:b2:ee:10:b4:c4:a9:97:5f:68:2e:77:
                    9e:70:62:65:68:30:28:85:c2:9f:08:f5:c1:fe:7b:
                    15:12:93:6d:58:d6:e6:3e:24:b5:6a:38:36:46:8f:
                    35:8a:27:b2:0d:9e:aa:eb:92:ad:d9:08:d5:22:d5:
                    35:d1:f6:3c:59:80:1c:0f:0f:72:98:3d:03:3c:c5:
                    e8:81:45:12:b3:8f:99:4a:06:f0:14:07:94:5a:43:
                    a3:88:8a:d4:d4:04:c4:bf:ab:ed:72:7d:ec:8b:bf:
                    50:e2:96:32:6f:ad:1d:ed:42:22:00:2d:1e:ba:9d:
                    c7:c3:e1:31:75:a3:75:fe:40:db:4d:87:16:3e:b4:
                    0a:dc:64:37:3d:73:92:7a:ed:b2:95:bc:eb:46:b6:
                    7f:c5:e1:1d:ec:fb:e8:5b:35:35:81:a1:3a:af:9e:
                    a7:3c:26:b9:34:72:e4:3d:81:18:b0:45:fb:6f:8a:
                    23:6b:d7:c2:af:a2:94:ed:f9:55:61:83:50:ad:5e:
                    d8:7f:45:32:1e:ba:c5:fc:c0:a9:ac:d2:5e:14:67:
                    2d:45:b3:ec:7c:dc:ea:15:ff:cc:ec:41:a7:99:2e:
                    60:0b:51:b9:7b:1b:a2:db:18:f4:f6:d3:88:9e:37:
                    77:59:2b:b5:90:22:a1:86:04:f7:e6:11:53:05:13:
                    56:17:ed:5a:1e:b8:40:57:18:4f:de:3d:27:c7:24:
                    d2:4f:42:b9:10:49:0a:07:47:5d:1f:cb:cf:eb:86:
                    ca:62:c9:50:74:fa:57:fe:f8:e7:15:41:ca:0f:89:
                    ae:7d:69
                Exponent: 65537 (0x10001)
        X509v3 extensions:
            Netscape Comment: 
                CA Root
            X509v3 Subject Key Identifier: 
                57:A4:F9:F5:76:E1:14:88:0A:AB:3A:64:87:DA:A3:41:16:1C:59:DE
            X509v3 Authority Key Identifier: 
                keyid:57:A4:F9:F5:76:E1:14:88:0A:AB:3A:64:87:DA:A3:41:16:1C:59:DE

            X509v3 Basic Constraints: critical
                CA:TRUE, pathlen:1
            X509v3 Key Usage: 
                Certificate Sign, CRL Sign
            Netscape Cert Type: 
                SSL CA
    Signature Algorithm: sha256WithRSAEncryption
         17:49:1d:33:7b:48:e5:58:9b:b5:d5:85:50:3a:71:c6:81:6b:
         0c:62:c2:6e:b8:f8:b9:8f:9c:83:f2:c6:6d:f8:ca:bd:8f:e4:
         54:5f:5b:50:ef:05:4b:21:a0:96:4f:f2:4c:1d:1f:aa:19:05:
         8d:1c:86:7f:11:53:7c:21:66:66:05:8d:78:b3:da:53:da:9e:
         cd:a3:af:7e:f9:59:93:a0:31:f4:25:37:c5:33:18:ed:eb:a7:
         bb:35:9c:d5:1b:0e:83:11:9b:72:89:3f:c4:3d:7b:b7:d0:d7:
         0e:a2:fd:81:56:e6:11:3a:2d:e9:4e:bc:59:7a:b2:a5:7d:db:
         26:da:01:a2:95:df:84:02:68:36:04:c1:48:0b:54:92:a2:a8:
         6f:43:18:72:9c:eb:3d:b3:d4:73:34:c5:29:4a:4e:9b:4a:6a:
         43:06:16:4d:91:b6:85:a2:34:60:1f:4c:64:34:b6:ce:b4:b6:
         56:2b:76:19:72:f3:0b:d5:08:63:d1:ca:92:75:19:8a:13:8c:
         56:e1:20:69:28:58:79:ca:fc:59:e5:64:87:1f:58:7e:98:ba:
         36:b0:64:e8:fa:28:16:6f:0a:7c:b6:11:49:6f:4f:93:72:bb:
         be:25:75:fa:5a:c9:c4:34:6d:32:8a:61:88:8a:f6:df:17:98:
         61:c5:bd:58:8f:30:eb:d6:03:75:92:a2:fe:2b:d2:76:87:55:
         ca:9e:2a:de:e6:d5:34:67:68:1a:b1:47:90:28:73:ab:32:41:
         98:2a:13:15:e0:7a:9c:46:a4:af:e5:83:23:08:7a:9c:da:50:
         4e:a5:bf:4e:68:6d:84:2e:8e:e4:ab:94:0d:f1:1a:7e:dc:df:
         0f:ab:f8:f2:db:9b:2b:a1:4b:62:e7:38:23:25:d9:31:b8:4d:
         3d:4e:41:56:9d:f0:55:72:8c:fd:f6:4b:fd:93:b1:ec:8b:ae:
         50:1b:00:5c:35:ce:b0:da:55:82:01:86:dd:c1:06:51:ae:0b:
         ef:fa:ed:e5:09:6a:32:ac:cc:7f:d5:b8:08:b6:9a:ba:4f:5b:
         52:3a:15:ee:ec:20:7a:dc:3e:05:69:58:14:af:dd:9c:df:6d:
         95:a5:39:05:24:a2:5e:06:71:23:2b:b6:61:d4:f0:46:1f:4c:
         52:df:5a:22:6a:ff:17:72:4b:f5:a6:89:40:bd:1c:e8:75:69:
         e3:34:ab:2c:c3:3b:07:49:2c:f8:c8:47:72:dd:7e:2c:b9:52:
         db:76:19:46:14:aa:64:ba:30:67:a9:4f:37:f8:7f:38:c8:4c:
         1f:21:0d:28:08:85:0d:8a:c2:ae:b8:64:35:f7:7f:1b:9d:c4:
         b3:4c:6b:ef:29:29:38:e0
-----BEGIN CERTIFICATE-----
MIIF4zCCA8ugAwIBAgIBATANBgkqhkiG9w0BAQsFADBsMQswCQYDVQQGEwJmcjEM
MAoGA1UECAwDaWRmMQ4wDAYDVQQHDAVwYXJpczEQMA4GA1UECgwHdml0YW11aTEU
MBIGA1UECwwLYXV0aG9yaXRpZXMxFzAVBgNVBAMMDmNhX3Jvb3Rfc2VydmVyMB4X
DTIwMDUwNTA5MTMzOVoXDTMwMDUwMzA5MTMzOVowbDELMAkGA1UEBhMCZnIxDDAK
BgNVBAgMA2lkZjEOMAwGA1UEBwwFcGFyaXMxEDAOBgNVBAoMB3ZpdGFtdWkxFDAS
BgNVBAsMC2F1dGhvcml0aWVzMRcwFQYDVQQDDA5jYV9yb290X3NlcnZlcjCCAiIw
DQYJKoZIhvcNAQEBBQADggIPADCCAgoCggIBANpuSIBPqzTjIgXTwgnUV2Owk67C
iWkP3p8UJ0Hp2c2XElCl0l8PV3zvvg4efduu04oreG6H9Y3OAv0skYL5ck5XRnpQ
ZQ//583L13d/U37wPo49l6vlBBgDdIllWt47+LCKkJZNBZjDkeIEyzDoNr7mUnpQ
wA2vclv1NPv1FmKH3zIebfYzCAsTgzT/kndP63b/OL9i+SnTQXRYF7I3POhF9szN
5QDe4X5wndAhZjuZHoxypWiVdAonRL9KfkQ1KgxJI0SGPyNktjuWOk8VEyXgLZDI
/7LuELTEqZdfaC53nnBiZWgwKIXCnwj1wf57FRKTbVjW5j4ktWo4NkaPNYonsg2e
quuSrdkI1SLVNdH2PFmAHA8Pcpg9AzzF6IFFErOPmUoG8BQHlFpDo4iK1NQExL+r
7XJ97Iu/UOKWMm+tHe1CIgAtHrqdx8PhMXWjdf5A202HFj60CtxkNz1zknrtspW8
60a2f8XhHez76Fs1NYGhOq+epzwmuTRy5D2BGLBF+2+KI2vXwq+ilO35VWGDUK1e
2H9FMh66xfzAqazSXhRnLUWz7Hzc6hX/zOxBp5kuYAtRuXsbotsY9PbTiJ43d1kr
tZAioYYE9+YRUwUTVhftWh64QFcYT949J8ck0k9CuRBJCgdHXR/Lz+uGymLJUHT6
V/745xVByg+Jrn1pAgMBAAGjgY8wgYwwFgYJYIZIAYb4QgENBAkWB0NBIFJvb3Qw
HQYDVR0OBBYEFFek+fV24RSICqs6ZIfao0EWHFneMB8GA1UdIwQYMBaAFFek+fV2
4RSICqs6ZIfao0EWHFneMBIGA1UdEwEB/wQIMAYBAf8CAQEwCwYDVR0PBAQDAgEG
MBEGCWCGSAGG+EIBAQQEAwICBDANBgkqhkiG9w0BAQsFAAOCAgEAF0kdM3tI5Vib
tdWFUDpxxoFrDGLCbrj4uY+cg/LGbfjKvY/kVF9bUO8FSyGglk/yTB0fqhkFjRyG
fxFTfCFmZgWNeLPaU9qezaOvfvlZk6Ax9CU3xTMY7eunuzWc1RsOgxGbcok/xD17
t9DXDqL9gVbmETot6U68WXqypX3bJtoBopXfhAJoNgTBSAtUkqKob0MYcpzrPbPU
czTFKUpOm0pqQwYWTZG2haI0YB9MZDS2zrS2Vit2GXLzC9UIY9HKknUZihOMVuEg
aShYecr8WeVkhx9Yfpi6NrBk6PooFm8KfLYRSW9Pk3K7viV1+lrJxDRtMophiIr2
3xeYYcW9WI8w69YDdZKi/ivSdodVyp4q3ubVNGdoGrFHkChzqzJBmCoTFeB6nEak
r+WDIwh6nNpQTqW/TmhthC6O5KuUDfEaftzfD6v48tubK6FLYuc4IyXZMbhNPU5B
Vp3wVXKM/fZL/ZOx7IuuUBsAXDXOsNpVggGG3cEGUa4L7/rt5QlqMqzMf9W4CLaa
uk9bUjoV7uwgetw+BWlYFK/dnN9tlaU5BSSiXgZxIyu2YdTwRh9MUt9aImr/F3JL
9aaJQL0c6HVp4zSrLMM7B0ks+MhHct1+LLlS23YZRhSqZLowZ6lPN/h/OMhMHyEN
KAiFDYrCrrhkNfd/G53Es0xr7ykpOOA=
-----END CERTIFICATE-----
