Certificate:
    Data:
        Version: 3 (0x2)
        Serial Number: 1 (0x1)
        Signature Algorithm: sha256WithRSAEncryption
        Issuer: C=fr, ST=idf, L=paris, O=vitamui, OU=authorities, CN=ca_root_server
        Validity
            Not Before: Apr 21 08:36:25 2020 GMT
            Not After : Apr 19 08:36:25 2030 GMT
        Subject: C=fr, ST=idf, L=paris, O=vitamui, OU=authorities, CN=ca_root_server
        Subject Public Key Info:
            Public Key Algorithm: rsaEncryption
                RSA Public-Key: (4096 bit)
                Modulus:
                    00:bd:83:9d:4c:09:7d:be:73:eb:b8:88:24:6c:94:
                    1f:28:7a:2d:de:7c:f1:97:80:c2:44:e9:14:12:3b:
                    f5:75:de:22:e2:21:7b:4e:0a:01:e5:2d:d8:e6:f4:
                    d6:e0:a6:47:c9:66:37:8a:85:5f:fa:63:29:0b:43:
                    9e:1f:68:ab:eb:e2:a9:39:c4:3c:8a:9d:6f:aa:0e:
                    65:1a:64:7d:b9:ec:78:36:4e:b1:82:e6:58:72:87:
                    3c:f2:24:d8:86:48:5d:0c:89:b4:bd:13:9a:ff:d0:
                    c4:af:12:a0:b8:dc:87:28:18:34:f5:fc:f6:f2:41:
                    96:75:e3:d1:32:1f:e0:6d:38:e5:c5:2a:45:80:86:
                    89:2f:8a:55:cc:a9:e5:3d:25:90:97:ce:0c:07:9b:
                    1d:83:a2:f9:1a:48:9c:62:71:91:4f:f0:7e:0a:60:
                    0c:11:18:d3:c1:4c:00:f2:06:8c:c6:ae:5a:c6:d5:
                    00:c0:2d:2b:12:fa:91:44:2b:86:27:cb:27:3a:9c:
                    46:64:93:32:30:a6:91:80:b1:f0:55:1d:8f:f5:0b:
                    38:85:b9:92:8f:e3:15:70:de:4f:90:e0:d7:c2:c5:
                    d1:a9:06:a5:4e:e2:03:d0:4a:dc:0a:27:8f:6d:08:
                    6f:fe:6d:83:d9:7a:f4:07:93:21:f2:02:d3:ae:11:
                    fd:1a:e6:78:a1:98:6e:9e:fb:da:6d:e2:ee:89:52:
                    9f:51:85:96:40:28:b5:21:12:98:90:65:b8:23:87:
                    81:ad:c6:1b:75:63:f3:35:6b:98:5f:2b:f3:f1:6b:
                    18:e7:a4:35:ff:59:43:ad:dd:1b:8d:da:44:98:84:
                    f3:f1:ad:7b:bd:d5:45:e9:b3:a5:1e:03:d8:73:d0:
                    7c:13:48:98:b3:a7:b0:da:63:fb:65:41:25:25:64:
                    66:d7:5a:32:cd:02:bc:8f:aa:58:0e:22:9e:e2:4b:
                    d1:d4:09:48:28:d1:1e:90:ea:84:8a:fe:8d:1b:96:
                    6d:df:6f:56:7e:9e:3a:1e:e5:67:66:ec:fb:40:80:
                    eb:0b:18:9b:4c:18:26:7e:e8:ec:ff:17:d6:26:fd:
                    57:cf:f1:23:3d:36:71:3d:0a:3a:17:0d:bc:f9:2b:
                    48:4c:76:d8:a9:fd:38:4c:4f:52:74:05:fb:ab:37:
                    c8:b9:74:11:37:4d:8a:b2:50:50:64:e4:44:1d:bc:
                    f8:98:7d:62:84:c8:4d:48:29:9e:8c:3a:ed:a3:d7:
                    94:6f:05:ef:ce:73:a5:a0:2d:e4:0c:5a:39:77:03:
                    b6:23:76:df:6c:20:4d:98:3e:f4:09:0d:5c:3c:21:
                    c4:78:a1:9a:96:77:19:5a:18:2a:dd:83:6d:57:00:
                    f9:72:8f
                Exponent: 65537 (0x10001)
        X509v3 extensions:
            Netscape Comment: 
                CA Root
            X509v3 Subject Key Identifier: 
                C2:E8:30:F1:37:9C:44:C8:CA:BB:E0:6B:F2:B5:DF:2C:7E:27:A5:36
            X509v3 Authority Key Identifier: 
                keyid:C2:E8:30:F1:37:9C:44:C8:CA:BB:E0:6B:F2:B5:DF:2C:7E:27:A5:36

            X509v3 Basic Constraints: critical
                CA:TRUE, pathlen:1
            X509v3 Key Usage: 
                Certificate Sign, CRL Sign
            Netscape Cert Type: 
                SSL CA
    Signature Algorithm: sha256WithRSAEncryption
         bd:72:00:45:f6:e9:c3:1b:9f:cb:dc:71:f3:35:6f:db:a6:e6:
         3d:b5:94:73:04:55:c1:ac:0f:3f:b9:af:ea:74:79:13:6f:94:
         45:0e:05:30:e8:f2:73:6f:42:dc:8c:3f:6a:ef:45:06:b7:e3:
         12:6d:75:60:6f:5c:71:4f:db:d2:af:65:21:ad:26:e9:d9:67:
         ae:b6:9d:3c:f2:1b:1f:84:0b:92:df:4f:e2:8b:43:ce:9f:88:
         83:1c:8d:2a:bf:e2:c1:93:5d:a8:52:42:e1:88:61:16:95:34:
         2f:02:c2:cf:d2:70:fb:15:49:e7:f0:97:43:46:b8:74:db:46:
         fb:69:c0:e6:1a:d9:f4:d4:75:56:58:d8:63:2e:7a:15:26:a6:
         9b:ae:45:e6:99:43:92:95:f3:f3:85:eb:05:5b:94:c5:af:e8:
         02:bb:6b:bd:4d:02:e3:fd:25:67:58:0d:4e:29:fc:9d:a6:f7:
         21:7a:7d:14:18:b4:a0:04:34:e3:d2:b6:66:44:12:c9:5c:dd:
         b9:88:f1:f9:d0:a4:31:0a:63:2c:9b:d8:33:3c:4c:7a:05:67:
         e5:e9:22:5d:73:3d:ca:48:34:1e:60:21:63:25:ec:d7:e8:fd:
         6a:9d:36:00:18:ad:43:5f:39:52:39:07:8d:e3:f6:db:1e:aa:
         23:3a:ef:db:c5:ae:b7:af:ce:1b:aa:f6:31:69:26:01:b4:cb:
         79:69:eb:53:87:bf:22:a0:09:0a:78:e4:2e:96:9f:ae:4e:3f:
         fb:8e:0d:46:47:03:4e:5a:51:36:1f:8a:f8:aa:c4:ef:49:25:
         db:36:b1:a7:90:4f:b0:b6:16:68:e0:bd:c9:2d:e8:7c:91:97:
         be:5c:fa:4f:1d:68:d3:dc:74:f7:ce:d8:9d:ec:f5:c6:1f:ad:
         d9:94:87:0a:14:04:31:21:cc:f6:41:47:58:89:d7:f6:88:11:
         c6:8b:fc:d5:27:c3:20:c2:47:df:02:b0:8b:52:06:a3:36:e8:
         75:39:9f:3f:16:50:88:6c:48:11:49:cb:30:f7:e9:e5:a1:27:
         f9:59:01:2b:6c:89:76:9f:85:4d:50:44:6a:95:3d:64:4f:e6:
         a2:d0:12:df:47:07:d3:43:aa:89:18:d0:22:fa:8a:e8:30:75:
         be:03:bb:6a:fb:82:31:e6:c5:c4:2e:56:11:ae:7f:f2:de:8b:
         83:1a:1a:3c:ce:01:ca:ec:68:b8:eb:94:31:36:a8:3d:d4:7c:
         3f:66:fe:c5:43:20:b3:5c:e2:73:88:25:8b:56:c2:62:4e:ad:
         ae:73:3f:6e:ed:a0:b6:23:aa:02:cd:ab:23:3c:b0:7f:a6:b4:
         68:49:02:4d:a0:3f:8b:4f
-----BEGIN CERTIFICATE-----
MIIF4zCCA8ugAwIBAgIBATANBgkqhkiG9w0BAQsFADBsMQswCQYDVQQGEwJmcjEM
MAoGA1UECAwDaWRmMQ4wDAYDVQQHDAVwYXJpczEQMA4GA1UECgwHdml0YW11aTEU
MBIGA1UECwwLYXV0aG9yaXRpZXMxFzAVBgNVBAMMDmNhX3Jvb3Rfc2VydmVyMB4X
DTIwMDQyMTA4MzYyNVoXDTMwMDQxOTA4MzYyNVowbDELMAkGA1UEBhMCZnIxDDAK
BgNVBAgMA2lkZjEOMAwGA1UEBwwFcGFyaXMxEDAOBgNVBAoMB3ZpdGFtdWkxFDAS
BgNVBAsMC2F1dGhvcml0aWVzMRcwFQYDVQQDDA5jYV9yb290X3NlcnZlcjCCAiIw
DQYJKoZIhvcNAQEBBQADggIPADCCAgoCggIBAL2DnUwJfb5z67iIJGyUHyh6Ld58
8ZeAwkTpFBI79XXeIuIhe04KAeUt2Ob01uCmR8lmN4qFX/pjKQtDnh9oq+viqTnE
PIqdb6oOZRpkfbnseDZOsYLmWHKHPPIk2IZIXQyJtL0Tmv/QxK8SoLjchygYNPX8
9vJBlnXj0TIf4G045cUqRYCGiS+KVcyp5T0lkJfODAebHYOi+RpInGJxkU/wfgpg
DBEY08FMAPIGjMauWsbVAMAtKxL6kUQrhifLJzqcRmSTMjCmkYCx8FUdj/ULOIW5
ko/jFXDeT5Dg18LF0akGpU7iA9BK3Aonj20Ib/5tg9l69AeTIfIC064R/RrmeKGY
bp772m3i7olSn1GFlkAotSESmJBluCOHga3GG3Vj8zVrmF8r8/FrGOekNf9ZQ63d
G43aRJiE8/Gte73VRemzpR4D2HPQfBNImLOnsNpj+2VBJSVkZtdaMs0CvI+qWA4i
nuJL0dQJSCjRHpDqhIr+jRuWbd9vVn6eOh7lZ2bs+0CA6wsYm0wYJn7o7P8X1ib9
V8/xIz02cT0KOhcNvPkrSEx22Kn9OExPUnQF+6s3yLl0ETdNirJQUGTkRB28+Jh9
YoTITUgpnow67aPXlG8F785zpaAt5AxaOXcDtiN232wgTZg+9AkNXDwhxHihmpZ3
GVoYKt2DbVcA+XKPAgMBAAGjgY8wgYwwFgYJYIZIAYb4QgENBAkWB0NBIFJvb3Qw
HQYDVR0OBBYEFMLoMPE3nETIyrvga/K13yx+J6U2MB8GA1UdIwQYMBaAFMLoMPE3
nETIyrvga/K13yx+J6U2MBIGA1UdEwEB/wQIMAYBAf8CAQEwCwYDVR0PBAQDAgEG
MBEGCWCGSAGG+EIBAQQEAwICBDANBgkqhkiG9w0BAQsFAAOCAgEAvXIARfbpwxuf
y9xx8zVv26bmPbWUcwRVwawPP7mv6nR5E2+URQ4FMOjyc29C3Iw/au9FBrfjEm11
YG9ccU/b0q9lIa0m6dlnrradPPIbH4QLkt9P4otDzp+IgxyNKr/iwZNdqFJC4Yhh
FpU0LwLCz9Jw+xVJ5/CXQ0a4dNtG+2nA5hrZ9NR1VljYYy56FSamm65F5plDkpXz
84XrBVuUxa/oArtrvU0C4/0lZ1gNTin8nab3IXp9FBi0oAQ049K2ZkQSyVzduYjx
+dCkMQpjLJvYMzxMegVn5ekiXXM9ykg0HmAhYyXs1+j9ap02ABitQ185UjkHjeP2
2x6qIzrv28Wut6/OG6r2MWkmAbTLeWnrU4e/IqAJCnjkLpafrk4/+44NRkcDTlpR
Nh+K+KrE70kl2zaxp5BPsLYWaOC9yS3ofJGXvlz6Tx1o09x0987Ynez1xh+t2ZSH
ChQEMSHM9kFHWInX9ogRxov81SfDIMJH3wKwi1IGozbodTmfPxZQiGxIEUnLMPfp
5aEn+VkBK2yJdp+FTVBEapU9ZE/motAS30cH00OqiRjQIvqK6DB1vgO7avuCMebF
xC5WEa5/8t6LgxoaPM4ByuxouOuUMTaoPdR8P2b+xUMgs1zic4gli1bCYk6trnM/
bu2gtiOqAs2rIzywf6a0aEkCTaA/i08=
-----END CERTIFICATE-----
