Certificate:
    Data:
        Version: 3 (0x2)
        Serial Number: 2 (0x2)
        Signature Algorithm: sha256WithRSAEncryption
        Issuer: C=fr, ST=idf, L=paris, O=vitamui, OU=authorities, CN=ca_root_server
        Validity
            Not Before: May  5 12:15:14 2020 GMT
            Not After : May  3 12:15:14 2030 GMT
        Subject: C=fr, ST=idf, L=paris, O=vitamui, OU=authorities, CN=ca_intermediate_server
        Subject Public Key Info:
            Public Key Algorithm: rsaEncryption
                RSA Public-Key: (4096 bit)
                Modulus:
                    00:9b:fe:7a:8f:5b:46:ed:9c:02:30:9c:cd:c2:cb:
                    6c:54:be:c2:03:5f:2d:da:f1:e1:cc:de:6c:44:e5:
                    bc:95:2f:a1:cb:d2:90:46:2d:2b:12:84:2b:92:20:
                    0b:26:6d:fe:be:a3:92:30:e9:56:87:b0:25:78:a4:
                    f4:12:01:72:d6:09:d9:09:75:2f:0d:9a:cb:29:8a:
                    eb:95:0a:d1:7e:f1:5a:93:fc:ce:66:6d:8c:79:75:
                    f8:2f:84:4d:cd:91:07:03:45:74:d8:cd:4f:8f:af:
                    df:3a:bd:60:6c:c5:20:67:fe:73:b7:c8:52:8b:10:
                    9f:ae:a0:f2:42:4f:09:fe:f3:dc:3f:8d:05:a2:26:
                    ca:2b:7d:44:6f:e4:ba:b1:c6:51:cf:1c:4a:d6:5a:
                    c0:30:96:9a:da:64:34:07:7e:1f:d0:f2:58:0b:53:
                    4c:f3:7f:bf:82:01:9b:65:10:13:19:f0:8b:ae:69:
                    7a:8e:97:2b:b6:2c:27:2d:55:dd:c5:1b:04:62:51:
                    df:90:cc:d4:6e:25:af:da:8b:fc:07:64:59:cd:1f:
                    22:6b:48:96:de:95:89:33:b2:74:89:87:23:92:6d:
                    2c:63:17:ad:6a:88:ff:eb:1e:c8:34:dd:c8:1c:cb:
                    00:9c:0e:1b:12:66:29:97:cf:1f:d3:d3:b1:7a:40:
                    f2:b0:f9:33:c3:2a:34:42:3b:49:7a:1b:7c:a2:68:
                    c3:fc:fd:46:02:fc:86:a6:53:23:6c:6b:5f:74:82:
                    c9:72:0e:79:30:9b:9a:7a:41:6e:f0:2a:ae:a2:3f:
                    3d:58:df:57:09:ca:b6:9e:66:eb:c6:79:aa:d3:e6:
                    4e:59:98:f4:cc:fc:64:43:7e:4a:a4:16:a9:91:fa:
                    21:ce:ea:14:8d:2e:01:a1:6e:95:54:a6:45:07:1e:
                    42:37:89:65:f6:0f:2a:20:73:9e:a7:a7:95:09:5f:
                    ce:29:6d:3d:9f:f8:3c:14:c5:3f:bd:58:05:21:e6:
                    e6:b3:6d:fd:b1:e0:48:79:1c:85:e5:ab:56:2e:68:
                    74:76:a8:fd:a2:e7:f3:9e:f7:9a:d8:31:c6:c4:f2:
                    60:da:c2:2d:fb:26:bd:0d:05:de:9f:86:6e:ba:ca:
                    d9:1a:97:68:49:12:fd:ab:5c:af:1a:55:bf:05:83:
                    07:b2:6e:67:4f:e5:e5:a4:3e:33:8c:95:5c:4a:76:
                    62:b2:3d:5e:69:f5:12:02:27:6c:e6:5c:60:94:3f:
                    dd:69:db:54:86:d7:81:6d:e7:a7:3c:f8:12:17:14:
                    5f:5b:c5:09:f5:8b:37:13:3c:57:c7:c2:df:14:a8:
                    af:81:06:da:30:66:11:ac:c4:a7:82:08:eb:69:5d:
                    fa:c7:97
                Exponent: 65537 (0x10001)
        X509v3 extensions:
            Netscape Comment: 
                CA Intermediate
            X509v3 Subject Key Identifier: 
                A7:75:58:7C:4C:0E:3A:13:58:BE:6C:0E:F1:23:49:5C:67:21:1F:02
            X509v3 Authority Key Identifier: 
                keyid:62:6C:E9:38:13:97:E8:FC:72:44:77:E6:0F:C7:84:11:D9:9C:EC:6E
                DirName:/C=fr/ST=idf/L=paris/O=vitamui/OU=authorities/CN=ca_root_server
                serial:01

            X509v3 Basic Constraints: critical
                CA:TRUE, pathlen:0
            X509v3 Issuer Alternative Name: 
                <EMPTY>

            X509v3 Key Usage: 
                Certificate Sign, CRL Sign
            Netscape Cert Type: 
                SSL CA
    Signature Algorithm: sha256WithRSAEncryption
         29:3f:1a:f6:dd:3e:c4:67:e4:b2:bb:7a:78:14:45:62:57:9b:
         af:5b:73:36:3c:07:e1:11:68:99:50:ac:7f:1c:58:3a:84:1c:
         80:a8:fe:de:84:02:d3:43:e0:8d:aa:4b:0e:9d:66:6e:b7:c4:
         e3:84:47:89:5a:b4:95:d5:68:aa:68:61:36:21:d9:25:9a:10:
         5c:8b:4c:0a:ab:91:12:42:4c:52:a1:63:fc:21:a7:05:30:ef:
         79:12:1c:19:2c:fc:ef:77:38:3b:3f:81:ad:92:72:83:5b:07:
         dc:4a:0a:66:3a:0c:5f:43:a2:38:e0:4c:ea:8c:f1:96:70:c5:
         b0:8a:fe:90:7a:0f:b6:8a:47:80:58:ba:e8:a2:6b:a5:8d:7d:
         e5:49:d8:1a:bd:8f:08:8e:6f:a3:fa:e0:f3:ca:45:f8:82:19:
         62:86:e5:20:2d:ab:f6:ea:29:bc:b8:d6:99:70:c2:ac:2c:49:
         5e:19:4f:99:b2:7f:7e:10:a6:ab:5c:56:f3:50:5b:b4:a1:6a:
         74:77:78:86:d1:e5:27:48:18:68:dd:24:b7:64:3b:34:bc:93:
         db:6c:56:8f:fd:51:6d:70:81:ff:87:30:d7:71:d0:28:6d:a1:
         3b:ca:62:a5:13:f9:3d:59:5e:20:4e:cc:9d:0b:1a:3b:77:2f:
         8e:f6:c1:d6:05:58:71:b1:ed:22:c4:72:5e:39:07:38:7e:b4:
         01:80:ff:c5:d0:8d:62:61:c2:86:ce:27:d5:dc:e8:f9:52:e8:
         14:e7:8d:ba:e7:45:29:c6:83:93:7c:19:42:e4:7f:11:4d:ce:
         66:55:39:2f:0f:18:74:e2:6e:50:de:3c:19:bc:c6:f2:9a:fb:
         d0:a9:f6:d5:f2:7b:42:0c:b7:cb:a8:5c:2a:d3:77:45:6f:e6:
         5f:6b:ba:e1:96:9b:4e:97:88:b7:e9:6e:0b:6d:c4:df:82:8c:
         ec:49:96:d4:c7:f6:d6:eb:c2:93:ec:8a:89:1d:df:9f:11:72:
         73:df:fa:06:42:37:a3:94:93:54:94:40:ee:0a:83:c4:3a:9a:
         8d:bc:9f:b9:69:d0:2a:5a:ec:2a:33:40:26:bf:d1:6b:a4:9b:
         9a:7a:48:07:74:47:c1:21:6d:71:25:26:3d:d8:c4:51:22:dd:
         96:88:c3:07:b0:85:a2:d7:5d:ad:3e:08:c9:bc:31:34:77:0b:
         3b:30:51:d7:f9:df:a9:e3:58:51:28:ba:b8:17:85:a2:3c:c2:
         41:2b:a8:47:be:58:bb:82:7f:c1:b1:90:4d:dc:4e:d3:7d:cb:
         27:4c:ea:b4:18:6c:a7:4b:f4:5e:ea:ec:30:c0:08:34:d9:0f:
         f5:31:0a:9f:e1:23:ab:62
-----BEGIN CERTIFICATE-----
MIIGeDCCBGCgAwIBAgIBAjANBgkqhkiG9w0BAQsFADBsMQswCQYDVQQGEwJmcjEM
MAoGA1UECAwDaWRmMQ4wDAYDVQQHDAVwYXJpczEQMA4GA1UECgwHdml0YW11aTEU
MBIGA1UECwwLYXV0aG9yaXRpZXMxFzAVBgNVBAMMDmNhX3Jvb3Rfc2VydmVyMB4X
DTIwMDUwNTEyMTUxNFoXDTMwMDUwMzEyMTUxNFowdDELMAkGA1UEBhMCZnIxDDAK
BgNVBAgMA2lkZjEOMAwGA1UEBwwFcGFyaXMxEDAOBgNVBAoMB3ZpdGFtdWkxFDAS
BgNVBAsMC2F1dGhvcml0aWVzMR8wHQYDVQQDDBZjYV9pbnRlcm1lZGlhdGVfc2Vy
dmVyMIICIjANBgkqhkiG9w0BAQEFAAOCAg8AMIICCgKCAgEAm/56j1tG7ZwCMJzN
wstsVL7CA18t2vHhzN5sROW8lS+hy9KQRi0rEoQrkiALJm3+vqOSMOlWh7AleKT0
EgFy1gnZCXUvDZrLKYrrlQrRfvFak/zOZm2MeXX4L4RNzZEHA0V02M1Pj6/fOr1g
bMUgZ/5zt8hSixCfrqDyQk8J/vPcP40FoibKK31Eb+S6scZRzxxK1lrAMJaa2mQ0
B34f0PJYC1NM83+/ggGbZRATGfCLrml6jpcrtiwnLVXdxRsEYlHfkMzUbiWv2ov8
B2RZzR8ia0iW3pWJM7J0iYcjkm0sYxetaoj/6x7INN3IHMsAnA4bEmYpl88f09Ox
ekDysPkzwyo0QjtJeht8omjD/P1GAvyGplMjbGtfdILJcg55MJuaekFu8Cquoj89
WN9XCcq2nmbrxnmq0+ZOWZj0zPxkQ35KpBapkfohzuoUjS4BoW6VVKZFBx5CN4ll
9g8qIHOep6eVCV/OKW09n/g8FMU/vVgFIebms239seBIeRyF5atWLmh0dqj9oufz
nvea2DHGxPJg2sIt+ya9DQXen4ZuusrZGpdoSRL9q1yvGlW/BYMHsm5nT+XlpD4z
jJVcSnZisj1eafUSAids5lxglD/dadtUhteBbeenPPgSFxRfW8UJ9Ys3EzxXx8Lf
FKivgQbaMGYRrMSnggjraV36x5cCAwEAAaOCARswggEXMB4GCWCGSAGG+EIBDQQR
Fg9DQSBJbnRlcm1lZGlhdGUwHQYDVR0OBBYEFKd1WHxMDjoTWL5sDvEjSVxnIR8C
MIGWBgNVHSMEgY4wgYuAFGJs6TgTl+j8ckR35g/HhBHZnOxuoXCkbjBsMQswCQYD
VQQGEwJmcjEMMAoGA1UECAwDaWRmMQ4wDAYDVQQHDAVwYXJpczEQMA4GA1UECgwH
dml0YW11aTEUMBIGA1UECwwLYXV0aG9yaXRpZXMxFzAVBgNVBAMMDmNhX3Jvb3Rf
c2VydmVyggEBMBIGA1UdEwEB/wQIMAYBAf8CAQAwCQYDVR0SBAIwADALBgNVHQ8E
BAMCAQYwEQYJYIZIAYb4QgEBBAQDAgIEMA0GCSqGSIb3DQEBCwUAA4ICAQApPxr2
3T7EZ+Syu3p4FEViV5uvW3M2PAfhEWiZUKx/HFg6hByAqP7ehALTQ+CNqksOnWZu
t8TjhEeJWrSV1WiqaGE2IdklmhBci0wKq5ESQkxSoWP8IacFMO95EhwZLPzvdzg7
P4GtknKDWwfcSgpmOgxfQ6I44EzqjPGWcMWwiv6Qeg+2ikeAWLroomuljX3lSdga
vY8Ijm+j+uDzykX4ghlihuUgLav26im8uNaZcMKsLEleGU+Zsn9+EKarXFbzUFu0
oWp0d3iG0eUnSBho3SS3ZDs0vJPbbFaP/VFtcIH/hzDXcdAobaE7ymKlE/k9WV4g
TsydCxo7dy+O9sHWBVhxse0ixHJeOQc4frQBgP/F0I1iYcKGzifV3Oj5UugU5426
50UpxoOTfBlC5H8RTc5mVTkvDxh04m5Q3jwZvMbymvvQqfbV8ntCDLfLqFwq03dF
b+Zfa7rhlptOl4i36W4LbcTfgozsSZbUx/bW68KT7IqJHd+fEXJz3/oGQjejlJNU
lEDuCoPEOpqNvJ+5adAqWuwqM0Amv9FrpJuaekgHdEfBIW1xJSY92MRRIt2WiMMH
sIWi112tPgjJvDE0dws7MFHX+d+p41hRKLq4F4WiPMJBK6hHvli7gn/BsZBN3E7T
fcsnTOq0GGynS/Re6uwwwAg02Q/1MQqf4SOrYg==
-----END CERTIFICATE-----
