Certificate:
    Data:
        Version: 3 (0x2)
        Serial Number: 1 (0x1)
        Signature Algorithm: sha256WithRSAEncryption
        Issuer: C=fr, ST=idf, L=paris, O=vitamui, OU=authorities, CN=ca_root_server
        Validity
            Not Before: May  5 12:15:12 2020 GMT
            Not After : May  3 12:15:12 2030 GMT
        Subject: C=fr, ST=idf, L=paris, O=vitamui, OU=authorities, CN=ca_root_server
        Subject Public Key Info:
            Public Key Algorithm: rsaEncryption
                RSA Public-Key: (4096 bit)
                Modulus:
                    00:a8:77:6c:76:96:08:23:97:9a:19:55:77:e1:9b:
                    9f:a2:23:ca:fc:1c:74:74:23:38:24:15:04:64:e7:
                    56:f6:e5:92:14:83:14:ee:78:d9:56:c9:0e:2a:c2:
                    67:71:4a:4f:8f:2f:e5:a9:1a:6c:de:e6:3b:da:15:
                    93:a2:4a:97:5a:0b:45:4a:4a:9e:94:9f:3a:b4:9a:
                    99:3b:08:de:07:13:0b:bb:c4:4d:1b:0b:32:3c:74:
                    03:12:bf:54:3b:63:ab:2c:de:af:e5:c7:14:cd:1c:
                    91:60:2b:7a:cd:eb:05:50:dc:f6:06:ae:91:f5:1b:
                    33:12:04:cb:55:45:ee:51:54:99:ce:e9:c1:00:58:
                    92:df:8a:44:30:89:8b:cc:9d:55:31:5e:72:56:22:
                    d6:d0:11:16:a8:06:c4:e7:3f:c2:4b:74:23:89:6d:
                    6e:04:7f:1e:26:59:73:74:86:29:2c:7a:50:9b:b8:
                    c6:13:43:12:91:53:cf:fb:5f:3d:22:2b:73:4e:7d:
                    c4:48:46:db:3d:4b:e1:69:bd:17:0c:3d:46:a3:8b:
                    52:f8:15:40:d1:9e:0b:7c:d9:82:ff:0e:eb:ca:58:
                    4c:11:16:cf:37:56:46:e8:a5:46:3b:7c:2b:50:23:
                    be:a2:d1:f2:87:e5:a7:3d:0a:e9:30:fa:ce:2e:a5:
                    29:84:fa:9c:67:45:fd:3c:fc:67:80:7d:da:5a:c9:
                    32:46:0c:b0:0b:42:ed:95:86:bc:a3:1f:b3:d1:93:
                    b2:a1:e7:13:ad:f4:f2:0b:88:9b:6d:8f:f6:65:0e:
                    d6:46:1d:6e:bd:ff:41:0c:10:01:99:02:5c:4b:ce:
                    58:e2:db:5f:8a:6a:fe:d4:f6:72:cf:f7:ac:8e:2a:
                    53:96:1a:3a:ab:17:44:d4:79:70:dd:fd:91:1d:48:
                    26:7c:04:12:63:e8:34:8f:77:04:1e:be:8e:45:42:
                    58:fe:dd:05:9c:1a:ad:ec:7e:ef:8d:42:72:aa:99:
                    a2:19:60:7a:7e:ed:97:89:4e:12:a4:ca:fe:e5:c5:
                    09:3e:f9:14:0a:1a:38:46:83:38:7f:1c:b6:01:93:
                    aa:ac:44:b5:11:53:a5:72:d5:34:c3:a9:53:29:39:
                    40:32:83:03:92:a9:a6:f6:c7:b3:4c:25:5e:fa:ae:
                    5b:99:13:20:bd:86:72:3d:6f:e5:a1:56:b2:9c:08:
                    91:9d:50:ef:33:94:cb:ef:c3:e1:11:52:57:c3:c9:
                    0d:b6:72:f1:06:38:13:37:75:b6:18:21:c1:78:bc:
                    8b:b8:82:69:23:0d:76:51:cb:cd:45:71:a0:86:d4:
                    09:03:2a:fc:19:22:4d:6d:62:60:3f:2a:14:f1:ab:
                    f5:59:87
                Exponent: 65537 (0x10001)
        X509v3 extensions:
            Netscape Comment: 
                CA Root
            X509v3 Subject Key Identifier: 
                62:6C:E9:38:13:97:E8:FC:72:44:77:E6:0F:C7:84:11:D9:9C:EC:6E
            X509v3 Authority Key Identifier: 
                keyid:62:6C:E9:38:13:97:E8:FC:72:44:77:E6:0F:C7:84:11:D9:9C:EC:6E

            X509v3 Basic Constraints: critical
                CA:TRUE, pathlen:1
            X509v3 Key Usage: 
                Certificate Sign, CRL Sign
            Netscape Cert Type: 
                SSL CA
    Signature Algorithm: sha256WithRSAEncryption
         56:83:ea:61:df:f5:ac:65:93:06:e1:bf:88:3f:bf:47:ae:be:
         57:a0:5d:39:1d:b8:03:88:ee:90:42:11:ff:fa:16:b1:78:62:
         34:c7:91:02:94:57:96:3d:84:99:79:d6:4e:69:64:93:96:87:
         65:57:14:ca:4b:96:9a:a7:d3:1e:f3:e9:d3:8c:8a:2d:23:0f:
         20:4d:1f:ff:98:f2:fb:d2:37:0e:99:9b:e6:df:b3:65:14:89:
         e7:cd:3f:83:69:cd:37:b1:a1:83:5e:03:d9:61:d4:99:76:bc:
         4f:bf:0f:b0:cf:d4:c1:b9:bc:d2:a5:b5:a0:a7:75:ef:5f:77:
         8f:d3:00:33:ee:4d:fe:47:07:5f:b8:01:35:40:1b:d4:2a:04:
         77:6c:96:71:95:f3:1a:f4:55:a8:ae:3d:76:2c:03:af:6d:7c:
         02:8f:03:65:10:38:57:3d:a0:b0:c4:ca:36:e9:eb:fc:0d:8b:
         0d:ae:ad:58:56:03:0f:d1:3d:cf:e1:77:c6:e8:8f:0f:c4:44:
         53:a2:ac:06:6d:6f:72:46:f8:d8:7b:18:d4:bd:09:e3:8d:9f:
         da:9a:64:b3:72:4b:42:f8:a0:74:e0:e1:06:e8:56:02:ce:ce:
         ec:ec:79:06:6e:f7:a8:a8:f7:24:4e:de:4d:72:68:3b:92:98:
         2d:84:9a:a4:51:5f:b7:90:3d:76:45:de:ca:5e:c1:ea:0c:87:
         33:0b:ff:34:45:2d:36:7b:04:bc:c0:21:37:54:ae:a2:b2:c7:
         a3:74:a3:3f:f1:b5:38:98:3d:10:f3:e2:4c:03:58:57:f0:b7:
         87:02:40:5d:c5:75:e4:59:77:74:9e:22:91:d4:9e:82:87:ea:
         77:dc:29:71:1f:97:29:54:ee:ae:2d:10:d8:b8:5f:08:41:98:
         80:f2:dd:2d:e2:56:76:17:c7:3f:b3:a7:f1:c2:36:a9:4a:42:
         e1:7d:bb:49:fa:9b:34:67:e2:5a:60:65:a5:4b:96:49:08:ce:
         ae:54:5c:9c:fe:a9:60:85:ef:86:10:03:fc:0a:b6:14:a6:3c:
         a3:17:86:b7:07:5e:9e:fc:c0:bc:4f:65:52:99:21:9d:f5:dd:
         f2:29:5f:29:b4:2c:68:44:bd:26:ed:f3:dc:40:43:97:37:39:
         e8:20:6b:c8:f7:46:e6:fa:db:4d:c3:69:eb:02:1e:18:a0:70:
         38:39:47:6a:cc:b1:48:3c:a8:15:99:b8:c8:5e:de:36:27:36:
         11:38:4e:2f:10:fc:07:9a:f7:75:f3:69:c0:c0:30:ae:7b:d4:
         3e:a9:12:1c:ce:6c:05:82:7f:8d:cb:17:08:7d:23:23:2b:64:
         71:fb:4d:f8:9f:bb:28:d0
-----BEGIN CERTIFICATE-----
MIIF4zCCA8ugAwIBAgIBATANBgkqhkiG9w0BAQsFADBsMQswCQYDVQQGEwJmcjEM
MAoGA1UECAwDaWRmMQ4wDAYDVQQHDAVwYXJpczEQMA4GA1UECgwHdml0YW11aTEU
MBIGA1UECwwLYXV0aG9yaXRpZXMxFzAVBgNVBAMMDmNhX3Jvb3Rfc2VydmVyMB4X
DTIwMDUwNTEyMTUxMloXDTMwMDUwMzEyMTUxMlowbDELMAkGA1UEBhMCZnIxDDAK
BgNVBAgMA2lkZjEOMAwGA1UEBwwFcGFyaXMxEDAOBgNVBAoMB3ZpdGFtdWkxFDAS
BgNVBAsMC2F1dGhvcml0aWVzMRcwFQYDVQQDDA5jYV9yb290X3NlcnZlcjCCAiIw
DQYJKoZIhvcNAQEBBQADggIPADCCAgoCggIBAKh3bHaWCCOXmhlVd+Gbn6Ijyvwc
dHQjOCQVBGTnVvblkhSDFO542VbJDirCZ3FKT48v5akabN7mO9oVk6JKl1oLRUpK
npSfOrSamTsI3gcTC7vETRsLMjx0AxK/VDtjqyzer+XHFM0ckWAres3rBVDc9gau
kfUbMxIEy1VF7lFUmc7pwQBYkt+KRDCJi8ydVTFeclYi1tARFqgGxOc/wkt0I4lt
bgR/HiZZc3SGKSx6UJu4xhNDEpFTz/tfPSIrc059xEhG2z1L4Wm9Fww9RqOLUvgV
QNGeC3zZgv8O68pYTBEWzzdWRuilRjt8K1AjvqLR8oflpz0K6TD6zi6lKYT6nGdF
/Tz8Z4B92lrJMkYMsAtC7ZWGvKMfs9GTsqHnE6308guIm22P9mUO1kYdbr3/QQwQ
AZkCXEvOWOLbX4pq/tT2cs/3rI4qU5YaOqsXRNR5cN39kR1IJnwEEmPoNI93BB6+
jkVCWP7dBZwarex+741CcqqZohlgen7tl4lOEqTK/uXFCT75FAoaOEaDOH8ctgGT
qqxEtRFTpXLVNMOpUyk5QDKDA5KppvbHs0wlXvquW5kTIL2Gcj1v5aFWspwIkZ1Q
7zOUy+/D4RFSV8PJDbZy8QY4Ezd1thghwXi8i7iCaSMNdlHLzUVxoIbUCQMq/Bki
TW1iYD8qFPGr9VmHAgMBAAGjgY8wgYwwFgYJYIZIAYb4QgENBAkWB0NBIFJvb3Qw
HQYDVR0OBBYEFGJs6TgTl+j8ckR35g/HhBHZnOxuMB8GA1UdIwQYMBaAFGJs6TgT
l+j8ckR35g/HhBHZnOxuMBIGA1UdEwEB/wQIMAYBAf8CAQEwCwYDVR0PBAQDAgEG
MBEGCWCGSAGG+EIBAQQEAwICBDANBgkqhkiG9w0BAQsFAAOCAgEAVoPqYd/1rGWT
BuG/iD+/R66+V6BdOR24A4jukEIR//oWsXhiNMeRApRXlj2EmXnWTmlkk5aHZVcU
ykuWmqfTHvPp04yKLSMPIE0f/5jy+9I3Dpmb5t+zZRSJ580/g2nNN7Ghg14D2WHU
mXa8T78PsM/Uwbm80qW1oKd17193j9MAM+5N/kcHX7gBNUAb1CoEd2yWcZXzGvRV
qK49diwDr218Ao8DZRA4Vz2gsMTKNunr/A2LDa6tWFYDD9E9z+F3xuiPD8REU6Ks
Bm1vckb42HsY1L0J442f2ppks3JLQvigdODhBuhWAs7O7Ox5Bm73qKj3JE7eTXJo
O5KYLYSapFFft5A9dkXeyl7B6gyHMwv/NEUtNnsEvMAhN1SuorLHo3SjP/G1OJg9
EPPiTANYV/C3hwJAXcV15Fl3dJ4ikdSegofqd9wpcR+XKVTuri0Q2LhfCEGYgPLd
LeJWdhfHP7On8cI2qUpC4X27SfqbNGfiWmBlpUuWSQjOrlRcnP6pYIXvhhAD/Aq2
FKY8oxeGtwdenvzAvE9lUpkhnfXd8ilfKbQsaES9Ju3z3EBDlzc56CBryPdG5vrb
TcNp6wIeGKBwODlHasyxSDyoFZm4yF7eNic2EThOLxD8B5r3dfNpwMAwrnvUPqkS
HM5sBYJ/jcsXCH0jIytkcftN+J+7KNA=
-----END CERTIFICATE-----
