Certificate:
    Data:
        Version: 3 (0x2)
        Serial Number:
            0c:cb:fc:c3:a6:3f:21:c5:68:83:e3:fd:5d:2a:ab:25
        Signature Algorithm: sha256WithRSAEncryption
        Issuer: C=fr, ST=idf, L=paris, O=vitamui, OU=authorities, CN=ca_root_vitamui
        Validity
            Not Before: Feb  3 14:28:51 2020 GMT
            Not After : Feb  2 14:28:51 2023 GMT
        Subject: C=fr, ST=idf, L=paris, O=vitamui, CN=dev.vitamui.com
        Subject Public Key Info:
            Public Key Algorithm: rsaEncryption
                RSA Public-Key: (4096 bit)
                Modulus:
                    00:cc:62:61:df:e2:84:2c:4c:64:5f:f0:a6:10:88:
                    88:4c:e6:ee:47:32:c0:32:d8:4d:5c:e4:37:aa:76:
                    a8:7b:74:19:82:fb:ff:97:22:21:31:f5:f5:af:89:
                    a1:1e:84:89:31:69:6f:6c:81:8c:57:b9:b3:21:df:
                    8c:12:1c:12:18:9a:24:66:d3:ad:5e:11:8f:9e:c1:
                    67:3a:84:c2:d7:ad:39:c3:41:c0:0e:c5:25:d0:b9:
                    1d:66:23:f8:7d:0a:d0:7c:84:7d:80:09:4d:dc:a6:
                    5c:e6:87:fd:54:d6:66:3e:59:05:bb:39:31:b6:06:
                    02:f5:3a:e2:98:c1:c6:ad:3b:f2:7f:a4:1f:f9:5f:
                    40:64:94:c0:c6:66:42:30:3e:de:6b:ad:52:fa:95:
                    24:d2:63:a1:6c:42:77:b6:a2:fe:b8:7e:8a:76:41:
                    41:bc:d3:5a:ea:14:f4:b2:1a:11:8f:d2:16:dc:16:
                    cc:10:59:c8:9b:e4:79:de:d9:48:46:f9:93:c4:91:
                    87:88:af:9b:8d:19:c2:1f:7f:cd:54:e0:31:b8:b5:
                    5c:66:8e:1f:6d:a4:f9:28:da:45:ef:d5:00:df:d4:
                    8b:55:28:5c:ed:1a:42:b4:af:57:2f:93:7c:5e:a0:
                    3f:78:62:70:0e:a7:e2:6f:43:35:22:a5:43:88:47:
                    80:d9:f3:5d:1f:de:4b:d3:30:3c:53:4e:45:24:1b:
                    e0:8c:c2:ad:14:5b:17:93:70:98:56:dd:7f:2d:8d:
                    28:78:93:6e:0f:df:21:7d:6a:9f:e1:9b:b1:a1:d6:
                    0e:af:c7:25:0e:74:00:9e:b6:bd:1f:d8:89:ab:58:
                    6c:9f:74:ff:31:7b:1f:a0:6e:60:a0:e7:e1:5e:1b:
                    6b:a8:82:a5:3e:db:c1:46:be:7f:e0:15:58:61:e4:
                    44:5a:62:17:8e:e4:c7:1f:bf:92:7c:ab:bf:0c:99:
                    23:83:1d:98:a0:1e:dd:90:3f:2d:6f:de:28:e9:26:
                    be:9d:e8:e5:89:d0:f2:5f:49:e7:8a:c8:7e:bb:73:
                    92:8b:99:9e:70:81:fb:8e:08:5f:00:55:76:eb:0b:
                    fc:07:ed:82:7a:78:df:c3:02:bb:83:e9:4e:8c:9d:
                    81:69:8c:be:f0:4b:40:bb:66:5c:66:38:54:95:36:
                    60:63:a7:7f:ed:bd:48:ec:c4:98:7f:66:be:3e:fa:
                    29:4b:33:d6:f4:ef:26:9e:f8:9f:28:84:9e:1e:96:
                    06:c3:68:49:b1:06:44:11:a1:94:5c:b6:5b:24:ee:
                    b6:30:e6:f6:77:88:d2:82:58:36:d1:89:a8:d0:ca:
                    fa:97:e5:eb:58:98:40:2f:89:ae:c2:b1:cb:9a:fd:
                    ec:bd:51
                Exponent: 65537 (0x10001)
        X509v3 extensions:
            Netscape Comment: 
                Certificat SSL VITAMUI
            X509v3 Subject Key Identifier: 
                14:04:8C:22:09:7F:D4:28:14:67:62:11:B4:DD:33:38:3A:BC:EC:AE
            X509v3 Authority Key Identifier: 
                keyid:0D:42:D1:01:69:B1:6B:65:E1:AF:B4:00:37:89:2E:62:1C:5D:C3:FC
                DirName:/C=fr/ST=idf/L=paris/O=vitamui/OU=authorities/CN=ca_root_vitamui
                serial:0C:CB:FC:C3:A6:3F:21:C5:68:83:E3:FD:5D:2A:AB:16

            X509v3 Issuer Alternative Name: 
                <EMPTY>

            X509v3 Basic Constraints: critical
                CA:FALSE
    Signature Algorithm: sha256WithRSAEncryption
         05:f3:c7:11:77:b7:db:69:b1:9e:ce:a7:63:46:05:3a:46:28:
         dc:10:45:d8:b3:1d:63:ea:5c:4c:9a:ef:d5:ee:cd:ca:b4:c8:
         93:3a:95:e3:4f:0b:8e:b5:94:fe:3a:d1:c9:38:3d:84:8a:57:
         c8:9d:fa:bb:3d:39:84:bf:6f:67:99:01:67:42:1a:57:d7:b3:
         05:f7:6f:77:52:bc:21:61:9c:bd:a7:31:75:62:53:ce:d0:8f:
         d0:6f:9d:96:2c:0e:fb:40:64:46:8c:fd:93:f2:47:e4:f8:e6:
         6f:4f:de:b1:74:65:0e:37:84:27:a0:94:c3:b2:b9:51:ac:01:
         10:07:47:4b:c5:41:c2:01:46:30:d7:5e:0d:61:2f:0f:68:fd:
         71:a6:f8:60:59:a6:68:78:46:39:fb:7c:b5:14:d4:be:ad:fa:
         b7:5a:16:ac:7a:b8:d7:c2:36:0f:b4:a4:b1:c7:73:e4:0b:cb:
         91:15:5a:d0:c8:51:d2:9d:98:1c:55:3e:dc:80:e3:bc:e8:a5:
         30:70:24:57:d7:53:8c:b6:ee:7e:15:ce:40:c6:48:1a:38:cb:
         c7:9f:fc:be:49:38:91:dc:63:f0:3a:f9:08:28:d4:fc:ca:4b:
         83:6a:69:aa:49:e7:f9:c4:ba:17:dc:b9:f4:43:a2:6d:d7:31:
         4c:04:b5:c0:d3:ef:56:bb:cb:b2:0a:50:29:16:fc:4c:4a:a8:
         8e:fe:bc:ea:4e:ad:40:d8:a1:31:45:b6:ff:c4:d4:b9:51:6b:
         70:13:d6:e0:5d:a0:1a:b2:dc:1d:44:d8:db:2e:26:69:ab:93:
         b0:5a:81:51:ca:45:e9:d3:cb:35:2d:b8:c0:e2:da:5c:e4:0c:
         b1:89:d0:e9:eb:29:4f:3a:21:0e:24:a2:89:24:2c:c8:cf:1e:
         be:53:c7:dc:64:2e:31:78:32:3c:dd:7e:51:c1:30:66:1d:68:
         4c:9a:81:ea:a2:bd:5b:e2:19:a3:d7:4f:05:36:a5:b1:f0:42:
         3c:92:a5:f8:02:f5:2d:7a:ff:8b:23:40:8a:ea:b9:d3:59:67:
         4c:6c:bf:72:48:fb:8a:51:75:dd:6c:18:24:6d:f8:c0:a3:a5:
         cd:f1:ae:6c:9d:de:6d:cd:49:6c:1d:b8:e3:4d:d1:74:f5:21:
         00:ef:b2:ff:8a:3d:60:c9:7c:1f:66:09:8f:44:29:73:11:00:
         28:13:97:8b:df:61:af:cf:2e:b6:e4:59:c0:67:9b:ed:b1:db:
         16:62:2c:9f:27:e3:4d:0b:71:92:54:c5:39:00:8b:b8:3e:ba:
         e4:04:aa:6a:a9:55:6f:6b:08:84:6a:0f:b8:57:ef:99:84:90:
         34:e0:1a:7e:30:3e:fb:d7
-----BEGIN CERTIFICATE-----
MIIGXDCCBESgAwIBAgIQDMv8w6Y/IcVog+P9XSqrJTANBgkqhkiG9w0BAQsFADBt
MQswCQYDVQQGEwJmcjEMMAoGA1UECAwDaWRmMQ4wDAYDVQQHDAVwYXJpczEQMA4G
A1UECgwHdml0YW11aTEUMBIGA1UECwwLYXV0aG9yaXRpZXMxGDAWBgNVBAMMD2Nh
X3Jvb3Rfdml0YW11aTAeFw0yMDAyMDMxNDI4NTFaFw0yMzAyMDIxNDI4NTFaMFcx
CzAJBgNVBAYTAmZyMQwwCgYDVQQIDANpZGYxDjAMBgNVBAcMBXBhcmlzMRAwDgYD
VQQKDAd2aXRhbXVpMRgwFgYDVQQDDA9kZXYudml0YW11aS5jb20wggIiMA0GCSqG
SIb3DQEBAQUAA4ICDwAwggIKAoICAQDMYmHf4oQsTGRf8KYQiIhM5u5HMsAy2E1c
5Deqdqh7dBmC+/+XIiEx9fWviaEehIkxaW9sgYxXubMh34wSHBIYmiRm061eEY+e
wWc6hMLXrTnDQcAOxSXQuR1mI/h9CtB8hH2ACU3cplzmh/1U1mY+WQW7OTG2BgL1
OuKYwcatO/J/pB/5X0BklMDGZkIwPt5rrVL6lSTSY6FsQne2ov64fop2QUG801rq
FPSyGhGP0hbcFswQWcib5Hne2UhG+ZPEkYeIr5uNGcIff81U4DG4tVxmjh9tpPko
2kXv1QDf1ItVKFztGkK0r1cvk3xeoD94YnAOp+JvQzUipUOIR4DZ810f3kvTMDxT
TkUkG+CMwq0UWxeTcJhW3X8tjSh4k24P3yF9ap/hm7Gh1g6vxyUOdACetr0f2Imr
WGyfdP8xex+gbmCg5+FeG2uogqU+28FGvn/gFVhh5ERaYheO5Mcfv5J8q78MmSOD
HZigHt2QPy1v3ijpJr6d6OWJ0PJfSeeKyH67c5KLmZ5wgfuOCF8AVXbrC/wH7YJ6
eN/DAruD6U6MnYFpjL7wS0C7ZlxmOFSVNmBjp3/tvUjsxJh/Zr4++ilLM9b07yae
+J8ohJ4elgbDaEmxBkQRoZRctlsk7rYw5vZ3iNKCWDbRiajQyvqX5etYmEAvia7C
scua/ey9UQIDAQABo4IBDDCCAQgwJQYJYIZIAYb4QgENBBgWFkNlcnRpZmljYXQg
U1NMIFZJVEFNVUkwHQYDVR0OBBYEFBQEjCIJf9QoFGdiEbTdMzg6vOyuMIGmBgNV
HSMEgZ4wgZuAFA1C0QFpsWtl4a+0ADeJLmIcXcP8oXGkbzBtMQswCQYDVQQGEwJm
cjEMMAoGA1UECAwDaWRmMQ4wDAYDVQQHDAVwYXJpczEQMA4GA1UECgwHdml0YW11
aTEUMBIGA1UECwwLYXV0aG9yaXRpZXMxGDAWBgNVBAMMD2NhX3Jvb3Rfdml0YW11
aYIQDMv8w6Y/IcVog+P9XSqrFjAJBgNVHRIEAjAAMAwGA1UdEwEB/wQCMAAwDQYJ
KoZIhvcNAQELBQADggIBAAXzxxF3t9tpsZ7Op2NGBTpGKNwQRdizHWPqXEya79Xu
zcq0yJM6leNPC461lP460ck4PYSKV8id+rs9OYS/b2eZAWdCGlfXswX3b3dSvCFh
nL2nMXViU87Qj9BvnZYsDvtAZEaM/ZPyR+T45m9P3rF0ZQ43hCeglMOyuVGsARAH
R0vFQcIBRjDXXg1hLw9o/XGm+GBZpmh4Rjn7fLUU1L6t+rdaFqx6uNfCNg+0pLHH
c+QLy5EVWtDIUdKdmBxVPtyA47zopTBwJFfXU4y27n4VzkDGSBo4y8ef/L5JOJHc
Y/A6+Qgo1PzKS4NqaapJ5/nEuhfcufRDom3XMUwEtcDT71a7y7IKUCkW/ExKqI7+
vOpOrUDYoTFFtv/E1LlRa3AT1uBdoBqy3B1E2NsuJmmrk7BagVHKRenTyzUtuMDi
2lzkDLGJ0OnrKU86IQ4kookkLMjPHr5Tx9xkLjF4MjzdflHBMGYdaEyageqivVvi
GaPXTwU2pbHwQjySpfgC9S16/4sjQIrqudNZZ0xsv3JI+4pRdd1sGCRt+MCjpc3x
rmyd3m3NSWwduONN0XT1IQDvsv+KPWDJfB9mCY9EKXMRACgTl4vfYa/PLrbkWcBn
m+2x2xZiLJ8n400LcZJUxTkAi7g+uuQEqmqpVW9rCIRqD7hX75mEkDTgGn4wPvvX
-----END CERTIFICATE-----
