Certificate:
    Data:
        Version: 3 (0x2)
        Serial Number:
            0c:cb:fc:c3:a6:3f:21:c5:68:83:e3:fd:5d:2a:ab:24
        Signature Algorithm: sha256WithRSAEncryption
        Issuer: C=fr, ST=idf, L=paris, O=vitamui, OU=authorities, CN=ca_root_vitamui
        Validity
            Not Before: Feb  3 13:38:47 2020 GMT
            Not After : Feb  2 13:38:47 2023 GMT
        Subject: C=fr, ST=idf, L=paris, O=vitamui, CN=dev-cas.vitamui.com
        Subject Public Key Info:
            Public Key Algorithm: rsaEncryption
                RSA Public-Key: (4096 bit)
                Modulus:
                    00:df:b4:a5:fa:81:6c:1b:3c:3d:ad:a8:61:48:90:
                    da:36:fd:7e:d3:6c:08:4f:c8:cb:ab:56:2f:05:a0:
                    10:70:07:d6:57:c6:1d:8f:07:82:70:37:7f:be:11:
                    e6:be:21:c2:81:2c:f6:92:f0:00:1d:1b:70:5e:b4:
                    0d:19:6b:c8:c1:62:03:b5:65:bf:95:ba:cb:fb:38:
                    c1:2c:d9:ea:4b:6c:0c:25:1c:db:bb:08:f5:6c:85:
                    e5:c7:2a:82:89:f7:0e:89:c0:ef:be:e3:ef:ad:75:
                    2c:f5:dc:c2:77:0e:8b:9b:ce:81:86:f1:b6:d0:77:
                    7b:9e:93:90:d1:fa:18:34:77:4c:bb:5b:e3:1b:49:
                    33:fb:28:e0:ed:6f:3e:a3:e9:ea:28:86:fe:e0:b8:
                    2c:3a:88:5e:b1:94:d6:3b:ca:67:07:67:1c:2b:6b:
                    b2:7b:17:2f:af:8f:f2:7e:2e:7d:8f:d8:a4:11:e1:
                    2e:a5:c1:df:97:d2:58:9a:c3:4f:8a:7b:cd:0a:45:
                    56:b1:27:55:d3:f5:56:a1:6e:c1:22:85:57:cc:98:
                    a6:aa:fe:ac:cb:a2:16:21:85:c5:20:92:58:55:cb:
                    9b:9a:ba:8d:f9:fd:be:19:f2:10:84:71:90:5d:7a:
                    1e:17:27:c6:ec:90:d3:89:6c:3e:57:1c:94:cc:58:
                    6d:ac:30:34:60:7b:b6:08:4c:6c:2b:a8:2e:37:d6:
                    f7:06:00:5d:b3:8d:d2:61:92:eb:d5:9c:a4:d1:30:
                    84:f8:fc:f4:ee:1c:38:30:e9:10:20:5e:10:47:08:
                    9e:ad:d1:9d:d1:9d:b8:fb:e5:7b:d3:27:27:c8:98:
                    63:f7:12:8c:42:5a:2d:b5:c9:4a:59:07:61:73:e3:
                    13:52:ad:19:03:b7:5b:b7:db:49:ab:05:35:79:c9:
                    93:6a:98:70:83:2b:0c:65:b3:c1:b7:b7:44:b6:25:
                    f9:a9:92:65:6e:f2:2c:47:38:c3:a9:e6:47:bb:5b:
                    c4:37:f7:2f:0c:7d:58:83:14:83:83:29:22:44:11:
                    6e:ab:88:34:a2:83:ac:c5:e5:07:64:5e:2d:1f:3c:
                    f4:4a:b1:28:c4:0f:c9:56:f4:19:d3:bb:ae:55:49:
                    da:a9:d7:da:0a:7a:4b:9d:b4:52:9f:fc:c6:75:91:
                    92:3f:4b:e9:4b:17:0b:52:1f:e7:dd:94:9a:be:dd:
                    5d:08:ff:9f:58:62:70:cb:f1:b2:a6:26:a8:f8:55:
                    8a:63:8b:e2:56:7c:67:9c:89:65:38:1a:89:6f:4a:
                    e1:bc:3e:f8:ea:82:35:ac:bb:a9:5e:51:b5:31:0a:
                    5f:17:c2:b0:29:97:54:65:09:4e:c5:2a:4c:64:4e:
                    aa:d3:0d
                Exponent: 65537 (0x10001)
        X509v3 extensions:
            Netscape Comment: 
                Certificat SSL VITAMUI
            X509v3 Subject Key Identifier: 
                D6:A8:3E:B5:B0:F9:3B:72:EE:BA:78:30:23:5F:74:DF:0C:B3:D8:95
            X509v3 Authority Key Identifier: 
                keyid:0D:42:D1:01:69:B1:6B:65:E1:AF:B4:00:37:89:2E:62:1C:5D:C3:FC
                DirName:/C=fr/ST=idf/L=paris/O=vitamui/OU=authorities/CN=ca_root_vitamui
                serial:0C:CB:FC:C3:A6:3F:21:C5:68:83:E3:FD:5D:2A:AB:16

            X509v3 Issuer Alternative Name: 
                <EMPTY>

            X509v3 Basic Constraints: critical
                CA:FALSE
    Signature Algorithm: sha256WithRSAEncryption
         15:4e:db:a0:54:5f:20:86:6f:72:7e:d2:19:71:5b:af:80:e0:
         89:63:9f:36:69:a0:da:c4:f3:cb:98:83:ae:f5:1e:2e:14:6a:
         59:98:8f:9c:74:1e:e3:3f:89:ce:4e:3f:68:9f:2a:97:87:77:
         70:ca:2a:9a:50:b8:01:85:6d:7f:46:70:87:9a:e1:7a:85:c7:
         eb:4f:f8:ab:0b:55:c3:2b:2a:4b:fc:b0:ca:12:70:32:36:1d:
         cb:3c:39:ee:79:5c:d4:6a:aa:eb:e9:3e:12:c0:9f:b7:7b:20:
         53:27:72:9a:db:a8:c1:00:34:73:14:3a:4c:45:e2:ee:77:0a:
         3f:a9:51:2c:90:f0:d1:35:27:8b:fa:71:40:a5:1b:70:63:44:
         0e:81:2e:01:8f:1f:c4:b8:f3:8e:1f:b2:e2:dd:a7:65:da:de:
         a0:20:a9:9f:c8:03:63:39:38:62:c4:c5:a2:b8:43:42:eb:ab:
         f5:7b:8a:df:4e:0a:66:2b:a3:87:1b:af:38:53:e0:f8:2b:46:
         78:5e:5b:54:27:16:8b:2a:d1:9e:8e:24:a5:d1:69:2e:72:ac:
         64:a4:ae:1c:5e:82:14:7e:df:38:8a:86:93:70:30:f9:c0:98:
         06:b9:ff:08:f4:54:06:94:99:d9:31:2c:36:e6:89:61:9f:ea:
         f4:a0:45:a0:58:37:33:cc:c2:b7:1e:25:6d:40:05:77:0d:e5:
         72:23:20:2f:ba:bf:fd:8d:38:f3:3e:8a:37:0f:19:b1:ec:a2:
         c4:fc:90:cb:db:1e:43:7e:b0:b0:81:72:55:1b:f0:10:31:fc:
         2b:91:96:c5:f7:e0:9c:0e:3d:8b:02:06:a6:4d:a4:30:ff:81:
         a7:8f:84:82:03:f1:c8:7e:47:b8:16:2d:4d:c8:4d:20:cc:00:
         80:27:c8:16:b3:60:12:69:4c:cf:e6:fa:8d:9f:b0:9a:dd:12:
         a0:e7:ea:82:77:08:72:6f:e1:de:8c:95:e6:67:eb:5a:36:c8:
         09:3d:6a:01:19:f1:14:9e:de:12:bf:38:da:18:00:8d:58:05:
         d0:d5:f1:1a:4e:9f:d5:9b:c5:32:b5:23:1c:dc:ad:45:e1:5c:
         39:c1:92:be:63:58:47:87:73:17:fc:c7:88:29:2b:08:0d:65:
         30:87:04:8c:ee:a2:77:81:5f:74:0b:db:05:9a:d0:d9:6c:32:
         ff:24:17:0d:57:21:56:a5:16:8c:d2:ce:8c:43:4d:72:05:65:
         01:72:54:16:2d:fe:c4:d7:48:a7:12:a2:c4:15:fd:1e:a7:bb:
         13:0e:6c:45:bf:01:b1:f2:f8:24:8c:88:fa:5d:a7:12:05:bb:
         ea:fe:23:72:a7:3f:35:6b
-----BEGIN CERTIFICATE-----
MIIGYDCCBEigAwIBAgIQDMv8w6Y/IcVog+P9XSqrJDANBgkqhkiG9w0BAQsFADBt
MQswCQYDVQQGEwJmcjEMMAoGA1UECAwDaWRmMQ4wDAYDVQQHDAVwYXJpczEQMA4G
A1UECgwHdml0YW11aTEUMBIGA1UECwwLYXV0aG9yaXRpZXMxGDAWBgNVBAMMD2Nh
X3Jvb3Rfdml0YW11aTAeFw0yMDAyMDMxMzM4NDdaFw0yMzAyMDIxMzM4NDdaMFsx
CzAJBgNVBAYTAmZyMQwwCgYDVQQIDANpZGYxDjAMBgNVBAcMBXBhcmlzMRAwDgYD
VQQKDAd2aXRhbXVpMRwwGgYDVQQDDBNkZXYtY2FzLnZpdGFtdWkuY29tMIICIjAN
BgkqhkiG9w0BAQEFAAOCAg8AMIICCgKCAgEA37Sl+oFsGzw9rahhSJDaNv1+02wI
T8jLq1YvBaAQcAfWV8YdjweCcDd/vhHmviHCgSz2kvAAHRtwXrQNGWvIwWIDtWW/
lbrL+zjBLNnqS2wMJRzbuwj1bIXlxyqCifcOicDvvuPvrXUs9dzCdw6Lm86BhvG2
0Hd7npOQ0foYNHdMu1vjG0kz+yjg7W8+o+nqKIb+4LgsOohesZTWO8pnB2ccK2uy
excvr4/yfi59j9ikEeEupcHfl9JYmsNPinvNCkVWsSdV0/VWoW7BIoVXzJimqv6s
y6IWIYXFIJJYVcubmrqN+f2+GfIQhHGQXXoeFyfG7JDTiWw+VxyUzFhtrDA0YHu2
CExsK6guN9b3BgBds43SYZLr1Zyk0TCE+Pz07hw4MOkQIF4QRwierdGd0Z24++V7
0ycnyJhj9xKMQlottclKWQdhc+MTUq0ZA7dbt9tJqwU1ecmTaphwgysMZbPBt7dE
tiX5qZJlbvIsRzjDqeZHu1vEN/cvDH1YgxSDgykiRBFuq4g0ooOsxeUHZF4tHzz0
SrEoxA/JVvQZ07uuVUnaqdfaCnpLnbRSn/zGdZGSP0vpSxcLUh/n3ZSavt1dCP+f
WGJwy/Gypiao+FWKY4viVnxnnIllOBqJb0rhvD746oI1rLupXlG1MQpfF8KwKZdU
ZQlOxSpMZE6q0w0CAwEAAaOCAQwwggEIMCUGCWCGSAGG+EIBDQQYFhZDZXJ0aWZp
Y2F0IFNTTCBWSVRBTVVJMB0GA1UdDgQWBBTWqD61sPk7cu66eDAjX3TfDLPYlTCB
pgYDVR0jBIGeMIGbgBQNQtEBabFrZeGvtAA3iS5iHF3D/KFxpG8wbTELMAkGA1UE
BhMCZnIxDDAKBgNVBAgMA2lkZjEOMAwGA1UEBwwFcGFyaXMxEDAOBgNVBAoMB3Zp
dGFtdWkxFDASBgNVBAsMC2F1dGhvcml0aWVzMRgwFgYDVQQDDA9jYV9yb290X3Zp
dGFtdWmCEAzL/MOmPyHFaIPj/V0qqxYwCQYDVR0SBAIwADAMBgNVHRMBAf8EAjAA
MA0GCSqGSIb3DQEBCwUAA4ICAQAVTtugVF8ghm9yftIZcVuvgOCJY582aaDaxPPL
mIOu9R4uFGpZmI+cdB7jP4nOTj9onyqXh3dwyiqaULgBhW1/RnCHmuF6hcfrT/ir
C1XDKypL/LDKEnAyNh3LPDnueVzUaqrr6T4SwJ+3eyBTJ3Ka26jBADRzFDpMReLu
dwo/qVEskPDRNSeL+nFApRtwY0QOgS4Bjx/EuPOOH7Li3adl2t6gIKmfyANjOThi
xMWiuENC66v1e4rfTgpmK6OHG684U+D4K0Z4XltUJxaLKtGejiSl0WkucqxkpK4c
XoIUft84ioaTcDD5wJgGuf8I9FQGlJnZMSw25olhn+r0oEWgWDczzMK3HiVtQAV3
DeVyIyAvur/9jTjzPoo3Dxmx7KLE/JDL2x5DfrCwgXJVG/AQMfwrkZbF9+CcDj2L
AgamTaQw/4Gnj4SCA/HIfke4Fi1NyE0gzACAJ8gWs2ASaUzP5vqNn7Ca3RKg5+qC
dwhyb+HejJXmZ+taNsgJPWoBGfEUnt4SvzjaGACNWAXQ1fEaTp/Vm8UytSMc3K1F
4Vw5wZK+Y1hHh3MX/MeIKSsIDWUwhwSM7qJ3gV90C9sFmtDZbDL/JBcNVyFWpRaM
0s6MQ01yBWUBclQWLf7E10inEqLEFf0ep7sTDmxFvwGx8vgkjIj6XacSBbvq/iNy
pz81aw==
-----END CERTIFICATE-----
