Certificate:
    Data:
        Version: 3 (0x2)
        Serial Number:
            0c:cb:fc:c3:a6:3f:21:c5:68:83:e3:fd:5d:2a:ab:22
        Signature Algorithm: sha256WithRSAEncryption
        Issuer: C=fr, ST=idf, L=paris, O=vitamui, OU=authorities, CN=ca_root_vitamui
        Validity
            Not Before: Feb  3 13:30:40 2020 GMT
            Not After : Feb  2 13:30:40 2023 GMT
        Subject: C=fr, ST=idf, L=paris, O=vitamui, CN=dev-portal.vitamui.com
        Subject Public Key Info:
            Public Key Algorithm: rsaEncryption
                RSA Public-Key: (4096 bit)
                Modulus:
                    00:bf:10:17:ed:a8:fa:64:05:8b:b9:2c:dc:aa:3b:
                    83:45:80:f5:22:fc:27:0d:db:fc:48:31:d7:c2:cc:
                    25:f0:70:07:81:06:0c:52:fb:5b:89:cb:f8:27:fd:
                    eb:99:62:ea:6f:32:c9:4d:f8:9b:3b:be:59:f0:91:
                    b3:2d:76:1e:7e:25:83:43:86:62:30:7e:4c:82:33:
                    7e:f5:a3:48:b0:e9:68:e7:ed:f6:85:59:9b:2d:d4:
                    f8:2b:9c:97:d7:ec:f2:8c:ae:9c:86:94:59:06:f0:
                    b1:57:1a:41:9a:71:d4:75:71:5f:81:6d:29:13:3d:
                    88:4c:01:64:8e:a9:73:01:4f:6f:67:df:5f:59:60:
                    4a:e4:c6:0e:96:91:9c:ae:c5:8f:43:e2:6d:1f:a1:
                    67:95:98:16:5b:ac:0e:a7:a5:dd:11:7d:1b:a1:c6:
                    6b:09:83:61:dd:5a:4a:5b:e5:6c:ea:72:04:8b:cd:
                    1e:55:69:e8:08:75:87:4f:f1:7e:a7:98:9d:e4:ab:
                    9d:f9:2f:c5:c5:25:33:65:10:56:41:67:ea:d4:36:
                    fc:78:36:2f:00:c7:fd:e5:58:52:06:c9:7b:b7:7f:
                    3e:4c:bd:ad:de:e9:fe:ff:be:bb:51:ef:b3:ef:cc:
                    fa:45:4b:81:2b:e3:e3:06:d4:a2:6f:db:72:f9:60:
                    83:86:27:11:3a:4d:cb:1d:fc:16:14:e8:16:90:d1:
                    63:7e:ca:dc:e1:61:18:34:19:a8:a6:63:d5:c1:cc:
                    06:aa:96:1c:44:d5:43:bd:fc:38:03:80:53:51:f5:
                    fb:17:e0:88:00:70:bc:50:cb:ed:bb:27:60:2e:cc:
                    af:dc:9a:5e:9e:b8:5e:29:f7:df:a4:b2:52:f6:ee:
                    a4:1b:12:b5:0e:08:65:73:a7:e6:cd:43:93:3f:0b:
                    3d:e2:f0:1b:b5:46:b6:84:c8:9b:5a:fd:31:63:e7:
                    51:06:3e:a1:19:c7:e6:b6:b9:c6:54:57:c3:9b:3b:
                    16:2b:e7:89:ee:99:bc:79:83:50:b6:7e:db:91:71:
                    9c:99:b0:dc:95:72:ab:a7:4f:ee:7a:44:07:f1:b1:
                    d8:b5:71:37:2c:fb:33:b7:85:d3:f8:d1:b6:25:95:
                    2d:dc:d8:2e:3e:ef:85:0f:8a:ae:94:84:85:07:b4:
                    95:38:3b:8a:8c:53:dd:5e:44:f9:58:56:e4:92:c8:
                    95:fe:eb:5d:3f:5d:d0:ea:72:d9:46:e7:fe:f7:86:
                    f7:57:e5:bd:dc:1c:e3:ca:4a:ac:9f:ca:ae:11:5d:
                    ca:47:cb:8d:8a:4a:78:f2:ae:7f:59:e2:51:01:13:
                    4f:45:47:db:94:c3:63:b9:b9:d7:c4:02:b5:e0:2d:
                    89:46:13
                Exponent: 65537 (0x10001)
        X509v3 extensions:
            Netscape Comment: 
                Certificat SSL VITAMUI
            X509v3 Subject Key Identifier: 
                CE:E8:A2:36:B3:AE:0B:A3:06:92:5B:D4:95:B2:2D:5A:84:87:7A:0A
            X509v3 Authority Key Identifier: 
                keyid:0D:42:D1:01:69:B1:6B:65:E1:AF:B4:00:37:89:2E:62:1C:5D:C3:FC
                DirName:/C=fr/ST=idf/L=paris/O=vitamui/OU=authorities/CN=ca_root_vitamui
                serial:0C:CB:FC:C3:A6:3F:21:C5:68:83:E3:FD:5D:2A:AB:16

            X509v3 Issuer Alternative Name: 
                <EMPTY>

            X509v3 Basic Constraints: critical
                CA:FALSE
    Signature Algorithm: sha256WithRSAEncryption
         78:bd:ee:89:4d:d2:63:50:92:f1:ed:03:d5:b5:1c:e7:1d:3d:
         57:39:eb:36:d8:11:b7:7b:d7:01:34:85:2a:e5:c2:d4:61:3b:
         4f:90:87:70:47:9d:4d:b1:1f:45:d3:08:69:ae:93:df:20:3b:
         be:a0:67:3a:6c:46:43:15:d3:ec:6b:b8:ad:86:4a:19:b0:21:
         94:d1:0a:b5:67:58:db:51:35:40:21:da:d8:e1:f8:89:54:02:
         42:99:83:99:1f:94:59:ec:2a:bf:da:d9:4d:9e:43:37:c7:91:
         44:54:7f:1a:99:15:fc:c2:0c:16:e6:66:a0:3c:d6:43:31:48:
         74:ce:db:77:5e:32:a7:32:f8:83:e1:80:45:32:a9:c8:22:ac:
         a5:b8:8b:00:27:fc:52:c6:ba:06:6e:33:a4:ed:44:cc:89:62:
         94:6d:4b:3c:53:44:f4:48:92:2d:a3:ac:a2:cd:33:8b:ed:25:
         26:6a:0a:58:02:4c:cc:e3:d2:94:df:45:d0:12:5c:1c:35:83:
         6b:80:8d:ef:83:d0:ca:0e:1b:82:50:f5:9a:f5:9c:bf:c5:d4:
         71:92:72:f8:03:ae:a4:07:ac:6e:d4:f0:84:2b:37:5c:c4:8d:
         d1:ad:1e:eb:4a:f5:89:7b:76:56:57:c8:5d:73:99:b0:14:71:
         75:0d:3a:78:d6:1d:f2:1d:ed:cb:ef:61:8d:46:ee:3d:7d:28:
         f4:80:60:8b:19:70:91:be:67:ff:95:68:ad:d2:7b:b1:93:9e:
         16:6a:85:a0:40:82:2c:ca:f2:41:4e:d3:3b:b3:30:a7:27:31:
         65:36:ab:4a:69:3a:7e:32:cd:17:da:bc:6a:64:48:20:0d:33:
         d9:67:2a:c5:79:d8:fd:cf:2a:14:4d:fb:9d:e2:87:ec:d4:e8:
         e2:96:42:5e:32:f6:bd:4e:0a:67:20:36:f9:2a:38:e3:3e:e2:
         d4:6d:79:79:2f:7c:23:bd:78:8a:ad:3f:0b:a9:91:5d:38:05:
         9d:74:c8:ec:17:f9:79:a5:de:ad:d6:98:5d:bc:09:1c:3b:ba:
         af:62:0f:41:a5:5e:22:ed:cf:52:b7:23:da:43:3f:5c:45:42:
         8d:a9:c9:ab:42:a3:ee:03:b6:1d:56:11:74:0b:c8:b8:15:d8:
         b7:dd:05:8e:ba:7c:4f:65:12:32:01:ca:75:a2:b3:7e:ec:9d:
         60:36:f7:2b:ac:71:a2:5f:cd:c8:6d:57:85:f3:1d:56:48:58:
         50:76:75:ac:ea:88:0a:b4:10:f2:b6:ea:c5:35:c2:b8:50:df:
         5d:ea:fe:0d:82:88:73:f4:ea:22:11:26:ca:11:1c:9d:16:ea:
         27:06:9d:11:90:c5:64:7d
-----BEGIN CERTIFICATE-----
MIIGYzCCBEugAwIBAgIQDMv8w6Y/IcVog+P9XSqrIjANBgkqhkiG9w0BAQsFADBt
MQswCQYDVQQGEwJmcjEMMAoGA1UECAwDaWRmMQ4wDAYDVQQHDAVwYXJpczEQMA4G
A1UECgwHdml0YW11aTEUMBIGA1UECwwLYXV0aG9yaXRpZXMxGDAWBgNVBAMMD2Nh
X3Jvb3Rfdml0YW11aTAeFw0yMDAyMDMxMzMwNDBaFw0yMzAyMDIxMzMwNDBaMF4x
CzAJBgNVBAYTAmZyMQwwCgYDVQQIDANpZGYxDjAMBgNVBAcMBXBhcmlzMRAwDgYD
VQQKDAd2aXRhbXVpMR8wHQYDVQQDDBZkZXYtcG9ydGFsLnZpdGFtdWkuY29tMIIC
IjANBgkqhkiG9w0BAQEFAAOCAg8AMIICCgKCAgEAvxAX7aj6ZAWLuSzcqjuDRYD1
IvwnDdv8SDHXwswl8HAHgQYMUvtbicv4J/3rmWLqbzLJTfibO75Z8JGzLXYefiWD
Q4ZiMH5MgjN+9aNIsOlo5+32hVmbLdT4K5yX1+zyjK6chpRZBvCxVxpBmnHUdXFf
gW0pEz2ITAFkjqlzAU9vZ99fWWBK5MYOlpGcrsWPQ+JtH6FnlZgWW6wOp6XdEX0b
ocZrCYNh3VpKW+Vs6nIEi80eVWnoCHWHT/F+p5id5Kud+S/FxSUzZRBWQWfq1Db8
eDYvAMf95VhSBsl7t38+TL2t3un+/767Ue+z78z6RUuBK+PjBtSib9ty+WCDhicR
Ok3LHfwWFOgWkNFjfsrc4WEYNBmopmPVwcwGqpYcRNVDvfw4A4BTUfX7F+CIAHC8
UMvtuydgLsyv3JpenrheKfffpLJS9u6kGxK1Dghlc6fmzUOTPws94vAbtUa2hMib
Wv0xY+dRBj6hGcfmtrnGVFfDmzsWK+eJ7pm8eYNQtn7bkXGcmbDclXKrp0/uekQH
8bHYtXE3LPszt4XT+NG2JZUt3NguPu+FD4qulISFB7SVODuKjFPdXkT5WFbkksiV
/utdP13Q6nLZRuf+94b3V+W93Bzjykqsn8quEV3KR8uNikp48q5/WeJRARNPRUfb
lMNjubnXxAK14C2JRhMCAwEAAaOCAQwwggEIMCUGCWCGSAGG+EIBDQQYFhZDZXJ0
aWZpY2F0IFNTTCBWSVRBTVVJMB0GA1UdDgQWBBTO6KI2s64LowaSW9SVsi1ahId6
CjCBpgYDVR0jBIGeMIGbgBQNQtEBabFrZeGvtAA3iS5iHF3D/KFxpG8wbTELMAkG
A1UEBhMCZnIxDDAKBgNVBAgMA2lkZjEOMAwGA1UEBwwFcGFyaXMxEDAOBgNVBAoM
B3ZpdGFtdWkxFDASBgNVBAsMC2F1dGhvcml0aWVzMRgwFgYDVQQDDA9jYV9yb290
X3ZpdGFtdWmCEAzL/MOmPyHFaIPj/V0qqxYwCQYDVR0SBAIwADAMBgNVHRMBAf8E
AjAAMA0GCSqGSIb3DQEBCwUAA4ICAQB4ve6JTdJjUJLx7QPVtRznHT1XOes22BG3
e9cBNIUq5cLUYTtPkIdwR51NsR9F0whprpPfIDu+oGc6bEZDFdPsa7ithkoZsCGU
0Qq1Z1jbUTVAIdrY4fiJVAJCmYOZH5RZ7Cq/2tlNnkM3x5FEVH8amRX8wgwW5mag
PNZDMUh0ztt3XjKnMviD4YBFMqnIIqyluIsAJ/xSxroGbjOk7UTMiWKUbUs8U0T0
SJIto6yizTOL7SUmagpYAkzM49KU30XQElwcNYNrgI3vg9DKDhuCUPWa9Zy/xdRx
knL4A66kB6xu1PCEKzdcxI3RrR7rSvWJe3ZWV8hdc5mwFHF1DTp41h3yHe3L72GN
Ru49fSj0gGCLGXCRvmf/lWit0nuxk54WaoWgQIIsyvJBTtM7szCnJzFlNqtKaTp+
Ms0X2rxqZEggDTPZZyrFedj9zyoUTfud4ofs1OjilkJeMva9TgpnIDb5KjjjPuLU
bXl5L3wjvXiKrT8LqZFdOAWddMjsF/l5pd6t1phdvAkcO7qvYg9BpV4i7c9StyPa
Qz9cRUKNqcmrQqPuA7YdVhF0C8i4Fdi33QWOunxPZRIyAcp1orN+7J1gNvcrrHGi
X83IbVeF8x1WSFhQdnWs6ogKtBDyturFNcK4UN9d6v4Ngohz9OoiESbKERydFuon
Bp0RkMVkfQ==
-----END CERTIFICATE-----
