Certificate:
    Data:
        Version: 1 (0x0)
        Serial Number: 1 (0x1)
        Signature Algorithm: sha256WithRSAEncryption
        Issuer: C=fr, ST=idf, L=paris, O=vitamui, OU=authorities, CN=ca_intermediate_server
        Validity
            Not Before: Jan 30 13:32:37 2023 GMT
            Not After : Jan 29 13:32:37 2026 GMT
        Subject: C=fr, ST=idf, L=paris, O=vitamui, CN=dev.vitamui.com
        Subject Public Key Info:
            Public Key Algorithm: rsaEncryption
                Public-Key: (4096 bit)
                Modulus:
                    00:c1:c1:f2:8c:f9:59:87:e8:07:fa:c5:ad:68:01:
                    89:e9:cd:7c:ab:60:8b:bf:e9:ff:8a:7e:a2:66:ef:
                    78:6a:5b:a5:a0:05:a0:35:ee:63:45:9b:87:1f:64:
                    15:c1:1b:5d:a7:85:fc:19:86:d4:28:49:97:95:cb:
                    bf:11:6e:9f:1b:5f:31:73:35:0c:24:fb:0f:33:27:
                    64:c5:ed:3f:09:9e:7b:f6:ef:05:ff:49:7d:2e:c1:
                    9c:0a:fc:b3:6c:fe:c4:84:6a:c5:68:67:cf:23:34:
                    24:f4:52:e0:cc:74:d3:9a:d7:e5:14:ac:2b:78:fa:
                    cf:89:08:41:f7:6f:25:15:8b:3f:43:e7:67:e9:5e:
                    29:13:c8:8c:aa:b9:f7:f2:a0:f6:d7:1c:52:00:93:
                    69:54:a3:30:3d:0a:b0:9a:d2:b6:c0:2f:2b:5e:4e:
                    08:d9:d2:14:84:83:e2:6f:b1:8a:ed:d2:84:5a:24:
                    c4:46:01:6c:2a:76:e0:bf:23:be:3f:21:11:93:88:
                    fc:8f:95:5c:76:42:e3:c4:f0:2e:dd:97:1a:d6:15:
                    c1:88:92:5c:3f:75:7e:bd:c0:3a:36:b8:30:0d:cd:
                    fd:d9:97:66:30:79:41:d5:71:25:56:7e:d9:b6:3b:
                    eb:3e:99:f4:8a:a0:6c:85:38:f3:75:3f:9c:a2:8a:
                    1f:51:e9:96:b2:31:62:01:e3:d1:32:05:53:ea:1a:
                    b8:e3:80:af:58:65:27:8f:5f:2b:b7:24:9f:a2:5e:
                    9e:97:d2:3e:59:65:0c:4d:89:2d:09:19:dd:bb:c3:
                    a7:6d:64:e6:92:a8:71:3d:57:5c:6f:3a:37:60:04:
                    5c:97:93:66:66:84:75:4b:11:ee:db:d4:96:e1:f0:
                    37:63:8d:72:ef:79:b5:e9:9d:22:ca:d2:91:c5:01:
                    be:cf:8d:73:b0:9d:ef:d0:4d:a4:30:39:4c:8e:b2:
                    ce:75:2d:70:61:f2:09:a3:de:0c:03:ae:c5:00:af:
                    c6:19:1b:fd:62:ec:03:f1:3b:a7:88:e2:e7:2f:66:
                    1c:ca:93:de:ba:f2:eb:99:9b:16:98:34:12:6b:1f:
                    17:2d:fb:e3:52:7e:f5:fa:2e:3b:ce:a2:25:8b:33:
                    64:0f:a5:99:db:d5:1e:3e:3e:06:84:0d:33:95:1b:
                    0f:99:8d:94:3a:3e:57:b7:17:1b:31:d3:75:8f:d3:
                    3c:0f:9f:a2:0a:9a:62:27:6a:ad:13:88:a0:d4:b6:
                    ff:43:57:ab:22:3b:66:d9:de:a1:1b:5f:34:c1:22:
                    ae:28:91:32:18:6c:bd:a3:f2:71:8e:1a:4a:26:7a:
                    df:10:16:6c:ad:61:41:c1:c7:58:1c:f2:21:3b:73:
                    ba:17:a7
                Exponent: 65537 (0x10001)
    Signature Algorithm: sha256WithRSAEncryption
    Signature Value:
        03:49:4a:73:90:20:80:3e:4c:e2:04:79:60:0a:bc:9e:ab:8e:
        9f:2d:e7:6e:7d:45:68:27:2d:af:9c:e6:ff:79:46:b4:86:1b:
        ec:a6:3b:7c:40:1f:7c:a5:2c:fd:38:a9:9b:ab:ef:d0:2f:ff:
        ce:ce:93:23:96:60:01:f9:22:cf:07:a4:41:d9:1d:e9:70:3d:
        21:1c:78:a9:ad:f9:ef:ec:d6:6f:3d:ab:f1:f3:43:60:fa:f2:
        bd:c9:d7:fb:2f:b2:48:60:d9:56:cc:7e:de:ad:c2:8b:37:23:
        cb:68:7e:cb:62:7a:bd:e7:05:7d:bb:63:86:23:11:28:96:56:
        79:92:e6:6f:ba:7e:c9:21:ba:97:a6:2c:7b:cd:09:5d:6d:75:
        b0:53:da:a0:21:10:02:57:b3:12:4b:40:b6:21:d8:16:12:a1:
        f3:c0:82:fb:a0:ad:f7:4f:ea:75:b1:50:26:9a:3c:e6:37:1e:
        cf:30:60:14:07:8c:ca:10:2a:9d:cb:cf:b4:1a:99:d3:d8:89:
        29:25:d9:28:9b:fa:8f:8b:66:85:dc:93:c0:60:4e:bf:dd:82:
        cc:b5:2a:d4:35:dd:dc:6f:26:42:62:13:c1:b6:51:20:ca:93:
        6b:e2:68:f0:6a:7b:ca:be:c5:d6:a0:6b:88:cf:9b:97:68:39:
        3c:b2:9d:95:b9:11:54:2f:2e:61:05:93:1e:59:4b:57:c3:c9:
        83:32:97:86:c9:57:09:d0:05:21:1d:84:b4:7b:b3:dc:a7:44:
        d5:0e:ce:2e:dd:9b:ac:e5:6c:10:f8:71:70:de:c2:07:1a:9c:
        77:a0:82:37:35:cb:dc:f8:d3:40:16:d3:d3:4c:e3:19:5d:65:
        4d:ca:36:77:80:49:e0:21:24:f4:c4:57:d5:73:6a:e7:3b:f9:
        2f:9f:f0:6f:48:fc:39:51:78:05:31:4f:e3:70:de:1d:08:87:
        0e:79:df:17:20:58:d9:02:35:02:81:0d:a7:46:33:11:1c:64:
        b7:2c:b3:61:47:aa:dd:89:72:40:85:79:f1:40:d1:88:a5:8b:
        b8:f5:22:89:19:ec:b2:e9:b0:15:b6:b8:21:c9:2a:37:e5:85:
        b8:fe:ef:41:88:33:70:b6:94:b9:8c:94:ea:9c:ab:6c:b8:a6:
        26:d4:7b:3e:e1:ad:9a:fc:20:0b:87:47:51:5e:8d:88:2f:b5:
        0d:8a:5d:78:2e:74:4a:c1:32:36:c6:32:e8:b5:b8:d4:5b:11:
        06:c7:ac:35:ae:62:c2:2d:a4:a8:53:23:e0:44:62:f0:1a:df:
        28:ba:fb:55:e5:7a:22:e0:dd:9c:6e:e9:7d:63:38:ce:0c:57:
        35:75:f8:be:b6:63:10:71
-----BEGIN CERTIFICATE-----
MIIFPzCCAycCAQEwDQYJKoZIhvcNAQELBQAwdDELMAkGA1UEBhMCZnIxDDAKBgNV
BAgMA2lkZjEOMAwGA1UEBwwFcGFyaXMxEDAOBgNVBAoMB3ZpdGFtdWkxFDASBgNV
BAsMC2F1dGhvcml0aWVzMR8wHQYDVQQDDBZjYV9pbnRlcm1lZGlhdGVfc2VydmVy
MB4XDTIzMDEzMDEzMzIzN1oXDTI2MDEyOTEzMzIzN1owVzELMAkGA1UEBhMCZnIx
DDAKBgNVBAgMA2lkZjEOMAwGA1UEBwwFcGFyaXMxEDAOBgNVBAoMB3ZpdGFtdWkx
GDAWBgNVBAMMD2Rldi52aXRhbXVpLmNvbTCCAiIwDQYJKoZIhvcNAQEBBQADggIP
ADCCAgoCggIBAMHB8oz5WYfoB/rFrWgBienNfKtgi7/p/4p+ombveGpbpaAFoDXu
Y0Wbhx9kFcEbXaeF/BmG1ChJl5XLvxFunxtfMXM1DCT7DzMnZMXtPwmee/bvBf9J
fS7BnAr8s2z+xIRqxWhnzyM0JPRS4Mx005rX5RSsK3j6z4kIQfdvJRWLP0PnZ+le
KRPIjKq59/Kg9tccUgCTaVSjMD0KsJrStsAvK15OCNnSFISD4m+xiu3ShFokxEYB
bCp24L8jvj8hEZOI/I+VXHZC48TwLt2XGtYVwYiSXD91fr3AOja4MA3N/dmXZjB5
QdVxJVZ+2bY76z6Z9IqgbIU483U/nKKKH1HplrIxYgHj0TIFU+oauOOAr1hlJ49f
K7ckn6JenpfSPlllDE2JLQkZ3bvDp21k5pKocT1XXG86N2AEXJeTZmaEdUsR7tvU
luHwN2ONcu95temdIsrSkcUBvs+Nc7Cd79BNpDA5TI6yznUtcGHyCaPeDAOuxQCv
xhkb/WLsA/E7p4ji5y9mHMqT3rry65mbFpg0EmsfFy3741J+9fouO86iJYszZA+l
mdvVHj4+BoQNM5UbD5mNlDo+V7cXGzHTdY/TPA+fogqaYidqrROIoNS2/0NXqyI7
ZtneoRtfNMEiriiRMhhsvaPycY4aSiZ63xAWbK1hQcHHWBzyITtzuhenAgMBAAEw
DQYJKoZIhvcNAQELBQADggIBAANJSnOQIIA+TOIEeWAKvJ6rjp8t5259RWgnLa+c
5v95RrSGG+ymO3xAH3ylLP04qZur79Av/87OkyOWYAH5Is8HpEHZHelwPSEceKmt
+e/s1m89q/HzQ2D68r3J1/svskhg2VbMft6twos3I8tofstier3nBX27Y4YjESiW
VnmS5m+6fskhupemLHvNCV1tdbBT2qAhEAJXsxJLQLYh2BYSofPAgvugrfdP6nWx
UCaaPOY3Hs8wYBQHjMoQKp3Lz7QamdPYiSkl2Sib+o+LZoXck8BgTr/dgsy1KtQ1
3dxvJkJiE8G2USDKk2viaPBqe8q+xdaga4jPm5doOTyynZW5EVQvLmEFkx5ZS1fD
yYMyl4bJVwnQBSEdhLR7s9ynRNUOzi7dm6zlbBD4cXDewgcanHeggjc1y9z400AW
09NM4xldZU3KNneASeAhJPTEV9Vzauc7+S+f8G9I/DlReAUxT+Nw3h0Ihw553xcg
WNkCNQKBDadGMxEcZLcss2FHqt2JckCFefFA0Yili7j1IokZ7LLpsBW2uCHJKjfl
hbj+70GIM3C2lLmMlOqcq2y4pibUez7hrZr8IAuHR1FejYgvtQ2KXXgudErBMjbG
Mui1uNRbEQbHrDWuYsItpKhTI+BEYvAa3yi6+1XleiLg3Zxu6X1jOM4MVzV1+L62
YxBx
-----END CERTIFICATE-----
