Certificate:
    Data:
        Version: 1 (0x0)
        Serial Number: 45 (0x2d)
        Signature Algorithm: sha256WithRSAEncryption
        Issuer: C=fr, ST=idf, L=paris, O=vitamui, OU=authorities, CN=ca_intermediate_server
        Validity
            Not Before: Nov 23 16:59:26 2022 GMT
            Not After : Nov 22 16:59:26 2025 GMT
        Subject: C=fr, ST=idf, L=paris, O=vitamui, CN=dev.vitamui.com
        Subject Public Key Info:
            Public Key Algorithm: rsaEncryption
                RSA Public-Key: (4096 bit)
                Modulus:
                    00:ad:ff:30:f4:80:e5:92:85:24:65:a9:99:d8:35:
                    73:4a:8b:a3:a0:ce:f0:87:25:7d:54:98:f8:82:64:
                    88:46:3d:c9:27:72:dc:6b:02:b6:de:95:8d:f4:8f:
                    c0:46:03:4f:ad:3f:15:42:17:d3:ab:d8:6a:d8:e5:
                    68:1b:ab:83:86:1a:fd:60:e9:8c:d0:d2:28:94:9b:
                    2d:d2:bf:df:e7:b8:56:16:26:fc:49:fe:0e:ba:4e:
                    61:c1:12:ab:75:29:f3:a9:67:4f:43:2c:b0:a7:c5:
                    89:55:d3:52:71:b5:63:11:83:23:5b:6e:f7:ea:fd:
                    b5:36:c1:6f:99:7f:ac:d9:69:80:51:47:34:d6:9e:
                    38:7b:23:55:33:fe:c8:b3:b0:f7:46:dc:31:79:a4:
                    8f:61:07:56:d3:b6:1f:4b:69:c6:da:97:6c:c1:81:
                    6e:fc:d5:45:6b:3a:22:49:6a:77:74:af:40:cf:2a:
                    6c:aa:a4:32:24:1e:1f:13:85:e7:38:74:79:80:6b:
                    b5:24:65:55:36:60:5f:33:9b:d2:ac:3c:6b:86:bb:
                    70:fc:07:08:90:3d:e2:da:94:ed:2c:f5:ca:96:53:
                    5c:61:16:3b:1e:72:2b:01:16:5c:a3:82:1b:97:65:
                    f6:0f:70:00:e1:cf:e9:04:39:5b:58:b1:8e:02:ed:
                    75:e1:32:f8:cc:65:80:7c:b7:99:6a:77:0c:c5:4c:
                    89:18:4d:8b:2b:b3:c2:39:12:c5:c5:c9:44:4b:ba:
                    d1:c5:2d:9c:1e:83:86:92:b0:7e:9c:99:1d:cb:07:
                    33:23:da:b0:b4:d6:91:01:86:80:1b:65:92:a7:84:
                    95:f3:99:ed:88:8f:78:5a:e1:6c:d3:27:7b:dc:c4:
                    a5:77:f3:df:b5:8d:5e:ac:6c:d6:f1:1c:fa:64:57:
                    99:36:3e:99:bb:4f:58:e6:43:e3:67:a4:85:8b:a4:
                    00:c8:d0:8e:76:a7:30:f3:00:66:2f:62:ca:03:e9:
                    7a:7c:24:22:81:0e:45:fb:84:08:bb:a1:1a:14:eb:
                    55:f8:76:93:95:02:8a:2c:87:93:38:86:ec:d0:87:
                    56:aa:e4:b9:e5:ee:e0:64:d6:ee:9b:1a:2f:4f:9f:
                    62:65:30:ac:f2:89:4d:41:7e:42:ef:e4:24:b1:5a:
                    00:f9:ff:b2:eb:58:f2:7c:49:ed:bf:53:5e:a5:ed:
                    26:77:57:18:ae:b7:e9:a2:83:5d:ff:79:3f:0f:23:
                    2f:4c:ce:fe:f7:9c:6d:fb:ad:3d:a2:a8:ed:fd:a1:
                    5c:95:42:e8:7f:95:ba:e4:35:c5:c9:e3:ad:30:9e:
                    e6:59:a6:0b:29:a0:3d:6e:37:42:1c:d5:dc:4b:f6:
                    be:4f:11
                Exponent: 65537 (0x10001)
    Signature Algorithm: sha256WithRSAEncryption
         0f:6d:56:62:62:11:fc:6a:54:59:7e:54:d9:95:8a:38:8f:1e:
         8b:0b:f6:be:e0:2a:be:eb:cc:77:10:bd:cb:8d:51:63:64:49:
         74:dd:a4:89:64:07:5f:6a:6b:2a:0d:af:b5:ca:80:e9:0c:4d:
         b6:d5:6e:19:bb:f4:f0:61:b4:5a:6c:b8:51:53:bc:e2:e1:75:
         af:10:ad:df:4c:4b:2f:a6:87:fb:d3:90:1d:0b:ef:2b:1f:8c:
         d4:85:b9:de:79:f2:00:a2:9f:a5:e7:42:f1:ba:11:10:1a:80:
         ad:02:a1:e0:99:dc:ea:e1:9f:00:ee:4e:a2:36:49:90:db:4e:
         f1:e4:a4:e5:92:5a:fa:34:f0:54:4c:67:dc:46:42:0a:d3:2b:
         4d:60:56:34:75:af:18:a6:3d:51:4b:0a:70:bb:97:6b:91:49:
         7a:e9:e9:10:d5:aa:84:81:d5:56:bf:00:af:08:e0:04:2b:91:
         89:3b:9b:75:47:2b:fd:df:92:6d:9a:dc:f7:bf:27:41:5a:eb:
         e1:07:db:22:b9:d6:5f:de:3c:a7:1c:56:23:c2:de:0d:3b:55:
         f2:f1:95:e6:25:15:e5:a8:44:e6:41:ce:de:41:0a:ad:6a:04:
         58:25:d5:a0:a1:02:1a:8d:e3:c6:49:19:2a:57:d8:2a:1f:8a:
         99:06:fc:6f:a4:18:4e:bb:f7:70:fd:b3:3c:fe:b9:9d:2b:6b:
         1e:4d:81:e6:87:52:7a:7b:ae:37:bd:93:eb:b6:2a:24:56:63:
         08:77:5b:92:a5:57:df:81:63:67:e1:ac:fb:24:3f:ee:06:19:
         f9:5f:e7:2a:93:6c:ca:93:7d:29:10:fd:f1:71:ad:38:4e:a3:
         96:19:1e:59:81:c3:cc:11:d2:bd:f3:57:7b:e1:a8:a8:76:2c:
         b4:f9:70:69:0d:c4:a5:6c:42:61:01:57:7a:b5:e6:45:28:30:
         2c:b4:20:9f:46:a1:c4:d2:92:77:d3:96:70:91:1b:59:ec:47:
         af:fd:b3:c5:23:ab:9c:d0:c9:94:3e:c6:3e:38:93:f3:23:2f:
         5b:dc:1a:20:96:b3:92:70:1a:3b:d7:91:79:85:d1:ab:17:e9:
         23:cb:eb:7d:28:a0:68:81:d8:c1:50:88:19:7c:60:1c:6f:38:
         b9:db:dc:b6:5c:ed:fe:34:11:6c:f8:1d:74:5d:8b:f0:2e:32:
         a0:d5:b3:d8:f9:45:4d:27:87:70:2d:fb:b6:44:ff:77:50:dc:
         f4:6e:b7:59:f1:01:67:b3:b1:81:20:68:cf:b3:d7:15:11:b3:
         7b:bb:c3:3b:47:56:24:11:4e:1b:04:6d:f2:1f:6c:b2:04:79:
         28:bf:60:24:99:27:65:88
-----BEGIN CERTIFICATE-----
MIIFPzCCAycCAS0wDQYJKoZIhvcNAQELBQAwdDELMAkGA1UEBhMCZnIxDDAKBgNV
BAgMA2lkZjEOMAwGA1UEBwwFcGFyaXMxEDAOBgNVBAoMB3ZpdGFtdWkxFDASBgNV
BAsMC2F1dGhvcml0aWVzMR8wHQYDVQQDDBZjYV9pbnRlcm1lZGlhdGVfc2VydmVy
MB4XDTIyMTEyMzE2NTkyNloXDTI1MTEyMjE2NTkyNlowVzELMAkGA1UEBhMCZnIx
DDAKBgNVBAgMA2lkZjEOMAwGA1UEBwwFcGFyaXMxEDAOBgNVBAoMB3ZpdGFtdWkx
GDAWBgNVBAMMD2Rldi52aXRhbXVpLmNvbTCCAiIwDQYJKoZIhvcNAQEBBQADggIP
ADCCAgoCggIBAK3/MPSA5ZKFJGWpmdg1c0qLo6DO8IclfVSY+IJkiEY9ySdy3GsC
tt6VjfSPwEYDT60/FUIX06vYatjlaBurg4Ya/WDpjNDSKJSbLdK/3+e4VhYm/En+
DrpOYcESq3Up86lnT0MssKfFiVXTUnG1YxGDI1tu9+r9tTbBb5l/rNlpgFFHNNae
OHsjVTP+yLOw90bcMXmkj2EHVtO2H0tpxtqXbMGBbvzVRWs6Iklqd3SvQM8qbKqk
MiQeHxOF5zh0eYBrtSRlVTZgXzOb0qw8a4a7cPwHCJA94tqU7Sz1ypZTXGEWOx5y
KwEWXKOCG5dl9g9wAOHP6QQ5W1ixjgLtdeEy+MxlgHy3mWp3DMVMiRhNiyuzwjkS
xcXJREu60cUtnB6DhpKwfpyZHcsHMyPasLTWkQGGgBtlkqeElfOZ7YiPeFrhbNMn
e9zEpXfz37WNXqxs1vEc+mRXmTY+mbtPWOZD42ekhYukAMjQjnanMPMAZi9iygPp
enwkIoEORfuECLuhGhTrVfh2k5UCiiyHkziG7NCHVqrkueXu4GTW7psaL0+fYmUw
rPKJTUF+Qu/kJLFaAPn/sutY8nxJ7b9TXqXtJndXGK636aKDXf95Pw8jL0zO/vec
bfutPaKo7f2hXJVC6H+VuuQ1xcnjrTCe5lmmCymgPW43QhzV3Ev2vk8RAgMBAAEw
DQYJKoZIhvcNAQELBQADggIBAA9tVmJiEfxqVFl+VNmVijiPHosL9r7gKr7rzHcQ
vcuNUWNkSXTdpIlkB19qayoNr7XKgOkMTbbVbhm79PBhtFpsuFFTvOLhda8Qrd9M
Sy+mh/vTkB0L7ysfjNSFud558gCin6XnQvG6ERAagK0CoeCZ3OrhnwDuTqI2SZDb
TvHkpOWSWvo08FRMZ9xGQgrTK01gVjR1rximPVFLCnC7l2uRSXrp6RDVqoSB1Va/
AK8I4AQrkYk7m3VHK/3fkm2a3Pe/J0Fa6+EH2yK51l/ePKccViPC3g07VfLxleYl
FeWoROZBzt5BCq1qBFgl1aChAhqN48ZJGSpX2CofipkG/G+kGE6793D9szz+uZ0r
ax5NgeaHUnp7rje9k+u2KiRWYwh3W5KlV9+BY2fhrPskP+4GGflf5yqTbMqTfSkQ
/fFxrThOo5YZHlmBw8wR0r3zV3vhqKh2LLT5cGkNxKVsQmEBV3q15kUoMCy0IJ9G
ocTSknfTlnCRG1nsR6/9s8Ujq5zQyZQ+xj44k/MjL1vcGiCWs5JwGjvXkXmF0asX
6SPL630ooGiB2MFQiBl8YBxvOLnb3LZc7f40EWz4HXRdi/AuMqDVs9j5RU0nh3At
+7ZE/3dQ3PRut1nxAWezsYEgaM+z1xURs3u7wztHViQRThsEbfIfbLIEeSi/YCSZ
J2WI
-----END CERTIFICATE-----
