Certificate:
    Data:
        Version: 1 (0x0)
        Serial Number: 15 (0xf)
        Signature Algorithm: sha256WithRSAEncryption
        Issuer: C=fr, ST=idf, L=paris, O=vitamui, OU=authorities, CN=ca_intermediate_server
        Validity
            Not Before: Nov 19 09:16:40 2020 GMT
            Not After : Nov 19 09:16:40 2023 GMT
        Subject: C=fr, ST=idf, L=paris, O=vitamui, CN=dev.vitamui.com
        Subject Public Key Info:
            Public Key Algorithm: rsaEncryption
                RSA Public-Key: (4096 bit)
                Modulus:
                    00:ad:d9:89:85:c5:f7:27:22:48:7c:df:79:9c:89:
                    0e:80:67:db:64:44:ac:73:d7:31:3f:9f:dd:45:16:
                    1a:9b:30:03:8e:a6:02:35:f5:f5:bf:98:ea:31:7e:
                    e2:86:e3:c8:b1:b0:59:26:ab:9e:0f:4b:1a:05:ba:
                    eb:e5:27:ec:e5:94:b9:b1:19:e6:23:ac:3f:3a:ef:
                    2e:f2:fa:fb:66:a4:e3:24:ec:7f:93:68:33:8f:a5:
                    a8:5c:be:88:bd:90:1e:3a:e8:70:8b:5b:a4:c2:fe:
                    6d:2c:b6:9e:1e:66:98:f3:6b:7b:d1:a1:18:d8:8f:
                    37:8e:33:d1:3a:a8:d2:4d:3f:75:d2:cb:f1:01:60:
                    96:42:06:b2:79:7a:bb:cf:53:50:99:7b:49:a8:f4:
                    05:75:d1:9c:01:9f:4b:31:c5:52:51:38:4a:51:31:
                    d6:74:3c:13:df:a1:c5:97:3f:19:c5:f9:50:2c:29:
                    3b:80:78:ed:e6:eb:c5:18:bb:a2:f6:9b:51:ef:1b:
                    29:02:9a:ee:f5:8c:63:e1:e8:50:42:3c:c9:06:0b:
                    d4:a3:ac:31:c1:a8:17:40:e1:c4:ae:23:94:6d:4a:
                    e5:9d:16:e8:0b:47:1f:01:95:95:51:36:c6:a4:24:
                    4e:97:72:89:74:41:bd:06:50:2b:28:99:57:1a:1f:
                    88:95:29:00:0b:25:f9:6c:f1:fb:47:77:1f:c1:fe:
                    f0:e1:10:41:6f:3f:b8:2d:aa:b0:1d:dd:0f:8f:84:
                    f4:63:cf:0d:69:da:a2:bd:da:d0:12:44:0c:4b:9c:
                    da:ce:08:6a:b6:c9:bf:cd:b4:6f:66:49:12:89:be:
                    1f:c3:c2:95:ed:e2:06:27:61:cc:67:60:2a:b5:7c:
                    f3:c6:79:6f:f4:47:1d:8d:29:de:f7:ec:c4:7b:d3:
                    c0:b8:d9:6e:7d:76:e5:1c:e4:ce:d3:f7:f0:25:db:
                    e3:a8:09:6a:17:90:a2:4a:a2:90:e3:09:01:5f:9a:
                    24:5d:93:1a:44:6c:b1:e3:23:86:70:d3:6e:87:8e:
                    fe:c0:83:81:83:e2:62:17:be:e2:3a:83:94:56:ee:
                    48:5b:88:5b:a3:7c:fe:c0:92:fd:ef:82:da:94:e3:
                    fe:ca:6f:96:32:01:17:c8:26:eb:86:47:96:7e:ba:
                    36:ea:13:58:e9:eb:75:f2:54:d1:65:4b:cc:00:d1:
                    9f:87:0c:e9:00:83:4d:aa:21:f2:8b:26:c3:73:59:
                    99:eb:d1:f5:14:d3:43:5d:9c:85:6b:75:25:e5:1c:
                    81:86:7c:20:1c:3f:4a:9b:f9:d9:ce:ba:12:06:54:
                    a2:a8:3b:70:06:50:6c:d8:07:52:31:4c:4a:4f:2a:
                    1a:e8:33
                Exponent: 65537 (0x10001)
    Signature Algorithm: sha256WithRSAEncryption
         07:d2:10:fb:9f:b3:50:68:0c:44:0d:9a:6b:e5:05:e2:57:f9:
         b6:14:2c:7b:90:f4:6d:65:ba:d3:9f:7e:01:f8:bd:29:ec:bd:
         d0:ec:58:40:79:2b:08:0a:fb:9f:fb:78:49:62:00:7b:83:3a:
         f2:12:73:6e:fd:93:21:9e:53:0d:66:f6:f8:a5:45:ba:d6:66:
         9c:af:2c:7f:2a:1b:de:cc:39:2e:d2:eb:af:b1:dc:be:96:28:
         24:be:b8:e7:d4:33:a7:07:43:81:ea:32:cd:5e:25:76:0e:58:
         ae:9d:9b:bb:cc:fe:f2:e5:9d:87:e5:fb:fd:fa:93:d0:47:32:
         34:76:22:ea:44:86:df:b7:42:ab:9d:f0:ac:fe:17:3b:f7:59:
         87:41:b0:ad:5c:41:fc:49:b0:9e:20:8d:70:2e:05:b7:ba:9c:
         23:c0:5d:bf:38:75:f4:12:a5:b9:c3:09:0b:a6:7a:ae:9c:dd:
         9b:b4:72:c8:36:74:d6:db:9e:01:9c:c9:db:e8:1e:b9:27:9b:
         21:79:ae:fa:1b:fc:3f:db:56:29:cf:6e:64:d3:6b:06:0d:16:
         65:bc:77:e2:e9:20:85:b7:0e:50:69:61:2f:22:26:64:52:e8:
         90:03:0e:d5:14:bd:45:a7:eb:21:69:09:13:42:8c:ac:d8:d9:
         46:10:9b:08:af:2c:9c:3d:80:5c:0f:0f:31:e8:09:4c:55:a2:
         9d:4d:ad:ed:83:dd:96:d7:95:73:21:50:57:ba:22:10:d5:18:
         25:66:d7:96:ed:ea:b2:c2:54:8f:31:c8:73:a4:8a:e4:28:5e:
         59:d5:f0:6d:34:f0:18:f5:5a:26:62:ff:7f:35:bc:34:23:7b:
         c6:78:c4:3c:fd:9a:d2:fc:80:4b:ba:6e:28:85:7d:22:72:3f:
         62:24:25:23:9b:38:d2:f4:92:5d:de:96:ec:10:89:7a:f0:fe:
         34:3a:0c:31:41:a5:34:dd:e5:b3:91:98:89:d8:43:a7:7f:59:
         6f:0f:46:85:15:ec:d5:eb:64:55:1a:a6:84:48:e9:27:89:d2:
         af:36:ba:07:dd:f8:24:c4:50:d6:6e:23:52:92:1c:4b:9d:ab:
         2d:f4:9f:c5:32:9e:cb:de:f8:ac:08:1c:32:2c:b7:8d:67:0c:
         c7:8d:62:cf:30:cc:99:d2:b8:47:c9:56:1f:04:64:a9:26:55:
         92:a1:ff:b9:a5:ac:c7:2b:99:d5:cf:dd:03:f7:bf:6a:52:b8:
         67:c1:51:e3:12:a2:38:67:0c:ad:30:78:54:f2:3d:4f:a6:45:
         78:27:ba:d5:8b:52:c8:c9:de:a5:49:2b:3c:16:32:93:7b:5f:
         03:55:2a:72:c6:0c:fa:b3
-----BEGIN CERTIFICATE-----
MIIFPzCCAycCAQ8wDQYJKoZIhvcNAQELBQAwdDELMAkGA1UEBhMCZnIxDDAKBgNV
BAgMA2lkZjEOMAwGA1UEBwwFcGFyaXMxEDAOBgNVBAoMB3ZpdGFtdWkxFDASBgNV
BAsMC2F1dGhvcml0aWVzMR8wHQYDVQQDDBZjYV9pbnRlcm1lZGlhdGVfc2VydmVy
MB4XDTIwMTExOTA5MTY0MFoXDTIzMTExOTA5MTY0MFowVzELMAkGA1UEBhMCZnIx
DDAKBgNVBAgMA2lkZjEOMAwGA1UEBwwFcGFyaXMxEDAOBgNVBAoMB3ZpdGFtdWkx
GDAWBgNVBAMMD2Rldi52aXRhbXVpLmNvbTCCAiIwDQYJKoZIhvcNAQEBBQADggIP
ADCCAgoCggIBAK3ZiYXF9yciSHzfeZyJDoBn22RErHPXMT+f3UUWGpswA46mAjX1
9b+Y6jF+4objyLGwWSarng9LGgW66+Un7OWUubEZ5iOsPzrvLvL6+2ak4yTsf5No
M4+lqFy+iL2QHjrocItbpML+bSy2nh5mmPNre9GhGNiPN44z0Tqo0k0/ddLL8QFg
lkIGsnl6u89TUJl7Saj0BXXRnAGfSzHFUlE4SlEx1nQ8E9+hxZc/GcX5UCwpO4B4
7ebrxRi7ovabUe8bKQKa7vWMY+HoUEI8yQYL1KOsMcGoF0DhxK4jlG1K5Z0W6AtH
HwGVlVE2xqQkTpdyiXRBvQZQKyiZVxofiJUpAAsl+Wzx+0d3H8H+8OEQQW8/uC2q
sB3dD4+E9GPPDWnaor3a0BJEDEuc2s4IarbJv820b2ZJEom+H8PCle3iBidhzGdg
KrV888Z5b/RHHY0p3vfsxHvTwLjZbn125RzkztP38CXb46gJaheQokqikOMJAV+a
JF2TGkRsseMjhnDTboeO/sCDgYPiYhe+4jqDlFbuSFuIW6N8/sCS/e+C2pTj/spv
ljIBF8gm64ZHln66NuoTWOnrdfJU0WVLzADRn4cM6QCDTaoh8osmw3NZmevR9RTT
Q12chWt1JeUcgYZ8IBw/Spv52c66EgZUoqg7cAZQbNgHUjFMSk8qGugzAgMBAAEw
DQYJKoZIhvcNAQELBQADggIBAAfSEPufs1BoDEQNmmvlBeJX+bYULHuQ9G1lutOf
fgH4vSnsvdDsWEB5KwgK+5/7eEliAHuDOvISc279kyGeUw1m9vilRbrWZpyvLH8q
G97MOS7S66+x3L6WKCS+uOfUM6cHQ4HqMs1eJXYOWK6dm7vM/vLlnYfl+/36k9BH
MjR2IupEht+3Qqud8Kz+Fzv3WYdBsK1cQfxJsJ4gjXAuBbe6nCPAXb84dfQSpbnD
CQumeq6c3Zu0csg2dNbbngGcydvoHrknmyF5rvob/D/bVinPbmTTawYNFmW8d+Lp
IIW3DlBpYS8iJmRS6JADDtUUvUWn6yFpCRNCjKzY2UYQmwivLJw9gFwPDzHoCUxV
op1Nre2D3ZbXlXMhUFe6IhDVGCVm15bt6rLCVI8xyHOkiuQoXlnV8G008Bj1WiZi
/381vDQje8Z4xDz9mtL8gEu6biiFfSJyP2IkJSObONL0kl3eluwQiXrw/jQ6DDFB
pTTd5bORmInYQ6d/WW8PRoUV7NXrZFUapoRI6SeJ0q82ugfd+CTEUNZuI1KSHEud
qy30n8Uynsve+KwIHDIst41nDMeNYs8wzJnSuEfJVh8EZKkmVZKh/7mlrMcrmdXP
3QP3v2pSuGfBUeMSojhnDK0weFTyPU+mRXgnutWLUsjJ3qVJKzwWMpN7XwNVKnLG
DPqz
-----END CERTIFICATE-----
