Certificate:
    Data:
        Version: 1 (0x0)
        Serial Number: 39 (0x27)
        Signature Algorithm: sha256WithRSAEncryption
        Issuer: C=fr, ST=idf, L=paris, O=vitamui, OU=authorities, CN=ca_intermediate_server
        Validity
            Not Before: Nov 23 16:59:15 2022 GMT
            Not After : Nov 22 16:59:15 2025 GMT
        Subject: C=fr, ST=idf, L=paris, O=vitamui, CN=dev.vitamui.com
        Subject Public Key Info:
            Public Key Algorithm: rsaEncryption
                RSA Public-Key: (4096 bit)
                Modulus:
                    00:c2:45:2c:d1:de:10:99:35:f1:c1:f7:59:ad:3d:
                    28:4d:89:e3:55:c3:7e:ae:8c:d8:13:00:e8:e7:35:
                    a6:2f:21:f8:dc:78:ef:79:bb:a9:99:7b:a9:ba:31:
                    4d:3f:e1:23:a1:63:03:6a:6d:eb:39:2e:d8:1b:9e:
                    69:1c:64:1c:2d:19:e5:95:18:f6:ae:bb:92:c8:29:
                    5d:b4:e4:3c:b4:8d:cf:28:c4:f5:a8:58:0e:56:58:
                    ac:e6:96:47:1b:5b:41:82:62:3f:6c:97:1b:08:94:
                    e3:28:80:55:5e:db:ff:f4:74:49:52:c1:41:82:ff:
                    c7:01:3e:ed:af:eb:4e:bb:33:7f:26:59:8e:0f:70:
                    f2:9d:8c:91:6f:04:d2:3e:65:e4:94:4b:d1:7a:e8:
                    0f:47:06:b8:39:29:52:a5:6a:23:ce:6a:e2:1d:db:
                    a4:e9:9a:7c:e1:6d:96:b5:99:c7:ee:bf:4b:fb:45:
                    e3:e0:ed:75:a1:5f:5c:38:17:de:76:1b:90:ae:c3:
                    5b:87:e2:68:5b:7d:35:31:ba:6d:da:48:84:af:55:
                    91:cd:e1:af:27:1d:5e:61:08:7f:d2:1f:8a:9b:4f:
                    73:61:0d:62:f9:77:0b:d7:20:3d:43:20:04:c8:29:
                    b7:46:28:75:f1:05:02:db:91:91:c3:ee:7c:fd:a5:
                    76:45:06:48:a2:43:10:c9:12:2e:57:6d:84:d8:f1:
                    c2:24:1d:24:bb:19:17:dc:43:ea:ab:07:de:6c:ba:
                    38:cf:13:4c:4f:13:4b:d8:03:e3:d4:55:22:13:61:
                    c5:16:70:64:b1:17:c9:1e:f3:39:77:ce:18:69:2f:
                    67:70:fa:0c:72:48:af:1a:b9:01:3c:97:b5:a5:6d:
                    a9:f0:15:73:58:39:eb:44:45:04:c3:45:fa:6c:72:
                    2d:da:0a:48:93:d3:68:91:e3:3a:14:5b:b5:3f:ba:
                    a9:b5:69:e3:73:8e:14:5c:52:6e:92:df:b9:67:67:
                    3c:8f:ca:32:fe:bc:7e:29:71:88:95:5b:78:61:93:
                    a1:8e:31:b5:82:a8:d8:0d:37:6b:77:17:44:cc:d6:
                    43:6a:97:6e:98:c9:38:dd:12:4b:bf:19:92:bf:58:
                    ad:c6:4b:60:72:85:d4:6f:64:85:93:f3:ee:e1:a8:
                    47:35:4d:19:9d:f8:e7:2f:9d:f0:b2:f9:af:36:6b:
                    be:3d:11:d5:a1:55:91:0f:91:d9:43:df:ef:61:d2:
                    e3:09:89:a6:6d:43:94:4e:a1:4c:3e:d4:43:47:4c:
                    74:a1:96:b0:c0:f2:0f:2d:b6:9b:57:47:bd:45:55:
                    c5:c2:11:48:9f:b7:8b:07:25:48:30:20:0e:69:35:
                    c8:64:a9
                Exponent: 65537 (0x10001)
    Signature Algorithm: sha256WithRSAEncryption
         0c:09:4c:86:fb:ce:ff:ce:0f:45:0a:1c:88:08:16:33:a7:56:
         ef:99:58:0f:39:13:ed:cd:31:c5:00:61:7f:75:d0:27:ce:d5:
         f4:89:87:b6:27:3b:99:fe:5b:d2:df:d7:c7:47:5d:17:cc:02:
         a8:06:9e:8d:10:a6:ea:cf:e6:f8:ff:76:88:30:87:c0:87:44:
         63:63:23:8c:bc:83:49:c6:c0:40:4b:d3:94:fa:31:ba:20:d2:
         62:3d:f4:13:e8:e6:4c:93:55:fa:cc:2b:b0:df:61:ee:76:70:
         b6:00:8a:cd:db:c8:e4:68:85:85:c8:2f:e1:2d:e8:fe:92:36:
         3d:33:6c:c0:8a:d9:47:ef:2f:4d:c1:54:88:e8:a7:23:f5:98:
         2d:c1:86:82:e6:18:05:b8:4e:b4:c8:c2:7f:2c:6a:ed:c9:87:
         68:9d:a8:ed:60:a0:e1:1c:a3:50:67:56:70:37:36:33:71:fc:
         3c:ea:aa:86:94:38:e8:90:21:17:74:c8:f5:66:db:98:01:1e:
         33:b7:a6:3c:ab:a2:4f:06:ac:7d:5e:2c:ce:39:b2:fe:fa:61:
         ee:a9:be:f9:49:5a:ad:19:b3:50:78:57:29:45:18:08:4f:2b:
         ac:d9:1c:9a:22:ef:a3:58:22:bc:2a:c0:24:8b:29:ff:64:63:
         2f:76:9a:d9:1e:5c:f2:b0:86:4d:4a:77:1c:24:ca:0b:e2:c3:
         44:a1:18:42:7b:b4:c3:70:e9:6c:79:9b:e9:3b:d0:e2:2a:b0:
         e8:f4:92:64:a5:c0:c5:75:74:ac:e3:43:5b:1c:dd:6f:54:39:
         6a:1e:ab:7a:f7:26:75:c7:50:a8:26:85:40:06:f0:c7:eb:74:
         56:ce:4c:f0:c2:bf:5f:dc:3a:f0:96:9b:c9:21:3b:e3:5b:2c:
         22:65:82:6f:ef:4a:4a:88:60:1c:2e:e1:f6:41:dc:ca:c2:85:
         70:bc:c9:04:3f:a0:12:f2:8e:5e:d0:14:52:74:8e:39:ac:de:
         03:03:16:88:7d:ca:ac:af:5a:28:d1:27:ec:82:20:0a:0a:17:
         f8:73:eb:a5:60:db:29:2d:27:07:2e:45:f5:2a:80:48:2e:42:
         e3:d2:88:23:19:f3:3a:b5:2a:5d:c3:68:57:c7:ed:9e:12:49:
         8b:13:b5:f4:06:13:0c:64:94:cb:85:0c:9a:8f:98:08:68:77:
         f4:51:a0:07:12:a2:57:67:cc:70:af:f4:64:06:eb:5f:c5:27:
         52:45:62:c8:ea:63:36:70:73:71:84:13:30:90:94:76:38:45:
         6c:98:66:36:15:78:38:ec:85:50:b8:aa:a3:a7:39:a2:88:9f:
         fa:f9:ad:a9:5f:59:ec:87
-----BEGIN CERTIFICATE-----
MIIFPzCCAycCAScwDQYJKoZIhvcNAQELBQAwdDELMAkGA1UEBhMCZnIxDDAKBgNV
BAgMA2lkZjEOMAwGA1UEBwwFcGFyaXMxEDAOBgNVBAoMB3ZpdGFtdWkxFDASBgNV
BAsMC2F1dGhvcml0aWVzMR8wHQYDVQQDDBZjYV9pbnRlcm1lZGlhdGVfc2VydmVy
MB4XDTIyMTEyMzE2NTkxNVoXDTI1MTEyMjE2NTkxNVowVzELMAkGA1UEBhMCZnIx
DDAKBgNVBAgMA2lkZjEOMAwGA1UEBwwFcGFyaXMxEDAOBgNVBAoMB3ZpdGFtdWkx
GDAWBgNVBAMMD2Rldi52aXRhbXVpLmNvbTCCAiIwDQYJKoZIhvcNAQEBBQADggIP
ADCCAgoCggIBAMJFLNHeEJk18cH3Wa09KE2J41XDfq6M2BMA6Oc1pi8h+Nx473m7
qZl7qboxTT/hI6FjA2pt6zku2BueaRxkHC0Z5ZUY9q67ksgpXbTkPLSNzyjE9ahY
DlZYrOaWRxtbQYJiP2yXGwiU4yiAVV7b//R0SVLBQYL/xwE+7a/rTrszfyZZjg9w
8p2MkW8E0j5l5JRL0XroD0cGuDkpUqVqI85q4h3bpOmafOFtlrWZx+6/S/tF4+Dt
daFfXDgX3nYbkK7DW4fiaFt9NTG6bdpIhK9Vkc3hrycdXmEIf9IfiptPc2ENYvl3
C9cgPUMgBMgpt0YodfEFAtuRkcPufP2ldkUGSKJDEMkSLldthNjxwiQdJLsZF9xD
6qsH3my6OM8TTE8TS9gD49RVIhNhxRZwZLEXyR7zOXfOGGkvZ3D6DHJIrxq5ATyX
taVtqfAVc1g560RFBMNF+mxyLdoKSJPTaJHjOhRbtT+6qbVp43OOFFxSbpLfuWdn
PI/KMv68filxiJVbeGGToY4xtYKo2A03a3cXRMzWQ2qXbpjJON0SS78Zkr9YrcZL
YHKF1G9khZPz7uGoRzVNGZ345y+d8LL5rzZrvj0R1aFVkQ+R2UPf72HS4wmJpm1D
lE6hTD7UQ0dMdKGWsMDyDy22m1dHvUVVxcIRSJ+3iwclSDAgDmk1yGSpAgMBAAEw
DQYJKoZIhvcNAQELBQADggIBAAwJTIb7zv/OD0UKHIgIFjOnVu+ZWA85E+3NMcUA
YX910CfO1fSJh7YnO5n+W9Lf18dHXRfMAqgGno0QpurP5vj/dogwh8CHRGNjI4y8
g0nGwEBL05T6Mbog0mI99BPo5kyTVfrMK7DfYe52cLYAis3byORohYXIL+Et6P6S
Nj0zbMCK2UfvL03BVIjopyP1mC3BhoLmGAW4TrTIwn8sau3Jh2idqO1goOEco1Bn
VnA3NjNx/DzqqoaUOOiQIRd0yPVm25gBHjO3pjyrok8GrH1eLM45sv76Ye6pvvlJ
Wq0Zs1B4VylFGAhPK6zZHJoi76NYIrwqwCSLKf9kYy92mtkeXPKwhk1Kdxwkygvi
w0ShGEJ7tMNw6Wx5m+k70OIqsOj0kmSlwMV1dKzjQ1sc3W9UOWoeq3r3JnXHUKgm
hUAG8MfrdFbOTPDCv1/cOvCWm8khO+NbLCJlgm/vSkqIYBwu4fZB3MrChXC8yQQ/
oBLyjl7QFFJ0jjms3gMDFoh9yqyvWijRJ+yCIAoKF/hz66Vg2yktJwcuRfUqgEgu
QuPSiCMZ8zq1Kl3DaFfH7Z4SSYsTtfQGEwxklMuFDJqPmAhod/RRoAcSoldnzHCv
9GQG61/FJ1JFYsjqYzZwc3GEEzCQlHY4RWyYZjYVeDjshVC4qqOnOaKIn/r5ralf
WeyH
-----END CERTIFICATE-----
