Certificate:
    Data:
        Version: 1 (0x0)
        Serial Number: 136 (0x88)
    Signature Algorithm: sha256WithRSAEncryption
        Issuer: C=fr, ST=idf, L=paris, O=vitamui, OU=authorities, CN=ca_intermediate_server
        Validity
            Not Before: Dec  6 12:54:28 2021 GMT
            Not After : Dec  5 12:54:28 2024 GMT
        Subject: C=fr, ST=idf, L=paris, O=vitamui, CN=dev.vitamui.com
        Subject Public Key Info:
            Public Key Algorithm: rsaEncryption
                Public-Key: (4096 bit)
                Modulus:
                    00:aa:6f:2e:5f:22:65:ae:4b:c0:d3:4b:b2:43:08:
                    29:57:80:d6:38:ee:b9:0a:63:04:be:8a:98:99:09:
                    75:cb:25:d4:47:61:45:4d:34:a2:52:13:b8:a3:89:
                    d9:a3:4d:df:c7:fc:73:3e:10:49:c6:4e:01:28:77:
                    f8:b7:6d:88:83:85:da:53:c8:bd:21:c2:9d:5e:7a:
                    b4:b0:64:bc:d5:fb:ea:87:c9:25:a8:4a:40:3e:88:
                    3f:e7:63:7a:a4:ee:ea:46:bb:e7:f7:77:cc:23:8e:
                    c6:67:76:a6:ba:72:74:5d:12:a1:b4:8d:63:be:b2:
                    9b:c2:c1:ce:f2:13:de:33:ea:5c:62:1c:6d:b0:d4:
                    46:e8:7d:b2:f3:a1:c0:13:3f:2e:ff:b7:9e:17:00:
                    0f:37:51:16:57:51:bc:af:2f:20:12:a9:d7:b0:b4:
                    da:be:82:ef:af:d4:cd:9d:52:c6:41:6b:3b:70:c2:
                    d7:c2:10:28:96:4d:4b:39:1f:66:da:d0:e7:31:14:
                    9f:db:2d:f1:7a:f2:df:ee:96:1b:2c:23:da:79:53:
                    25:50:a5:11:86:6c:5b:99:e2:e2:8f:ee:be:4c:ae:
                    82:ed:12:65:9b:7a:f7:29:91:6b:fc:be:d2:06:fb:
                    34:2c:01:d2:b0:96:cf:6b:4f:1a:b4:5d:e5:dd:ba:
                    6f:26:32:9a:89:f9:e6:4d:ce:ba:3a:8b:53:60:9a:
                    05:79:90:55:58:8c:ca:e8:35:60:f4:20:20:46:3e:
                    3a:47:48:c9:15:77:6c:cf:03:a3:b8:18:89:4d:17:
                    99:7e:95:66:e9:69:7a:bd:d1:f5:3f:b6:ae:3a:4e:
                    f2:a2:72:2e:c8:66:f5:bb:5b:92:7b:cb:21:de:19:
                    c8:db:fe:ab:88:8c:50:be:19:20:9e:e1:24:cc:03:
                    49:de:3a:b0:2a:31:bd:07:cf:84:4b:1a:4b:a1:71:
                    ec:78:fa:47:31:28:46:68:ee:5e:6b:cf:23:5e:99:
                    7f:59:f8:70:52:16:5f:ce:03:ca:83:6d:fb:bd:d1:
                    6e:d3:b6:0a:b3:60:13:ea:67:76:7e:a8:f2:39:e2:
                    5b:a8:ad:63:bb:0c:8e:7c:c1:d7:a8:d2:7f:ce:7e:
                    76:2c:5e:a3:0c:6b:d7:56:06:e3:54:e9:1e:cb:6e:
                    26:4c:c4:09:08:40:f5:23:9d:56:0f:ee:a8:5f:67:
                    2b:2f:66:21:7b:fc:47:19:6e:6a:9f:ae:bf:12:12:
                    96:53:e7:4a:bf:ef:58:8a:c4:ba:25:d6:6d:6f:53:
                    f8:77:e9:ce:ad:1b:d5:34:24:37:35:7b:0d:15:04:
                    10:15:9c:d4:0b:40:98:98:c0:d8:78:e8:8b:f2:93:
                    4e:8d:c7
                Exponent: 65537 (0x10001)
    Signature Algorithm: sha256WithRSAEncryption
         3b:aa:66:c1:f8:15:1d:3c:e2:58:8b:be:50:a5:68:47:a6:20:
         95:90:3a:c9:de:2a:7b:38:54:62:91:7d:05:c3:25:e2:71:f3:
         38:0b:61:44:23:d1:e8:ca:98:8d:7f:df:45:f9:2e:91:56:ce:
         a0:df:7f:25:d0:a0:51:90:87:33:94:8c:35:c5:d9:66:cf:eb:
         5c:fd:3b:1a:35:26:c8:f9:b2:23:6c:06:f4:9e:27:54:69:85:
         23:5d:79:74:98:47:91:33:f6:62:a5:44:de:ab:a3:d9:30:f3:
         19:a4:c6:c6:bd:10:3b:c1:8e:13:d4:be:c7:77:40:4d:00:37:
         39:e6:f3:c2:b1:58:ea:25:52:ba:c4:03:cf:7f:e5:e1:8e:d2:
         df:5c:03:ba:fc:12:72:72:56:91:e5:3e:a4:6c:45:b7:cd:0b:
         9f:a2:fc:46:8c:e1:99:d3:85:9c:ef:91:b8:dd:7c:4a:31:f6:
         25:db:c2:cf:a5:a8:af:7e:12:c2:54:cd:29:d4:1a:21:67:9d:
         15:81:6f:62:e9:bf:32:72:1c:7f:a1:1e:67:ed:02:f8:40:f9:
         6c:a3:3c:1f:13:94:80:eb:af:58:d2:4b:1e:19:b8:7b:ea:ca:
         10:d5:83:05:2b:af:8a:b3:20:56:09:c3:46:bd:92:ee:a0:84:
         62:21:2b:24:06:63:83:03:b6:62:7d:1d:2d:78:40:13:45:d9:
         92:05:8d:23:b8:b8:55:f6:7a:7e:84:55:c6:67:e6:fe:fe:46:
         13:bf:22:97:ea:5a:66:0b:96:a3:24:3c:51:1a:b9:92:be:14:
         ff:e5:16:1f:60:8c:8d:a4:c6:c1:bb:6d:fc:dc:4e:67:d6:f8:
         fc:9c:a9:46:67:40:9c:82:f8:06:b9:70:e7:f0:b6:b3:0f:92:
         fa:dd:2d:2c:af:2e:bb:db:a5:68:81:5b:57:96:aa:4f:66:ea:
         e0:51:30:47:55:81:92:d4:76:d4:60:52:a6:9a:5f:14:b9:69:
         52:ca:9d:6c:6e:16:57:4b:58:c2:b3:59:ae:b4:1f:cf:e9:94:
         b7:a8:cf:14:d6:c9:9f:82:81:6a:c3:9e:1a:99:60:57:0c:72:
         16:f0:d1:37:7b:51:e8:a4:cd:df:b2:4d:e6:3c:fb:20:2c:88:
         52:6e:7e:1f:af:24:39:c1:22:96:ae:ee:98:21:30:8c:2a:aa:
         12:38:66:81:70:e4:ca:ef:e7:04:01:c0:3e:ec:90:6e:94:de:
         df:e6:b0:0d:b5:3e:56:90:a8:c5:f7:cd:d5:69:26:80:c1:5c:
         e4:a9:b6:7a:43:53:2c:c4:df:5d:50:17:db:82:76:55:d1:bc:
         75:a3:33:e7:9b:88:b3:77
-----BEGIN CERTIFICATE-----
MIIFQDCCAygCAgCIMA0GCSqGSIb3DQEBCwUAMHQxCzAJBgNVBAYTAmZyMQwwCgYD
VQQIDANpZGYxDjAMBgNVBAcMBXBhcmlzMRAwDgYDVQQKDAd2aXRhbXVpMRQwEgYD
VQQLDAthdXRob3JpdGllczEfMB0GA1UEAwwWY2FfaW50ZXJtZWRpYXRlX3NlcnZl
cjAeFw0yMTEyMDYxMjU0MjhaFw0yNDEyMDUxMjU0MjhaMFcxCzAJBgNVBAYTAmZy
MQwwCgYDVQQIDANpZGYxDjAMBgNVBAcMBXBhcmlzMRAwDgYDVQQKDAd2aXRhbXVp
MRgwFgYDVQQDDA9kZXYudml0YW11aS5jb20wggIiMA0GCSqGSIb3DQEBAQUAA4IC
DwAwggIKAoICAQCqby5fImWuS8DTS7JDCClXgNY47rkKYwS+ipiZCXXLJdRHYUVN
NKJSE7ijidmjTd/H/HM+EEnGTgEod/i3bYiDhdpTyL0hwp1eerSwZLzV++qHySWo
SkA+iD/nY3qk7upGu+f3d8wjjsZndqa6cnRdEqG0jWO+spvCwc7yE94z6lxiHG2w
1EbofbLzocATPy7/t54XAA83URZXUbyvLyASqdewtNq+gu+v1M2dUsZBaztwwtfC
ECiWTUs5H2ba0OcxFJ/bLfF68t/ulhssI9p5UyVQpRGGbFuZ4uKP7r5MroLtEmWb
evcpkWv8vtIG+zQsAdKwls9rTxq0XeXdum8mMpqJ+eZNzro6i1NgmgV5kFVYjMro
NWD0ICBGPjpHSMkVd2zPA6O4GIlNF5l+lWbpaXq90fU/tq46TvKici7IZvW7W5J7
yyHeGcjb/quIjFC+GSCe4STMA0neOrAqMb0Hz4RLGkuhcex4+kcxKEZo7l5rzyNe
mX9Z+HBSFl/OA8qDbfu90W7TtgqzYBPqZ3Z+qPI54luorWO7DI58wdeo0n/OfnYs
XqMMa9dWBuNU6R7LbiZMxAkIQPUjnVYP7qhfZysvZiF7/EcZbmqfrr8SEpZT50q/
71iKxLol1m1vU/h36c6tG9U0JDc1ew0VBBAVnNQLQJiYwNh46Ivyk06NxwIDAQAB
MA0GCSqGSIb3DQEBCwUAA4ICAQA7qmbB+BUdPOJYi75QpWhHpiCVkDrJ3ip7OFRi
kX0FwyXicfM4C2FEI9HoypiNf99F+S6RVs6g338l0KBRkIczlIw1xdlmz+tc/Tsa
NSbI+bIjbAb0nidUaYUjXXl0mEeRM/ZipUTeq6PZMPMZpMbGvRA7wY4T1L7Hd0BN
ADc55vPCsVjqJVK6xAPPf+XhjtLfXAO6/BJyclaR5T6kbEW3zQufovxGjOGZ04Wc
75G43XxKMfYl28LPpaivfhLCVM0p1BohZ50VgW9i6b8ychx/oR5n7QL4QPlsozwf
E5SA669Y0kseGbh76soQ1YMFK6+KsyBWCcNGvZLuoIRiISskBmODA7ZifR0teEAT
RdmSBY0juLhV9np+hFXGZ+b+/kYTvyKX6lpmC5ajJDxRGrmSvhT/5RYfYIyNpMbB
u2383E5n1vj8nKlGZ0CcgvgGuXDn8LazD5L63S0sry6726VogVtXlqpPZurgUTBH
VYGS1HbUYFKmml8UuWlSyp1sbhZXS1jCs1mutB/P6ZS3qM8U1smfgoFqw54amWBX
DHIW8NE3e1HopM3fsk3mPPsgLIhSbn4fryQ5wSKWru6YITCMKqoSOGaBcOTK7+cE
AcA+7JBulN7f5rANtT5WkKjF983VaSaAwVzkqbZ6Q1MsxN9dUBfbgnZV0bx1ozPn
m4izdw==
-----END CERTIFICATE-----
