Certificate:
    Data:
        Version: 1 (0x0)
        Serial Number: 141 (0x8d)
    Signature Algorithm: sha256WithRSAEncryption
        Issuer: C=fr, ST=idf, L=paris, O=vitamui, OU=authorities, CN=ca_intermediate_server
        Validity
            Not Before: Dec  6 12:54:56 2021 GMT
            Not After : Dec  5 12:54:56 2024 GMT
        Subject: C=fr, ST=idf, L=paris, O=vitamui, CN=dev.vitamui.com
        Subject Public Key Info:
            Public Key Algorithm: rsaEncryption
                Public-Key: (4096 bit)
                Modulus:
                    00:d0:cc:9f:f6:ed:9f:75:6e:0f:54:94:ad:54:b6:
                    8a:f2:d1:ea:b7:8e:29:b7:84:81:78:22:5e:44:6b:
                    dc:71:05:1c:27:45:1b:f4:8b:6f:8e:d6:20:57:95:
                    99:67:ac:e8:41:5b:4a:40:07:60:82:e5:22:39:d2:
                    f3:fe:36:3d:66:a7:3c:6d:c4:91:a2:7e:fa:5b:28:
                    4a:d6:79:b8:e8:76:12:c4:a6:8c:1f:43:a7:75:6c:
                    ef:dd:a6:27:0f:ce:4a:8c:0e:a4:b7:48:ea:80:39:
                    45:64:b9:4f:eb:9f:94:1f:02:cb:f8:84:9b:38:c6:
                    f2:ed:19:d9:d0:e2:e2:13:6f:2c:10:29:c9:a3:8e:
                    28:ec:ac:b5:51:27:97:02:12:bd:ea:e6:95:48:2a:
                    ac:82:7f:f7:af:01:a9:e8:c9:91:26:a5:02:10:f3:
                    a7:6f:b8:0f:e8:64:78:94:6b:fd:a3:34:ba:d8:4d:
                    d0:37:f7:c6:30:e4:64:cd:f4:5a:e8:31:1c:58:51:
                    25:e9:f1:50:6f:82:a7:61:b2:26:1f:73:76:8f:87:
                    91:ea:a6:23:be:dd:23:a6:71:2e:d2:b0:32:50:f4:
                    da:cc:e1:bc:3f:5e:7a:19:17:a3:0d:75:61:49:22:
                    20:b6:c7:fc:49:0c:70:90:3d:bc:75:e9:c9:c3:ef:
                    fc:22:b2:c7:3c:b2:e3:64:14:97:93:da:20:8d:e9:
                    b5:be:bd:7c:a0:98:26:6a:28:e5:3c:34:30:65:8c:
                    f7:b1:ac:ae:36:10:78:86:c3:03:67:46:5c:19:c6:
                    e3:f4:76:0b:7c:eb:d1:c1:c9:9d:e6:c0:1d:a8:6e:
                    06:fa:84:7a:8c:07:34:f7:e5:6c:29:cf:b1:e5:d1:
                    7e:b8:bb:0e:32:7f:07:e3:4d:96:20:f0:60:57:d1:
                    56:f6:98:ce:0a:84:9d:4f:c3:a9:a9:50:90:bd:1b:
                    d5:91:2a:b2:73:c9:52:5f:4f:eb:46:ce:7e:b8:e3:
                    10:44:4a:57:f0:c8:f1:9c:34:6e:22:a3:eb:c8:e8:
                    0e:75:0e:8b:0d:75:01:a4:d6:94:c8:4c:b8:c5:d5:
                    43:12:90:70:3d:ee:90:d8:4e:dc:c7:3d:44:73:5f:
                    38:80:92:37:30:14:f5:e5:dd:16:68:84:c3:d1:24:
                    0d:dd:49:07:d6:0c:8c:6b:8a:b0:17:94:72:c3:10:
                    2b:b5:17:5c:29:3c:b8:58:1c:9d:1b:7f:e5:1d:4e:
                    f5:3a:81:f7:eb:cc:b1:58:6d:b9:77:0c:97:f5:72:
                    1d:bd:76:d4:21:6f:94:c4:17:f6:65:0a:69:3e:05:
                    19:33:83:05:fd:ec:a4:16:1d:bf:31:7d:30:59:4e:
                    24:e1:29
                Exponent: 65537 (0x10001)
    Signature Algorithm: sha256WithRSAEncryption
         67:99:61:de:a3:1e:1b:2e:09:1f:33:1d:cd:34:65:4d:d3:a1:
         d1:4a:72:5c:d4:ef:40:46:9f:09:1b:61:ec:2b:d8:91:f3:49:
         64:a5:f1:90:3d:d5:4f:45:ed:0f:cf:9a:5f:df:8a:9f:81:a9:
         d5:e5:a0:26:8a:02:d5:f7:1f:6a:ee:d3:88:32:b2:0c:fb:5f:
         45:da:a5:97:d2:b3:65:23:75:87:a6:ad:f7:1b:1a:f4:8e:b7:
         05:01:45:0e:50:4e:8a:8d:35:95:13:f3:a7:a8:1e:a7:d8:7b:
         45:99:a8:23:06:a5:59:da:70:ee:d3:99:a3:39:7d:06:f4:84:
         4c:42:9c:f8:02:2d:21:9b:b5:ad:44:a5:a0:f3:86:d4:0d:ea:
         b0:a1:00:53:25:d0:98:96:a4:d9:34:49:6b:4e:de:5e:11:a2:
         3c:6a:76:4d:a0:d2:8c:22:67:2d:d4:8c:c0:ee:d1:fe:e9:9d:
         25:e4:11:69:8f:9d:e3:48:5e:df:de:a8:45:5b:1e:e1:7b:f1:
         4b:35:6a:a6:26:39:f9:cc:94:60:3c:51:25:b0:1c:ea:d9:d6:
         1b:79:dd:2e:b3:e1:7d:4d:f1:78:4a:fd:30:6f:3d:7f:24:fc:
         33:0e:b6:61:76:5f:4b:0f:21:aa:79:a2:ba:0f:62:76:8d:87:
         5d:bc:c2:03:fc:f1:b0:ce:31:d2:d3:4f:52:a9:bc:d2:37:ee:
         9b:ed:e5:6d:69:23:4e:13:b6:ea:4c:78:25:4b:15:d0:a6:81:
         be:0a:73:3a:49:61:f9:31:81:86:f1:a6:77:7a:a9:83:ef:af:
         87:61:0e:a6:a1:e8:48:e1:ba:39:cd:b0:a9:bf:8b:7b:ae:fe:
         03:96:91:73:35:61:86:20:51:b3:41:d2:cd:d8:9e:b7:b9:8d:
         15:e4:08:68:32:b9:a3:97:f7:7e:f9:2c:06:83:dd:08:26:55:
         d5:8c:c0:cc:a5:65:bf:2e:bc:7c:cd:dd:11:10:60:58:92:ea:
         f7:14:4b:0f:df:32:bf:3d:71:10:5d:67:39:8a:73:3a:c1:ba:
         4a:67:b8:85:be:29:0c:0d:fd:c9:06:9f:5e:4b:58:99:4d:41:
         27:3a:cb:9c:13:11:7d:52:13:ed:90:5a:05:b2:83:b3:3f:a6:
         6c:88:7e:94:ac:61:ea:80:a3:ee:14:1b:23:a4:f6:aa:95:aa:
         d6:de:ea:47:d6:97:4a:30:b1:cb:38:f2:84:b3:fd:05:48:8c:
         6d:f3:c2:47:c2:45:25:71:26:ab:db:2f:80:5d:50:e4:10:0b:
         8a:66:57:cb:8c:5c:cb:c4:f1:e9:83:92:d0:4d:84:0e:c6:ec:
         c5:7e:17:a0:d0:bd:93:73
-----BEGIN CERTIFICATE-----
MIIFQDCCAygCAgCNMA0GCSqGSIb3DQEBCwUAMHQxCzAJBgNVBAYTAmZyMQwwCgYD
VQQIDANpZGYxDjAMBgNVBAcMBXBhcmlzMRAwDgYDVQQKDAd2aXRhbXVpMRQwEgYD
VQQLDAthdXRob3JpdGllczEfMB0GA1UEAwwWY2FfaW50ZXJtZWRpYXRlX3NlcnZl
cjAeFw0yMTEyMDYxMjU0NTZaFw0yNDEyMDUxMjU0NTZaMFcxCzAJBgNVBAYTAmZy
MQwwCgYDVQQIDANpZGYxDjAMBgNVBAcMBXBhcmlzMRAwDgYDVQQKDAd2aXRhbXVp
MRgwFgYDVQQDDA9kZXYudml0YW11aS5jb20wggIiMA0GCSqGSIb3DQEBAQUAA4IC
DwAwggIKAoICAQDQzJ/27Z91bg9UlK1Utory0eq3jim3hIF4Il5Ea9xxBRwnRRv0
i2+O1iBXlZlnrOhBW0pAB2CC5SI50vP+Nj1mpzxtxJGifvpbKErWebjodhLEpowf
Q6d1bO/dpicPzkqMDqS3SOqAOUVkuU/rn5QfAsv4hJs4xvLtGdnQ4uITbywQKcmj
jijsrLVRJ5cCEr3q5pVIKqyCf/evAanoyZEmpQIQ86dvuA/oZHiUa/2jNLrYTdA3
98Yw5GTN9FroMRxYUSXp8VBvgqdhsiYfc3aPh5HqpiO+3SOmcS7SsDJQ9NrM4bw/
XnoZF6MNdWFJIiC2x/xJDHCQPbx16cnD7/wissc8suNkFJeT2iCN6bW+vXygmCZq
KOU8NDBljPexrK42EHiGwwNnRlwZxuP0dgt869HByZ3mwB2obgb6hHqMBzT35Wwp
z7Hl0X64uw4yfwfjTZYg8GBX0Vb2mM4KhJ1Pw6mpUJC9G9WRKrJzyVJfT+tGzn64
4xBESlfwyPGcNG4io+vI6A51DosNdQGk1pTITLjF1UMSkHA97pDYTtzHPURzXziA
kjcwFPXl3RZohMPRJA3dSQfWDIxrirAXlHLDECu1F1wpPLhYHJ0bf+UdTvU6gffr
zLFYbbl3DJf1ch29dtQhb5TEF/ZlCmk+BRkzgwX97KQWHb8xfTBZTiThKQIDAQAB
MA0GCSqGSIb3DQEBCwUAA4ICAQBnmWHeox4bLgkfMx3NNGVN06HRSnJc1O9ARp8J
G2HsK9iR80lkpfGQPdVPRe0Pz5pf34qfganV5aAmigLV9x9q7tOIMrIM+19F2qWX
0rNlI3WHpq33Gxr0jrcFAUUOUE6KjTWVE/OnqB6n2HtFmagjBqVZ2nDu05mjOX0G
9IRMQpz4Ai0hm7WtRKWg84bUDeqwoQBTJdCYlqTZNElrTt5eEaI8anZNoNKMImct
1IzA7tH+6Z0l5BFpj53jSF7f3qhFWx7he/FLNWqmJjn5zJRgPFElsBzq2dYbed0u
s+F9TfF4Sv0wbz1/JPwzDrZhdl9LDyGqeaK6D2J2jYddvMID/PGwzjHS009SqbzS
N+6b7eVtaSNOE7bqTHglSxXQpoG+CnM6SWH5MYGG8aZ3eqmD76+HYQ6moehI4bo5
zbCpv4t7rv4DlpFzNWGGIFGzQdLN2J63uY0V5AhoMrmjl/d++SwGg90IJlXVjMDM
pWW/Lrx8zd0REGBYkur3FEsP3zK/PXEQXWc5inM6wbpKZ7iFvikMDf3JBp9eS1iZ
TUEnOsucExF9UhPtkFoFsoOzP6ZsiH6UrGHqgKPuFBsjpPaqlarW3upH1pdKMLHL
OPKEs/0FSIxt88JHwkUlcSar2y+AXVDkEAuKZlfLjFzLxPHpg5LQTYQOxuzFfheg
0L2Tcw==
-----END CERTIFICATE-----
