Certificate:
    Data:
        Version: 1 (0x0)
        Serial Number: 17 (0x11)
        Signature Algorithm: sha256WithRSAEncryption
        Issuer: C=fr, ST=idf, L=paris, O=vitamui, OU=authorities, CN=ca_intermediate_server
        Validity
            Not Before: Oct 20 15:03:28 2020 GMT
            Not After : Oct 20 15:03:28 2023 GMT
        Subject: C=fr, ST=idf, L=paris, O=vitamui, CN=dev.vitamui.com
        Subject Public Key Info:
            Public Key Algorithm: rsaEncryption
                RSA Public-Key: (4096 bit)
                Modulus:
                    00:aa:3b:6b:40:4b:b7:30:21:7d:85:f7:9c:f7:57:
                    ae:6c:dc:10:78:3a:4f:5f:55:5b:78:f0:d9:37:b5:
                    ae:11:7d:e3:6b:06:a3:1e:9b:27:bf:9f:4f:ac:69:
                    4f:6e:5c:b5:81:a1:ca:f8:e2:32:31:5f:59:41:32:
                    62:6f:a3:30:da:71:55:e3:58:e9:7c:9a:24:aa:a5:
                    2d:a3:10:69:f3:95:59:3b:3f:10:e5:00:d7:fd:69:
                    43:03:39:6a:d1:6f:68:4c:c3:a4:eb:0a:25:7f:18:
                    41:63:b1:6c:0c:7a:b3:42:c6:b2:06:b4:76:c4:ad:
                    67:55:1c:36:08:84:51:be:da:6b:76:dc:58:08:3f:
                    d9:92:79:18:91:60:0d:87:c3:e1:00:89:76:ce:4a:
                    ed:81:1a:37:d9:47:19:d3:b7:cd:7e:bf:6a:f0:32:
                    f1:b6:d1:cb:d6:c9:8f:db:74:67:27:fe:36:e4:b4:
                    cc:b7:1e:a6:72:f6:dc:5f:cc:5b:13:9a:bc:a3:31:
                    ec:be:1f:17:6c:a4:18:22:fc:29:56:1b:a3:2c:b4:
                    4d:cb:e0:c1:77:83:32:32:44:47:23:40:1d:95:8b:
                    c3:a0:09:01:07:63:0b:b0:02:1a:c1:c5:2a:3d:57:
                    97:71:f0:3a:ad:3f:01:de:3b:05:8d:98:e6:48:60:
                    0b:df:e1:f3:8f:ed:e7:3d:f9:27:2f:ba:f0:bb:30:
                    56:ec:33:76:5e:0e:29:6b:92:1c:57:fd:e5:96:d3:
                    8a:a5:dc:f7:13:90:8c:6e:fd:c9:b4:42:bd:ff:4f:
                    1b:0c:d4:36:e8:21:66:e8:0f:58:22:f9:c1:24:21:
                    9d:b0:6f:08:a9:de:4d:9d:2b:b5:5e:db:79:2d:fc:
                    ca:05:cc:eb:40:20:6b:0b:fd:16:84:bc:04:95:76:
                    3d:2d:93:d5:b3:a7:8e:32:c8:ff:15:6f:55:6b:91:
                    19:26:84:67:2e:8b:88:77:1b:18:e1:e5:95:46:3a:
                    d9:c9:de:96:d0:39:76:7f:1c:bf:70:c8:54:69:23:
                    dc:94:29:43:cb:74:84:c1:24:6d:23:47:b8:a5:25:
                    3b:b5:52:76:5f:15:ac:ee:ef:e7:6d:ac:3b:5e:8f:
                    d6:d2:98:7e:0c:f2:4e:17:b3:0d:3f:5d:0e:7b:d7:
                    61:cf:a3:2f:d8:8e:b5:76:5b:5c:04:96:c8:a3:5a:
                    9a:c3:23:1d:62:e0:4e:10:87:7c:f0:30:84:50:22:
                    37:9c:4e:bd:00:03:ad:19:34:1e:47:bf:3d:a5:3a:
                    5a:d5:3f:14:97:5e:f8:c4:83:c6:27:d4:2e:61:46:
                    7c:0c:c9:2e:1a:3a:d0:17:d5:d0:d3:a4:71:5b:76:
                    0e:30:2f
                Exponent: 65537 (0x10001)
    Signature Algorithm: sha256WithRSAEncryption
         1e:8e:66:43:c8:11:26:f8:04:58:4f:e9:03:11:d5:ae:1d:01:
         d8:c2:8a:3e:d0:62:ab:91:10:1d:51:91:28:29:5f:f2:e0:3a:
         79:ab:8c:48:9c:98:3e:b8:ae:c4:f0:29:5d:7b:15:01:4e:e7:
         6e:6a:98:28:86:55:38:8d:ac:9f:17:e3:55:0e:7d:06:1f:97:
         e6:f3:43:11:db:f3:af:59:6e:6b:ae:3d:2f:5a:5a:53:d8:cd:
         70:e0:68:31:0b:4b:a4:16:6a:6f:34:6f:3b:3d:a5:7c:9e:b6:
         a2:0f:0b:e6:2c:2a:38:be:61:f1:84:9e:ed:bb:9b:3a:c7:09:
         10:d8:b9:5b:4a:71:d3:c0:af:63:4c:67:70:22:ee:62:ab:49:
         7a:47:f8:fb:f7:bf:db:a7:0a:04:af:37:23:51:4a:b2:dc:fc:
         db:22:61:d3:5e:63:ad:44:0e:0d:1e:29:de:64:13:c0:66:8b:
         9b:cc:da:1f:92:3b:aa:e3:cc:bc:05:0d:1e:ca:56:15:08:d9:
         fe:07:c5:15:05:19:3e:8c:dc:be:6f:68:40:c3:64:e4:e9:9b:
         3e:dd:d1:08:b4:d4:ab:66:07:b2:b0:32:b6:a3:c7:1e:89:aa:
         2e:5a:38:c0:eb:02:61:fc:d8:e2:9b:7e:70:43:a5:3d:ee:18:
         eb:cd:c1:48:81:f3:1b:ba:e1:67:d0:7a:ec:9a:e3:c4:7d:7b:
         74:ea:2d:2f:ca:30:45:ad:6e:20:fa:0a:e2:a7:0d:8f:a8:72:
         10:32:3c:be:d5:00:9a:30:9d:c5:ff:9f:67:8a:73:b0:6b:1d:
         c8:55:e6:b8:d8:27:53:1c:3c:11:25:a4:dc:9f:92:23:97:57:
         e5:66:89:ab:ea:32:32:16:86:72:da:15:ad:a0:c1:f0:86:2f:
         e3:f6:b2:39:b0:bb:de:19:33:8d:e1:9c:34:5a:3a:24:d6:b4:
         bb:30:a6:a1:1d:37:dc:f0:6d:49:aa:07:38:fe:d9:8e:72:00:
         96:57:17:14:9b:1f:b1:b5:62:6c:ff:93:86:34:a0:e9:37:9a:
         c0:d4:61:b8:04:38:1d:17:e6:11:64:e7:b4:74:fd:93:7d:47:
         5d:83:95:e0:fe:d3:f2:64:9d:ad:f3:a5:f4:92:ff:8f:cf:ea:
         77:17:cc:49:a1:de:3f:eb:79:98:47:c0:ee:70:2b:a6:2c:e6:
         8f:d7:36:95:cb:c0:ac:d8:6a:d1:36:1c:1a:73:11:19:b0:95:
         5b:3c:ab:fc:2b:1f:43:bc:be:96:ed:42:2c:31:c6:7b:53:b1:
         24:5e:22:89:f5:bd:01:dd:7d:21:ed:39:30:72:90:ee:c4:00:
         1e:74:fd:41:25:7b:da:35
-----BEGIN CERTIFICATE-----
MIIFPzCCAycCAREwDQYJKoZIhvcNAQELBQAwdDELMAkGA1UEBhMCZnIxDDAKBgNV
BAgMA2lkZjEOMAwGA1UEBwwFcGFyaXMxEDAOBgNVBAoMB3ZpdGFtdWkxFDASBgNV
BAsMC2F1dGhvcml0aWVzMR8wHQYDVQQDDBZjYV9pbnRlcm1lZGlhdGVfc2VydmVy
MB4XDTIwMTAyMDE1MDMyOFoXDTIzMTAyMDE1MDMyOFowVzELMAkGA1UEBhMCZnIx
DDAKBgNVBAgMA2lkZjEOMAwGA1UEBwwFcGFyaXMxEDAOBgNVBAoMB3ZpdGFtdWkx
GDAWBgNVBAMMD2Rldi52aXRhbXVpLmNvbTCCAiIwDQYJKoZIhvcNAQEBBQADggIP
ADCCAgoCggIBAKo7a0BLtzAhfYX3nPdXrmzcEHg6T19VW3jw2Te1rhF942sGox6b
J7+fT6xpT25ctYGhyvjiMjFfWUEyYm+jMNpxVeNY6XyaJKqlLaMQafOVWTs/EOUA
1/1pQwM5atFvaEzDpOsKJX8YQWOxbAx6s0LGsga0dsStZ1UcNgiEUb7aa3bcWAg/
2ZJ5GJFgDYfD4QCJds5K7YEaN9lHGdO3zX6/avAy8bbRy9bJj9t0Zyf+NuS0zLce
pnL23F/MWxOavKMx7L4fF2ykGCL8KVYboyy0TcvgwXeDMjJERyNAHZWLw6AJAQdj
C7ACGsHFKj1Xl3HwOq0/Ad47BY2Y5khgC9/h84/t5z35Jy+68LswVuwzdl4OKWuS
HFf95ZbTiqXc9xOQjG79ybRCvf9PGwzUNughZugPWCL5wSQhnbBvCKneTZ0rtV7b
eS38ygXM60Agawv9FoS8BJV2PS2T1bOnjjLI/xVvVWuRGSaEZy6LiHcbGOHllUY6
2cneltA5dn8cv3DIVGkj3JQpQ8t0hMEkbSNHuKUlO7VSdl8VrO7v522sO16P1tKY
fgzyThezDT9dDnvXYc+jL9iOtXZbXASWyKNamsMjHWLgThCHfPAwhFAiN5xOvQAD
rRk0Hke/PaU6WtU/FJde+MSDxifULmFGfAzJLho60BfV0NOkcVt2DjAvAgMBAAEw
DQYJKoZIhvcNAQELBQADggIBAB6OZkPIESb4BFhP6QMR1a4dAdjCij7QYquREB1R
kSgpX/LgOnmrjEicmD64rsTwKV17FQFO525qmCiGVTiNrJ8X41UOfQYfl+bzQxHb
869ZbmuuPS9aWlPYzXDgaDELS6QWam80bzs9pXyetqIPC+YsKji+YfGEnu27mzrH
CRDYuVtKcdPAr2NMZ3Ai7mKrSXpH+Pv3v9unCgSvNyNRSrLc/NsiYdNeY61EDg0e
Kd5kE8Bmi5vM2h+SO6rjzLwFDR7KVhUI2f4HxRUFGT6M3L5vaEDDZOTpmz7d0Qi0
1KtmB7KwMrajxx6Jqi5aOMDrAmH82OKbfnBDpT3uGOvNwUiB8xu64WfQeuya48R9
e3TqLS/KMEWtbiD6CuKnDY+ochAyPL7VAJowncX/n2eKc7BrHchV5rjYJ1McPBEl
pNyfkiOXV+VmiavqMjIWhnLaFa2gwfCGL+P2sjmwu94ZM43hnDRaOiTWtLswpqEd
N9zwbUmqBzj+2Y5yAJZXFxSbH7G1Ymz/k4Y0oOk3msDUYbgEOB0X5hFk57R0/ZN9
R12DleD+0/Jkna3zpfSS/4/P6ncXzEmh3j/reZhHwO5wK6Ys5o/XNpXLwKzYatE2
HBpzERmwlVs8q/wrH0O8vpbtQiwxxntTsSReIon1vQHdfSHtOTBykO7EAB50/UEl
e9o1
-----END CERTIFICATE-----
