Certificate:
    Data:
        Version: 1 (0x0)
        Serial Number: 18 (0x12)
        Signature Algorithm: sha256WithRSAEncryption
        Issuer: C=fr, ST=idf, L=paris, O=vitamui, OU=authorities, CN=ca_intermediate_server
        Validity
            Not Before: Oct 20 15:03:35 2020 GMT
            Not After : Oct 20 15:03:35 2023 GMT
        Subject: C=fr, ST=idf, L=paris, O=vitamui, CN=dev.vitamui.com
        Subject Public Key Info:
            Public Key Algorithm: rsaEncryption
                RSA Public-Key: (4096 bit)
                Modulus:
                    00:ca:91:6a:43:a9:9c:45:9a:79:14:ba:38:38:a1:
                    d8:7b:8f:72:f3:74:5b:e9:9f:e9:69:1d:0c:69:17:
                    39:77:56:61:5f:42:29:a7:7c:d9:4d:f7:0d:91:7a:
                    8e:ac:52:ed:4a:d1:45:d0:44:df:d8:40:c3:64:6d:
                    72:30:32:92:2b:80:c4:15:44:b2:ba:04:3c:d2:93:
                    45:33:6c:70:8e:dd:75:c6:79:a3:66:c5:3d:cb:e4:
                    8c:46:39:70:81:fe:ff:81:61:52:09:49:cb:6d:94:
                    47:f6:d2:36:d2:03:f0:3b:93:6b:ff:e1:dd:b4:f9:
                    f6:da:0f:51:c2:93:4e:fa:ab:78:d8:84:fb:b0:7a:
                    88:f9:fe:c4:16:4e:31:57:d2:dd:d7:75:0e:9f:7d:
                    0a:35:58:10:17:7b:c2:b3:44:39:e0:33:94:51:3c:
                    ea:f9:51:ab:fb:06:40:c9:cb:87:f8:f9:0f:16:ae:
                    02:86:13:9c:c0:61:fc:50:84:93:e4:df:20:8e:12:
                    5f:ce:28:1a:f9:3f:ff:36:0f:7c:dc:2b:e6:24:2f:
                    d6:c9:da:d9:74:ed:8f:9c:65:8a:a4:c9:32:3d:e7:
                    1d:58:70:8d:d0:b4:f1:33:f8:1c:96:3f:96:67:8b:
                    48:1a:ff:89:74:50:99:d6:fc:fb:14:ee:fa:b8:94:
                    3f:fd:a0:a8:80:d4:5e:7a:06:5d:c5:51:e3:58:5f:
                    a0:ec:af:ad:70:7c:af:9c:41:73:26:63:ed:84:de:
                    8f:da:4b:89:6d:8c:47:55:08:9b:71:3c:b9:2a:4c:
                    46:a5:25:ed:24:42:ba:68:16:fb:8d:f7:55:4e:00:
                    a3:26:71:f4:5b:95:4b:3e:21:5b:16:ac:70:1d:cd:
                    b7:17:9d:1a:b3:a5:a1:8b:7e:5e:ff:ce:64:98:3d:
                    f4:0c:b4:7c:76:f5:b7:19:72:48:7e:eb:fd:c5:b2:
                    a9:f2:e9:0d:c2:0b:de:51:75:47:0b:87:c8:df:c9:
                    33:40:83:c9:55:eb:a8:88:27:44:15:9d:6c:cc:09:
                    3c:fd:a7:db:4a:2d:13:4b:8a:32:e3:1a:2d:77:f0:
                    a0:91:c4:ea:48:15:bd:dd:a5:03:b2:c5:47:4c:59:
                    8b:cf:59:40:19:c4:d8:58:19:df:fb:b7:4a:8f:97:
                    ba:04:b4:4d:0b:5c:42:6a:c3:72:5e:4e:ea:cd:94:
                    7e:95:c3:61:6e:78:cd:a1:90:46:07:4a:01:33:c8:
                    da:52:d6:47:4b:b7:f9:73:ac:f5:9d:d8:b4:dd:0f:
                    27:bb:8d:01:47:1a:52:0e:6c:4f:17:a9:73:91:ca:
                    fa:41:bb:15:d7:79:85:1f:35:1c:34:35:a5:65:56:
                    ee:5b:c9
                Exponent: 65537 (0x10001)
    Signature Algorithm: sha256WithRSAEncryption
         4c:8b:41:f5:3b:01:de:89:2c:a8:2d:54:59:21:8a:79:f7:d3:
         78:df:52:52:39:c2:54:f9:0d:90:23:e6:47:0b:9b:f1:d9:26:
         7a:ed:77:82:39:10:e3:ea:78:36:97:e2:ab:b7:af:54:c8:de:
         ba:ca:f4:69:3b:e2:70:a9:c2:17:c4:0c:f5:ca:00:e6:08:af:
         df:a6:7a:00:ff:4a:93:21:99:bc:34:8a:0c:b2:d2:71:71:09:
         47:b5:4d:a2:54:c0:cd:98:16:8c:09:c6:78:ab:cc:61:25:89:
         db:d0:56:0c:1f:16:72:d9:4f:fb:b6:23:84:8a:dd:a7:a3:91:
         f9:01:b5:95:b7:f1:48:84:e1:d6:d3:c6:f4:f0:08:14:55:86:
         29:cd:c1:43:56:b9:2f:07:18:a8:11:e6:da:cf:8e:3a:39:07:
         9e:ba:af:9d:f4:5c:12:7e:13:e1:83:07:f4:6a:42:9b:80:fe:
         27:be:29:bb:7f:e1:3c:8b:39:fa:79:43:b5:10:00:b1:2b:6c:
         6c:cc:ab:6c:d3:89:69:0a:d5:d8:72:56:3b:dc:be:f4:a3:2a:
         8e:93:9a:9f:3e:22:ff:cd:1a:98:8f:f6:83:fd:ce:8d:90:35:
         41:da:8d:fb:3e:6b:ea:02:ba:58:5c:58:69:ba:78:6c:3f:41:
         36:fc:3a:78:77:e4:af:fb:00:76:e7:eb:4f:f6:af:e6:28:5a:
         1d:73:78:1b:01:a3:ed:2c:10:bb:63:76:89:1a:68:fa:73:f0:
         e3:72:60:09:f7:9e:fa:e9:0b:e7:5e:9c:9f:08:e3:79:f6:6c:
         71:01:09:1f:f1:7e:01:7f:46:8c:dc:b3:dc:01:cf:66:2e:27:
         2a:9a:74:6e:bf:e6:2a:4e:a5:a1:e7:18:20:bc:8f:0d:7d:07:
         c5:7f:6f:24:39:21:0a:6a:28:50:9e:f8:4f:39:e2:88:a1:b7:
         1a:47:32:1b:e6:7e:17:17:27:46:3b:77:81:c2:84:83:12:9c:
         ee:34:14:78:07:8e:2b:8d:44:fd:45:fe:34:f9:ea:e3:0e:fa:
         16:18:9d:a5:73:68:d7:be:5c:a9:83:f0:11:4c:16:8c:80:20:
         a9:91:2d:40:ad:2d:84:80:24:c4:2b:63:b1:46:c0:fb:f1:7d:
         d4:74:51:75:3e:92:4f:59:63:7b:3f:9f:5b:39:5f:9c:01:c5:
         e4:04:c6:cf:17:13:47:20:d5:b3:e0:5b:8e:20:72:60:1a:d4:
         e1:0b:66:32:55:27:4c:ff:73:20:06:61:80:dd:4b:db:26:1c:
         ad:5a:a8:ef:13:6d:35:9f:66:44:50:3b:ad:eb:12:83:0c:bb:
         11:ae:2c:fe:1b:8a:05:cc
-----BEGIN CERTIFICATE-----
MIIFPzCCAycCARIwDQYJKoZIhvcNAQELBQAwdDELMAkGA1UEBhMCZnIxDDAKBgNV
BAgMA2lkZjEOMAwGA1UEBwwFcGFyaXMxEDAOBgNVBAoMB3ZpdGFtdWkxFDASBgNV
BAsMC2F1dGhvcml0aWVzMR8wHQYDVQQDDBZjYV9pbnRlcm1lZGlhdGVfc2VydmVy
MB4XDTIwMTAyMDE1MDMzNVoXDTIzMTAyMDE1MDMzNVowVzELMAkGA1UEBhMCZnIx
DDAKBgNVBAgMA2lkZjEOMAwGA1UEBwwFcGFyaXMxEDAOBgNVBAoMB3ZpdGFtdWkx
GDAWBgNVBAMMD2Rldi52aXRhbXVpLmNvbTCCAiIwDQYJKoZIhvcNAQEBBQADggIP
ADCCAgoCggIBAMqRakOpnEWaeRS6ODih2HuPcvN0W+mf6WkdDGkXOXdWYV9CKad8
2U33DZF6jqxS7UrRRdBE39hAw2RtcjAykiuAxBVEsroEPNKTRTNscI7ddcZ5o2bF
PcvkjEY5cIH+/4FhUglJy22UR/bSNtID8DuTa//h3bT59toPUcKTTvqreNiE+7B6
iPn+xBZOMVfS3dd1Dp99CjVYEBd7wrNEOeAzlFE86vlRq/sGQMnLh/j5DxauAoYT
nMBh/FCEk+TfII4SX84oGvk//zYPfNwr5iQv1sna2XTtj5xliqTJMj3nHVhwjdC0
8TP4HJY/lmeLSBr/iXRQmdb8+xTu+riUP/2gqIDUXnoGXcVR41hfoOyvrXB8r5xB
cyZj7YTej9pLiW2MR1UIm3E8uSpMRqUl7SRCumgW+433VU4AoyZx9FuVSz4hWxas
cB3NtxedGrOloYt+Xv/OZJg99Ay0fHb1txlySH7r/cWyqfLpDcIL3lF1RwuHyN/J
M0CDyVXrqIgnRBWdbMwJPP2n20otE0uKMuMaLXfwoJHE6kgVvd2lA7LFR0xZi89Z
QBnE2FgZ3/u3So+XugS0TQtcQmrDcl5O6s2UfpXDYW54zaGQRgdKATPI2lLWR0u3
+XOs9Z3YtN0PJ7uNAUcaUg5sTxepc5HK+kG7Fdd5hR81HDQ1pWVW7lvJAgMBAAEw
DQYJKoZIhvcNAQELBQADggIBAEyLQfU7Ad6JLKgtVFkhinn303jfUlI5wlT5DZAj
5kcLm/HZJnrtd4I5EOPqeDaX4qu3r1TI3rrK9Gk74nCpwhfEDPXKAOYIr9+megD/
SpMhmbw0igyy0nFxCUe1TaJUwM2YFowJxnirzGElidvQVgwfFnLZT/u2I4SK3aej
kfkBtZW38UiE4dbTxvTwCBRVhinNwUNWuS8HGKgR5trPjjo5B566r530XBJ+E+GD
B/RqQpuA/ie+Kbt/4TyLOfp5Q7UQALErbGzMq2zTiWkK1dhyVjvcvvSjKo6Tmp8+
Iv/NGpiP9oP9zo2QNUHajfs+a+oCulhcWGm6eGw/QTb8Onh35K/7AHbn60/2r+Yo
Wh1zeBsBo+0sELtjdokaaPpz8ONyYAn3nvrpC+denJ8I43n2bHEBCR/xfgF/Rozc
s9wBz2YuJyqadG6/5ipOpaHnGCC8jw19B8V/byQ5IQpqKFCe+E854oihtxpHMhvm
fhcXJ0Y7d4HChIMSnO40FHgHjiuNRP1F/jT56uMO+hYYnaVzaNe+XKmD8BFMFoyA
IKmRLUCtLYSAJMQrY7FGwPvxfdR0UXU+kk9ZY3s/n1s5X5wBxeQExs8XE0cg1bPg
W44gcmAa1OELZjJVJ0z/cyAGYYDdS9smHK1aqO8TbTWfZkRQO63rEoMMuxGuLP4b
igXM
-----END CERTIFICATE-----
