Certificate:
    Data:
        Version: 1 (0x0)
        Serial Number: 14 (0xe)
        Signature Algorithm: sha256WithRSAEncryption
        Issuer: C=fr, ST=idf, L=paris, O=vitamui, OU=authorities, CN=ca_intermediate_server
        Validity
            Not Before: Nov 19 09:16:33 2020 GMT
            Not After : Nov 19 09:16:33 2023 GMT
        Subject: C=fr, ST=idf, L=paris, O=vitamui, CN=dev.vitamui.com
        Subject Public Key Info:
            Public Key Algorithm: rsaEncryption
                RSA Public-Key: (4096 bit)
                Modulus:
                    00:b7:65:41:d3:9a:75:b0:13:44:f2:54:18:42:d2:
                    c2:45:1e:00:2c:3c:75:3d:e3:10:54:3a:55:9d:3d:
                    3c:5d:4b:e1:62:6b:48:d6:b1:45:f7:77:e7:5b:8b:
                    b5:bf:50:25:9d:38:af:5f:b7:7d:26:ac:f4:0e:d3:
                    f2:a0:d6:fe:a8:e6:b8:d0:0d:5a:de:0c:4c:29:b2:
                    61:76:34:52:e6:b7:d5:ba:2f:cd:74:c5:96:70:d6:
                    02:60:99:b9:d4:8c:23:10:88:b2:40:f1:7d:cd:7c:
                    14:0a:50:cd:14:74:59:d1:44:7a:1d:c4:c2:71:3b:
                    c7:81:a5:53:32:0c:1c:6d:7c:08:d1:7f:d0:b9:0f:
                    c7:02:e0:4e:80:64:b5:10:aa:2d:f8:50:07:0e:46:
                    a4:c1:a3:01:7d:d5:fc:87:2a:9d:f1:9a:39:58:41:
                    d5:3a:34:c9:c3:26:c2:f9:db:a8:dc:4d:f6:0b:a2:
                    79:8a:b0:df:5e:a8:24:25:ec:25:8a:4d:5e:c1:ba:
                    25:44:5d:0a:35:6c:07:ed:73:1e:e0:98:b8:de:f2:
                    a2:f7:52:e2:82:9a:6f:ad:3c:0e:a0:64:00:9e:fb:
                    15:60:c3:b5:b7:e9:88:ba:d0:c7:67:1b:e5:02:82:
                    e4:5c:dd:d0:bc:87:3f:27:2a:13:78:c6:f3:c2:00:
                    1e:16:66:ad:e2:99:58:6f:a6:25:a4:42:65:1a:89:
                    53:ca:92:f3:bb:78:2d:46:a1:b6:b6:27:64:c2:cf:
                    aa:28:2e:c2:97:ec:87:4f:51:b7:9a:c7:ff:71:64:
                    4c:e4:b7:2d:90:c3:4c:32:85:07:71:d8:af:67:05:
                    c0:44:c7:5e:4b:f6:87:bc:b3:6b:4f:3b:03:67:02:
                    32:2b:0c:f8:12:2b:4f:ca:51:f6:34:22:38:f0:bd:
                    a3:01:1b:de:d0:54:b9:10:31:ed:ae:10:0b:f1:75:
                    fe:3a:b3:d4:9f:e3:f9:ff:82:1f:9b:c8:98:e0:de:
                    dd:fc:c6:35:88:a2:70:4f:c6:75:57:3e:a2:43:92:
                    7d:c0:eb:80:10:6e:b8:13:13:90:db:43:76:cb:5f:
                    e3:fa:e1:c8:8a:8a:a0:85:00:2e:22:a6:b4:be:3c:
                    71:02:48:f8:bb:2f:63:c6:36:49:c0:11:45:e6:96:
                    dd:b4:45:24:68:53:cb:c5:1f:73:f7:84:00:cb:93:
                    ca:e9:7a:55:95:3a:6f:93:fb:7d:ab:63:72:83:c4:
                    34:d1:6b:8c:92:34:bf:80:e2:71:47:47:1a:a5:4a:
                    0d:b8:56:dc:59:20:9b:49:8f:00:23:44:21:2e:a8:
                    da:69:77:91:60:d5:d2:08:45:c4:0e:54:03:9f:20:
                    f2:96:75
                Exponent: 65537 (0x10001)
    Signature Algorithm: sha256WithRSAEncryption
         81:c3:58:b7:3c:a3:69:0a:0d:ec:94:4d:34:c3:71:97:9c:aa:
         d6:d8:ce:bf:bb:c3:a4:f5:1d:aa:dd:4e:6c:6d:23:07:6c:d9:
         79:cc:27:57:cf:21:8e:4c:76:d0:8d:0a:1a:57:0a:56:26:91:
         71:10:c2:91:71:18:53:2c:f6:1f:46:c4:52:c8:cd:8f:8f:88:
         5f:8d:98:37:12:b4:5c:5a:c6:9b:2d:d4:85:8c:7f:05:2a:d7:
         a9:c3:22:bc:c1:1a:83:a1:49:3f:7e:4a:a5:64:7d:11:fe:91:
         2c:83:81:8e:5a:c9:a8:de:3b:91:78:b2:ea:e0:37:0e:6f:b4:
         d3:cc:08:5c:1e:5f:77:0d:15:1b:02:fc:8e:06:3f:fd:37:08:
         e6:7c:df:c3:2d:c6:6b:c0:f8:26:6c:f5:f4:61:e9:11:e9:56:
         95:f4:51:11:b8:2f:f7:e0:29:39:13:fb:2f:84:18:76:ac:6a:
         2d:3d:84:81:1a:88:73:53:05:6e:31:45:92:f2:65:5b:41:d9:
         78:07:d6:bf:21:64:92:e4:fa:3d:f7:76:8b:81:8c:64:bd:6b:
         0c:f0:fc:5f:3f:83:3e:63:61:56:25:08:06:c0:dd:83:e5:78:
         50:bb:21:85:c3:a8:fb:b6:69:2f:98:64:f6:a3:80:22:ec:eb:
         ad:40:77:06:b2:9b:a0:f8:c2:2d:cc:3e:13:f6:a6:c0:18:7c:
         61:cb:0c:a3:c8:84:44:de:d9:00:c5:77:79:cb:be:23:59:d3:
         2d:2d:2d:44:84:06:9b:9b:a4:ad:e6:f7:63:77:8c:b0:0a:c7:
         10:b3:ab:24:f7:62:2d:1e:39:5d:43:12:ab:af:d9:7b:54:20:
         c3:73:66:50:96:ca:49:d3:b3:d3:91:0d:2d:18:2d:ab:92:a3:
         70:93:ee:16:08:e8:15:9b:ed:a2:02:a7:2d:b7:71:e3:f8:49:
         7c:b7:81:82:fe:17:6a:7e:a5:25:8b:8f:28:26:e8:63:a8:d9:
         f7:0b:cb:fe:83:81:f5:14:0c:26:67:e1:e6:4c:5a:3e:bf:56:
         13:90:a9:07:f5:e1:84:a8:9c:a4:c1:58:f1:44:d2:04:9a:25:
         a0:4e:4c:c9:6a:c3:9b:09:da:d3:78:b1:2d:85:0f:ca:a4:f5:
         0a:48:28:22:d0:49:62:b2:8e:14:92:50:bf:7e:f6:f4:3c:bc:
         88:1b:98:36:f5:79:09:ca:e8:cd:22:b9:cf:7a:b1:4b:d9:9c:
         b2:2b:e7:a4:04:2c:fa:cc:68:da:6b:09:4a:10:ba:85:63:23:
         3d:ba:40:59:93:ba:89:09:9a:82:1a:c0:38:16:7b:5b:ab:d7:
         6f:62:b5:bc:a5:49:20:85
-----BEGIN CERTIFICATE-----
MIIFPzCCAycCAQ4wDQYJKoZIhvcNAQELBQAwdDELMAkGA1UEBhMCZnIxDDAKBgNV
BAgMA2lkZjEOMAwGA1UEBwwFcGFyaXMxEDAOBgNVBAoMB3ZpdGFtdWkxFDASBgNV
BAsMC2F1dGhvcml0aWVzMR8wHQYDVQQDDBZjYV9pbnRlcm1lZGlhdGVfc2VydmVy
MB4XDTIwMTExOTA5MTYzM1oXDTIzMTExOTA5MTYzM1owVzELMAkGA1UEBhMCZnIx
DDAKBgNVBAgMA2lkZjEOMAwGA1UEBwwFcGFyaXMxEDAOBgNVBAoMB3ZpdGFtdWkx
GDAWBgNVBAMMD2Rldi52aXRhbXVpLmNvbTCCAiIwDQYJKoZIhvcNAQEBBQADggIP
ADCCAgoCggIBALdlQdOadbATRPJUGELSwkUeACw8dT3jEFQ6VZ09PF1L4WJrSNax
Rfd351uLtb9QJZ04r1+3fSas9A7T8qDW/qjmuNANWt4MTCmyYXY0Uua31bovzXTF
lnDWAmCZudSMIxCIskDxfc18FApQzRR0WdFEeh3EwnE7x4GlUzIMHG18CNF/0LkP
xwLgToBktRCqLfhQBw5GpMGjAX3V/IcqnfGaOVhB1To0ycMmwvnbqNxN9guieYqw
316oJCXsJYpNXsG6JURdCjVsB+1zHuCYuN7yovdS4oKab608DqBkAJ77FWDDtbfp
iLrQx2cb5QKC5Fzd0LyHPycqE3jG88IAHhZmreKZWG+mJaRCZRqJU8qS87t4LUah
trYnZMLPqiguwpfsh09Rt5rH/3FkTOS3LZDDTDKFB3HYr2cFwETHXkv2h7yza087
A2cCMisM+BIrT8pR9jQiOPC9owEb3tBUuRAx7a4QC/F1/jqz1J/j+f+CH5vImODe
3fzGNYiicE/GdVc+okOSfcDrgBBuuBMTkNtDdstf4/rhyIqKoIUALiKmtL48cQJI
+LsvY8Y2ScARReaW3bRFJGhTy8Ufc/eEAMuTyul6VZU6b5P7fatjcoPENNFrjJI0
v4DicUdHGqVKDbhW3Fkgm0mPACNEIS6o2ml3kWDV0ghFxA5UA58g8pZ1AgMBAAEw
DQYJKoZIhvcNAQELBQADggIBAIHDWLc8o2kKDeyUTTTDcZecqtbYzr+7w6T1Hard
TmxtIwds2XnMJ1fPIY5MdtCNChpXClYmkXEQwpFxGFMs9h9GxFLIzY+PiF+NmDcS
tFxaxpst1IWMfwUq16nDIrzBGoOhST9+SqVkfRH+kSyDgY5ayajeO5F4surgNw5v
tNPMCFweX3cNFRsC/I4GP/03COZ838MtxmvA+CZs9fRh6RHpVpX0URG4L/fgKTkT
+y+EGHasai09hIEaiHNTBW4xRZLyZVtB2XgH1r8hZJLk+j33douBjGS9awzw/F8/
gz5jYVYlCAbA3YPleFC7IYXDqPu2aS+YZPajgCLs661Adwaym6D4wi3MPhP2psAY
fGHLDKPIhETe2QDFd3nLviNZ0y0tLUSEBpubpK3m92N3jLAKxxCzqyT3Yi0eOV1D
Equv2XtUIMNzZlCWyknTs9ORDS0YLauSo3CT7hYI6BWb7aICpy23ceP4SXy3gYL+
F2p+pSWLjygm6GOo2fcLy/6DgfUUDCZn4eZMWj6/VhOQqQf14YSonKTBWPFE0gSa
JaBOTMlqw5sJ2tN4sS2FD8qk9QpIKCLQSWKyjhSSUL9+9vQ8vIgbmDb1eQnK6M0i
uc96sUvZnLIr56QELPrMaNprCUoQuoVjIz26QFmTuokJmoIawDgWe1ur129itbyl
SSCF
-----END CERTIFICATE-----
