Certificate:
    Data:
        Version: 1 (0x0)
        Serial Number: 29 (0x1d)
        Signature Algorithm: sha256WithRSAEncryption
        Issuer: C=fr, ST=idf, L=paris, O=vitamui, OU=authorities, CN=ca_intermediate_server
        Validity
            Not Before: Dec  9 09:40:32 2020 GMT
            Not After : Dec  9 09:40:32 2023 GMT
        Subject: C=fr, ST=idf, L=paris, O=vitamui, CN=dev.vitamui.com
        Subject Public Key Info:
            Public Key Algorithm: rsaEncryption
                RSA Public-Key: (4096 bit)
                Modulus:
                    00:ba:04:d1:66:78:a4:73:14:74:29:e4:db:3c:03:
                    bb:a1:68:0c:b5:e8:10:a9:ca:82:57:e7:3b:a9:13:
                    da:d6:ae:75:f4:54:97:5f:ad:02:2e:03:0e:06:36:
                    71:34:47:fb:ec:15:40:4b:75:03:2c:bc:e4:8e:78:
                    b7:64:d0:91:81:a2:18:4a:6f:0a:81:7c:d1:3d:f8:
                    a9:94:eb:69:63:61:d3:0f:83:40:45:f6:c6:2b:0b:
                    de:c3:54:7e:87:fc:08:ac:6d:49:0c:21:18:63:9d:
                    cd:ec:09:c0:5b:bb:1e:7a:c2:62:24:b0:eb:6f:c9:
                    c2:21:1f:cf:ba:f7:79:1e:82:54:1a:de:08:10:e1:
                    76:df:7f:2e:05:9f:31:1d:7c:ea:b0:28:cb:70:c8:
                    96:0c:cb:4f:ff:17:0a:9e:ba:74:09:ba:1b:22:35:
                    35:8e:88:4c:b9:3c:61:54:e5:5e:72:c3:ba:63:ae:
                    65:2c:db:7d:f4:ca:f8:16:3b:ad:23:d9:c4:99:de:
                    e3:2a:d7:f3:46:41:9e:1d:6d:ca:f3:d2:98:e7:1a:
                    1f:78:bd:2c:06:c5:07:5d:c1:b8:29:6b:49:41:eb:
                    87:cc:73:63:5d:4a:e6:02:42:d9:14:f0:6f:63:ab:
                    e9:ef:ba:67:c9:15:75:eb:69:cd:be:78:74:be:47:
                    ff:f2:57:3f:0a:e5:40:06:98:22:aa:62:d7:bc:a0:
                    b1:8b:1c:77:96:59:9d:7c:0b:4e:d1:99:1e:55:d5:
                    dc:a4:3c:02:63:87:09:7a:ce:34:78:5b:1e:8d:f3:
                    cb:9f:64:26:8a:42:ff:bf:08:8a:56:50:0f:2c:9e:
                    d0:54:23:68:3a:46:14:b5:b0:84:53:f2:4c:66:7a:
                    7d:11:76:f2:bb:d8:68:34:93:2a:03:02:96:56:81:
                    2b:32:cb:81:b1:c4:08:bb:65:c5:86:b8:56:b7:98:
                    ee:43:4e:a9:e3:fb:14:3f:91:82:f2:26:61:68:22:
                    93:68:5c:bd:ef:dd:66:70:3b:f2:98:ab:21:ed:6b:
                    06:3f:40:44:84:fc:cb:eb:8d:0f:79:ec:0b:5e:d1:
                    58:56:eb:22:25:e1:a7:37:02:ba:d2:38:05:f4:8c:
                    1b:8d:56:0c:9c:f2:c2:f9:85:a5:87:d7:c0:8b:54:
                    00:55:aa:4a:26:55:66:78:c1:e3:42:78:a4:34:61:
                    d4:e6:37:20:ba:cc:32:72:75:9f:67:39:c6:6d:19:
                    6d:1d:70:ef:6d:41:9d:c1:06:2c:29:f3:7a:11:9a:
                    1c:80:38:c2:97:a8:39:1a:0f:f1:40:77:b2:fd:93:
                    15:82:33:c2:ca:93:38:3c:b9:5b:03:33:60:f4:eb:
                    1f:d1:d5
                Exponent: 65537 (0x10001)
    Signature Algorithm: sha256WithRSAEncryption
         51:11:9a:49:e9:cd:cc:63:b3:39:c2:4f:0a:20:b7:25:c7:ed:
         b6:f3:15:bb:fc:e7:58:e2:9d:b9:69:00:fe:36:f0:ac:a7:c2:
         cb:fd:24:33:4c:9a:82:dd:98:fc:1a:59:e6:9d:c7:6c:e7:6b:
         76:20:9b:cf:f9:e7:23:88:a1:3a:8b:27:bc:13:0d:29:c1:18:
         ae:79:f2:55:d4:64:0a:71:ca:cf:62:30:83:79:cf:cc:36:65:
         ad:da:53:26:62:34:7d:dd:57:01:19:c1:ef:0a:c2:21:8e:ab:
         71:6c:1e:60:12:0a:6f:b5:d6:95:4b:8a:5c:2e:ab:19:62:25:
         33:64:a5:03:f2:27:49:91:8b:2c:de:7d:d4:ba:f7:bc:88:58:
         9e:08:27:2b:6c:e9:46:0c:47:28:49:1f:66:f6:84:ad:d1:24:
         26:41:87:10:22:5a:05:e8:7d:e6:84:31:e9:36:55:26:0c:1d:
         6f:dd:12:8a:f9:6a:6f:82:24:e7:b0:dd:6d:97:aa:1c:e1:67:
         23:9c:9f:24:09:8e:29:1f:56:3f:a4:69:64:a5:84:10:cd:9e:
         6b:00:e9:04:71:72:72:08:46:9a:fa:e2:9a:cc:bb:9c:b3:68:
         4d:a0:6f:95:91:74:3c:85:4a:61:ac:fa:cd:de:f7:f5:a3:34:
         d3:32:97:23:19:c1:ba:3d:a6:d5:26:46:91:7f:11:ae:30:9a:
         7a:4d:4a:21:4a:14:8e:16:51:4c:7b:dd:42:58:06:32:db:5d:
         b4:e1:d7:98:ac:d1:7b:10:2e:36:0f:2f:91:c6:2b:67:d9:c5:
         e3:1b:3b:99:f1:d1:f4:43:a4:96:27:57:b9:6f:87:d1:96:27:
         be:6f:5e:12:0f:b6:dd:fe:89:c6:25:9f:15:0c:97:f8:54:af:
         9f:4f:9e:d3:c0:c4:f1:e9:20:61:d0:4e:54:f7:14:77:46:56:
         23:db:61:aa:e9:26:3a:a0:0b:06:f8:51:e2:65:ed:81:78:ef:
         93:4c:44:09:5f:e8:12:a5:47:46:05:07:4b:6d:cf:88:69:3c:
         0d:a2:27:95:50:fd:58:f9:58:e0:37:f3:71:33:ff:98:6b:23:
         ee:49:3e:75:02:08:6a:91:5b:e8:50:22:48:e3:d4:36:50:f4:
         1d:fa:54:ee:b7:d3:9d:95:9d:c2:d2:09:28:08:b3:0b:8a:25:
         52:0f:41:d3:4e:f1:08:21:ef:3b:27:e5:98:07:12:e0:6d:47:
         e0:23:1a:6e:2c:85:eb:a4:be:bc:1d:15:ca:14:86:0f:e0:e2:
         23:04:07:81:fc:b8:54:9d:07:2d:c1:e5:41:ef:1a:f0:f4:f8:
         18:ed:dc:05:08:d3:8b:18
-----BEGIN CERTIFICATE-----
MIIFPzCCAycCAR0wDQYJKoZIhvcNAQELBQAwdDELMAkGA1UEBhMCZnIxDDAKBgNV
BAgMA2lkZjEOMAwGA1UEBwwFcGFyaXMxEDAOBgNVBAoMB3ZpdGFtdWkxFDASBgNV
BAsMC2F1dGhvcml0aWVzMR8wHQYDVQQDDBZjYV9pbnRlcm1lZGlhdGVfc2VydmVy
MB4XDTIwMTIwOTA5NDAzMloXDTIzMTIwOTA5NDAzMlowVzELMAkGA1UEBhMCZnIx
DDAKBgNVBAgMA2lkZjEOMAwGA1UEBwwFcGFyaXMxEDAOBgNVBAoMB3ZpdGFtdWkx
GDAWBgNVBAMMD2Rldi52aXRhbXVpLmNvbTCCAiIwDQYJKoZIhvcNAQEBBQADggIP
ADCCAgoCggIBALoE0WZ4pHMUdCnk2zwDu6FoDLXoEKnKglfnO6kT2taudfRUl1+t
Ai4DDgY2cTRH++wVQEt1Ayy85I54t2TQkYGiGEpvCoF80T34qZTraWNh0w+DQEX2
xisL3sNUfof8CKxtSQwhGGOdzewJwFu7HnrCYiSw62/JwiEfz7r3eR6CVBreCBDh
dt9/LgWfMR186rAoy3DIlgzLT/8XCp66dAm6GyI1NY6ITLk8YVTlXnLDumOuZSzb
ffTK+BY7rSPZxJne4yrX80ZBnh1tyvPSmOcaH3i9LAbFB13BuClrSUHrh8xzY11K
5gJC2RTwb2Or6e+6Z8kVdetpzb54dL5H//JXPwrlQAaYIqpi17ygsYscd5ZZnXwL
TtGZHlXV3KQ8AmOHCXrONHhbHo3zy59kJopC/78IilZQDyye0FQjaDpGFLWwhFPy
TGZ6fRF28rvYaDSTKgMCllaBKzLLgbHECLtlxYa4VreY7kNOqeP7FD+RgvImYWgi
k2hcve/dZnA78pirIe1rBj9ARIT8y+uND3nsC17RWFbrIiXhpzcCutI4BfSMG41W
DJzywvmFpYfXwItUAFWqSiZVZnjB40J4pDRh1OY3ILrMMnJ1n2c5xm0ZbR1w721B
ncEGLCnzehGaHIA4wpeoORoP8UB3sv2TFYIzwsqTODy5WwMzYPTrH9HVAgMBAAEw
DQYJKoZIhvcNAQELBQADggIBAFERmknpzcxjsznCTwogtyXH7bbzFbv851jinblp
AP428Kynwsv9JDNMmoLdmPwaWeadx2zna3Ygm8/55yOIoTqLJ7wTDSnBGK558lXU
ZApxys9iMIN5z8w2Za3aUyZiNH3dVwEZwe8KwiGOq3FsHmASCm+11pVLilwuqxli
JTNkpQPyJ0mRiyzefdS697yIWJ4IJyts6UYMRyhJH2b2hK3RJCZBhxAiWgXofeaE
Mek2VSYMHW/dEor5am+CJOew3W2XqhzhZyOcnyQJjikfVj+kaWSlhBDNnmsA6QRx
cnIIRpr64prMu5yzaE2gb5WRdDyFSmGs+s3e9/WjNNMylyMZwbo9ptUmRpF/Ea4w
mnpNSiFKFI4WUUx73UJYBjLbXbTh15is0XsQLjYPL5HGK2fZxeMbO5nx0fRDpJYn
V7lvh9GWJ75vXhIPtt3+icYlnxUMl/hUr59PntPAxPHpIGHQTlT3FHdGViPbYarp
JjqgCwb4UeJl7YF475NMRAlf6BKlR0YFB0ttz4hpPA2iJ5VQ/Vj5WOA383Ez/5hr
I+5JPnUCCGqRW+hQIkjj1DZQ9B36VO63052VncLSCSgIswuKJVIPQdNO8Qgh7zsn
5ZgHEuBtR+AjGm4sheukvrwdFcoUhg/g4iMEB4H8uFSdBy3B5UHvGvD0+Bjt3AUI
04sY
-----END CERTIFICATE-----
