Certificate:
    Data:
        Version: 1 (0x0)
        Serial Number: 30 (0x1e)
        Signature Algorithm: sha256WithRSAEncryption
        Issuer: C=fr, ST=idf, L=paris, O=vitamui, OU=authorities, CN=ca_intermediate_server
        Validity
            Not Before: Dec  9 09:40:45 2020 GMT
            Not After : Dec  9 09:40:45 2023 GMT
        Subject: C=fr, ST=idf, L=paris, O=vitamui, CN=dev.vitamui.com
        Subject Public Key Info:
            Public Key Algorithm: rsaEncryption
                RSA Public-Key: (4096 bit)
                Modulus:
                    00:d5:b4:e2:b6:89:26:93:16:21:e3:7e:e2:17:b2:
                    28:d8:30:74:2b:51:c2:44:04:35:ea:ea:f5:3d:66:
                    d1:aa:c2:50:7c:bb:16:a4:f8:3b:a9:d9:83:dc:85:
                    2e:2e:c5:49:92:8d:13:f9:a2:6c:69:ba:16:33:78:
                    42:fd:2e:89:59:98:59:48:15:a2:9d:29:bf:d7:ce:
                    ba:4e:75:9e:b2:c0:f1:b3:e8:07:8f:77:19:62:85:
                    a0:a4:5d:c5:e1:28:cb:80:31:a5:f6:49:ef:33:70:
                    55:cc:71:32:6f:14:42:7a:f3:47:c8:97:1c:56:89:
                    d4:7b:c5:24:10:94:d4:a0:2a:f1:ce:96:9d:49:ad:
                    da:43:d9:ff:59:fd:e2:19:9a:c9:63:bc:30:30:59:
                    92:a9:d9:9b:22:3a:30:49:8b:ae:52:db:f3:f5:42:
                    b7:66:91:f0:e4:8b:d2:5d:e6:a3:7c:09:a1:49:c5:
                    68:72:e7:70:51:cd:62:14:2f:3d:7d:71:4a:15:43:
                    35:3a:44:76:95:ad:95:6f:5d:24:d2:98:19:fd:e6:
                    33:00:c6:4a:05:24:70:72:52:e6:86:9a:7a:85:58:
                    09:1f:ec:05:50:11:25:da:c5:f4:54:55:0f:c7:d8:
                    f6:46:f5:23:0f:26:1d:be:92:de:5d:2d:f4:29:cc:
                    98:51:dd:c3:67:e3:a5:ba:df:db:f1:12:6c:f4:ac:
                    36:e4:7a:bc:1f:95:6d:bb:72:e2:60:2f:da:31:53:
                    a7:05:ba:b4:0d:9b:e5:89:e8:c1:33:e4:08:61:64:
                    d3:68:ab:75:d1:c8:05:a2:3b:5e:df:c4:29:94:4f:
                    d1:26:41:f6:2f:20:ba:21:2f:53:14:5f:f5:7b:dc:
                    8c:e9:9e:30:b3:f4:cc:7e:c7:75:56:8f:20:6e:4a:
                    53:56:18:26:27:16:79:b6:3b:6c:c0:68:3d:0f:c0:
                    47:39:54:57:7f:7e:01:c4:60:37:36:cb:38:61:6f:
                    2c:69:5c:15:3e:7a:7c:d6:f6:e4:61:29:c0:c1:d7:
                    57:af:7b:46:ad:45:82:b5:b2:50:f7:91:9e:b9:6d:
                    44:86:22:5f:b0:51:60:3b:c5:0d:03:ad:24:91:33:
                    41:c4:3d:0b:77:c1:5a:12:ca:b5:d7:1a:b3:f8:0b:
                    8c:0a:ae:86:8f:7b:2f:29:4e:0e:9d:3e:cc:d8:1e:
                    b8:a4:2f:fd:a1:0a:4d:51:4d:95:d3:de:2d:12:6a:
                    b9:b2:22:34:f1:d3:bd:6c:bc:37:7c:fb:e8:df:46:
                    5a:d7:b1:15:c6:8c:c7:d2:cb:a3:54:19:b4:ec:98:
                    b0:cb:f8:30:71:f2:54:06:17:95:2a:f2:e4:a2:a4:
                    c0:7f:9d
                Exponent: 65537 (0x10001)
    Signature Algorithm: sha256WithRSAEncryption
         67:ea:8f:09:0a:5c:15:42:cf:18:c1:b6:37:7d:c7:25:42:17:
         6c:62:e7:a1:52:1c:93:0f:a8:d7:31:2f:2e:1b:37:60:df:82:
         19:bb:2c:b9:65:be:4d:60:82:a7:c8:4f:2d:d2:e2:0e:8d:9f:
         b0:cd:d4:96:4b:08:2e:c4:47:6a:04:9a:df:5e:b1:4f:66:d7:
         65:4f:87:37:19:a2:44:15:a9:6d:a2:a2:2a:80:69:6b:35:d7:
         54:0e:c1:ab:08:43:c2:df:77:c3:cf:b5:9e:83:a8:3a:2b:1c:
         6f:df:92:c5:1b:2d:1f:3a:f2:5a:48:f2:9e:fa:15:6f:bc:09:
         6b:e6:7b:74:c9:57:b6:d7:4a:3e:01:d9:29:92:7a:89:7e:6e:
         eb:85:a6:e5:c5:e3:bb:66:8b:64:e8:3a:6d:0e:a2:e9:68:8a:
         4f:a2:b4:10:cf:45:8c:1f:49:4b:ae:41:99:89:5b:56:a8:bc:
         40:b8:97:d9:5c:c8:15:04:93:61:c2:60:5b:6a:2c:10:e3:41:
         da:a2:0d:f4:35:34:9b:59:3a:f7:0d:9a:2f:03:a7:56:e9:75:
         9b:ce:94:07:97:9a:c7:28:85:35:27:da:64:63:c8:3c:72:f7:
         72:28:9d:1e:58:65:18:bf:d4:33:2c:e2:c7:19:7d:40:eb:91:
         6b:8b:84:f4:e4:05:44:c5:e9:ea:3d:5e:86:21:0a:8e:c3:89:
         a3:61:10:94:c2:fa:45:4d:5d:5e:2f:83:75:81:79:bb:c8:db:
         e4:ad:a9:d4:4b:df:8f:5e:a8:82:68:15:28:13:c1:3e:a3:d7:
         2b:d4:55:1d:d0:67:43:3a:4d:cc:b7:e3:24:8d:27:eb:79:62:
         cb:fa:dd:e3:ae:21:90:8a:0f:9b:3e:62:b3:95:5c:24:16:07:
         90:c1:a4:74:06:cf:d4:45:92:9f:bf:fe:05:c6:c2:8d:86:db:
         f9:1f:05:d4:56:fc:9b:ca:65:03:0b:24:da:f0:94:f6:1f:7d:
         6e:3a:32:bb:c0:34:65:74:f6:72:f4:b2:00:3c:76:40:37:64:
         c3:ec:c1:e4:e3:93:34:b8:58:0c:2c:7f:de:4e:38:77:58:8e:
         d0:67:e4:c1:00:16:08:b2:b5:d0:95:ed:22:fb:c1:31:9f:1b:
         81:19:c2:76:12:ad:c6:0d:1b:39:12:65:ff:25:60:e8:7b:64:
         f2:41:a8:60:8b:41:26:2b:1b:50:88:68:b6:9d:bb:57:26:c9:
         07:85:c8:7f:6e:97:42:f7:26:de:e7:51:7a:a7:e3:58:49:23:
         10:21:0c:78:d6:d1:49:3a:f6:e4:19:2e:7a:29:17:47:6b:57:
         c0:f9:c7:28:ef:7f:04:50
-----BEGIN CERTIFICATE-----
MIIFPzCCAycCAR4wDQYJKoZIhvcNAQELBQAwdDELMAkGA1UEBhMCZnIxDDAKBgNV
BAgMA2lkZjEOMAwGA1UEBwwFcGFyaXMxEDAOBgNVBAoMB3ZpdGFtdWkxFDASBgNV
BAsMC2F1dGhvcml0aWVzMR8wHQYDVQQDDBZjYV9pbnRlcm1lZGlhdGVfc2VydmVy
MB4XDTIwMTIwOTA5NDA0NVoXDTIzMTIwOTA5NDA0NVowVzELMAkGA1UEBhMCZnIx
DDAKBgNVBAgMA2lkZjEOMAwGA1UEBwwFcGFyaXMxEDAOBgNVBAoMB3ZpdGFtdWkx
GDAWBgNVBAMMD2Rldi52aXRhbXVpLmNvbTCCAiIwDQYJKoZIhvcNAQEBBQADggIP
ADCCAgoCggIBANW04raJJpMWIeN+4heyKNgwdCtRwkQENerq9T1m0arCUHy7FqT4
O6nZg9yFLi7FSZKNE/mibGm6FjN4Qv0uiVmYWUgVop0pv9fOuk51nrLA8bPoB493
GWKFoKRdxeEoy4AxpfZJ7zNwVcxxMm8UQnrzR8iXHFaJ1HvFJBCU1KAq8c6WnUmt
2kPZ/1n94hmayWO8MDBZkqnZmyI6MEmLrlLb8/VCt2aR8OSL0l3mo3wJoUnFaHLn
cFHNYhQvPX1xShVDNTpEdpWtlW9dJNKYGf3mMwDGSgUkcHJS5oaaeoVYCR/sBVAR
JdrF9FRVD8fY9kb1Iw8mHb6S3l0t9CnMmFHdw2fjpbrf2/ESbPSsNuR6vB+Vbbty
4mAv2jFTpwW6tA2b5YnowTPkCGFk02irddHIBaI7Xt/EKZRP0SZB9i8guiEvUxRf
9XvcjOmeMLP0zH7HdVaPIG5KU1YYJicWebY7bMBoPQ/ARzlUV39+AcRgNzbLOGFv
LGlcFT56fNb25GEpwMHXV697Rq1FgrWyUPeRnrltRIYiX7BRYDvFDQOtJJEzQcQ9
C3fBWhLKtdcas/gLjAquho97LylODp0+zNgeuKQv/aEKTVFNldPeLRJqubIiNPHT
vWy8N3z76N9GWtexFcaMx9LLo1QZtOyYsMv4MHHyVAYXlSry5KKkwH+dAgMBAAEw
DQYJKoZIhvcNAQELBQADggIBAGfqjwkKXBVCzxjBtjd9xyVCF2xi56FSHJMPqNcx
Ly4bN2Dfghm7LLllvk1ggqfITy3S4g6Nn7DN1JZLCC7ER2oEmt9esU9m12VPhzcZ
okQVqW2ioiqAaWs111QOwasIQ8Lfd8PPtZ6DqDorHG/fksUbLR868lpI8p76FW+8
CWvme3TJV7bXSj4B2SmSeol+buuFpuXF47tmi2ToOm0Oouloik+itBDPRYwfSUuu
QZmJW1aovEC4l9lcyBUEk2HCYFtqLBDjQdqiDfQ1NJtZOvcNmi8Dp1bpdZvOlAeX
mscohTUn2mRjyDxy93IonR5YZRi/1DMs4scZfUDrkWuLhPTkBUTF6eo9XoYhCo7D
iaNhEJTC+kVNXV4vg3WBebvI2+StqdRL349eqIJoFSgTwT6j1yvUVR3QZ0M6Tcy3
4ySNJ+t5Ysv63eOuIZCKD5s+YrOVXCQWB5DBpHQGz9RFkp+//gXGwo2G2/kfBdRW
/JvKZQMLJNrwlPYffW46MrvANGV09nL0sgA8dkA3ZMPsweTjkzS4WAwsf95OOHdY
jtBn5MEAFgiytdCV7SL7wTGfG4EZwnYSrcYNGzkSZf8lYOh7ZPJBqGCLQSYrG1CI
aLadu1cmyQeFyH9ul0L3Jt7nUXqn41hJIxAhDHjW0Uk69uQZLnopF0drV8D5xyjv
fwRQ
-----END CERTIFICATE-----
