Certificate:
    Data:
        Version: 1 (0x0)
        Serial Number: 42 (0x2a)
        Signature Algorithm: sha256WithRSAEncryption
        Issuer: C=fr, ST=idf, L=paris, O=vitamui, OU=authorities, CN=ca_intermediate_server
        Validity
            Not Before: Nov 23 16:59:21 2022 GMT
            Not After : Nov 22 16:59:21 2025 GMT
        Subject: C=fr, ST=idf, L=paris, O=vitamui, CN=dev.vitamui.com
        Subject Public Key Info:
            Public Key Algorithm: rsaEncryption
                RSA Public-Key: (4096 bit)
                Modulus:
                    00:e1:77:6d:37:7c:fe:e8:0c:38:66:1e:81:67:64:
                    29:2b:22:a5:57:62:55:be:0e:e0:0d:6d:09:f6:28:
                    b1:c7:d5:5e:fb:5d:ac:e2:25:ae:a6:4c:b6:c5:6f:
                    fb:b2:ae:64:21:e8:fa:28:ea:2d:ab:fb:ec:e0:c3:
                    fb:91:aa:b9:a3:b0:2a:43:f4:ec:df:06:5a:f8:df:
                    9d:30:f0:57:66:f8:73:17:b9:c1:3d:f7:57:42:0f:
                    52:5b:1a:02:8f:30:f0:42:bd:35:72:21:93:b6:43:
                    95:0b:9e:8f:5b:75:e0:f9:6d:db:d5:11:ba:55:b4:
                    fa:37:52:84:35:e6:80:c1:92:dc:3e:b0:a3:af:9d:
                    32:b1:c2:15:0d:69:bd:a8:6f:df:83:9b:31:58:93:
                    d6:27:20:57:d8:22:20:4f:9e:ec:77:6c:a5:15:7c:
                    1e:fd:62:17:f1:19:a2:b9:74:91:13:02:11:a0:e7:
                    5b:76:56:73:b2:e4:d4:9d:2d:22:b4:e5:e6:38:43:
                    7a:59:d1:51:5e:6b:ce:e6:e6:cf:fc:65:8a:c2:e1:
                    d5:f3:a3:40:13:5b:6e:72:4d:a4:f6:1b:42:66:a9:
                    35:40:24:a6:c7:1e:8d:dd:ac:af:c4:a2:a5:b7:85:
                    46:7a:4a:6d:ae:1c:06:78:c6:df:8c:21:a9:82:52:
                    af:74:b3:e3:47:d8:be:fe:45:2f:9f:2c:c4:50:3d:
                    ba:7e:44:c0:b7:98:34:f8:62:a2:67:d2:59:e1:f0:
                    bf:8e:ae:fa:74:62:a9:3e:24:b4:1d:34:af:d9:a6:
                    3d:7a:66:02:cb:80:f5:d5:22:a4:60:98:88:89:db:
                    00:88:c0:0a:9a:be:f7:7c:5c:21:39:c2:a9:21:8a:
                    c9:d9:a9:4e:07:f0:8d:9b:88:5d:00:60:f3:68:6e:
                    13:2e:69:f1:e4:4e:80:96:ee:3a:80:42:e4:dd:ce:
                    7b:a3:cf:d6:65:01:a3:7c:53:68:b2:6c:0a:d6:5e:
                    41:8f:72:1e:b5:4d:2f:a3:ba:ab:17:7b:ab:46:ca:
                    8f:c1:71:b3:08:64:27:88:b1:7f:a1:69:24:71:cb:
                    74:b0:e6:b2:7d:68:25:01:ee:ac:08:65:5b:b1:72:
                    28:eb:10:7d:40:f8:8a:3d:88:62:a9:12:48:6b:5a:
                    eb:fa:4c:c5:67:8a:77:c0:43:9b:07:70:3e:20:ef:
                    8f:75:0d:45:b0:e2:27:98:8a:e3:e3:f1:9e:19:90:
                    04:e3:d2:5e:78:19:01:d2:0e:d0:82:12:8d:b9:00:
                    0e:d5:53:3c:4e:fa:80:0a:e3:f3:5a:31:7d:42:be:
                    8b:ee:a3:5e:f5:ff:71:71:da:c3:7b:ba:21:46:f9:
                    24:0b:85
                Exponent: 65537 (0x10001)
    Signature Algorithm: sha256WithRSAEncryption
         0d:72:cf:94:5a:6d:08:3d:84:c3:6e:12:26:f9:41:3d:50:52:
         73:15:16:ff:e7:80:04:a8:98:f2:fd:c1:20:d4:58:85:c8:23:
         35:52:3f:03:80:28:6f:6e:ff:7c:89:ba:02:c2:eb:8a:92:50:
         95:71:f1:8e:1e:26:61:b6:89:f1:03:65:7e:a0:e6:a9:1a:18:
         33:1d:84:91:09:c0:9a:a0:12:99:4d:a5:c6:46:4f:c5:98:f4:
         5f:2e:60:c6:67:3d:4a:41:4a:2e:5e:ed:cb:ed:a7:2c:bb:d7:
         db:05:30:e4:1d:1b:b1:d1:5e:03:bd:27:26:29:ff:49:c6:3c:
         da:23:06:da:53:b9:3e:a2:58:3a:09:23:65:01:7a:be:fc:76:
         8e:11:30:1d:10:ed:77:19:02:e0:14:b4:1e:f7:ac:eb:04:a5:
         84:ca:29:97:97:a8:25:5b:4a:5f:ba:02:c9:28:18:9e:02:8f:
         14:c4:91:fb:78:d5:d8:80:40:29:ea:a7:e6:fc:65:e4:06:66:
         16:4f:6c:f7:f6:e1:20:91:fd:16:35:83:b9:07:d7:76:69:f4:
         39:62:59:b3:f1:33:2d:a9:44:ad:5b:01:85:cf:28:d7:92:b3:
         6c:e7:41:ac:f6:24:42:db:bb:e8:53:72:22:73:64:9b:d4:3c:
         a5:3f:80:05:ae:6d:d2:f8:87:19:88:c1:3b:f9:9b:f9:62:e1:
         c1:54:3a:14:f2:90:58:b5:e5:f0:5a:92:b8:52:88:18:a5:65:
         ad:d7:16:e4:41:95:fd:33:89:67:68:38:e7:c6:89:f4:e4:b5:
         d4:a1:45:df:d9:ff:f5:17:3c:7c:3e:64:ab:6a:04:12:0a:f2:
         b8:9a:84:f7:14:6e:72:e8:78:e5:a5:c7:11:71:05:b5:e9:34:
         2f:90:82:5c:79:ab:3a:6e:43:b1:d5:ec:3d:79:0c:14:94:db:
         2e:26:d4:64:0a:ff:0c:8d:68:12:94:65:57:51:7d:2f:08:87:
         74:2d:ca:b2:ce:04:70:2c:b1:e1:42:d1:83:e6:01:44:21:b6:
         1a:2b:89:2c:e5:f6:80:71:9b:84:9e:50:c5:e4:48:77:41:f5:
         ea:8e:53:c8:91:a8:c2:11:bf:89:89:18:bf:ae:b6:35:5e:16:
         0f:d9:86:9c:eb:81:09:92:a6:d8:13:14:10:8b:da:66:36:7e:
         42:0e:77:69:b7:a2:a4:5b:14:5f:70:55:8b:07:06:db:8b:5d:
         a2:94:89:06:83:3e:f2:b1:ad:40:78:b9:11:ee:1b:68:7d:cf:
         a2:42:41:c1:ab:80:8e:cc:49:da:be:f9:2e:ff:cc:9b:2d:fd:
         33:a7:df:77:e7:64:7e:31
-----BEGIN CERTIFICATE-----
MIIFPzCCAycCASowDQYJKoZIhvcNAQELBQAwdDELMAkGA1UEBhMCZnIxDDAKBgNV
BAgMA2lkZjEOMAwGA1UEBwwFcGFyaXMxEDAOBgNVBAoMB3ZpdGFtdWkxFDASBgNV
BAsMC2F1dGhvcml0aWVzMR8wHQYDVQQDDBZjYV9pbnRlcm1lZGlhdGVfc2VydmVy
MB4XDTIyMTEyMzE2NTkyMVoXDTI1MTEyMjE2NTkyMVowVzELMAkGA1UEBhMCZnIx
DDAKBgNVBAgMA2lkZjEOMAwGA1UEBwwFcGFyaXMxEDAOBgNVBAoMB3ZpdGFtdWkx
GDAWBgNVBAMMD2Rldi52aXRhbXVpLmNvbTCCAiIwDQYJKoZIhvcNAQEBBQADggIP
ADCCAgoCggIBAOF3bTd8/ugMOGYegWdkKSsipVdiVb4O4A1tCfYoscfVXvtdrOIl
rqZMtsVv+7KuZCHo+ijqLav77ODD+5GquaOwKkP07N8GWvjfnTDwV2b4cxe5wT33
V0IPUlsaAo8w8EK9NXIhk7ZDlQuej1t14Plt29URulW0+jdShDXmgMGS3D6wo6+d
MrHCFQ1pvahv34ObMViT1icgV9giIE+e7HdspRV8Hv1iF/EZorl0kRMCEaDnW3ZW
c7Lk1J0tIrTl5jhDelnRUV5rzubmz/xlisLh1fOjQBNbbnJNpPYbQmapNUAkpsce
jd2sr8SipbeFRnpKba4cBnjG34whqYJSr3Sz40fYvv5FL58sxFA9un5EwLeYNPhi
omfSWeHwv46u+nRiqT4ktB00r9mmPXpmAsuA9dUipGCYiInbAIjACpq+93xcITnC
qSGKydmpTgfwjZuIXQBg82huEy5p8eROgJbuOoBC5N3Oe6PP1mUBo3xTaLJsCtZe
QY9yHrVNL6O6qxd7q0bKj8FxswhkJ4ixf6FpJHHLdLDmsn1oJQHurAhlW7FyKOsQ
fUD4ij2IYqkSSGta6/pMxWeKd8BDmwdwPiDvj3UNRbDiJ5iK4+PxnhmQBOPSXngZ
AdIO0IISjbkADtVTPE76gArj81oxfUK+i+6jXvX/cXHaw3u6IUb5JAuFAgMBAAEw
DQYJKoZIhvcNAQELBQADggIBAA1yz5RabQg9hMNuEib5QT1QUnMVFv/ngASomPL9
wSDUWIXIIzVSPwOAKG9u/3yJugLC64qSUJVx8Y4eJmG2ifEDZX6g5qkaGDMdhJEJ
wJqgEplNpcZGT8WY9F8uYMZnPUpBSi5e7cvtpyy719sFMOQdG7HRXgO9JyYp/0nG
PNojBtpTuT6iWDoJI2UBer78do4RMB0Q7XcZAuAUtB73rOsEpYTKKZeXqCVbSl+6
AskoGJ4CjxTEkft41diAQCnqp+b8ZeQGZhZPbPf24SCR/RY1g7kH13Zp9DliWbPx
My2pRK1bAYXPKNeSs2znQaz2JELbu+hTciJzZJvUPKU/gAWubdL4hxmIwTv5m/li
4cFUOhTykFi15fBakrhSiBilZa3XFuRBlf0ziWdoOOfGifTktdShRd/Z//UXPHw+
ZKtqBBIK8riahPcUbnLoeOWlxxFxBbXpNC+Qglx5qzpuQ7HV7D15DBSU2y4m1GQK
/wyNaBKUZVdRfS8Ih3QtyrLOBHAsseFC0YPmAUQhthoriSzl9oBxm4SeUMXkSHdB
9eqOU8iRqMIRv4mJGL+utjVeFg/ZhpzrgQmSptgTFBCL2mY2fkIOd2m3oqRbFF9w
VYsHBtuLXaKUiQaDPvKxrUB4uRHuG2h9z6JCQcGrgI7MSdq++S7/zJst/TOn33fn
ZH4x
-----END CERTIFICATE-----
