Certificate:
    Data:
        Version: 1 (0x0)
        Serial Number: 138 (0x8a)
    Signature Algorithm: sha256WithRSAEncryption
        Issuer: C=fr, ST=idf, L=paris, O=vitamui, OU=authorities, CN=ca_intermediate_server
        Validity
            Not Before: Dec  6 12:54:36 2021 GMT
            Not After : Dec  5 12:54:36 2024 GMT
        Subject: C=fr, ST=idf, L=paris, O=vitamui, CN=dev.vitamui.com
        Subject Public Key Info:
            Public Key Algorithm: rsaEncryption
                Public-Key: (4096 bit)
                Modulus:
                    00:fb:87:58:e7:53:f3:78:7c:44:d3:16:7f:44:65:
                    02:41:54:4d:d9:1f:14:9d:ca:98:35:67:da:01:dd:
                    0a:22:89:61:c2:38:8c:e1:51:13:e1:d5:ae:58:f6:
                    91:d5:16:44:dd:fd:79:4c:02:6a:5d:a9:2f:78:75:
                    59:f0:67:cd:55:6f:69:99:a7:6f:81:d9:91:9f:e8:
                    1a:45:9a:62:98:83:4a:19:33:70:e5:a0:d2:0a:12:
                    15:2c:56:5e:87:1c:e4:ea:a9:e3:44:37:bb:39:a6:
                    dd:ed:54:ee:af:07:f2:2b:61:71:19:63:da:cd:9a:
                    60:33:91:2c:44:25:f5:7f:56:75:36:34:40:37:82:
                    f6:42:7c:04:76:5d:ff:e1:4b:63:7f:f0:18:d0:56:
                    59:0c:b6:c8:cd:51:68:ec:db:85:6b:df:cc:42:de:
                    96:e2:00:f8:4a:36:ea:d6:21:18:f0:1e:ca:f7:b2:
                    fe:b1:a9:3f:53:41:5e:3a:42:21:ec:34:a8:18:3c:
                    b1:a2:b1:49:af:40:ab:29:73:42:b9:54:96:f5:0a:
                    d2:a6:5c:1c:79:70:e5:d1:67:27:bd:f9:8f:fe:e1:
                    99:88:3a:a3:f1:90:e2:36:fa:6e:fb:59:23:41:88:
                    e2:47:a1:2b:c5:56:b1:5b:f2:76:bb:33:bc:13:cf:
                    92:90:78:ae:6f:5d:2a:8a:49:71:4a:0c:1f:a2:a6:
                    a6:63:7e:88:b5:31:b9:ba:b7:d8:e5:d8:31:c2:5b:
                    c6:3f:03:80:b8:71:0c:d7:20:a9:77:eb:28:27:c6:
                    12:1d:b0:90:90:8a:96:3f:38:0d:e7:22:49:63:da:
                    5e:48:dc:9a:7e:33:44:83:54:15:f3:4d:b1:31:2f:
                    4e:93:89:35:60:0b:a6:55:3a:c9:c6:51:30:00:96:
                    94:d2:9b:f5:12:75:78:03:56:e7:d8:2c:55:58:61:
                    e7:dc:2f:8d:fd:b5:5d:01:b6:84:4e:6a:90:b7:92:
                    e6:52:92:71:d4:b5:e5:7e:8c:ff:4e:15:d8:d6:8f:
                    77:96:97:0e:c1:4c:6c:41:27:2c:48:16:12:41:f1:
                    41:31:a5:c4:25:14:96:22:11:64:50:d2:4a:ba:fd:
                    3f:5c:c8:e3:25:c6:e6:ab:9d:99:c1:48:0a:63:45:
                    90:79:f5:dd:aa:0f:0e:f4:d5:2f:6a:77:aa:a5:5f:
                    cb:46:59:e5:a0:6f:ce:3f:bc:a1:98:94:96:79:18:
                    2d:20:8b:d7:44:e0:9a:10:11:7d:af:73:f5:5e:85:
                    bc:f0:35:ef:c3:7c:9c:6e:cb:0e:5c:d8:13:df:2c:
                    d2:8f:95:8a:92:8e:ca:8d:0d:63:b0:69:6a:eb:45:
                    7f:7f:15
                Exponent: 65537 (0x10001)
    Signature Algorithm: sha256WithRSAEncryption
         89:7d:a4:0a:24:e3:78:f0:37:38:bd:13:4c:ef:93:3e:2e:f6:
         fc:3f:76:ce:a9:24:b1:40:48:e7:57:49:e9:a8:13:1d:4f:4c:
         2b:65:fb:91:50:7c:2f:80:ed:84:90:f0:4d:e7:a0:fa:82:33:
         74:c3:c9:c0:37:25:93:33:14:1e:2f:b9:fe:74:ae:7e:1a:ae:
         52:7f:58:99:fe:9a:99:1e:e2:43:99:df:2f:50:84:3b:5f:75:
         26:b7:48:9c:66:27:1d:2b:69:5d:df:f7:e3:4c:78:a6:cb:21:
         be:f3:af:3c:9a:e6:2f:b9:a2:b2:f5:d5:db:94:68:84:7c:08:
         89:4c:4f:b3:6f:f8:30:7c:3b:e6:75:d6:91:62:f6:1d:1f:c6:
         a7:da:de:c0:50:15:84:82:51:69:83:25:79:ad:34:56:3a:6c:
         d1:0e:98:b1:66:48:45:e5:40:8e:4b:fc:c2:64:f8:c0:f8:6b:
         ed:18:2c:98:65:8e:59:34:45:14:73:51:87:6a:ff:8a:5e:31:
         50:f4:23:52:92:e9:de:e7:97:78:4d:c9:05:72:95:78:d9:32:
         f1:8f:f6:d4:83:1c:ef:c5:69:8a:96:04:09:52:b6:26:c3:b7:
         a0:52:c6:eb:ac:37:86:92:e6:2a:2a:bc:d4:cd:4e:6d:47:5e:
         73:4f:69:14:e1:8f:5c:86:e5:84:96:bd:38:53:1b:4e:3a:89:
         69:c8:9d:2f:61:12:fd:04:28:c2:c6:f1:f1:0f:b7:4c:56:98:
         18:79:31:68:fd:da:a7:16:42:07:8d:cf:9b:a4:03:a0:3f:93:
         90:c1:9e:00:22:b4:7f:46:26:f8:8f:b8:d1:9e:91:14:52:5f:
         9f:9a:fd:42:78:0d:da:90:93:03:d0:e1:52:e2:d4:a3:9f:c9:
         d2:2b:ec:f8:3a:84:0d:25:e6:9f:e4:15:bb:b2:ea:47:91:1b:
         35:bb:58:0b:37:2a:7a:87:e0:7f:43:b4:4e:79:1c:a4:6c:e6:
         cb:af:0c:4c:df:e9:62:f4:92:17:38:96:d6:47:eb:93:d7:27:
         ed:af:de:d7:be:7d:da:ba:4c:4a:f2:ff:6b:e7:41:5f:53:f7:
         4d:8e:56:11:c3:10:a4:2f:14:ed:6e:de:1f:60:57:6b:fe:44:
         de:59:ae:be:78:bf:a0:e8:10:3d:5d:8a:7b:89:fa:04:7b:df:
         04:ad:4a:a7:bb:9b:4e:73:fa:03:df:31:f4:f3:7d:81:50:cd:
         47:95:a7:f3:48:78:28:53:31:d5:b1:7b:98:f7:09:c2:c2:a0:
         5d:08:f0:55:df:ee:9f:c3:2a:e9:0c:37:40:cd:df:ca:0e:30:
         19:be:15:02:a1:5c:1c:8d
-----BEGIN CERTIFICATE-----
MIIFQDCCAygCAgCKMA0GCSqGSIb3DQEBCwUAMHQxCzAJBgNVBAYTAmZyMQwwCgYD
VQQIDANpZGYxDjAMBgNVBAcMBXBhcmlzMRAwDgYDVQQKDAd2aXRhbXVpMRQwEgYD
VQQLDAthdXRob3JpdGllczEfMB0GA1UEAwwWY2FfaW50ZXJtZWRpYXRlX3NlcnZl
cjAeFw0yMTEyMDYxMjU0MzZaFw0yNDEyMDUxMjU0MzZaMFcxCzAJBgNVBAYTAmZy
MQwwCgYDVQQIDANpZGYxDjAMBgNVBAcMBXBhcmlzMRAwDgYDVQQKDAd2aXRhbXVp
MRgwFgYDVQQDDA9kZXYudml0YW11aS5jb20wggIiMA0GCSqGSIb3DQEBAQUAA4IC
DwAwggIKAoICAQD7h1jnU/N4fETTFn9EZQJBVE3ZHxSdypg1Z9oB3QoiiWHCOIzh
URPh1a5Y9pHVFkTd/XlMAmpdqS94dVnwZ81Vb2mZp2+B2ZGf6BpFmmKYg0oZM3Dl
oNIKEhUsVl6HHOTqqeNEN7s5pt3tVO6vB/IrYXEZY9rNmmAzkSxEJfV/VnU2NEA3
gvZCfAR2Xf/hS2N/8BjQVlkMtsjNUWjs24Vr38xC3pbiAPhKNurWIRjwHsr3sv6x
qT9TQV46QiHsNKgYPLGisUmvQKspc0K5VJb1CtKmXBx5cOXRZye9+Y/+4ZmIOqPx
kOI2+m77WSNBiOJHoSvFVrFb8na7M7wTz5KQeK5vXSqKSXFKDB+ipqZjfoi1Mbm6
t9jl2DHCW8Y/A4C4cQzXIKl36ygnxhIdsJCQipY/OA3nIklj2l5I3Jp+M0SDVBXz
TbExL06TiTVgC6ZVOsnGUTAAlpTSm/USdXgDVufYLFVYYefcL439tV0BtoROapC3
kuZSknHUteV+jP9OFdjWj3eWlw7BTGxBJyxIFhJB8UExpcQlFJYiEWRQ0kq6/T9c
yOMlxuarnZnBSApjRZB59d2qDw701S9qd6qlX8tGWeWgb84/vKGYlJZ5GC0gi9dE
4JoQEX2vc/VehbzwNe/DfJxuyw5c2BPfLNKPlYqSjsqNDWOwaWrrRX9/FQIDAQAB
MA0GCSqGSIb3DQEBCwUAA4ICAQCJfaQKJON48Dc4vRNM75M+Lvb8P3bOqSSxQEjn
V0npqBMdT0wrZfuRUHwvgO2EkPBN56D6gjN0w8nANyWTMxQeL7n+dK5+Gq5Sf1iZ
/pqZHuJDmd8vUIQ7X3Umt0icZicdK2ld3/fjTHimyyG+8688muYvuaKy9dXblGiE
fAiJTE+zb/gwfDvmddaRYvYdH8an2t7AUBWEglFpgyV5rTRWOmzRDpixZkhF5UCO
S/zCZPjA+GvtGCyYZY5ZNEUUc1GHav+KXjFQ9CNSkune55d4TckFcpV42TLxj/bU
gxzvxWmKlgQJUrYmw7egUsbrrDeGkuYqKrzUzU5tR15zT2kU4Y9chuWElr04UxtO
OolpyJ0vYRL9BCjCxvHxD7dMVpgYeTFo/dqnFkIHjc+bpAOgP5OQwZ4AIrR/Rib4
j7jRnpEUUl+fmv1CeA3akJMD0OFS4tSjn8nSK+z4OoQNJeaf5BW7supHkRs1u1gL
Nyp6h+B/Q7ROeRykbObLrwxM3+li9JIXOJbWR+uT1yftr97Xvn3aukxK8v9r50Ff
U/dNjlYRwxCkLxTtbt4fYFdr/kTeWa6+eL+g6BA9XYp7ifoEe98ErUqnu5tOc/oD
3zH0832BUM1HlafzSHgoUzHVsXuY9wnCwqBdCPBV3+6fwyrpDDdAzd/KDjAZvhUC
oVwcjQ==
-----END CERTIFICATE-----
