Certificate:
    Data:
        Version: 1 (0x0)
        Serial Number: 6 (0x6)
        Signature Algorithm: sha256WithRSAEncryption
        Issuer: C=fr, ST=idf, L=paris, O=vitamui, OU=authorities, CN=ca_intermediate_server
        Validity
            Not Before: May  5 12:34:55 2020 GMT
            Not After : May  5 12:34:55 2023 GMT
        Subject: C=fr, ST=idf, L=paris, O=vitamui, CN=dev.vitamui.com
        Subject Public Key Info:
            Public Key Algorithm: rsaEncryption
                RSA Public-Key: (4096 bit)
                Modulus:
                    00:c9:df:af:71:28:12:27:c0:09:96:c3:5e:50:96:
                    a6:f0:50:0b:df:5c:11:14:d8:f9:07:4f:5a:75:81:
                    b2:af:03:f4:58:e5:fc:2d:70:c5:b8:c9:a1:11:01:
                    b6:ae:b9:51:14:b8:1a:1f:17:11:eb:71:d8:b8:ad:
                    59:d6:c6:22:8c:f4:35:7e:1a:ab:d8:54:45:a2:c0:
                    40:93:4b:f2:f9:c8:b7:fb:ed:78:d1:c0:66:12:32:
                    13:4d:ad:ea:5b:32:69:cc:e3:a6:72:45:34:05:4b:
                    c8:a2:b1:15:64:22:a4:87:91:71:55:09:c7:e3:20:
                    6e:66:c1:3c:91:6e:2f:d0:31:87:42:68:fd:eb:49:
                    28:5f:dc:89:4e:65:79:0b:76:82:8d:35:49:46:a1:
                    69:38:e5:5f:bf:2c:40:ec:06:48:94:81:f8:e5:6c:
                    37:f1:35:37:37:b6:5a:e1:8a:31:11:23:c6:e0:3c:
                    85:47:86:91:80:24:84:2b:7c:b9:57:7d:ed:b9:c1:
                    b8:9c:82:3d:65:b2:5c:6f:3d:a4:75:47:51:cf:24:
                    c4:53:d7:68:f0:07:c6:b7:09:5b:69:5e:e3:c6:49:
                    9d:d8:0a:9b:8b:f5:91:aa:82:bb:cf:0f:8b:77:20:
                    c3:b0:10:20:39:b0:d8:64:28:54:e6:68:57:b1:32:
                    75:49:94:90:91:75:7a:4b:90:19:4a:3d:fc:fb:19:
                    c1:9c:c6:87:9f:53:95:8b:0b:5a:95:6e:fa:03:f8:
                    a3:92:0d:d7:a1:39:fa:6f:92:91:f6:58:98:32:d7:
                    6c:26:5d:4f:da:67:1b:36:5c:7a:0a:4e:64:dc:d5:
                    7b:99:d7:87:24:cd:f0:f2:06:14:1f:1d:f0:ea:aa:
                    18:86:4a:e9:d4:67:2e:59:d0:e4:93:f0:b3:ec:90:
                    a7:94:78:79:ae:00:e2:7c:7e:af:53:7b:50:2e:94:
                    3a:29:5d:4d:81:9d:69:0c:91:34:17:49:92:a7:03:
                    69:e1:88:25:c0:28:43:01:56:a9:b0:d8:c7:d0:32:
                    52:d4:f1:78:a7:5c:f4:57:f5:ad:e6:0e:72:e9:79:
                    ff:5a:25:0a:eb:e4:0f:ea:ac:84:7f:fa:78:f6:00:
                    31:39:74:4c:31:98:e1:56:29:30:ff:bc:83:24:90:
                    e9:a9:7f:0a:f2:f5:48:26:50:27:26:68:87:08:00:
                    7b:49:bf:7b:e4:cc:a8:e7:4d:72:ea:87:e8:47:3d:
                    3c:45:9e:0d:01:e6:61:77:c9:83:ce:08:03:51:c8:
                    a6:d5:88:2b:c5:30:56:5b:8a:9e:5f:4c:b1:2a:6d:
                    19:aa:ca:56:f9:f1:c4:c5:ca:df:3b:db:1d:1f:d4:
                    d8:b3:7f
                Exponent: 65537 (0x10001)
    Signature Algorithm: sha256WithRSAEncryption
         6c:68:21:7d:a4:28:a8:1e:1a:ed:d9:e3:76:82:e6:cb:5c:5a:
         9f:b3:19:35:12:1e:03:24:c7:9d:5b:83:05:fd:ba:74:98:28:
         77:ba:3a:bb:d4:94:59:32:39:aa:fd:c5:53:c2:2c:f2:c5:57:
         9a:8f:42:96:d3:3f:ad:b9:a3:ea:fe:21:cd:b1:8e:22:a2:d8:
         34:68:49:c3:7b:4a:57:4f:cc:be:56:a1:a8:26:02:1d:de:1d:
         c7:d3:d0:ae:3b:c8:d2:e1:08:3a:43:cb:36:30:44:14:a4:08:
         d1:5e:92:c6:b9:ee:e7:cd:95:0b:55:40:f9:58:4b:f0:8c:1c:
         45:29:2b:83:2b:7e:50:fa:5f:19:6b:87:20:b4:e7:c1:ec:7e:
         35:d2:b6:2c:9f:ec:da:cd:fc:32:f2:30:97:63:f4:63:60:d6:
         a9:6b:e8:bd:fd:b8:7e:b6:4f:db:08:19:e8:51:3d:1e:5b:64:
         c7:87:db:d5:78:ad:f7:9a:7f:1f:92:d8:5e:1d:97:cf:03:07:
         99:3a:da:c2:4e:b6:45:06:eb:d7:b6:89:bb:24:94:30:dd:53:
         9c:f5:d0:1f:04:85:55:f5:38:78:6a:36:76:f8:3e:d1:90:ce:
         7c:d7:72:79:c5:42:e6:59:dd:6d:92:50:59:52:04:d4:db:29:
         af:74:b3:79:4c:ac:1b:35:08:7f:d0:b9:db:3b:08:e0:68:d5:
         6d:6e:a1:5a:7d:94:3b:6f:19:70:2b:6c:3c:14:07:a0:05:6b:
         2e:1e:3a:ea:05:88:5d:d0:8d:58:58:ff:f9:b0:b8:78:74:63:
         91:52:5c:ce:35:fa:29:73:88:0f:2b:3c:64:78:30:8c:9d:22:
         50:06:67:8e:40:c4:c6:84:98:01:30:65:bd:32:57:5a:d2:a5:
         ec:83:f6:ef:c8:29:46:0e:43:f0:5f:02:6f:9c:c1:4d:b5:b3:
         59:bf:c4:99:cf:8d:d5:6a:e5:79:cc:5e:28:ab:90:e3:7d:2b:
         ee:1b:0c:62:88:ee:e9:c4:3c:88:92:9e:cb:c3:48:0d:d1:bf:
         46:7f:42:46:9d:da:7a:d8:59:7e:88:86:06:30:85:50:0a:cb:
         66:69:be:1d:c2:51:6e:57:92:f5:a0:83:08:1c:ae:ea:af:e4:
         ad:8d:e5:00:13:28:fe:04:5a:09:e9:53:4a:1a:45:2f:43:9d:
         d7:96:f5:14:6e:65:fc:7c:63:6c:7d:49:90:94:08:b4:b2:46:
         0a:9a:7f:2e:90:55:01:41:e3:ca:fd:79:ba:57:4c:9e:41:f7:
         d1:23:f4:3c:19:a8:75:52:59:a7:1a:43:77:c5:46:cb:63:37:
         54:47:26:c2:03:4a:84:4f
-----BEGIN CERTIFICATE-----
MIIFPzCCAycCAQYwDQYJKoZIhvcNAQELBQAwdDELMAkGA1UEBhMCZnIxDDAKBgNV
BAgMA2lkZjEOMAwGA1UEBwwFcGFyaXMxEDAOBgNVBAoMB3ZpdGFtdWkxFDASBgNV
BAsMC2F1dGhvcml0aWVzMR8wHQYDVQQDDBZjYV9pbnRlcm1lZGlhdGVfc2VydmVy
MB4XDTIwMDUwNTEyMzQ1NVoXDTIzMDUwNTEyMzQ1NVowVzELMAkGA1UEBhMCZnIx
DDAKBgNVBAgMA2lkZjEOMAwGA1UEBwwFcGFyaXMxEDAOBgNVBAoMB3ZpdGFtdWkx
GDAWBgNVBAMMD2Rldi52aXRhbXVpLmNvbTCCAiIwDQYJKoZIhvcNAQEBBQADggIP
ADCCAgoCggIBAMnfr3EoEifACZbDXlCWpvBQC99cERTY+QdPWnWBsq8D9Fjl/C1w
xbjJoREBtq65URS4Gh8XEetx2LitWdbGIoz0NX4aq9hURaLAQJNL8vnIt/vteNHA
ZhIyE02t6lsyaczjpnJFNAVLyKKxFWQipIeRcVUJx+MgbmbBPJFuL9Axh0Jo/etJ
KF/ciU5leQt2go01SUahaTjlX78sQOwGSJSB+OVsN/E1Nze2WuGKMREjxuA8hUeG
kYAkhCt8uVd97bnBuJyCPWWyXG89pHVHUc8kxFPXaPAHxrcJW2le48ZJndgKm4v1
kaqCu88Pi3cgw7AQIDmw2GQoVOZoV7EydUmUkJF1ekuQGUo9/PsZwZzGh59TlYsL
WpVu+gP4o5IN16E5+m+SkfZYmDLXbCZdT9pnGzZcegpOZNzVe5nXhyTN8PIGFB8d
8OqqGIZK6dRnLlnQ5JPws+yQp5R4ea4A4nx+r1N7UC6UOildTYGdaQyRNBdJkqcD
aeGIJcAoQwFWqbDYx9AyUtTxeKdc9Ff1reYOcul5/1olCuvkD+qshH/6ePYAMTl0
TDGY4VYpMP+8gySQ6al/CvL1SCZQJyZohwgAe0m/e+TMqOdNcuqH6Ec9PEWeDQHm
YXfJg84IA1HIptWIK8UwVluKnl9MsSptGarKVvnxxMXK3zvbHR/U2LN/AgMBAAEw
DQYJKoZIhvcNAQELBQADggIBAGxoIX2kKKgeGu3Z43aC5stcWp+zGTUSHgMkx51b
gwX9unSYKHe6OrvUlFkyOar9xVPCLPLFV5qPQpbTP625o+r+Ic2xjiKi2DRoScN7
SldPzL5WoagmAh3eHcfT0K47yNLhCDpDyzYwRBSkCNFeksa57ufNlQtVQPlYS/CM
HEUpK4MrflD6XxlrhyC058HsfjXStiyf7NrN/DLyMJdj9GNg1qlr6L39uH62T9sI
GehRPR5bZMeH29V4rfeafx+S2F4dl88DB5k62sJOtkUG69e2ibsklDDdU5z10B8E
hVX1OHhqNnb4PtGQznzXcnnFQuZZ3W2SUFlSBNTbKa90s3lMrBs1CH/Quds7COBo
1W1uoVp9lDtvGXArbDwUB6AFay4eOuoFiF3QjVhY//mwuHh0Y5FSXM41+ilziA8r
PGR4MIydIlAGZ45AxMaEmAEwZb0yV1rSpeyD9u/IKUYOQ/BfAm+cwU21s1m/xJnP
jdVq5XnMXiirkON9K+4bDGKI7unEPIiSnsvDSA3Rv0Z/Qkad2nrYWX6IhgYwhVAK
y2Zpvh3CUW5XkvWggwgcruqv5K2N5QATKP4EWgnpU0oaRS9DndeW9RRuZfx8Y2x9
SZCUCLSyRgqafy6QVQFB48r9ebpXTJ5B99Ej9DwZqHVSWacaQ3fFRstjN1RHJsID
SoRP
-----END CERTIFICATE-----
