Certificate:
    Data:
        Version: 1 (0x0)
        Serial Number: 40 (0x28)
        Signature Algorithm: sha256WithRSAEncryption
        Issuer: C=fr, ST=idf, L=paris, O=vitamui, OU=authorities, CN=ca_intermediate_server
        Validity
            Not Before: Nov 23 16:59:17 2022 GMT
            Not After : Nov 22 16:59:17 2025 GMT
        Subject: C=fr, ST=idf, L=paris, O=vitamui, CN=dev.vitamui.com
        Subject Public Key Info:
            Public Key Algorithm: rsaEncryption
                RSA Public-Key: (4096 bit)
                Modulus:
                    00:cc:57:2d:05:e1:6e:42:81:9c:b8:be:b6:d1:8c:
                    c8:61:65:a7:1a:41:ff:c4:ad:1a:33:29:f7:a9:f6:
                    f1:6f:19:70:4e:39:15:96:97:96:d6:04:8a:d4:c2:
                    a9:0c:2e:7d:5e:80:62:f7:c5:61:3b:62:5e:a6:03:
                    ba:6e:a8:f8:90:ef:81:f7:b3:12:a3:ec:11:83:08:
                    cd:2e:bd:eb:83:a7:35:11:00:75:7a:2c:ca:fb:3d:
                    6f:44:78:a1:85:d7:3a:8d:be:82:11:b4:ee:8a:e2:
                    1b:7e:1b:63:c4:ed:3a:c7:a0:1c:ac:50:97:5d:5d:
                    43:0c:13:a0:f8:f7:d3:73:c5:76:c8:7e:9d:cb:9a:
                    ec:3b:20:23:77:94:02:86:bf:97:d2:3a:9f:08:8f:
                    21:c4:8d:46:e0:9e:b7:b7:64:f3:d7:f1:18:7d:3a:
                    cb:42:5d:72:b3:94:b3:36:b4:8a:65:eb:62:fa:e2:
                    bf:cf:40:0e:e3:4e:5f:08:fb:8b:0d:32:4f:bd:6a:
                    c9:99:b4:6b:e7:5c:e7:78:70:d5:5f:d6:1a:83:e9:
                    97:c6:9f:e3:d1:46:92:03:70:b4:35:6f:3e:3e:80:
                    ba:91:93:8d:68:8f:76:cf:df:ae:87:86:22:e8:79:
                    b5:b2:72:32:23:65:1a:58:c4:6b:31:2c:57:82:fe:
                    1f:6e:19:07:8e:2f:f2:b9:a7:7b:8c:f9:f3:50:69:
                    b0:7d:c9:7b:71:15:8e:85:71:83:57:9b:f3:39:d7:
                    bc:7c:1c:00:c0:71:34:00:d9:1c:23:fc:74:6c:31:
                    25:67:43:9c:87:96:1c:86:d6:01:a4:59:61:36:27:
                    1d:a1:8b:32:04:86:cb:4b:45:57:69:d5:9c:b3:87:
                    37:85:d7:41:cd:6b:b4:dd:d5:be:44:67:bd:a5:f9:
                    25:d0:8c:37:12:04:1d:9e:71:c6:6f:74:b5:8b:52:
                    35:20:b7:cd:45:8c:18:de:7d:a9:03:39:f4:e6:92:
                    d8:83:f7:f0:42:ee:1d:b8:25:3d:72:84:7b:9a:c2:
                    24:dd:7d:c5:1e:66:27:b6:14:5b:1b:1e:49:69:54:
                    91:2c:01:06:35:6e:a3:8e:90:3d:40:74:fe:18:3e:
                    35:9e:f1:32:c3:ea:05:96:f6:db:c3:58:de:73:90:
                    e3:91:a2:35:db:70:16:42:ca:2c:52:51:b7:bb:e0:
                    c8:f1:b7:51:0b:db:02:19:ee:2f:6c:de:7f:2a:16:
                    e8:0b:d1:c8:0b:90:c5:e9:d8:6d:4e:c8:ee:d4:5c:
                    ef:96:46:69:09:e8:37:ba:1f:1e:2f:9b:3c:a5:a7:
                    63:1a:a0:c3:7c:28:01:3d:ed:15:7c:a2:e4:48:b1:
                    db:0c:61
                Exponent: 65537 (0x10001)
    Signature Algorithm: sha256WithRSAEncryption
         80:bc:5a:2b:67:ca:cf:1e:de:ab:0d:7a:34:71:97:37:52:cb:
         46:45:a1:d4:04:86:c7:27:d9:a7:11:d9:2d:c9:5b:9d:c9:f4:
         6e:4c:0b:dc:66:11:f0:8a:35:d5:33:43:b7:50:fa:62:f5:b3:
         14:7f:a1:8f:5f:0a:99:14:fb:fb:c9:8e:fb:93:ee:b7:2d:e3:
         c3:bb:08:fa:b5:04:40:51:ce:4a:03:44:fc:1a:d8:c0:b6:8b:
         a9:94:df:71:9f:6d:fa:0e:8e:3d:68:ee:be:3a:e9:98:52:a2:
         96:b4:4f:95:0d:ec:9a:8d:2e:b4:6b:b0:0b:88:f7:2b:92:a8:
         d0:47:c5:99:92:f7:c3:9f:74:e2:53:51:96:86:4a:6c:c2:ec:
         17:65:f9:e0:ae:db:9a:0b:b9:c0:cc:97:ce:9f:b8:fa:3f:09:
         67:39:68:f1:ef:82:95:ef:10:88:88:81:c3:71:78:68:83:52:
         56:de:d0:d2:81:4d:09:18:71:84:6d:c4:c0:f9:a8:3f:4d:01:
         69:22:17:71:ca:f7:0b:a7:01:f2:24:58:67:85:71:e8:df:c0:
         6d:b9:28:a4:49:94:da:3c:8c:52:e2:a3:4f:c7:ab:d4:e3:55:
         f7:5e:cb:39:1c:b0:31:87:6a:8c:58:d9:86:e2:6b:53:c6:cc:
         ff:ff:dc:c0:fc:fd:81:63:df:c1:91:cd:d7:f9:41:f7:7a:e6:
         e9:e4:07:1a:19:bf:06:80:a8:68:52:90:f2:a3:57:65:ab:ef:
         01:9b:e0:f9:79:27:00:47:38:b8:e2:c0:e2:b1:b1:e9:b4:26:
         06:5c:e5:a0:77:6a:b2:85:61:54:56:6e:eb:9d:df:ab:22:b7:
         64:b9:c7:af:92:01:8d:30:60:6e:e1:8f:89:1a:0b:ad:f9:43:
         25:c9:b1:99:a3:1f:8a:ed:0b:8b:b1:71:fc:a2:13:28:93:dd:
         23:4d:0e:29:c0:32:17:55:e4:ba:bf:11:16:f0:d7:2b:d1:bf:
         81:ae:df:97:17:37:bc:c6:a3:49:c8:63:26:e5:79:c6:88:e8:
         d7:aa:a0:80:5b:c0:71:5f:8f:d0:bd:6d:74:ad:77:71:f8:19:
         a1:9a:cd:be:4b:21:c8:2a:c7:74:f1:ae:e3:e4:1c:62:0c:0e:
         c1:28:55:2b:7f:db:5f:e9:eb:84:3d:7e:20:62:88:cd:4e:79:
         8a:10:1d:c8:20:85:a7:4b:61:77:35:4b:82:d0:31:20:74:53:
         a5:5a:bb:bf:b1:aa:09:8b:e6:87:4c:20:42:a3:14:36:d3:49:
         ee:bd:b2:cd:fa:b5:a2:36:00:25:36:89:bb:c4:93:87:7d:ea:
         fa:36:21:c3:9a:72:ce:80
-----BEGIN CERTIFICATE-----
MIIFPzCCAycCASgwDQYJKoZIhvcNAQELBQAwdDELMAkGA1UEBhMCZnIxDDAKBgNV
BAgMA2lkZjEOMAwGA1UEBwwFcGFyaXMxEDAOBgNVBAoMB3ZpdGFtdWkxFDASBgNV
BAsMC2F1dGhvcml0aWVzMR8wHQYDVQQDDBZjYV9pbnRlcm1lZGlhdGVfc2VydmVy
MB4XDTIyMTEyMzE2NTkxN1oXDTI1MTEyMjE2NTkxN1owVzELMAkGA1UEBhMCZnIx
DDAKBgNVBAgMA2lkZjEOMAwGA1UEBwwFcGFyaXMxEDAOBgNVBAoMB3ZpdGFtdWkx
GDAWBgNVBAMMD2Rldi52aXRhbXVpLmNvbTCCAiIwDQYJKoZIhvcNAQEBBQADggIP
ADCCAgoCggIBAMxXLQXhbkKBnLi+ttGMyGFlpxpB/8StGjMp96n28W8ZcE45FZaX
ltYEitTCqQwufV6AYvfFYTtiXqYDum6o+JDvgfezEqPsEYMIzS6964OnNREAdXos
yvs9b0R4oYXXOo2+ghG07oriG34bY8TtOsegHKxQl11dQwwToPj303PFdsh+ncua
7DsgI3eUAoa/l9I6nwiPIcSNRuCet7dk89fxGH06y0JdcrOUsza0imXrYvriv89A
DuNOXwj7iw0yT71qyZm0a+dc53hw1V/WGoPpl8af49FGkgNwtDVvPj6AupGTjWiP
ds/froeGIuh5tbJyMiNlGljEazEsV4L+H24ZB44v8rmne4z581BpsH3Je3EVjoVx
g1eb8znXvHwcAMBxNADZHCP8dGwxJWdDnIeWHIbWAaRZYTYnHaGLMgSGy0tFV2nV
nLOHN4XXQc1rtN3VvkRnvaX5JdCMNxIEHZ5xxm90tYtSNSC3zUWMGN59qQM59OaS
2IP38ELuHbglPXKEe5rCJN19xR5mJ7YUWxseSWlUkSwBBjVuo46QPUB0/hg+NZ7x
MsPqBZb228NY3nOQ45GiNdtwFkLKLFJRt7vgyPG3UQvbAhnuL2zefyoW6AvRyAuQ
xenYbU7I7tRc75ZGaQnoN7ofHi+bPKWnYxqgw3woAT3tFXyi5Eix2wxhAgMBAAEw
DQYJKoZIhvcNAQELBQADggIBAIC8Witnys8e3qsNejRxlzdSy0ZFodQEhscn2acR
2S3JW53J9G5MC9xmEfCKNdUzQ7dQ+mL1sxR/oY9fCpkU+/vJjvuT7rct48O7CPq1
BEBRzkoDRPwa2MC2i6mU33GfbfoOjj1o7r466ZhSopa0T5UN7JqNLrRrsAuI9yuS
qNBHxZmS98OfdOJTUZaGSmzC7Bdl+eCu25oLucDMl86fuPo/CWc5aPHvgpXvEIiI
gcNxeGiDUlbe0NKBTQkYcYRtxMD5qD9NAWkiF3HK9wunAfIkWGeFcejfwG25KKRJ
lNo8jFLio0/Hq9TjVfdeyzkcsDGHaoxY2Ybia1PGzP//3MD8/YFj38GRzdf5Qfd6
5unkBxoZvwaAqGhSkPKjV2Wr7wGb4Pl5JwBHOLjiwOKxsem0JgZc5aB3arKFYVRW
buud36sit2S5x6+SAY0wYG7hj4kaC635QyXJsZmjH4rtC4uxcfyiEyiT3SNNDinA
MhdV5Lq/ERbw1yvRv4Gu35cXN7zGo0nIYyblecaI6NeqoIBbwHFfj9C9bXStd3H4
GaGazb5LIcgqx3TxruPkHGIMDsEoVSt/21/p64Q9fiBiiM1OeYoQHcgghadLYXc1
S4LQMSB0U6Vau7+xqgmL5odMIEKjFDbTSe69ss36taI2ACU2ibvEk4d96vo2IcOa
cs6A
-----END CERTIFICATE-----
