Certificate:
    Data:
        Version: 1 (0x0)
        Serial Number: 34 (0x22)
        Signature Algorithm: sha256WithRSAEncryption
        Issuer: C=fr, ST=idf, L=paris, O=vitamui, OU=authorities, CN=ca_intermediate_server
        Validity
            Not Before: May 19 15:54:59 2022 GMT
            Not After : May 18 15:54:59 2025 GMT
        Subject: C=fr, ST=idf, L=paris, O=vitamui, CN=dev.vitamui.com
        Subject Public Key Info:
            Public Key Algorithm: rsaEncryption
                RSA Public-Key: (4096 bit)
                Modulus:
                    00:ce:7e:e9:99:dd:d0:ef:22:b8:33:5b:50:f8:88:
                    d1:34:9e:ed:6c:10:b5:7c:b4:70:62:9f:97:66:71:
                    6d:3a:eb:ea:73:3d:1b:df:ea:e9:95:0e:4c:09:25:
                    5d:ff:5f:2b:91:d2:7c:7c:48:c3:29:f0:dc:62:a7:
                    30:ca:e9:89:08:38:62:52:1a:45:e7:92:6e:03:70:
                    b5:a7:62:d0:ae:00:55:09:15:36:18:a9:8a:58:7c:
                    5e:cd:6b:f2:4a:fe:9e:61:db:d8:34:6d:db:ff:4e:
                    85:cb:41:a5:c5:20:e6:c9:80:7b:30:0c:5e:20:0a:
                    b6:ef:9c:2f:dc:9a:43:95:da:66:df:32:44:75:58:
                    a2:3a:b9:b1:e0:3d:3f:1b:f2:0c:d7:b0:e2:64:1f:
                    de:88:d0:8d:22:fb:ab:a3:1e:c8:bc:da:e9:1a:c9:
                    71:d4:ad:4e:54:96:22:da:f1:d6:f0:70:a5:8c:c8:
                    5b:8e:c7:55:f2:06:31:91:09:9f:83:b8:ca:48:eb:
                    46:bc:9e:78:8f:d7:1d:8c:95:42:a6:59:38:dd:78:
                    e7:4a:20:1e:de:da:ea:3f:80:bd:bc:e0:c9:04:ef:
                    46:50:d9:e8:16:31:57:88:7a:b9:ec:0f:aa:ac:74:
                    25:a7:99:47:c4:d5:66:5e:9e:99:90:8d:c0:3d:74:
                    25:bc:48:f5:e3:5c:bc:ea:da:aa:f8:f6:3b:8c:ea:
                    c0:d0:d4:2c:0f:b8:80:7c:b3:bb:1e:8c:8c:e6:bf:
                    0e:c9:bb:f2:de:af:48:6c:73:a8:2f:f5:c3:16:d4:
                    48:15:c9:82:c0:52:8e:21:21:3b:05:66:81:18:4b:
                    cf:a7:d3:e9:80:4a:80:f8:8b:89:6a:f1:3c:8e:51:
                    6e:0b:de:e0:7b:00:76:cd:13:c4:b5:bc:bc:31:8b:
                    68:b4:40:35:2f:90:98:6e:ac:23:e7:66:15:91:ff:
                    ae:bd:09:1b:34:96:9e:ba:1f:61:64:63:72:6e:9e:
                    f4:e4:fc:72:ad:e6:59:f5:cb:fb:a5:31:e6:64:e8:
                    c9:6c:e8:9d:0f:87:52:3b:6c:f0:bd:10:c7:e0:a6:
                    2c:f2:a5:66:4d:61:15:4e:87:07:09:24:e7:85:ba:
                    3c:19:12:06:1b:ac:a9:45:52:f9:4a:08:c4:c5:7b:
                    a7:01:5c:eb:04:73:a6:83:a0:02:e4:56:fb:a1:3d:
                    f4:dd:9f:ce:32:6b:e3:6d:57:54:d7:9b:26:10:1e:
                    fc:6b:41:ac:05:de:8b:fd:41:dc:fd:fa:b5:67:b6:
                    0e:45:f7:43:69:ee:cd:3e:57:66:45:13:aa:3d:ba:
                    33:c7:3f:fc:5d:b5:18:bb:ad:83:03:c4:b3:83:b6:
                    14:21:93
                Exponent: 65537 (0x10001)
    Signature Algorithm: sha256WithRSAEncryption
         5c:db:28:af:af:05:f5:a7:62:f1:7d:44:f7:63:d1:b8:c4:ab:
         01:f2:8b:fc:dc:c7:2d:d1:fe:d4:18:77:09:de:69:87:ec:3f:
         c1:3d:b0:52:c9:c3:de:c7:a5:77:f3:30:3a:51:e9:a6:ed:3e:
         9b:04:a9:23:54:9e:b6:1e:3a:dc:44:8e:93:3c:9c:d7:f5:af:
         43:62:f0:58:41:1c:57:e1:e9:e1:28:73:50:8e:d6:3b:d3:74:
         68:46:ed:0f:8b:c0:1e:19:07:c7:59:61:07:6c:fa:aa:66:be:
         f5:22:9b:bd:4d:10:ca:2d:ca:b9:fb:bd:bb:79:9c:04:1a:af:
         03:46:cf:5c:f2:2f:e0:76:26:96:35:e7:ca:d5:28:b5:97:26:
         0e:a1:59:1a:6e:b4:b7:56:a8:e9:b5:07:30:8d:97:25:34:f4:
         40:de:18:57:40:83:13:bf:5e:57:88:98:6d:30:93:9f:aa:c0:
         7b:a3:06:0e:1e:5e:cf:52:ac:34:b8:30:b1:ca:75:2e:79:50:
         c5:60:46:18:56:57:fb:b1:9e:66:62:28:e1:64:a9:a6:a3:2a:
         c4:a9:42:e3:ad:4c:7b:e2:af:5a:92:55:fb:66:94:6f:39:9b:
         26:ef:44:c2:ad:cd:40:67:35:60:1b:ee:47:ce:cc:b0:6d:5d:
         29:30:9a:19:24:f3:f9:45:58:19:0a:3c:92:28:74:b3:c8:42:
         8d:ec:5b:cd:64:e2:70:2c:80:54:06:63:0b:7e:ab:ed:e4:66:
         91:43:ce:8b:c5:a3:1e:e0:74:a9:e4:6e:30:71:f7:69:8f:5c:
         41:4c:e3:16:ca:31:21:e5:c6:23:50:3c:8c:38:14:ba:5c:cc:
         de:32:41:a9:64:e6:cb:f6:6f:2f:a3:4b:18:7a:46:3e:0b:54:
         0a:28:21:a8:ef:3f:f0:64:d8:46:2c:44:9f:d8:1b:46:3e:9b:
         80:9e:fc:c2:a8:68:03:27:b6:4d:92:07:38:e1:8d:82:b1:c0:
         01:4d:ad:7e:c4:1f:51:ad:ee:ab:e2:28:d8:1a:a0:51:a1:3a:
         16:d0:74:27:15:95:fe:3f:28:c9:d3:25:8a:ba:32:81:74:74:
         ff:89:46:e8:05:60:a8:1c:fc:94:40:96:79:74:a7:8a:98:4a:
         bb:50:dc:13:07:06:d0:8e:78:62:c6:26:d7:39:1f:41:c1:7a:
         a2:5a:1b:19:fa:5e:37:bb:f2:dc:8c:1a:97:cb:96:3c:87:a7:
         f0:43:cb:e4:e1:2d:a4:30:4d:3c:70:af:d9:bd:a2:5a:be:e5:
         d3:da:06:f0:dc:ea:48:b0:b9:6c:7f:0f:fd:5f:91:93:18:16:
         7c:b1:a7:3f:53:83:f8:28
-----BEGIN CERTIFICATE-----
MIIFPzCCAycCASIwDQYJKoZIhvcNAQELBQAwdDELMAkGA1UEBhMCZnIxDDAKBgNV
BAgMA2lkZjEOMAwGA1UEBwwFcGFyaXMxEDAOBgNVBAoMB3ZpdGFtdWkxFDASBgNV
BAsMC2F1dGhvcml0aWVzMR8wHQYDVQQDDBZjYV9pbnRlcm1lZGlhdGVfc2VydmVy
MB4XDTIyMDUxOTE1NTQ1OVoXDTI1MDUxODE1NTQ1OVowVzELMAkGA1UEBhMCZnIx
DDAKBgNVBAgMA2lkZjEOMAwGA1UEBwwFcGFyaXMxEDAOBgNVBAoMB3ZpdGFtdWkx
GDAWBgNVBAMMD2Rldi52aXRhbXVpLmNvbTCCAiIwDQYJKoZIhvcNAQEBBQADggIP
ADCCAgoCggIBAM5+6Znd0O8iuDNbUPiI0TSe7WwQtXy0cGKfl2ZxbTrr6nM9G9/q
6ZUOTAklXf9fK5HSfHxIwynw3GKnMMrpiQg4YlIaReeSbgNwtadi0K4AVQkVNhip
ilh8Xs1r8kr+nmHb2DRt2/9OhctBpcUg5smAezAMXiAKtu+cL9yaQ5XaZt8yRHVY
ojq5seA9PxvyDNew4mQf3ojQjSL7q6MeyLza6RrJcdStTlSWItrx1vBwpYzIW47H
VfIGMZEJn4O4ykjrRryeeI/XHYyVQqZZON1450ogHt7a6j+AvbzgyQTvRlDZ6BYx
V4h6uewPqqx0JaeZR8TVZl6emZCNwD10JbxI9eNcvOraqvj2O4zqwNDULA+4gHyz
ux6MjOa/Dsm78t6vSGxzqC/1wxbUSBXJgsBSjiEhOwVmgRhLz6fT6YBKgPiLiWrx
PI5Rbgve4HsAds0TxLW8vDGLaLRANS+QmG6sI+dmFZH/rr0JGzSWnrofYWRjcm6e
9OT8cq3mWfXL+6Ux5mToyWzonQ+HUjts8L0Qx+CmLPKlZk1hFU6HBwkk54W6PBkS
BhusqUVS+UoIxMV7pwFc6wRzpoOgAuRW+6E99N2fzjJr421XVNebJhAe/GtBrAXe
i/1B3P36tWe2DkX3Q2nuzT5XZkUTqj26M8c//F21GLutgwPEs4O2FCGTAgMBAAEw
DQYJKoZIhvcNAQELBQADggIBAFzbKK+vBfWnYvF9RPdj0bjEqwHyi/zcxy3R/tQY
dwneaYfsP8E9sFLJw97HpXfzMDpR6abtPpsEqSNUnrYeOtxEjpM8nNf1r0Ni8FhB
HFfh6eEoc1CO1jvTdGhG7Q+LwB4ZB8dZYQds+qpmvvUim71NEMotyrn7vbt5nAQa
rwNGz1zyL+B2JpY158rVKLWXJg6hWRputLdWqOm1BzCNlyU09EDeGFdAgxO/XleI
mG0wk5+qwHujBg4eXs9SrDS4MLHKdS55UMVgRhhWV/uxnmZiKOFkqaajKsSpQuOt
THvir1qSVftmlG85mybvRMKtzUBnNWAb7kfOzLBtXSkwmhkk8/lFWBkKPJIodLPI
Qo3sW81k4nAsgFQGYwt+q+3kZpFDzovFox7gdKnkbjBx92mPXEFM4xbKMSHlxiNQ
PIw4FLpczN4yQalk5sv2by+jSxh6Rj4LVAooIajvP/Bk2EYsRJ/YG0Y+m4Ce/MKo
aAMntk2SBzjhjYKxwAFNrX7EH1Gt7qviKNgaoFGhOhbQdCcVlf4/KMnTJYq6MoF0
dP+JRugFYKgc/JRAlnl0p4qYSrtQ3BMHBtCOeGLGJtc5H0HBeqJaGxn6Xje78tyM
GpfLljyHp/BDy+ThLaQwTTxwr9m9olq+5dPaBvDc6kiwuWx/D/1fkZMYFnyxpz9T
g/go
-----END CERTIFICATE-----
