Certificate:
    Data:
        Version: 1 (0x0)
        Serial Number: 46 (0x2e)
        Signature Algorithm: sha256WithRSAEncryption
        Issuer: C=fr, ST=idf, L=paris, O=vitamui, OU=authorities, CN=ca_intermediate_server
        Validity
            Not Before: Nov 23 16:59:28 2022 GMT
            Not After : Nov 22 16:59:28 2025 GMT
        Subject: C=fr, ST=idf, L=paris, O=vitamui, CN=dev.vitamui.com
        Subject Public Key Info:
            Public Key Algorithm: rsaEncryption
                RSA Public-Key: (4096 bit)
                Modulus:
                    00:9a:8b:7e:93:10:56:d6:e5:72:3e:5a:6c:b0:c2:
                    11:ba:70:f1:80:2a:1e:ed:ab:67:d0:bf:be:e7:82:
                    37:af:17:cb:15:c6:d0:e1:50:a6:da:83:94:2d:df:
                    ae:28:4d:7d:bb:3b:c1:f4:ee:ec:16:dd:04:57:7f:
                    44:98:1a:9f:af:2e:6d:12:23:8a:a6:13:85:b3:ae:
                    1d:b4:98:c7:1d:7c:91:7d:44:43:3c:a0:f4:30:2d:
                    7e:cb:a7:6a:c8:38:71:d7:b9:a8:19:84:96:e6:51:
                    3a:60:57:72:78:e1:e6:5a:9f:2b:08:e0:a1:9a:a4:
                    6a:a5:c5:e8:b1:03:aa:52:c9:d4:c9:cf:6a:e3:12:
                    ea:ba:72:5e:bd:43:62:ea:5e:14:9f:7e:de:78:47:
                    48:84:4a:e9:89:40:ae:4f:a2:d3:00:45:b3:84:ce:
                    f0:16:5f:cf:a4:d5:92:cc:ab:dd:18:e1:b8:10:a1:
                    a7:1f:1a:d6:55:83:40:33:33:49:51:8c:31:f1:90:
                    92:35:61:9a:73:6c:cb:19:09:fb:fd:75:e7:11:0b:
                    9e:99:a1:2c:88:44:b9:d6:19:d5:6e:5d:53:da:12:
                    99:23:e1:01:61:51:ee:10:fc:0f:12:2c:ea:32:5a:
                    c0:d2:56:e6:3c:de:0c:e2:8e:48:4b:60:46:6c:f4:
                    41:e0:2c:66:09:4e:16:f8:79:3d:24:4e:23:6f:6a:
                    54:c1:73:0f:f7:fa:53:77:a9:49:42:03:97:5a:cd:
                    6a:eb:09:6c:fa:cf:43:59:3a:2f:0d:a4:d5:18:25:
                    73:d4:7e:81:7a:b4:0c:a7:a2:90:5a:77:7e:c9:6a:
                    07:ca:5c:79:a8:65:d0:bc:7d:ac:52:f9:3f:8a:77:
                    81:48:8e:08:d5:1f:64:9d:4b:64:37:5a:cd:04:40:
                    ec:70:ea:f8:31:f6:5a:c9:f4:99:2f:f7:48:1c:9c:
                    17:bc:89:35:c8:c5:e3:a5:cf:6c:a0:7d:da:5a:ab:
                    dd:b5:27:f8:18:64:8e:6a:06:f7:91:f0:df:88:61:
                    5d:46:89:ed:a2:bd:23:92:a7:68:64:90:cd:5f:5e:
                    77:00:39:f0:17:b8:d2:c8:3c:49:54:d8:f9:20:66:
                    7c:ee:44:45:99:79:71:8f:d6:58:20:0c:ab:3e:97:
                    05:0f:39:5e:87:04:35:1b:6a:b2:23:d8:52:af:ae:
                    bb:e5:0c:19:af:98:5b:13:f3:91:ee:91:3a:be:8c:
                    93:c1:f7:7c:eb:ac:15:d2:5d:b3:bc:20:97:bd:4e:
                    a9:0e:d4:d1:2b:ab:36:31:bd:0f:d8:1f:13:0c:e0:
                    12:70:83:39:db:94:55:cd:ba:96:a7:43:a9:a1:7d:
                    5f:6d:df
                Exponent: 65537 (0x10001)
    Signature Algorithm: sha256WithRSAEncryption
         76:1b:ff:f8:a2:f0:ac:8d:36:5b:e0:07:bf:1c:1c:18:ab:73:
         ec:d8:36:cd:ac:3a:12:51:63:77:62:18:0d:72:d7:82:10:ef:
         a1:b6:ab:7c:2b:07:9b:05:13:22:dc:0e:35:bf:7b:0a:ee:46:
         65:b3:fc:63:2f:4b:b8:82:66:0d:e1:27:75:4d:16:77:51:0d:
         25:08:c9:39:25:ea:ae:e6:05:6e:37:37:3a:9f:a0:3d:f7:5e:
         ce:25:70:30:7d:4d:98:af:98:94:d0:00:65:f8:58:76:b0:dc:
         41:eb:14:f1:96:74:41:09:43:f1:8b:db:03:9c:af:99:1b:95:
         6c:95:1a:24:37:79:43:bd:4d:b2:6e:a7:7b:01:e4:29:99:27:
         33:21:c9:75:50:67:39:74:c1:a9:4e:70:21:e6:78:97:a3:9e:
         5e:0c:e8:5b:68:59:68:ce:08:2f:37:45:08:13:7e:77:e6:0f:
         3f:ea:0a:7a:32:b5:f6:5d:68:1b:c1:7d:bb:94:e8:4b:5d:20:
         5c:e6:18:cc:a4:4b:91:74:98:13:f2:b2:e7:3b:84:04:ed:27:
         71:0a:ba:f1:aa:08:f2:93:5a:b8:a3:f3:cd:9c:49:bf:c4:08:
         33:a7:a9:e4:90:ec:a0:50:68:64:56:cd:ec:4c:76:bd:ea:db:
         69:36:8a:c3:70:a0:b3:f0:d0:6b:b7:e2:79:1b:50:a9:5c:f4:
         2a:39:35:24:2e:f6:af:4e:fc:9d:bb:81:df:31:a3:44:2b:ff:
         18:3f:9c:9b:45:c4:43:4b:be:b2:53:8d:31:fa:de:3b:10:1b:
         cc:3c:43:2f:7c:41:89:39:31:fc:69:36:9f:5c:6f:0d:b3:db:
         ef:d5:ec:fd:d3:93:50:dc:c6:c1:46:39:d4:64:9e:74:43:c3:
         b2:87:88:95:f3:59:6c:81:d9:f7:00:16:ab:39:70:79:1d:07:
         a6:94:e5:fc:66:fa:ac:5f:47:6d:de:08:2f:90:86:83:ba:3d:
         fe:ef:e3:d4:4e:0a:db:25:d1:31:b6:9a:6b:0d:d2:59:0b:61:
         40:cd:f1:a3:5d:77:20:a0:e0:20:f6:33:a5:5e:46:c1:6a:86:
         f7:1b:ec:58:da:29:96:1c:62:8e:12:cd:82:f0:6f:64:b1:b8:
         ec:c7:9d:d2:d4:8d:25:b1:f1:b6:b4:4e:e8:59:98:11:56:5e:
         d5:dd:98:69:a4:d5:36:72:87:43:09:85:cc:ef:0d:b2:32:62:
         a5:2a:25:ab:ba:1e:1a:3a:b9:f0:21:aa:89:4f:e2:a1:51:74:
         26:e8:69:43:b8:98:8b:dc:0f:50:a8:04:4f:63:43:c0:0e:de:
         b8:94:3a:34:8d:3e:93:c8
-----BEGIN CERTIFICATE-----
MIIFPzCCAycCAS4wDQYJKoZIhvcNAQELBQAwdDELMAkGA1UEBhMCZnIxDDAKBgNV
BAgMA2lkZjEOMAwGA1UEBwwFcGFyaXMxEDAOBgNVBAoMB3ZpdGFtdWkxFDASBgNV
BAsMC2F1dGhvcml0aWVzMR8wHQYDVQQDDBZjYV9pbnRlcm1lZGlhdGVfc2VydmVy
MB4XDTIyMTEyMzE2NTkyOFoXDTI1MTEyMjE2NTkyOFowVzELMAkGA1UEBhMCZnIx
DDAKBgNVBAgMA2lkZjEOMAwGA1UEBwwFcGFyaXMxEDAOBgNVBAoMB3ZpdGFtdWkx
GDAWBgNVBAMMD2Rldi52aXRhbXVpLmNvbTCCAiIwDQYJKoZIhvcNAQEBBQADggIP
ADCCAgoCggIBAJqLfpMQVtblcj5abLDCEbpw8YAqHu2rZ9C/vueCN68XyxXG0OFQ
ptqDlC3frihNfbs7wfTu7BbdBFd/RJgan68ubRIjiqYThbOuHbSYxx18kX1EQzyg
9DAtfsunasg4cde5qBmEluZROmBXcnjh5lqfKwjgoZqkaqXF6LEDqlLJ1MnPauMS
6rpyXr1DYupeFJ9+3nhHSIRK6YlArk+i0wBFs4TO8BZfz6TVksyr3RjhuBChpx8a
1lWDQDMzSVGMMfGQkjVhmnNsyxkJ+/115xELnpmhLIhEudYZ1W5dU9oSmSPhAWFR
7hD8DxIs6jJawNJW5jzeDOKOSEtgRmz0QeAsZglOFvh5PSROI29qVMFzD/f6U3ep
SUIDl1rNausJbPrPQ1k6Lw2k1Rglc9R+gXq0DKeikFp3fslqB8pceahl0Lx9rFL5
P4p3gUiOCNUfZJ1LZDdazQRA7HDq+DH2Wsn0mS/3SBycF7yJNcjF46XPbKB92lqr
3bUn+BhkjmoG95Hw34hhXUaJ7aK9I5KnaGSQzV9edwA58Be40sg8SVTY+SBmfO5E
RZl5cY/WWCAMqz6XBQ85XocENRtqsiPYUq+uu+UMGa+YWxPzke6ROr6Mk8H3fOus
FdJds7wgl71OqQ7U0SurNjG9D9gfEwzgEnCDOduUVc26lqdDqaF9X23fAgMBAAEw
DQYJKoZIhvcNAQELBQADggIBAHYb//ii8KyNNlvgB78cHBirc+zYNs2sOhJRY3di
GA1y14IQ76G2q3wrB5sFEyLcDjW/ewruRmWz/GMvS7iCZg3hJ3VNFndRDSUIyTkl
6q7mBW43NzqfoD33Xs4lcDB9TZivmJTQAGX4WHaw3EHrFPGWdEEJQ/GL2wOcr5kb
lWyVGiQ3eUO9TbJup3sB5CmZJzMhyXVQZzl0walOcCHmeJejnl4M6FtoWWjOCC83
RQgTfnfmDz/qCnoytfZdaBvBfbuU6EtdIFzmGMykS5F0mBPysuc7hATtJ3EKuvGq
CPKTWrij882cSb/ECDOnqeSQ7KBQaGRWzexMdr3q22k2isNwoLPw0Gu34nkbUKlc
9Co5NSQu9q9O/J27gd8xo0Qr/xg/nJtFxENLvrJTjTH63jsQG8w8Qy98QYk5Mfxp
Np9cbw2z2+/V7P3Tk1DcxsFGOdRknnRDw7KHiJXzWWyB2fcAFqs5cHkdB6aU5fxm
+qxfR23eCC+QhoO6Pf7v49ROCtsl0TG2mmsN0lkLYUDN8aNddyCg4CD2M6VeRsFq
hvcb7FjaKZYcYo4SzYLwb2SxuOzHndLUjSWx8ba0TuhZmBFWXtXdmGmk1TZyh0MJ
hczvDbIyYqUqJau6Hho6ufAhqolP4qFRdCboaUO4mIvcD1CoBE9jQ8AO3riUOjSN
PpPI
-----END CERTIFICATE-----
