Certificate:
    Data:
        Version: 1 (0x0)
        Serial Number: 32 (0x20)
        Signature Algorithm: sha256WithRSAEncryption
        Issuer: C=fr, ST=idf, L=paris, O=vitamui, OU=authorities, CN=ca_intermediate_server
        Validity
            Not Before: Apr 26 15:38:55 2022 GMT
            Not After : Apr 25 15:38:55 2025 GMT
        Subject: C=fr, ST=idf, L=paris, O=vitamui, CN=dev.vitamui.com
        Subject Public Key Info:
            Public Key Algorithm: rsaEncryption
                RSA Public-Key: (4096 bit)
                Modulus:
                    00:e1:78:3e:31:08:ba:63:5a:89:20:55:ff:ae:fe:
                    2e:46:35:a6:b9:5f:c4:53:b2:7f:8e:ce:8d:9b:9f:
                    96:ff:0f:ff:d9:65:9f:f7:9f:12:f1:41:e5:f6:b7:
                    ae:ef:70:45:66:4d:d8:1d:89:c6:02:06:b4:de:94:
                    2a:e6:d1:7f:20:e9:2c:54:54:c6:4d:e3:17:2b:39:
                    b7:7a:84:76:11:ff:92:75:ba:85:ac:a7:24:93:1e:
                    1f:8e:d6:d2:c3:f5:30:07:72:d5:fd:7e:8b:7f:4c:
                    4b:22:95:15:a9:2b:23:5b:85:5f:e7:09:10:8d:83:
                    48:b1:62:f2:72:0c:8a:f3:48:d6:e2:ae:d2:99:bb:
                    23:57:2f:24:33:d2:4a:82:bf:01:b5:30:69:61:f1:
                    ce:65:a1:cb:fd:41:3d:68:27:77:ca:81:54:52:a6:
                    ec:20:c3:f7:26:ab:3f:33:ca:db:c8:02:ce:27:96:
                    2d:d2:18:57:70:84:25:d8:8f:9a:02:f3:09:08:94:
                    67:9d:d6:8c:7b:e5:b4:1b:4a:45:86:98:30:7d:4b:
                    8a:41:5f:89:e8:54:b1:e4:f4:a7:c0:f4:bb:92:53:
                    7c:89:68:eb:41:de:da:e2:fe:a0:c3:39:de:6a:91:
                    63:73:ef:10:54:4c:cf:42:c8:f4:53:6e:b2:a1:0f:
                    7a:8a:dc:db:96:57:1c:e5:ad:72:38:b5:73:3f:ba:
                    82:bf:db:d8:06:80:82:27:81:14:63:62:ab:fb:69:
                    69:00:04:b6:37:2d:a1:1b:d6:31:e3:63:d4:40:2c:
                    ae:8e:75:dc:51:09:65:7b:25:97:6e:55:a8:be:54:
                    96:dc:b4:5c:38:8d:11:00:bf:77:1f:a5:7d:da:5f:
                    f8:b2:7a:06:df:52:85:5a:26:05:b8:b2:6b:7e:93:
                    02:73:5c:5a:a7:7b:eb:ac:dc:d2:9c:d4:c1:30:93:
                    00:02:d5:16:72:cb:2a:b2:07:d4:2b:00:db:1b:9e:
                    ad:9e:77:3a:c3:bb:d8:6f:f0:81:cf:e0:e1:fd:32:
                    20:a0:4a:25:d7:28:54:86:0e:5a:48:bd:98:68:e7:
                    6d:a9:36:e5:64:9c:d2:a7:44:5c:e2:2d:47:0a:26:
                    aa:3d:e0:06:4d:c0:d5:5d:76:2b:cb:61:9b:87:5f:
                    1a:f3:f6:5e:e5:32:b5:7e:23:e6:2f:d1:9b:3f:c6:
                    22:4b:0e:8f:bb:bb:12:3a:c6:64:16:03:1d:84:e1:
                    07:b8:1d:a2:fb:d8:de:19:97:3c:ad:13:bc:78:24:
                    55:bf:d3:46:cb:79:de:b9:2d:82:bf:d7:57:47:ed:
                    fb:25:54:5e:1d:00:e7:da:ee:96:df:db:4e:1d:8e:
                    10:52:bf
                Exponent: 65537 (0x10001)
    Signature Algorithm: sha256WithRSAEncryption
         2c:41:80:43:c2:c7:66:f5:bc:09:4f:c6:1c:11:6d:2a:fa:d3:
         ac:8a:41:7b:82:63:59:42:b0:28:ec:88:0f:15:70:34:2e:3c:
         2f:9c:4d:bd:ea:73:83:ef:f5:db:c2:1c:18:44:34:23:51:e4:
         c9:c9:8e:05:02:d5:3b:03:11:62:4d:53:e8:b8:de:92:a1:2a:
         2f:00:a3:2b:1b:2b:8e:1e:ac:6a:5c:fa:a6:2b:2f:0d:d3:43:
         7f:23:58:c2:f1:78:d6:5d:91:7a:12:8f:f0:59:50:a8:ce:a4:
         a7:72:0b:2f:51:a3:88:54:34:1d:0a:d0:64:03:87:bb:18:fb:
         75:cd:7b:57:9f:2e:d4:15:22:73:69:18:89:66:62:03:bc:4f:
         2b:3d:bc:cf:c9:da:9e:f8:bc:dc:40:34:7b:2a:52:54:56:6d:
         36:10:bb:61:bf:a2:a0:5c:24:5e:5a:14:ce:48:d3:05:c5:70:
         90:fd:cc:25:f3:1d:e6:4d:8e:b2:af:de:dc:16:19:ce:77:cb:
         c4:1e:58:48:90:32:53:32:60:50:e2:67:71:95:ea:7c:64:5e:
         e2:05:63:44:eb:6a:c6:86:a6:40:12:f2:41:c0:a9:ce:30:16:
         11:45:5a:c0:1e:20:15:62:76:1f:99:98:1d:43:70:b3:80:ee:
         88:2b:7e:09:50:2c:da:f9:b1:5e:94:86:05:62:17:84:8d:f0:
         c7:24:c9:31:64:18:fa:0f:ed:d7:68:26:f0:e1:d3:da:78:c7:
         a6:4c:6e:71:a6:62:59:af:7c:b9:2d:b0:e9:fd:21:7e:83:d6:
         09:4e:6f:6c:07:71:be:db:60:93:a0:a4:2f:ba:2e:74:44:ea:
         19:0b:05:d5:4d:2b:fc:dc:f2:d0:fb:65:5b:d9:33:e6:e0:38:
         f4:73:6d:df:42:bc:85:6c:a1:04:44:db:64:c4:f0:6e:7c:38:
         00:68:b5:f0:18:05:6d:a1:50:48:87:0e:0b:25:4d:9e:d6:3a:
         d6:11:58:cf:5e:e3:f5:63:70:80:f5:45:72:25:24:ef:5a:04:
         08:89:39:0a:db:73:8a:41:ab:61:e3:9a:72:80:97:dd:80:34:
         52:b6:83:b6:6f:97:9c:05:2e:b5:74:73:88:af:a8:43:c1:b8:
         f1:22:f3:62:c6:09:e7:02:e3:ff:bd:fc:0b:8f:6b:77:2a:dd:
         05:f5:e4:9f:18:1d:f5:d2:b8:8b:0e:b8:7f:8e:d8:be:72:b2:
         84:dc:04:f7:25:d1:36:38:f4:e1:63:5a:a6:b7:e2:0a:36:91:
         28:ac:4b:4b:ca:bc:93:1f:aa:bf:f0:90:e7:ee:3f:63:72:b4:
         3a:29:e5:52:43:3a:63:7f
-----BEGIN CERTIFICATE-----
MIIFPzCCAycCASAwDQYJKoZIhvcNAQELBQAwdDELMAkGA1UEBhMCZnIxDDAKBgNV
BAgMA2lkZjEOMAwGA1UEBwwFcGFyaXMxEDAOBgNVBAoMB3ZpdGFtdWkxFDASBgNV
BAsMC2F1dGhvcml0aWVzMR8wHQYDVQQDDBZjYV9pbnRlcm1lZGlhdGVfc2VydmVy
MB4XDTIyMDQyNjE1Mzg1NVoXDTI1MDQyNTE1Mzg1NVowVzELMAkGA1UEBhMCZnIx
DDAKBgNVBAgMA2lkZjEOMAwGA1UEBwwFcGFyaXMxEDAOBgNVBAoMB3ZpdGFtdWkx
GDAWBgNVBAMMD2Rldi52aXRhbXVpLmNvbTCCAiIwDQYJKoZIhvcNAQEBBQADggIP
ADCCAgoCggIBAOF4PjEIumNaiSBV/67+LkY1prlfxFOyf47OjZuflv8P/9lln/ef
EvFB5fa3ru9wRWZN2B2JxgIGtN6UKubRfyDpLFRUxk3jFys5t3qEdhH/knW6hayn
JJMeH47W0sP1MAdy1f1+i39MSyKVFakrI1uFX+cJEI2DSLFi8nIMivNI1uKu0pm7
I1cvJDPSSoK/AbUwaWHxzmWhy/1BPWgnd8qBVFKm7CDD9yarPzPK28gCzieWLdIY
V3CEJdiPmgLzCQiUZ53WjHvltBtKRYaYMH1LikFfiehUseT0p8D0u5JTfIlo60He
2uL+oMM53mqRY3PvEFRMz0LI9FNusqEPeorc25ZXHOWtcji1cz+6gr/b2AaAgieB
FGNiq/tpaQAEtjctoRvWMeNj1EAsro513FEJZXsll25VqL5Ulty0XDiNEQC/dx+l
fdpf+LJ6Bt9ShVomBbiya36TAnNcWqd766zc0pzUwTCTAALVFnLLKrIH1CsA2xue
rZ53OsO72G/wgc/g4f0yIKBKJdcoVIYOWki9mGjnbak25WSc0qdEXOItRwomqj3g
Bk3A1V12K8thm4dfGvP2XuUytX4j5i/Rmz/GIksOj7u7EjrGZBYDHYThB7gdovvY
3hmXPK0TvHgkVb/TRst53rktgr/XV0ft+yVUXh0A59rult/bTh2OEFK/AgMBAAEw
DQYJKoZIhvcNAQELBQADggIBACxBgEPCx2b1vAlPxhwRbSr606yKQXuCY1lCsCjs
iA8VcDQuPC+cTb3qc4Pv9dvCHBhENCNR5MnJjgUC1TsDEWJNU+i43pKhKi8Aoysb
K44erGpc+qYrLw3TQ38jWMLxeNZdkXoSj/BZUKjOpKdyCy9Ro4hUNB0K0GQDh7sY
+3XNe1efLtQVInNpGIlmYgO8Tys9vM/J2p74vNxANHsqUlRWbTYQu2G/oqBcJF5a
FM5I0wXFcJD9zCXzHeZNjrKv3twWGc53y8QeWEiQMlMyYFDiZ3GV6nxkXuIFY0Tr
asaGpkAS8kHAqc4wFhFFWsAeIBVidh+ZmB1DcLOA7ogrfglQLNr5sV6UhgViF4SN
8MckyTFkGPoP7ddoJvDh09p4x6ZMbnGmYlmvfLktsOn9IX6D1glOb2wHcb7bYJOg
pC+6LnRE6hkLBdVNK/zc8tD7ZVvZM+bgOPRzbd9CvIVsoQRE22TE8G58OABotfAY
BW2hUEiHDgslTZ7WOtYRWM9e4/VjcID1RXIlJO9aBAiJOQrbc4pBq2HjmnKAl92A
NFK2g7Zvl5wFLrV0c4ivqEPBuPEi82LGCecC4/+9/AuPa3cq3QX15J8YHfXSuIsO
uH+O2L5ysoTcBPcl0TY49OFjWqa34go2kSisS0vKvJMfqr/wkOfuP2NytDop5VJD
OmN/
-----END CERTIFICATE-----
