Certificate:
    Data:
        Version: 1 (0x0)
        Serial Number: 41 (0x29)
        Signature Algorithm: sha256WithRSAEncryption
        Issuer: C=fr, ST=idf, L=paris, O=vitamui, OU=authorities, CN=ca_intermediate_server
        Validity
            Not Before: Nov 23 16:59:19 2022 GMT
            Not After : Nov 22 16:59:19 2025 GMT
        Subject: C=fr, ST=idf, L=paris, O=vitamui, CN=dev.vitamui.com
        Subject Public Key Info:
            Public Key Algorithm: rsaEncryption
                RSA Public-Key: (4096 bit)
                Modulus:
                    00:dc:be:8a:ac:c6:b7:b6:c8:52:98:50:2f:fe:39:
                    61:37:39:28:ce:d8:5b:79:b4:7d:ab:ab:8e:6a:08:
                    be:0b:ee:cf:27:33:ab:16:1d:60:9b:73:1c:43:0c:
                    07:6a:2f:c7:eb:ec:1e:c2:73:ef:77:ce:b6:cd:2f:
                    7c:44:bf:77:99:cb:92:44:f7:59:bb:6e:43:cb:7b:
                    52:12:8b:c3:97:9d:82:03:05:cf:b8:5c:3d:d7:97:
                    c1:ac:68:1a:3c:e2:b5:4f:bf:e4:8d:0c:8f:0c:16:
                    0a:b5:a5:be:5c:44:22:ff:c3:64:83:ab:16:ef:53:
                    98:1e:c1:91:06:bd:42:43:b2:f3:f5:f9:9c:df:b4:
                    d4:e6:c5:12:ee:60:87:2f:ff:01:1e:46:29:00:41:
                    f9:8e:69:88:ba:39:aa:6f:ca:9a:c4:85:4f:73:d8:
                    e2:a0:47:73:55:a2:b7:2b:f9:ca:32:93:c0:97:3e:
                    8e:5c:99:db:c9:b2:5a:59:8a:be:11:bc:d2:45:48:
                    a9:ab:ec:e2:26:26:c1:4a:8f:e8:66:a2:85:cf:7a:
                    ab:01:ad:fd:5f:9b:01:de:0a:a8:73:a1:da:8b:dd:
                    22:16:43:69:d4:5f:e0:5c:6f:d6:23:0c:dd:35:3a:
                    ab:c0:1e:a2:10:d8:3b:b7:2f:8b:4b:22:d5:76:17:
                    f7:c8:3c:66:07:3c:dc:70:a8:bf:96:11:7b:68:c0:
                    a5:a5:83:fa:f7:82:ae:92:0d:16:77:b1:6e:19:e2:
                    85:73:c9:4e:93:93:1a:8f:c8:84:9e:14:47:b2:ed:
                    3d:a7:5d:22:52:06:d2:35:c3:7a:dd:77:15:1c:77:
                    57:a9:c5:f3:a8:93:e0:ba:40:ea:4b:70:a2:3c:d9:
                    0b:3e:db:a9:c1:b9:f0:23:c6:7d:63:31:32:19:63:
                    43:ee:27:ce:5e:56:53:a5:8c:6a:7d:64:af:a4:23:
                    e4:5c:e4:6f:04:44:8d:c6:9c:64:5e:6b:89:e8:dc:
                    25:96:f9:60:89:75:60:97:c6:79:d6:24:eb:9a:7a:
                    c6:0b:b9:72:97:73:f3:0c:4d:32:51:c3:96:b0:da:
                    86:f7:4f:d9:e9:c9:ac:dc:6a:e2:58:52:16:53:a3:
                    63:02:79:3f:ea:2b:63:53:21:d7:fd:ce:0e:b8:19:
                    dd:dd:f4:fe:bc:52:a0:04:33:06:d4:f9:21:47:93:
                    32:0e:d8:7e:7c:c4:a3:09:d3:18:47:a0:1e:4f:5f:
                    a4:b4:88:bf:05:7a:fa:aa:b3:59:ee:be:f4:ee:7a:
                    6d:59:03:76:da:aa:9d:47:9b:52:d5:ce:0a:ff:b4:
                    3b:ae:4e:b7:5f:4c:97:45:de:74:e8:01:ce:e1:12:
                    ec:ba:f1
                Exponent: 65537 (0x10001)
    Signature Algorithm: sha256WithRSAEncryption
         8c:7d:66:47:d6:20:aa:e9:72:41:5a:2c:dc:c8:03:4c:fd:91:
         8a:7e:54:1c:2b:64:5f:f0:c1:f5:1d:ed:37:45:6f:bd:7f:82:
         f2:18:0d:ee:14:91:85:8b:86:f0:12:ba:63:55:1e:dd:5f:51:
         bf:a7:70:45:80:8d:46:d4:43:ca:ef:d5:be:30:8f:a7:45:31:
         b9:43:ec:96:1b:1a:15:4a:75:2d:51:c1:54:2c:af:89:53:71:
         70:ec:91:54:e7:9e:fa:f0:de:7f:15:ec:ff:ba:95:92:00:37:
         61:c5:91:92:21:25:75:e5:ca:b8:45:0b:cf:66:dc:15:33:a2:
         7c:98:d3:b6:27:ae:97:0c:b4:7b:bd:d9:21:89:b7:3d:b1:35:
         e6:d5:7f:e8:42:4f:46:3b:f4:f5:91:3b:38:28:a8:a7:0e:49:
         db:a1:4d:a1:8f:5a:1e:70:d2:35:41:cd:e4:ea:d0:1d:5a:43:
         35:a8:4e:53:5e:e0:11:be:d6:79:66:c9:28:bb:a9:d5:6a:41:
         7d:1a:7a:c9:e0:63:7a:25:d3:2a:f9:4f:8e:33:33:f1:9b:56:
         fe:10:12:8c:54:0b:fb:1d:27:1e:04:e0:95:46:76:8c:5d:7a:
         87:29:ea:68:be:5c:06:11:ca:5c:9e:00:28:99:51:cb:74:50:
         d7:f4:ca:c9:30:9c:7e:f9:ca:b3:37:39:b2:a9:52:22:13:cb:
         a0:5b:5b:51:86:37:60:a0:97:38:b0:65:4a:42:19:a1:7b:22:
         e2:7f:33:95:e8:6c:a8:7d:d6:b8:b3:b0:8d:34:98:a2:07:c1:
         f4:09:92:17:5b:f6:12:70:53:e8:53:e6:7d:fc:af:79:f2:0d:
         8c:d2:76:c7:3a:be:7c:e2:50:72:31:6e:3f:d0:bc:79:e9:4b:
         0f:30:f4:2a:99:87:35:2c:75:da:21:e3:ba:62:53:fe:ea:58:
         b2:e7:b2:04:5d:0e:f8:49:ad:e2:dd:48:8e:53:20:05:bd:ef:
         f0:26:b0:b1:8a:08:11:d1:95:d3:43:8f:1c:51:45:57:18:c3:
         4f:0c:8d:69:d6:e4:48:8e:d0:8a:e2:57:47:6d:72:3d:59:e2:
         ac:6d:15:45:30:be:7f:d3:c6:1f:39:62:29:e0:93:69:56:79:
         95:0b:0a:0c:c3:f4:b4:e9:16:1b:5e:ff:7d:48:b2:83:1e:1b:
         1b:e3:55:0d:e4:11:64:0f:cf:68:f0:68:b1:f4:76:79:e5:52:
         2e:6b:cc:d6:f4:37:c4:06:74:09:47:b6:a2:3a:27:35:21:3a:
         ca:70:f4:5d:1c:5c:57:90:86:17:60:00:fb:68:ba:08:eb:a0:
         d2:4d:aa:e0:1b:e1:38:2b
-----BEGIN CERTIFICATE-----
MIIFPzCCAycCASkwDQYJKoZIhvcNAQELBQAwdDELMAkGA1UEBhMCZnIxDDAKBgNV
BAgMA2lkZjEOMAwGA1UEBwwFcGFyaXMxEDAOBgNVBAoMB3ZpdGFtdWkxFDASBgNV
BAsMC2F1dGhvcml0aWVzMR8wHQYDVQQDDBZjYV9pbnRlcm1lZGlhdGVfc2VydmVy
MB4XDTIyMTEyMzE2NTkxOVoXDTI1MTEyMjE2NTkxOVowVzELMAkGA1UEBhMCZnIx
DDAKBgNVBAgMA2lkZjEOMAwGA1UEBwwFcGFyaXMxEDAOBgNVBAoMB3ZpdGFtdWkx
GDAWBgNVBAMMD2Rldi52aXRhbXVpLmNvbTCCAiIwDQYJKoZIhvcNAQEBBQADggIP
ADCCAgoCggIBANy+iqzGt7bIUphQL/45YTc5KM7YW3m0faurjmoIvgvuzyczqxYd
YJtzHEMMB2ovx+vsHsJz73fOts0vfES/d5nLkkT3WbtuQ8t7UhKLw5edggMFz7hc
PdeXwaxoGjzitU+/5I0MjwwWCrWlvlxEIv/DZIOrFu9TmB7BkQa9QkOy8/X5nN+0
1ObFEu5ghy//AR5GKQBB+Y5piLo5qm/KmsSFT3PY4qBHc1Wityv5yjKTwJc+jlyZ
28myWlmKvhG80kVIqavs4iYmwUqP6Gaihc96qwGt/V+bAd4KqHOh2ovdIhZDadRf
4Fxv1iMM3TU6q8AeohDYO7cvi0si1XYX98g8Zgc83HCov5YRe2jApaWD+veCrpIN
FnexbhnihXPJTpOTGo/IhJ4UR7LtPaddIlIG0jXDet13FRx3V6nF86iT4LpA6ktw
ojzZCz7bqcG58CPGfWMxMhljQ+4nzl5WU6WMan1kr6Qj5FzkbwREjcacZF5riejc
JZb5YIl1YJfGedYk65p6xgu5cpdz8wxNMlHDlrDahvdP2enJrNxq4lhSFlOjYwJ5
P+orY1Mh1/3ODrgZ3d30/rxSoAQzBtT5IUeTMg7YfnzEownTGEegHk9fpLSIvwV6
+qqzWe6+9O56bVkDdtqqnUebUtXOCv+0O65Ot19Ml0XedOgBzuES7LrxAgMBAAEw
DQYJKoZIhvcNAQELBQADggIBAIx9ZkfWIKrpckFaLNzIA0z9kYp+VBwrZF/wwfUd
7TdFb71/gvIYDe4UkYWLhvASumNVHt1fUb+ncEWAjUbUQ8rv1b4wj6dFMblD7JYb
GhVKdS1RwVQsr4lTcXDskVTnnvrw3n8V7P+6lZIAN2HFkZIhJXXlyrhFC89m3BUz
onyY07YnrpcMtHu92SGJtz2xNebVf+hCT0Y79PWROzgoqKcOSduhTaGPWh5w0jVB
zeTq0B1aQzWoTlNe4BG+1nlmySi7qdVqQX0aesngY3ol0yr5T44zM/GbVv4QEoxU
C/sdJx4E4JVGdoxdeocp6mi+XAYRylyeACiZUct0UNf0yskwnH75yrM3ObKpUiIT
y6BbW1GGN2CglziwZUpCGaF7IuJ/M5XobKh91rizsI00mKIHwfQJkhdb9hJwU+hT
5n38r3nyDYzSdsc6vnziUHIxbj/QvHnpSw8w9CqZhzUsddoh47piU/7qWLLnsgRd
DvhJreLdSI5TIAW97/AmsLGKCBHRldNDjxxRRVcYw08MjWnW5EiO0IriV0dtcj1Z
4qxtFUUwvn/Txh85Yingk2lWeZULCgzD9LTpFhte/31IsoMeGxvjVQ3kEWQPz2jw
aLH0dnnlUi5rzNb0N8QGdAlHtqI6JzUhOspw9F0cXFeQhhdgAPtougjroNJNquAb
4Tgr
-----END CERTIFICATE-----
