Certificate:
    Data:
        Version: 1 (0x0)
        Serial Number: 4 (0x4)
        Signature Algorithm: sha256WithRSAEncryption
        Issuer: C=fr, ST=idf, L=paris, O=vitamui, OU=authorities, CN=ca_intermediate_server
        Validity
            Not Before: May  5 12:34:48 2020 GMT
            Not After : May  5 12:34:48 2023 GMT
        Subject: C=fr, ST=idf, L=paris, O=vitamui, CN=dev.vitamui.com
        Subject Public Key Info:
            Public Key Algorithm: rsaEncryption
                RSA Public-Key: (4096 bit)
                Modulus:
                    00:cc:f8:ed:6e:49:8e:4d:cb:19:b4:cb:8c:9a:38:
                    2a:b2:d3:55:fc:6c:5e:bd:3c:02:ca:37:18:60:d3:
                    00:0f:a9:71:7c:62:a7:a7:b5:05:a6:99:de:d6:60:
                    8f:56:f7:0e:6f:fa:ed:22:13:aa:31:c1:c8:da:bb:
                    38:b2:f4:ad:8a:02:6f:ac:c6:a2:89:b6:2b:14:cc:
                    d9:2e:54:bb:4b:83:ef:f5:39:ea:87:33:6c:55:e5:
                    ed:15:62:fb:0a:9b:00:c9:c0:99:d4:5e:c6:b4:62:
                    78:77:34:bd:a8:cf:57:2b:1b:53:b7:01:48:95:ea:
                    04:51:47:ad:8b:d9:0f:bc:93:2f:ab:d1:8d:96:92:
                    1b:c5:04:8c:55:22:03:e4:2d:f6:31:0a:93:fb:ec:
                    0a:12:a9:31:e5:8a:73:a4:07:80:10:07:88:88:21:
                    9f:97:b0:73:b1:13:5a:4e:b7:19:f8:9f:84:0e:43:
                    1c:a1:ad:17:7a:a3:bb:a3:4d:ec:dd:2c:45:26:44:
                    08:ed:b7:68:6a:8b:b0:48:a5:19:bf:76:90:0b:a8:
                    ed:3b:57:38:e1:28:74:7a:56:22:65:d8:15:4c:90:
                    39:de:7a:87:30:6f:27:70:8c:7b:3c:72:87:95:d4:
                    44:7a:26:ef:e2:d1:56:c7:e8:aa:4b:e0:fe:a7:ac:
                    41:df:0d:05:72:05:57:49:20:08:b0:be:79:7f:d3:
                    cf:0d:99:a3:75:ac:ad:9c:e4:45:90:29:e6:46:13:
                    d7:a8:83:8d:87:ee:0c:f8:cf:b9:3f:21:c5:3a:26:
                    32:e3:bd:12:8f:9b:98:61:84:a2:a1:e2:5a:a3:0d:
                    78:d3:cc:06:9f:a1:3a:77:fc:de:39:44:30:eb:45:
                    8d:ef:a5:4e:41:27:98:5c:e2:b4:e8:a4:9b:be:40:
                    69:31:ed:03:d0:cb:db:5c:2f:45:7f:64:df:f9:7a:
                    c0:66:81:88:c8:51:aa:d0:5c:9c:12:41:10:f7:cd:
                    04:cb:91:59:23:4e:66:34:f6:2d:18:ee:b9:3c:d6:
                    5d:44:8c:c3:a0:c4:22:0e:22:6b:f7:84:3a:65:c8:
                    7d:22:dc:cf:42:46:a7:f8:08:9d:ce:75:86:77:56:
                    14:1d:e6:03:dd:ab:91:b2:54:b4:4f:8e:63:a4:18:
                    35:b4:ee:2c:b7:b0:24:3f:5d:f7:9b:ec:24:9a:29:
                    45:2a:48:96:72:40:9c:2f:16:5e:c2:45:a0:4c:e2:
                    d6:ee:e6:53:de:80:f2:17:47:0b:1a:be:bc:9d:d6:
                    cc:96:87:54:91:6f:26:fa:f0:51:01:46:55:ba:f0:
                    82:6d:38:a7:87:a2:84:33:4c:81:62:4a:a0:ae:2e:
                    c4:46:89
                Exponent: 65537 (0x10001)
    Signature Algorithm: sha256WithRSAEncryption
         56:86:a8:ad:38:0c:fa:6d:6c:b2:21:69:0e:55:f0:8f:65:b0:
         17:5f:cf:19:b4:0b:91:bf:6d:9b:79:da:23:44:4d:cd:2c:6b:
         f5:a4:77:cd:11:99:db:6e:5a:08:71:c8:05:38:95:a4:ae:53:
         32:43:5a:53:3c:75:9c:da:0b:a4:72:72:a9:4b:c4:c5:8a:b7:
         04:5c:ea:f5:4e:99:7f:f4:5a:0c:21:f0:70:f3:48:b1:ec:32:
         f1:47:fe:ae:42:36:17:7b:73:56:8e:d7:27:98:b5:2d:a0:9b:
         54:21:73:d4:32:0d:cb:68:bd:92:b7:3a:61:91:7e:5d:8d:57:
         c0:6b:77:66:fb:8b:38:3d:a9:af:02:3f:4f:2c:e3:29:a4:a6:
         6b:eb:f1:8e:d1:d2:2c:c6:9e:79:1a:65:6f:38:cf:82:b3:ca:
         21:c7:1e:84:dd:a4:a1:a9:71:10:4b:a3:e9:82:28:4a:66:19:
         d8:00:ec:4f:0d:9b:f2:0c:ac:7c:ef:28:2e:3d:37:be:ff:b5:
         1d:0f:96:c4:d9:a1:6d:9d:ba:8a:4e:0c:6e:83:96:c9:97:ed:
         94:42:4c:52:c5:39:81:fa:62:19:a3:c8:5a:d9:80:1e:2f:ef:
         76:22:94:5e:d1:4c:fb:70:b4:4e:31:e5:d3:d9:b2:2f:12:9e:
         67:8a:e6:27:2f:dd:d0:50:b1:c7:2e:c5:c3:42:2c:70:99:2d:
         6c:76:be:07:ef:c0:05:e0:43:ae:dc:b9:48:49:0c:36:a9:83:
         94:b2:11:96:6f:dc:15:f7:70:4a:05:1e:84:d7:60:d5:04:14:
         0b:10:72:d5:b6:c9:ed:54:77:e3:9d:2b:80:41:a9:7a:a3:42:
         ef:e9:84:8b:32:9d:4f:56:00:e3:b3:5c:ac:dd:bd:29:9e:fa:
         fd:67:0b:ce:8b:d0:e1:7a:e2:d8:3a:1f:65:a3:7d:dc:33:f9:
         81:f1:c0:7b:8d:13:17:37:ed:3f:fd:fc:f3:d3:bc:9a:70:7c:
         83:ad:4a:19:85:49:7b:87:d6:7b:3b:6d:03:7b:e1:9c:95:d6:
         80:e9:14:76:d4:23:46:6d:e6:b8:98:7f:3c:f8:c3:f8:1c:cf:
         08:ee:c4:f6:17:a5:b8:82:32:69:18:e6:7b:71:d2:f0:a7:25:
         92:84:1c:66:7c:67:b7:23:6e:ba:9a:11:f5:42:51:53:4d:2f:
         c3:70:91:5e:4b:fd:c0:a7:3d:d3:df:0d:d8:3c:79:f7:c9:2d:
         68:52:be:59:d5:55:1e:fc:f7:9c:10:7d:7d:36:27:aa:93:6c:
         d0:4e:1f:7d:a1:65:8a:bf:9d:01:d5:bf:b0:9c:cb:32:f3:a1:
         c9:37:ef:34:b8:29:f4:33
-----BEGIN CERTIFICATE-----
MIIFPzCCAycCAQQwDQYJKoZIhvcNAQELBQAwdDELMAkGA1UEBhMCZnIxDDAKBgNV
BAgMA2lkZjEOMAwGA1UEBwwFcGFyaXMxEDAOBgNVBAoMB3ZpdGFtdWkxFDASBgNV
BAsMC2F1dGhvcml0aWVzMR8wHQYDVQQDDBZjYV9pbnRlcm1lZGlhdGVfc2VydmVy
MB4XDTIwMDUwNTEyMzQ0OFoXDTIzMDUwNTEyMzQ0OFowVzELMAkGA1UEBhMCZnIx
DDAKBgNVBAgMA2lkZjEOMAwGA1UEBwwFcGFyaXMxEDAOBgNVBAoMB3ZpdGFtdWkx
GDAWBgNVBAMMD2Rldi52aXRhbXVpLmNvbTCCAiIwDQYJKoZIhvcNAQEBBQADggIP
ADCCAgoCggIBAMz47W5Jjk3LGbTLjJo4KrLTVfxsXr08Aso3GGDTAA+pcXxip6e1
BaaZ3tZgj1b3Dm/67SITqjHByNq7OLL0rYoCb6zGoom2KxTM2S5Uu0uD7/U56ocz
bFXl7RVi+wqbAMnAmdRexrRieHc0vajPVysbU7cBSJXqBFFHrYvZD7yTL6vRjZaS
G8UEjFUiA+Qt9jEKk/vsChKpMeWKc6QHgBAHiIghn5ewc7ETWk63GfifhA5DHKGt
F3qju6NN7N0sRSZECO23aGqLsEilGb92kAuo7TtXOOEodHpWImXYFUyQOd56hzBv
J3CMezxyh5XURHom7+LRVsfoqkvg/qesQd8NBXIFV0kgCLC+eX/Tzw2Zo3WsrZzk
RZAp5kYT16iDjYfuDPjPuT8hxTomMuO9Eo+bmGGEoqHiWqMNeNPMBp+hOnf83jlE
MOtFje+lTkEnmFzitOikm75AaTHtA9DL21wvRX9k3/l6wGaBiMhRqtBcnBJBEPfN
BMuRWSNOZjT2LRjuuTzWXUSMw6DEIg4ia/eEOmXIfSLcz0JGp/gInc51hndWFB3m
A92rkbJUtE+OY6QYNbTuLLewJD9d95vsJJopRSpIlnJAnC8WXsJFoEzi1u7mU96A
8hdHCxq+vJ3WzJaHVJFvJvrwUQFGVbrwgm04p4eihDNMgWJKoK4uxEaJAgMBAAEw
DQYJKoZIhvcNAQELBQADggIBAFaGqK04DPptbLIhaQ5V8I9lsBdfzxm0C5G/bZt5
2iNETc0sa/Wkd80RmdtuWghxyAU4laSuUzJDWlM8dZzaC6RycqlLxMWKtwRc6vVO
mX/0Wgwh8HDzSLHsMvFH/q5CNhd7c1aO1yeYtS2gm1Qhc9QyDctovZK3OmGRfl2N
V8Brd2b7izg9qa8CP08s4ymkpmvr8Y7R0izGnnkaZW84z4KzyiHHHoTdpKGpcRBL
o+mCKEpmGdgA7E8Nm/IMrHzvKC49N77/tR0PlsTZoW2duopODG6DlsmX7ZRCTFLF
OYH6YhmjyFrZgB4v73YilF7RTPtwtE4x5dPZsi8SnmeK5icv3dBQsccuxcNCLHCZ
LWx2vgfvwAXgQ67cuUhJDDapg5SyEZZv3BX3cEoFHoTXYNUEFAsQctW2ye1Ud+Od
K4BBqXqjQu/phIsynU9WAOOzXKzdvSme+v1nC86L0OF64tg6H2Wjfdwz+YHxwHuN
Exc37T/9/PPTvJpwfIOtShmFSXuH1ns7bQN74ZyV1oDpFHbUI0Zt5riYfzz4w/gc
zwjuxPYXpbiCMmkY5ntx0vCnJZKEHGZ8Z7cjbrqaEfVCUVNNL8NwkV5L/cCnPdPf
Ddg8effJLWhSvlnVVR7895wQfX02J6qTbNBOH32hZYq/nQHVv7CcyzLzock37zS4
KfQz
-----END CERTIFICATE-----
