Certificate:
    Data:
        Version: 1 (0x0)
        Serial Number: 36 (0x24)
        Signature Algorithm: sha256WithRSAEncryption
        Issuer: C=fr, ST=idf, L=paris, O=vitamui, OU=authorities, CN=ca_intermediate_server
        Validity
            Not Before: Nov 23 16:59:10 2022 GMT
            Not After : Nov 22 16:59:10 2025 GMT
        Subject: C=fr, ST=idf, L=paris, O=vitamui, CN=dev.vitamui.com
        Subject Public Key Info:
            Public Key Algorithm: rsaEncryption
                RSA Public-Key: (4096 bit)
                Modulus:
                    00:db:97:cc:5d:7e:62:ae:b4:22:7f:fe:6f:5b:a4:
                    3d:f3:14:af:f6:9e:f0:f1:69:25:6b:18:47:ef:a6:
                    92:2d:0d:9b:1e:ca:7d:d9:bb:13:92:23:c2:ea:a7:
                    1d:c8:f6:42:6f:40:dc:dc:c5:70:83:fc:07:a2:51:
                    1c:59:bf:38:94:68:1f:94:9f:6e:cb:e3:51:54:ad:
                    ac:8a:bd:a2:bc:1d:ac:41:95:4c:60:5d:45:70:cd:
                    2f:51:3e:b4:f1:8d:ca:0f:35:3d:02:3a:6e:3c:5a:
                    77:c3:0d:f5:77:7f:ce:c2:4f:4d:4c:f8:b8:87:3b:
                    35:a6:bb:2a:a8:86:6e:b6:b5:b7:b4:c3:a9:5d:3a:
                    43:3b:c9:26:b8:a0:56:a9:a3:30:c2:87:90:29:55:
                    d1:d4:2a:a5:db:2c:16:d6:28:86:6a:ff:ae:e1:2a:
                    99:89:58:18:4f:43:5f:8b:a3:4b:c2:fb:50:8c:d9:
                    42:8b:82:83:27:83:10:db:de:ba:dc:a5:3e:e6:42:
                    b2:04:de:e3:ea:51:0e:79:ae:f8:75:b6:08:98:3c:
                    87:0d:33:aa:f0:47:36:5b:c5:03:f8:11:9f:ea:18:
                    8d:45:e0:b2:33:e5:01:d9:ef:be:4f:9f:d2:cd:d5:
                    6b:f7:b9:8a:32:46:e8:5d:b6:43:86:7b:89:c8:0c:
                    a5:49:39:df:1b:d5:8f:88:0c:86:25:e1:60:3a:7c:
                    96:34:1e:c3:44:2f:55:a5:3d:c7:a6:14:41:aa:3c:
                    17:e4:73:28:50:5c:dd:ef:35:5e:1d:f7:1b:11:1e:
                    d6:12:34:bd:f6:1b:93:9c:28:bc:98:28:6f:1c:fe:
                    59:92:da:e2:92:c4:60:f3:e1:ff:cc:95:b2:37:46:
                    73:f9:b9:65:bf:e6:1a:c0:5e:29:e9:5c:e8:2b:04:
                    6e:bc:a1:dc:48:5b:65:ea:9c:3d:66:a5:85:b1:62:
                    03:a4:76:8a:85:19:c4:f2:4b:ef:1e:0d:9b:f3:33:
                    a2:89:57:bf:92:dc:96:f6:55:75:46:7e:5d:4c:bd:
                    ce:0d:ce:cb:b3:fb:1c:7d:65:38:83:09:23:69:5e:
                    fa:03:77:99:28:47:73:28:8d:17:30:e6:25:59:7d:
                    06:ac:52:c8:c1:26:7c:50:2e:f3:35:bd:31:8d:a3:
                    13:e8:a3:eb:7f:e6:88:06:8d:dc:a0:56:a4:a5:7e:
                    8b:f0:15:3a:b1:78:11:ff:ab:9c:ae:c2:8c:58:d4:
                    3a:85:e4:ac:9c:27:df:7f:fb:7c:15:0d:00:56:06:
                    66:50:3f:1f:a9:2e:e2:87:40:bc:2c:0b:ba:54:82:
                    27:cc:64:e1:4d:33:49:01:1d:08:5e:02:1e:ba:2d:
                    71:72:05
                Exponent: 65537 (0x10001)
    Signature Algorithm: sha256WithRSAEncryption
         5a:23:4a:1a:d5:9c:5f:97:8e:22:0f:08:58:28:10:e1:4b:5a:
         ac:98:c8:e9:db:7b:9e:db:c8:73:28:da:6a:e5:1d:15:4a:d1:
         64:32:3a:58:cb:4c:2c:c6:76:b8:4a:8b:de:02:48:77:eb:36:
         32:1b:a5:1b:bf:d6:6c:8d:72:50:0c:12:69:f2:82:58:15:36:
         3e:84:1c:f3:15:2a:39:d2:0e:10:56:d6:bf:f6:88:a0:d8:67:
         91:7b:b5:66:46:01:ff:1a:05:a1:d5:17:0d:89:59:93:b5:02:
         51:41:cf:0f:3b:97:45:5a:19:d6:9b:04:64:ad:87:6d:60:22:
         b2:c8:7c:6b:c3:4d:38:96:e0:e7:d5:5c:44:f3:51:05:42:49:
         fe:75:fb:1e:d0:e5:92:25:62:89:8b:36:b9:be:6d:68:d1:8a:
         da:e8:d9:28:10:d8:af:03:e4:62:23:78:05:78:2c:3e:06:af:
         df:13:08:67:9d:49:f4:8c:fa:fd:59:9f:c0:da:0c:45:39:2f:
         5d:63:1d:99:54:f1:63:99:bb:5a:00:7b:6f:41:4e:58:57:c1:
         ba:ef:e0:17:57:88:0a:5e:ad:91:91:71:8b:ae:00:79:b6:9d:
         ae:5f:2d:c2:4e:2f:8d:c8:e2:d8:ab:3c:e7:0d:52:ce:57:17:
         3f:eb:80:90:28:7a:f4:ea:95:55:e6:cc:47:b0:92:a2:78:24:
         0d:11:06:45:00:72:89:65:93:47:56:1e:fa:81:0c:75:28:7b:
         0a:b0:0c:52:58:62:a6:38:75:d5:6d:7c:1f:08:2a:00:4f:30:
         00:ee:84:22:d6:e3:b1:39:47:c5:8c:d0:13:f1:17:e0:22:96:
         c8:b0:d8:48:1b:d9:e2:fb:7c:3e:57:ea:71:db:f5:b3:b7:b6:
         86:41:ab:0b:3c:f4:fd:cd:70:ef:f1:a1:cf:85:28:96:6a:c1:
         a1:20:3d:65:6b:44:b2:8e:75:32:2b:12:67:08:4e:ff:64:df:
         74:de:eb:a6:06:42:57:8e:0e:e9:ef:ee:a0:b1:ba:28:e2:dc:
         3f:e1:a3:be:7c:20:7d:e8:af:02:78:da:ab:4b:56:60:70:fd:
         4b:ce:10:c6:83:e6:e5:a0:76:d6:d8:e7:aa:9d:6a:28:5c:be:
         e5:13:64:44:1c:1d:5e:65:a9:c2:5f:b5:24:30:65:79:88:09:
         4c:f8:39:ff:b8:08:56:1a:08:3b:3a:0e:3c:67:10:46:7d:6e:
         6a:7d:03:0f:75:4f:7d:79:2d:dc:2d:35:3c:e9:5e:f4:8f:59:
         57:a7:c4:da:d1:6a:d3:ae:66:a2:e4:bc:94:88:37:76:2a:05:
         91:3a:e3:8e:56:ac:29:0e
-----BEGIN CERTIFICATE-----
MIIFPzCCAycCASQwDQYJKoZIhvcNAQELBQAwdDELMAkGA1UEBhMCZnIxDDAKBgNV
BAgMA2lkZjEOMAwGA1UEBwwFcGFyaXMxEDAOBgNVBAoMB3ZpdGFtdWkxFDASBgNV
BAsMC2F1dGhvcml0aWVzMR8wHQYDVQQDDBZjYV9pbnRlcm1lZGlhdGVfc2VydmVy
MB4XDTIyMTEyMzE2NTkxMFoXDTI1MTEyMjE2NTkxMFowVzELMAkGA1UEBhMCZnIx
DDAKBgNVBAgMA2lkZjEOMAwGA1UEBwwFcGFyaXMxEDAOBgNVBAoMB3ZpdGFtdWkx
GDAWBgNVBAMMD2Rldi52aXRhbXVpLmNvbTCCAiIwDQYJKoZIhvcNAQEBBQADggIP
ADCCAgoCggIBANuXzF1+Yq60In/+b1ukPfMUr/ae8PFpJWsYR++mki0Nmx7Kfdm7
E5IjwuqnHcj2Qm9A3NzFcIP8B6JRHFm/OJRoH5SfbsvjUVStrIq9orwdrEGVTGBd
RXDNL1E+tPGNyg81PQI6bjxad8MN9Xd/zsJPTUz4uIc7Naa7KqiGbra1t7TDqV06
QzvJJrigVqmjMMKHkClV0dQqpdssFtYohmr/ruEqmYlYGE9DX4ujS8L7UIzZQouC
gyeDENveutylPuZCsgTe4+pRDnmu+HW2CJg8hw0zqvBHNlvFA/gRn+oYjUXgsjPl
Adnvvk+f0s3Va/e5ijJG6F22Q4Z7icgMpUk53xvVj4gMhiXhYDp8ljQew0QvVaU9
x6YUQao8F+RzKFBc3e81Xh33GxEe1hI0vfYbk5wovJgobxz+WZLa4pLEYPPh/8yV
sjdGc/m5Zb/mGsBeKelc6CsEbryh3EhbZeqcPWalhbFiA6R2ioUZxPJL7x4Nm/Mz
oolXv5LclvZVdUZ+XUy9zg3Oy7P7HH1lOIMJI2le+gN3mShHcyiNFzDmJVl9BqxS
yMEmfFAu8zW9MY2jE+ij63/miAaN3KBWpKV+i/AVOrF4Ef+rnK7CjFjUOoXkrJwn
33/7fBUNAFYGZlA/H6ku4odAvCwLulSCJ8xk4U0zSQEdCF4CHrotcXIFAgMBAAEw
DQYJKoZIhvcNAQELBQADggIBAFojShrVnF+XjiIPCFgoEOFLWqyYyOnbe57byHMo
2mrlHRVK0WQyOljLTCzGdrhKi94CSHfrNjIbpRu/1myNclAMEmnyglgVNj6EHPMV
KjnSDhBW1r/2iKDYZ5F7tWZGAf8aBaHVFw2JWZO1AlFBzw87l0VaGdabBGSth21g
IrLIfGvDTTiW4OfVXETzUQVCSf51+x7Q5ZIlYomLNrm+bWjRitro2SgQ2K8D5GIj
eAV4LD4Gr98TCGedSfSM+v1Zn8DaDEU5L11jHZlU8WOZu1oAe29BTlhXwbrv4BdX
iAperZGRcYuuAHm2na5fLcJOL43I4tirPOcNUs5XFz/rgJAoevTqlVXmzEewkqJ4
JA0RBkUAcollk0dWHvqBDHUoewqwDFJYYqY4ddVtfB8IKgBPMADuhCLW47E5R8WM
0BPxF+Ailsiw2Egb2eL7fD5X6nHb9bO3toZBqws89P3NcO/xoc+FKJZqwaEgPWVr
RLKOdTIrEmcITv9k33Te66YGQleODunv7qCxuiji3D/ho758IH3orwJ42qtLVmBw
/UvOEMaD5uWgdtbY56qdaihcvuUTZEQcHV5lqcJftSQwZXmICUz4Of+4CFYaCDs6
DjxnEEZ9bmp9Aw91T315LdwtNTzpXvSPWVenxNrRatOuZqLkvJSIN3YqBZE6445W
rCkO
-----END CERTIFICATE-----
