Certificate:
    Data:
        Version: 1 (0x0)
        Serial Number: 133 (0x85)
    Signature Algorithm: sha256WithRSAEncryption
        Issuer: C=fr, ST=idf, L=paris, O=vitamui, OU=authorities, CN=ca_intermediate_server
        Validity
            Not Before: Dec  6 12:54:12 2021 GMT
            Not After : Dec  5 12:54:12 2024 GMT
        Subject: C=fr, ST=idf, L=paris, O=vitamui, CN=dev.vitamui.com
        Subject Public Key Info:
            Public Key Algorithm: rsaEncryption
                Public-Key: (4096 bit)
                Modulus:
                    00:a9:cf:fe:e8:71:ae:03:23:63:51:2b:f4:51:fb:
                    d4:98:46:a5:08:e5:c3:dd:f1:5b:b3:08:30:a6:10:
                    73:20:15:5b:13:02:17:5b:00:5e:53:5b:b4:bf:bc:
                    d4:4b:7f:37:03:a9:77:27:aa:7d:03:87:86:8b:25:
                    c8:5a:93:5a:52:eb:ac:05:2f:a7:1f:e2:d0:e1:ee:
                    3d:5f:98:c5:12:50:96:1e:ff:2e:08:0f:82:75:7c:
                    c8:2a:3f:73:e4:b5:f4:46:27:e9:bf:57:00:fd:10:
                    50:6d:58:24:0a:5d:86:32:09:78:5e:8f:f2:38:80:
                    5d:cd:8b:89:2c:ab:43:64:f3:b3:be:7a:7e:af:62:
                    01:9c:e8:99:80:28:fd:ce:c4:75:6c:fa:43:fa:fa:
                    92:0e:bf:51:0c:04:2c:eb:ae:e2:d0:f5:c8:35:6d:
                    3a:46:df:7f:40:fd:f3:d8:45:0c:15:52:60:c0:18:
                    e1:7e:30:a1:18:f0:e6:6e:ef:72:0b:3f:60:82:53:
                    f2:e8:87:5a:93:4d:64:95:ad:36:14:70:a3:b5:a8:
                    d7:1a:e6:4c:57:7c:10:62:4a:94:f5:e8:30:38:af:
                    ce:c8:e8:2c:ba:83:22:b1:ca:68:d7:52:6c:bc:8f:
                    8b:bc:8e:13:27:1e:b3:31:09:f5:46:4e:21:b5:c9:
                    05:c6:ad:44:47:fe:68:5f:03:1e:fe:da:86:9c:c6:
                    58:7d:80:a6:5f:0f:db:12:21:8c:ac:62:c8:c0:43:
                    84:a9:5b:01:23:5a:68:42:72:9f:8b:0c:f4:09:f0:
                    de:15:2d:2d:c1:6a:13:89:a4:44:e3:0b:8e:b1:52:
                    2d:18:10:5f:bb:fe:83:1f:af:52:a0:00:2d:a3:5a:
                    da:89:80:19:98:96:71:bd:b3:c6:55:fc:80:fa:77:
                    60:e1:77:e4:85:b4:7c:c1:cf:04:07:c7:e1:6f:55:
                    9a:69:3d:64:27:f2:b2:39:de:d8:e4:e1:48:2d:d9:
                    51:92:9a:92:89:55:84:7a:58:a1:84:12:ac:06:6f:
                    36:f3:01:c1:3c:63:be:c3:4c:91:5d:53:c7:f8:5d:
                    f8:0a:13:a7:0f:73:20:55:e6:a2:c8:6f:c5:72:32:
                    ab:d1:b5:11:28:4b:30:d0:91:b0:64:cb:c8:35:cf:
                    b1:f6:12:15:4b:15:00:4b:9d:9b:e8:ca:97:f2:41:
                    e9:11:5a:d7:0d:7e:94:d4:e9:2f:76:a6:87:4d:1a:
                    4c:cf:f4:5d:bd:43:55:1d:8d:c2:c7:cd:50:3f:bd:
                    5d:ac:68:d3:40:3d:15:27:57:91:75:a8:ed:31:2e:
                    e3:d0:e5:64:84:c0:48:0f:0a:5c:5c:cd:0b:2e:fb:
                    43:2f:ad
                Exponent: 65537 (0x10001)
    Signature Algorithm: sha256WithRSAEncryption
         2a:8e:c5:36:61:5d:c3:bc:2c:1f:12:c4:cc:d8:ed:80:67:c7:
         60:b7:73:77:cc:a9:77:70:36:f9:36:33:bb:8f:64:1e:82:4f:
         eb:e8:6a:03:46:6b:b0:62:e9:f1:dc:dd:4e:f3:22:4d:41:a7:
         f6:75:82:f3:f2:e9:41:0c:5a:61:88:64:d2:e4:ff:05:8b:04:
         ed:6a:3a:24:08:5c:70:86:a9:37:70:8a:25:43:61:d4:29:73:
         50:c1:f9:3e:7a:73:b7:25:6c:36:15:0a:21:b9:9a:dc:d8:d4:
         3e:1c:2b:d8:d1:49:71:7f:f9:b2:68:59:9e:60:7d:a2:50:8c:
         7c:36:54:4a:92:e7:8d:c6:73:90:76:99:9f:4f:92:05:1c:8f:
         10:f9:15:e0:b7:d0:68:ea:b3:d4:4d:2e:52:8d:8b:86:31:8d:
         b0:30:b9:28:8b:4c:bc:d8:e2:b5:dc:4d:2c:13:83:c9:37:51:
         bd:22:6f:e4:fc:9a:50:c3:8b:a5:70:40:2d:44:f1:b1:8e:1c:
         b6:8b:75:87:fe:6f:1f:85:73:5c:80:cd:0e:3a:c4:e9:ed:40:
         16:07:60:76:9a:a0:29:65:6b:32:7e:cf:db:0f:05:23:dd:ad:
         5b:75:56:bb:bc:00:91:92:f8:49:44:48:32:f5:ed:68:1c:82:
         b5:32:54:ab:7f:2d:a3:56:40:0d:3f:ce:72:a4:9c:81:97:0c:
         42:b3:09:85:27:8a:20:65:0e:11:7f:99:4a:c6:c9:8c:39:7f:
         ce:6a:12:8a:ee:61:9b:bd:a6:7b:3c:db:45:a0:05:b4:83:20:
         7f:c2:32:42:22:e1:98:51:f8:0c:c1:af:fb:bd:57:28:4e:67:
         82:71:81:31:24:c5:74:89:60:d7:b7:c7:7d:e4:b0:61:58:7c:
         9d:ff:73:8a:7e:e5:d1:76:b2:2c:5d:49:89:6e:af:06:5f:67:
         3e:3e:48:ab:6c:96:15:e9:c9:77:68:62:5c:59:4d:9d:f0:33:
         f0:95:d6:12:22:7f:54:26:f2:04:fe:6c:25:1d:94:ad:88:a5:
         4a:4b:6f:45:fb:86:7c:2f:0f:e3:21:9a:63:bf:94:6b:a5:80:
         6f:bb:bf:20:21:dc:85:85:a3:94:83:53:45:93:e8:b3:11:00:
         56:2a:e2:74:50:95:82:ac:5a:96:97:fa:42:3c:17:9c:e2:55:
         83:2f:12:65:c7:28:26:f9:d3:0e:6f:64:70:f9:b1:65:fc:d9:
         42:5c:6b:bc:62:9a:ec:8e:08:3d:79:fc:c7:74:d3:80:fc:22:
         27:e2:fc:5c:92:58:fc:59:f4:8c:2f:79:45:fb:11:57:65:63:
         8f:c5:4b:4b:eb:6b:16:75
-----BEGIN CERTIFICATE-----
MIIFQDCCAygCAgCFMA0GCSqGSIb3DQEBCwUAMHQxCzAJBgNVBAYTAmZyMQwwCgYD
VQQIDANpZGYxDjAMBgNVBAcMBXBhcmlzMRAwDgYDVQQKDAd2aXRhbXVpMRQwEgYD
VQQLDAthdXRob3JpdGllczEfMB0GA1UEAwwWY2FfaW50ZXJtZWRpYXRlX3NlcnZl
cjAeFw0yMTEyMDYxMjU0MTJaFw0yNDEyMDUxMjU0MTJaMFcxCzAJBgNVBAYTAmZy
MQwwCgYDVQQIDANpZGYxDjAMBgNVBAcMBXBhcmlzMRAwDgYDVQQKDAd2aXRhbXVp
MRgwFgYDVQQDDA9kZXYudml0YW11aS5jb20wggIiMA0GCSqGSIb3DQEBAQUAA4IC
DwAwggIKAoICAQCpz/7oca4DI2NRK/RR+9SYRqUI5cPd8VuzCDCmEHMgFVsTAhdb
AF5TW7S/vNRLfzcDqXcnqn0Dh4aLJchak1pS66wFL6cf4tDh7j1fmMUSUJYe/y4I
D4J1fMgqP3PktfRGJ+m/VwD9EFBtWCQKXYYyCXhej/I4gF3Ni4ksq0Nk87O+en6v
YgGc6JmAKP3OxHVs+kP6+pIOv1EMBCzrruLQ9cg1bTpG339A/fPYRQwVUmDAGOF+
MKEY8OZu73ILP2CCU/Loh1qTTWSVrTYUcKO1qNca5kxXfBBiSpT16DA4r87I6Cy6
gyKxymjXUmy8j4u8jhMnHrMxCfVGTiG1yQXGrURH/mhfAx7+2oacxlh9gKZfD9sS
IYysYsjAQ4SpWwEjWmhCcp+LDPQJ8N4VLS3BahOJpETjC46xUi0YEF+7/oMfr1Kg
AC2jWtqJgBmYlnG9s8ZV/ID6d2Dhd+SFtHzBzwQHx+FvVZppPWQn8rI53tjk4Ugt
2VGSmpKJVYR6WKGEEqwGbzbzAcE8Y77DTJFdU8f4XfgKE6cPcyBV5qLIb8VyMqvR
tREoSzDQkbBky8g1z7H2EhVLFQBLnZvoypfyQekRWtcNfpTU6S92podNGkzP9F29
Q1UdjcLHzVA/vV2saNNAPRUnV5F1qO0xLuPQ5WSEwEgPClxczQsu+0MvrQIDAQAB
MA0GCSqGSIb3DQEBCwUAA4ICAQAqjsU2YV3DvCwfEsTM2O2AZ8dgt3N3zKl3cDb5
NjO7j2Qegk/r6GoDRmuwYunx3N1O8yJNQaf2dYLz8ulBDFphiGTS5P8FiwTtajok
CFxwhqk3cIolQ2HUKXNQwfk+enO3JWw2FQohuZrc2NQ+HCvY0Ulxf/myaFmeYH2i
UIx8NlRKkueNxnOQdpmfT5IFHI8Q+RXgt9Bo6rPUTS5SjYuGMY2wMLkoi0y82OK1
3E0sE4PJN1G9Im/k/JpQw4ulcEAtRPGxjhy2i3WH/m8fhXNcgM0OOsTp7UAWB2B2
mqApZWsyfs/bDwUj3a1bdVa7vACRkvhJREgy9e1oHIK1MlSrfy2jVkANP85ypJyB
lwxCswmFJ4ogZQ4Rf5lKxsmMOX/OahKK7mGbvaZ7PNtFoAW0gyB/wjJCIuGYUfgM
wa/7vVcoTmeCcYExJMV0iWDXt8d95LBhWHyd/3OKfuXRdrIsXUmJbq8GX2c+Pkir
bJYV6cl3aGJcWU2d8DPwldYSIn9UJvIE/mwlHZStiKVKS29F+4Z8Lw/jIZpjv5Rr
pYBvu78gIdyFhaOUg1NFk+izEQBWKuJ0UJWCrFqWl/pCPBec4lWDLxJlxygm+dMO
b2Rw+bFl/NlCXGu8Yprsjgg9efzHdNOA/CIn4vxcklj8WfSML3lF+xFXZWOPxUtL
62sWdQ==
-----END CERTIFICATE-----
