Certificate:
    Data:
        Version: 1 (0x0)
        Serial Number: 137 (0x89)
    Signature Algorithm: sha256WithRSAEncryption
        Issuer: C=fr, ST=idf, L=paris, O=vitamui, OU=authorities, CN=ca_intermediate_server
        Validity
            Not Before: Dec  6 12:54:32 2021 GMT
            Not After : Dec  5 12:54:32 2024 GMT
        Subject: C=fr, ST=idf, L=paris, O=vitamui, CN=dev.vitamui.com
        Subject Public Key Info:
            Public Key Algorithm: rsaEncryption
                Public-Key: (4096 bit)
                Modulus:
                    00:97:61:53:02:b0:66:c6:61:12:bd:91:91:6b:d3:
                    75:78:ea:a1:d5:67:fb:f0:a9:c9:e6:29:73:61:28:
                    ee:4e:49:68:eb:01:86:93:b5:a1:70:71:97:2f:5d:
                    8e:28:f5:11:e6:70:6a:9f:92:88:a4:da:d4:6a:40:
                    3f:94:c0:28:73:9d:8e:17:a4:51:b4:76:f5:12:94:
                    ef:bc:79:7f:bb:d8:74:23:55:c1:30:64:f5:b6:d4:
                    cb:ff:41:6f:59:da:e8:68:2e:87:8d:40:07:b3:ca:
                    12:4f:45:19:35:34:bf:86:0f:0b:5a:3c:e8:37:9e:
                    51:c0:40:f5:64:90:d5:2b:9c:a5:23:af:96:9f:d7:
                    22:cd:75:8d:e4:4c:c4:9f:aa:5e:71:18:c6:ca:ed:
                    41:bb:fc:cc:58:84:28:fe:dc:27:b5:db:1d:f1:40:
                    03:6d:80:1a:66:96:bd:9e:fa:f4:3b:74:6d:bb:25:
                    ea:a2:de:35:92:4d:2b:37:6b:f2:78:63:19:0d:71:
                    21:74:82:b2:5f:75:c3:22:40:ec:ab:82:bf:54:01:
                    26:65:21:30:62:be:b0:57:91:ac:6f:3b:d8:68:6b:
                    9e:80:81:f1:31:34:4c:c7:50:1b:5c:9c:c1:39:be:
                    9b:73:72:a2:9a:ca:7a:2b:87:06:33:d7:52:5f:50:
                    96:76:39:3e:89:fc:b3:e1:a4:35:86:e1:c6:40:d1:
                    c0:e1:49:5b:af:5f:df:be:64:27:c9:1b:ad:42:44:
                    f3:3b:94:35:6e:80:0c:af:c2:00:ac:ee:e0:23:fe:
                    0a:e1:b8:07:27:ff:c4:b7:f5:81:3c:c0:26:9d:66:
                    2e:a6:2c:c5:8c:39:05:0f:3c:ed:3f:12:c0:66:8c:
                    ae:86:a0:80:74:1f:0c:6d:58:2d:3c:5c:5f:f1:b3:
                    fc:6d:e9:5c:10:78:4a:4c:00:9b:e1:e9:ee:1e:db:
                    ff:7c:65:81:cb:34:7e:ce:c0:cb:42:c2:2d:e3:56:
                    f2:d0:ef:22:4b:cb:15:46:7b:ec:84:71:4b:9d:e4:
                    22:46:cd:91:49:a7:bc:9f:01:53:96:c5:f1:11:14:
                    b6:ca:f8:5d:f0:a3:ec:d9:94:54:4e:ac:9d:43:10:
                    05:36:04:4b:b3:0e:74:a9:59:58:eb:a7:c5:01:2a:
                    3d:f4:9d:10:45:58:61:b7:0c:d1:7a:37:d8:4c:54:
                    c9:1b:57:92:c9:19:9a:4c:d2:ca:77:60:f3:76:d7:
                    66:08:34:bd:f7:cb:d2:b9:28:0b:20:75:77:c3:6b:
                    71:fe:91:48:c6:be:ad:c4:3b:cd:de:0c:ab:f2:69:
                    d2:b0:86:1e:44:19:ec:6a:9f:2c:ec:f3:19:98:fe:
                    3d:88:5b
                Exponent: 65537 (0x10001)
    Signature Algorithm: sha256WithRSAEncryption
         22:be:5d:e1:69:d3:82:50:ee:b0:37:d8:b0:a0:0f:0e:42:bb:
         aa:55:b5:52:e8:ea:80:10:64:0d:5a:73:90:9c:ba:7c:32:c8:
         18:48:6e:64:06:05:13:a0:47:56:81:d2:e8:ef:62:d1:63:df:
         3c:a2:a2:eb:61:6f:3c:af:11:9c:b0:dc:a4:f8:cd:62:7b:4a:
         86:8c:80:c9:19:62:12:81:e7:b1:59:e9:65:c0:b5:2a:c7:89:
         e7:fd:5b:76:b0:23:5f:34:c8:3d:f1:c2:0c:de:5c:0d:99:f4:
         95:cf:c3:47:50:5e:d3:08:36:1c:ef:16:24:a1:9c:69:ec:c8:
         cf:ca:28:5a:ed:8b:7b:da:5d:c3:e4:5c:61:80:12:e6:5c:fb:
         17:7c:88:5a:e1:c6:a1:30:47:dc:fe:48:a2:43:2e:de:5d:ee:
         7f:d7:19:dd:08:f7:83:01:37:d4:92:99:29:d9:b2:a4:f4:3e:
         fa:ad:da:c3:ab:c3:cc:2d:ba:ce:9d:8a:05:10:13:97:2f:57:
         af:c3:0c:eb:d4:5c:39:92:6c:2b:5b:a5:43:6c:e7:10:3f:8a:
         0d:fc:56:cb:2f:d0:70:29:c7:2f:75:a4:03:bd:83:28:95:e2:
         a4:78:84:9c:7f:4c:59:d8:af:9d:8b:ac:da:7a:d9:95:da:19:
         38:19:83:00:1a:d7:d6:3d:14:84:44:3e:57:30:8c:e8:a7:d2:
         1b:c7:43:74:82:0e:32:30:87:a5:73:2a:90:05:8f:fe:35:25:
         68:2b:56:b6:8d:8e:d1:bf:57:67:96:10:f3:4d:b5:33:78:d0:
         2e:e1:42:22:d0:9b:46:2e:db:ad:d0:ef:14:5d:83:7d:72:6a:
         f4:74:bf:d9:57:51:5d:38:6b:41:e3:dc:71:35:35:5f:fd:bc:
         76:cb:c3:c5:3d:78:a7:7a:2b:a7:51:3e:88:b2:23:49:35:38:
         6c:d3:6f:6a:ec:d9:0a:cd:10:d5:71:96:4a:14:28:33:e4:76:
         e0:f3:93:41:bc:22:7a:a8:5d:ba:ee:14:aa:73:fc:03:9f:f9:
         2b:0a:d5:46:7e:06:19:de:9a:80:49:3f:65:12:fb:e9:55:3d:
         08:7b:34:42:e4:ec:fa:ad:dc:73:c2:3a:7a:96:51:8d:81:71:
         5a:32:be:70:06:38:c5:40:41:81:49:12:5a:7a:f7:5e:e5:5a:
         e2:e9:26:0e:a9:eb:b4:2f:7e:05:75:97:9d:79:bf:bb:2c:a6:
         48:e7:57:58:83:0c:3d:81:a8:7d:b9:f1:71:d9:d0:b3:2a:88:
         e9:2d:c5:1d:40:09:2b:eb:9c:56:79:69:e1:89:82:2c:48:74:
         73:73:46:ab:52:39:31:06
-----BEGIN CERTIFICATE-----
MIIFQDCCAygCAgCJMA0GCSqGSIb3DQEBCwUAMHQxCzAJBgNVBAYTAmZyMQwwCgYD
VQQIDANpZGYxDjAMBgNVBAcMBXBhcmlzMRAwDgYDVQQKDAd2aXRhbXVpMRQwEgYD
VQQLDAthdXRob3JpdGllczEfMB0GA1UEAwwWY2FfaW50ZXJtZWRpYXRlX3NlcnZl
cjAeFw0yMTEyMDYxMjU0MzJaFw0yNDEyMDUxMjU0MzJaMFcxCzAJBgNVBAYTAmZy
MQwwCgYDVQQIDANpZGYxDjAMBgNVBAcMBXBhcmlzMRAwDgYDVQQKDAd2aXRhbXVp
MRgwFgYDVQQDDA9kZXYudml0YW11aS5jb20wggIiMA0GCSqGSIb3DQEBAQUAA4IC
DwAwggIKAoICAQCXYVMCsGbGYRK9kZFr03V46qHVZ/vwqcnmKXNhKO5OSWjrAYaT
taFwcZcvXY4o9RHmcGqfkoik2tRqQD+UwChznY4XpFG0dvUSlO+8eX+72HQjVcEw
ZPW21Mv/QW9Z2uhoLoeNQAezyhJPRRk1NL+GDwtaPOg3nlHAQPVkkNUrnKUjr5af
1yLNdY3kTMSfql5xGMbK7UG7/MxYhCj+3Ce12x3xQANtgBpmlr2e+vQ7dG27Jeqi
3jWSTSs3a/J4YxkNcSF0grJfdcMiQOyrgr9UASZlITBivrBXkaxvO9hoa56AgfEx
NEzHUBtcnME5vptzcqKaynorhwYz11JfUJZ2OT6J/LPhpDWG4cZA0cDhSVuvX9++
ZCfJG61CRPM7lDVugAyvwgCs7uAj/grhuAcn/8S39YE8wCadZi6mLMWMOQUPPO0/
EsBmjK6GoIB0HwxtWC08XF/xs/xt6VwQeEpMAJvh6e4e2/98ZYHLNH7OwMtCwi3j
VvLQ7yJLyxVGe+yEcUud5CJGzZFJp7yfAVOWxfERFLbK+F3wo+zZlFROrJ1DEAU2
BEuzDnSpWVjrp8UBKj30nRBFWGG3DNF6N9hMVMkbV5LJGZpM0sp3YPN212YINL33
y9K5KAsgdXfDa3H+kUjGvq3EO83eDKvyadKwhh5EGexqnyzs8xmY/j2IWwIDAQAB
MA0GCSqGSIb3DQEBCwUAA4ICAQAivl3hadOCUO6wN9iwoA8OQruqVbVS6OqAEGQN
WnOQnLp8MsgYSG5kBgUToEdWgdLo72LRY988oqLrYW88rxGcsNyk+M1ie0qGjIDJ
GWISgeexWellwLUqx4nn/Vt2sCNfNMg98cIM3lwNmfSVz8NHUF7TCDYc7xYkoZxp
7MjPyiha7Yt72l3D5FxhgBLmXPsXfIha4cahMEfc/kiiQy7eXe5/1xndCPeDATfU
kpkp2bKk9D76rdrDq8PMLbrOnYoFEBOXL1evwwzr1Fw5kmwrW6VDbOcQP4oN/FbL
L9BwKccvdaQDvYMoleKkeIScf0xZ2K+di6zaetmV2hk4GYMAGtfWPRSERD5XMIzo
p9Ibx0N0gg4yMIelcyqQBY/+NSVoK1a2jY7Rv1dnlhDzTbUzeNAu4UIi0JtGLtut
0O8UXYN9cmr0dL/ZV1FdOGtB49xxNTVf/bx2y8PFPXineiunUT6IsiNJNThs029q
7NkKzRDVcZZKFCgz5Hbg85NBvCJ6qF267hSqc/wDn/krCtVGfgYZ3pqAST9lEvvp
VT0IezRC5Oz6rdxzwjp6llGNgXFaMr5wBjjFQEGBSRJaevde5Vri6SYOqeu0L34F
dZedeb+7LKZI51dYgww9gah9ufFx2dCzKojpLcUdQAkr65xWeWnhiYIsSHRzc0ar
UjkxBg==
-----END CERTIFICATE-----
