Certificate:
    Data:
        Version: 1 (0x0)
        Serial Number: 135 (0x87)
    Signature Algorithm: sha256WithRSAEncryption
        Issuer: C=fr, ST=idf, L=paris, O=vitamui, OU=authorities, CN=ca_intermediate_server
        Validity
            Not Before: Dec  6 12:54:23 2021 GMT
            Not After : Dec  5 12:54:23 2024 GMT
        Subject: C=fr, ST=idf, L=paris, O=vitamui, CN=dev.vitamui.com
        Subject Public Key Info:
            Public Key Algorithm: rsaEncryption
                Public-Key: (4096 bit)
                Modulus:
                    00:b6:a0:d2:b6:1d:ce:a4:44:4a:f3:90:1c:98:79:
                    75:5b:01:6c:a4:c7:e6:d9:e9:f0:34:c2:fa:21:b0:
                    ee:2c:fa:70:d0:b8:8b:cd:7c:34:a7:a5:2a:c8:d6:
                    32:fa:e0:f2:09:7a:6c:74:f0:c1:65:89:69:aa:58:
                    c3:5b:43:06:5d:2a:21:55:33:85:3f:4f:db:29:ed:
                    23:1b:6a:ec:16:bf:ab:24:25:a4:70:8c:93:58:20:
                    de:e4:c8:80:b9:a1:f3:f0:2e:17:b2:6d:9d:b8:70:
                    f1:73:c3:6d:bc:3e:05:5e:b1:26:cf:0f:a4:8e:c1:
                    10:f2:db:d5:3c:34:4c:79:2c:ea:d1:50:43:f7:72:
                    0b:66:f8:4d:26:1b:03:6b:8a:1b:8d:c2:22:bd:7d:
                    e0:17:dd:1f:38:32:10:dd:85:0a:ad:72:45:0c:2b:
                    e9:fe:15:60:71:74:01:1e:bf:e2:d7:24:84:90:fc:
                    2f:28:6c:16:16:ce:23:80:75:9d:f6:a9:d3:32:59:
                    45:58:c8:e2:3d:f9:fe:e7:ba:87:ae:39:16:af:42:
                    e4:82:1e:ce:b2:e0:94:d2:7f:64:cd:e7:7c:e1:2c:
                    ad:27:3d:90:5a:e6:57:49:14:7f:d6:cf:3b:08:c3:
                    47:36:d1:ab:af:ec:63:ab:00:75:9a:1e:b4:45:39:
                    85:39:07:ab:1c:3c:6e:91:b4:a9:7a:5d:40:62:10:
                    0d:fd:b2:d8:69:1d:40:5d:80:25:45:6a:c8:76:24:
                    31:d4:a9:66:cd:d9:02:0c:27:f0:15:42:87:d2:43:
                    12:54:36:17:0f:c8:40:26:b0:07:6c:36:18:83:ad:
                    b4:1a:03:63:5f:27:54:12:8e:60:21:67:fd:4e:cd:
                    95:18:a0:f2:6f:dc:c6:1b:60:1e:ef:76:89:b0:07:
                    5e:ff:75:82:f7:71:89:3d:e7:35:7d:a0:f0:76:ab:
                    48:ff:7c:6e:fb:de:9e:eb:f3:52:6d:ad:57:1a:6b:
                    7f:d9:ee:71:30:5b:f3:47:fc:93:3a:35:a7:2e:23:
                    28:d0:18:b7:8a:ea:8e:22:ef:d4:fc:7a:ec:38:33:
                    f8:5e:46:5c:ab:3e:84:c5:28:b6:ab:34:5f:9b:93:
                    94:87:6b:93:8b:48:e8:57:1a:42:f8:cb:bb:dd:74:
                    ba:56:e1:0b:1b:6d:92:41:04:37:46:7a:74:1d:92:
                    47:05:f1:d5:57:43:07:63:c7:22:ef:8f:9c:3f:41:
                    28:c8:cb:9f:34:19:37:88:b6:13:96:ae:15:ad:1f:
                    cb:62:e6:4c:c0:15:05:c1:23:83:54:06:ef:fc:98:
                    c7:95:37:7f:92:cd:db:64:17:f9:04:bb:28:d5:67:
                    fb:cf:a7
                Exponent: 65537 (0x10001)
    Signature Algorithm: sha256WithRSAEncryption
         3d:98:e5:fb:66:6d:1a:8c:06:ef:4e:4f:a0:66:42:72:a9:9a:
         85:d4:ee:cb:cd:30:4b:a1:a5:5d:d0:65:27:30:8b:8c:21:81:
         87:92:8d:30:12:63:da:37:95:d6:0d:ef:6a:9b:64:4e:f2:04:
         36:fc:a4:81:49:6b:41:f7:e5:38:20:2d:55:ad:37:a6:c0:f1:
         2f:43:d6:e1:8f:f0:dc:de:3f:57:b3:d3:50:84:f7:5e:82:a1:
         97:cf:29:aa:2f:bf:e9:f3:be:55:58:86:a9:be:76:1e:32:68:
         be:f3:c8:19:8d:87:eb:2b:13:7a:1f:ff:04:03:8c:96:26:bf:
         54:38:9c:89:b3:5c:53:ad:02:15:96:61:48:18:c5:d8:58:7f:
         53:d8:60:8f:b4:96:1a:ec:8d:98:b6:f9:46:00:b2:c0:98:7b:
         09:26:5b:68:4f:57:5b:56:ef:17:38:a9:f5:40:1b:d5:a8:28:
         c4:94:12:d8:e2:f2:6c:9d:ca:ef:ac:e3:e8:62:03:3d:e6:ca:
         cc:21:bc:37:29:a0:f8:79:4c:d4:8f:eb:54:54:99:50:19:30:
         00:0e:fc:96:e6:67:99:6d:c6:fa:67:f9:88:73:90:41:72:b4:
         6b:3c:47:c9:34:e7:bc:12:00:30:96:d8:24:8f:c2:a1:8d:d5:
         17:2e:78:10:90:31:08:2a:a1:66:a2:45:3c:02:37:cf:4c:66:
         4a:c1:8a:b4:92:fd:e6:6f:a7:73:9f:11:fd:45:98:ae:f3:f0:
         4b:8d:f9:e7:92:97:ab:33:df:12:c3:73:8b:f0:b2:1b:d8:22:
         d1:99:46:f8:3a:d2:25:85:55:70:e7:39:05:c8:36:44:dc:89:
         e8:f1:6e:3b:c3:b8:0a:39:99:71:b1:62:ce:a1:68:42:b4:7c:
         ff:d9:ff:a4:9d:db:fb:b2:17:dd:3e:53:af:11:08:da:63:cc:
         9b:04:f5:78:c6:c4:28:b7:67:09:23:2b:15:41:fc:6e:9f:c7:
         be:14:3c:61:bb:f5:a1:33:bd:9b:f3:e3:24:22:f1:5e:a8:83:
         b1:f2:6b:1c:c2:d1:20:fd:0e:7d:96:24:27:c0:c4:27:90:a8:
         e4:54:af:f9:a7:fc:52:5b:25:9e:bf:c4:6d:fb:17:d4:74:27:
         3d:81:32:46:ee:b4:53:30:70:ec:24:88:ac:ab:6d:74:18:a0:
         b7:9a:e8:93:bf:e6:9f:ad:32:82:5e:59:e1:71:27:22:3c:0d:
         b6:3b:17:fa:f5:37:31:9b:44:ba:c1:53:0b:2b:98:98:69:5f:
         5c:c5:a2:28:d8:7e:76:e6:cd:81:73:02:39:a8:dc:95:4e:69:
         77:07:22:db:37:3a:b1:e3
-----BEGIN CERTIFICATE-----
MIIFQDCCAygCAgCHMA0GCSqGSIb3DQEBCwUAMHQxCzAJBgNVBAYTAmZyMQwwCgYD
VQQIDANpZGYxDjAMBgNVBAcMBXBhcmlzMRAwDgYDVQQKDAd2aXRhbXVpMRQwEgYD
VQQLDAthdXRob3JpdGllczEfMB0GA1UEAwwWY2FfaW50ZXJtZWRpYXRlX3NlcnZl
cjAeFw0yMTEyMDYxMjU0MjNaFw0yNDEyMDUxMjU0MjNaMFcxCzAJBgNVBAYTAmZy
MQwwCgYDVQQIDANpZGYxDjAMBgNVBAcMBXBhcmlzMRAwDgYDVQQKDAd2aXRhbXVp
MRgwFgYDVQQDDA9kZXYudml0YW11aS5jb20wggIiMA0GCSqGSIb3DQEBAQUAA4IC
DwAwggIKAoICAQC2oNK2Hc6kRErzkByYeXVbAWykx+bZ6fA0wvohsO4s+nDQuIvN
fDSnpSrI1jL64PIJemx08MFliWmqWMNbQwZdKiFVM4U/T9sp7SMbauwWv6skJaRw
jJNYIN7kyIC5ofPwLheybZ24cPFzw228PgVesSbPD6SOwRDy29U8NEx5LOrRUEP3
cgtm+E0mGwNrihuNwiK9feAX3R84MhDdhQqtckUMK+n+FWBxdAEev+LXJISQ/C8o
bBYWziOAdZ32qdMyWUVYyOI9+f7nuoeuORavQuSCHs6y4JTSf2TN53zhLK0nPZBa
5ldJFH/WzzsIw0c20auv7GOrAHWaHrRFOYU5B6scPG6RtKl6XUBiEA39sthpHUBd
gCVFash2JDHUqWbN2QIMJ/AVQofSQxJUNhcPyEAmsAdsNhiDrbQaA2NfJ1QSjmAh
Z/1OzZUYoPJv3MYbYB7vdomwB17/dYL3cYk95zV9oPB2q0j/fG773p7r81JtrVca
a3/Z7nEwW/NH/JM6NacuIyjQGLeK6o4i79T8euw4M/heRlyrPoTFKLarNF+bk5SH
a5OLSOhXGkL4y7vddLpW4QsbbZJBBDdGenQdkkcF8dVXQwdjxyLvj5w/QSjIy580
GTeIthOWrhWtH8ti5kzAFQXBI4NUBu/8mMeVN3+SzdtkF/kEuyjVZ/vPpwIDAQAB
MA0GCSqGSIb3DQEBCwUAA4ICAQA9mOX7Zm0ajAbvTk+gZkJyqZqF1O7LzTBLoaVd
0GUnMIuMIYGHko0wEmPaN5XWDe9qm2RO8gQ2/KSBSWtB9+U4IC1VrTemwPEvQ9bh
j/Dc3j9Xs9NQhPdegqGXzymqL7/p875VWIapvnYeMmi+88gZjYfrKxN6H/8EA4yW
Jr9UOJyJs1xTrQIVlmFIGMXYWH9T2GCPtJYa7I2YtvlGALLAmHsJJltoT1dbVu8X
OKn1QBvVqCjElBLY4vJsncrvrOPoYgM95srMIbw3KaD4eUzUj+tUVJlQGTAADvyW
5meZbcb6Z/mIc5BBcrRrPEfJNOe8EgAwltgkj8KhjdUXLngQkDEIKqFmokU8AjfP
TGZKwYq0kv3mb6dznxH9RZiu8/BLjfnnkperM98Sw3OL8LIb2CLRmUb4OtIlhVVw
5zkFyDZE3Ino8W47w7gKOZlxsWLOoWhCtHz/2f+kndv7shfdPlOvEQjaY8ybBPV4
xsQot2cJIysVQfxun8e+FDxhu/WhM72b8+MkIvFeqIOx8mscwtEg/Q59liQnwMQn
kKjkVK/5p/xSWyWev8Rt+xfUdCc9gTJG7rRTMHDsJIisq210GKC3muiTv+afrTKC
XlnhcSciPA22Oxf69Tcxm0S6wVMLK5iYaV9cxaIo2H525s2BcwI5qNyVTml3ByLb
Nzqx4w==
-----END CERTIFICATE-----
