Certificate:
    Data:
        Version: 1 (0x0)
        Serial Number: 140 (0x8c)
    Signature Algorithm: sha256WithRSAEncryption
        Issuer: C=fr, ST=idf, L=paris, O=vitamui, OU=authorities, CN=ca_intermediate_server
        Validity
            Not Before: Dec  6 12:54:51 2021 GMT
            Not After : Dec  5 12:54:51 2024 GMT
        Subject: C=fr, ST=idf, L=paris, O=vitamui, CN=dev.vitamui.com
        Subject Public Key Info:
            Public Key Algorithm: rsaEncryption
                Public-Key: (4096 bit)
                Modulus:
                    00:d2:90:0b:e7:03:bc:56:a4:a3:70:e7:a8:e2:25:
                    56:69:e4:10:6d:26:d8:2a:15:97:ed:dd:8b:08:af:
                    e4:89:03:4a:22:48:b8:9c:5d:ce:2d:a0:5c:d4:a0:
                    16:bc:a5:8d:eb:fa:79:8f:b6:c1:83:49:d6:88:40:
                    38:fd:86:fe:26:1b:47:15:ad:6b:8d:37:ed:ac:98:
                    2c:45:25:10:db:d3:1f:7d:62:e0:20:3c:1a:e8:86:
                    c3:4c:70:5e:c4:a8:21:a0:bd:c7:77:db:8d:81:6d:
                    ef:0a:fe:92:a8:1c:c1:51:88:bc:c5:d6:c7:e9:4c:
                    eb:cb:92:b0:ec:27:14:b1:4f:29:53:8a:b3:8a:84:
                    93:0f:dd:7c:d1:a5:7e:a0:d8:c2:a1:ac:f5:57:8d:
                    f6:ff:fc:42:9e:37:ba:b5:c1:d7:68:9f:56:37:5a:
                    1d:15:4d:2d:cf:f1:a6:22:44:31:a6:38:35:db:10:
                    c6:9f:bd:86:b4:4e:65:d8:b4:ce:8b:b7:8d:be:18:
                    7c:e2:b4:38:80:a1:fc:d7:34:9c:1d:7c:e5:c8:84:
                    53:52:5b:18:99:ba:04:58:c3:d9:e8:92:f3:ac:81:
                    57:fa:fa:5b:3c:ee:82:af:53:7d:39:b4:fc:e8:54:
                    a2:a6:20:79:4f:2d:97:b6:0c:30:18:83:55:06:3c:
                    9a:d7:e0:5a:c8:64:ec:fd:69:f1:9d:1d:5d:0b:48:
                    f8:54:31:db:12:23:cb:20:a4:21:ff:a4:51:67:8b:
                    a3:92:7e:c7:8b:34:29:b5:0c:0b:b8:3f:ce:17:04:
                    07:49:d9:7f:58:c9:40:9f:38:8a:3b:45:80:69:68:
                    22:be:85:ce:73:18:95:0f:fa:96:82:71:6b:91:4d:
                    a7:2e:08:41:9d:22:a0:cf:a0:b0:14:5a:6c:7c:89:
                    54:31:11:46:00:85:4a:4b:ec:10:f2:d5:76:21:2d:
                    07:48:a3:e8:bc:17:f0:df:e4:1e:0e:26:47:8a:36:
                    24:7c:55:0c:66:f5:07:92:e3:80:51:88:ba:66:b2:
                    94:de:2d:e6:0b:50:fa:44:46:3f:0a:3e:ee:28:cc:
                    8a:8d:b7:20:f4:32:be:ac:af:f6:6b:dc:cb:02:89:
                    c5:27:36:ad:88:f0:11:c7:a7:72:4d:b1:69:c8:98:
                    01:fe:73:d2:75:b4:85:b2:64:8d:66:82:a5:24:88:
                    5c:55:4e:af:74:d9:2b:da:62:7a:73:8e:4a:34:df:
                    c0:17:e8:c2:72:b9:8e:f0:5b:0e:fd:6d:dd:28:78:
                    46:ea:26:f1:24:b3:aa:45:d9:f1:b9:9d:4d:be:33:
                    91:d3:80:0c:d0:a1:21:b9:30:2a:f1:7d:ab:42:74:
                    65:21:b3
                Exponent: 65537 (0x10001)
    Signature Algorithm: sha256WithRSAEncryption
         46:af:c4:4d:7f:9a:cf:2b:55:a0:a6:b7:fb:4d:88:67:21:6f:
         c8:58:55:4d:b6:03:6e:64:6e:8a:b5:ad:36:8e:4a:38:bf:0c:
         71:42:bb:9e:cd:ee:69:4a:4d:27:6a:bf:15:f7:be:cf:8a:a8:
         8a:6e:57:10:d2:cd:98:e3:0f:70:f4:c6:52:f6:8d:5b:6a:65:
         cf:d5:5e:7d:8a:92:b2:0b:93:5f:84:eb:ab:ee:49:5e:e6:c4:
         f6:a1:9b:26:c5:8d:9a:c1:66:de:4b:da:ee:64:27:1b:f2:4b:
         47:2f:89:40:7f:e2:2b:0b:84:8c:8f:a4:6f:27:e5:b2:c4:50:
         53:56:04:29:a9:a4:f0:64:8c:90:b9:f6:bc:d7:ef:77:18:7a:
         2c:4e:08:d0:8a:a0:0c:00:fd:0b:ee:63:16:30:9c:50:e7:87:
         4c:bc:02:36:94:3e:25:64:88:8e:88:c8:86:9f:72:6e:ab:f9:
         e6:9a:2c:1e:5c:82:26:62:69:66:42:69:ce:c7:1b:6a:2c:a1:
         a6:08:06:2e:be:ec:ef:7c:06:23:59:c0:c2:d1:42:d7:3e:d9:
         88:8b:b9:5d:d3:d9:ba:ca:d4:d5:65:c6:ed:9c:0d:45:ab:82:
         0a:31:af:f1:80:20:d6:b0:00:a8:6f:84:7d:33:e6:38:10:7b:
         ab:97:df:77:99:cd:2f:99:38:b4:d7:c9:1f:bd:00:ac:0d:bb:
         76:f9:22:d9:d2:ee:c2:de:05:8c:28:21:08:53:cc:21:28:23:
         7e:88:38:fe:28:3d:f7:85:ab:84:8c:bc:2c:5b:89:16:af:d4:
         16:d4:22:9d:51:6d:88:3a:95:57:44:2b:ad:a2:6d:2f:e1:74:
         9b:60:ef:43:a5:8f:1e:d9:73:e9:d0:64:4c:a0:98:3b:bf:2d:
         87:71:20:eb:11:7f:f4:61:37:d3:c3:63:d1:f8:c5:cc:ce:f4:
         b6:70:52:81:81:b7:60:7c:a1:42:4b:8f:83:a9:fd:b6:af:fe:
         e9:50:18:b8:15:f1:17:f5:4b:d6:4b:e6:2c:ad:99:a2:73:6f:
         79:a5:63:77:09:4d:d6:4b:df:ef:73:7b:0a:5b:72:3b:45:8c:
         ca:48:70:a1:39:c3:5f:58:54:45:ce:29:13:78:9d:78:74:f3:
         65:03:e4:8d:29:69:ac:64:7e:06:61:4a:b0:0d:b8:21:5a:3b:
         bd:89:bd:e0:74:80:f9:a5:4d:a7:66:a3:48:74:7a:08:5e:3f:
         06:eb:57:2f:5c:8a:11:3d:0d:23:1f:26:4f:a9:02:7c:fd:9d:
         10:c9:13:ad:a6:d0:d0:91:13:47:da:41:f9:6c:d5:d0:76:47:
         ef:7f:47:65:16:d0:71:d8
-----BEGIN CERTIFICATE-----
MIIFQDCCAygCAgCMMA0GCSqGSIb3DQEBCwUAMHQxCzAJBgNVBAYTAmZyMQwwCgYD
VQQIDANpZGYxDjAMBgNVBAcMBXBhcmlzMRAwDgYDVQQKDAd2aXRhbXVpMRQwEgYD
VQQLDAthdXRob3JpdGllczEfMB0GA1UEAwwWY2FfaW50ZXJtZWRpYXRlX3NlcnZl
cjAeFw0yMTEyMDYxMjU0NTFaFw0yNDEyMDUxMjU0NTFaMFcxCzAJBgNVBAYTAmZy
MQwwCgYDVQQIDANpZGYxDjAMBgNVBAcMBXBhcmlzMRAwDgYDVQQKDAd2aXRhbXVp
MRgwFgYDVQQDDA9kZXYudml0YW11aS5jb20wggIiMA0GCSqGSIb3DQEBAQUAA4IC
DwAwggIKAoICAQDSkAvnA7xWpKNw56jiJVZp5BBtJtgqFZft3YsIr+SJA0oiSLic
Xc4toFzUoBa8pY3r+nmPtsGDSdaIQDj9hv4mG0cVrWuNN+2smCxFJRDb0x99YuAg
PBrohsNMcF7EqCGgvcd3242Bbe8K/pKoHMFRiLzF1sfpTOvLkrDsJxSxTylTirOK
hJMP3XzRpX6g2MKhrPVXjfb//EKeN7q1wddon1Y3Wh0VTS3P8aYiRDGmODXbEMaf
vYa0TmXYtM6Lt42+GHzitDiAofzXNJwdfOXIhFNSWxiZugRYw9nokvOsgVf6+ls8
7oKvU305tPzoVKKmIHlPLZe2DDAYg1UGPJrX4FrIZOz9afGdHV0LSPhUMdsSI8sg
pCH/pFFni6OSfseLNCm1DAu4P84XBAdJ2X9YyUCfOIo7RYBpaCK+hc5zGJUP+paC
cWuRTacuCEGdIqDPoLAUWmx8iVQxEUYAhUpL7BDy1XYhLQdIo+i8F/Df5B4OJkeK
NiR8VQxm9QeS44BRiLpmspTeLeYLUPpERj8KPu4ozIqNtyD0Mr6sr/Zr3MsCicUn
Nq2I8BHHp3JNsWnImAH+c9J1tIWyZI1mgqUkiFxVTq902SvaYnpzjko038AX6MJy
uY7wWw79bd0oeEbqJvEks6pF2fG5nU2+M5HTgAzQoSG5MCrxfatCdGUhswIDAQAB
MA0GCSqGSIb3DQEBCwUAA4ICAQBGr8RNf5rPK1Wgprf7TYhnIW/IWFVNtgNuZG6K
ta02jko4vwxxQrueze5pSk0nar8V977PiqiKblcQ0s2Y4w9w9MZS9o1bamXP1V59
ipKyC5NfhOur7kle5sT2oZsmxY2awWbeS9ruZCcb8ktHL4lAf+IrC4SMj6RvJ+Wy
xFBTVgQpqaTwZIyQufa81+93GHosTgjQiqAMAP0L7mMWMJxQ54dMvAI2lD4lZIiO
iMiGn3Juq/nmmiweXIImYmlmQmnOxxtqLKGmCAYuvuzvfAYjWcDC0ULXPtmIi7ld
09m6ytTVZcbtnA1Fq4IKMa/xgCDWsACob4R9M+Y4EHurl993mc0vmTi018kfvQCs
Dbt2+SLZ0u7C3gWMKCEIU8whKCN+iDj+KD33hauEjLwsW4kWr9QW1CKdUW2IOpVX
RCutom0v4XSbYO9DpY8e2XPp0GRMoJg7vy2HcSDrEX/0YTfTw2PR+MXMzvS2cFKB
gbdgfKFCS4+Dqf22r/7pUBi4FfEX9UvWS+YsrZmic295pWN3CU3WS9/vc3sKW3I7
RYzKSHChOcNfWFRFzikTeJ14dPNlA+SNKWmsZH4GYUqwDbghWju9ib3gdID5pU2n
ZqNIdHoIXj8G61cvXIoRPQ0jHyZPqQJ8/Z0QyROtptDQkRNH2kH5bNXQdkfvf0dl
FtBx2A==
-----END CERTIFICATE-----
