Certificate:
    Data:
        Version: 1 (0x0)
        Serial Number: 14 (0xe)
    Signature Algorithm: sha256WithRSAEncryption
        Issuer: C=fr, ST=idf, L=paris, O=vitamui, OU=authorities, CN=ca_intermediate_server
        Validity
            Not Before: Sep 25 23:36:26 2020 GMT
            Not After : Sep 25 23:36:26 2023 GMT
        Subject: C=fr, ST=idf, L=paris, O=vitamui, CN=dev.vitamui.com
        Subject Public Key Info:
            Public Key Algorithm: rsaEncryption
                Public-Key: (4096 bit)
                Modulus:
                    00:ab:18:57:59:40:3c:93:93:24:e6:10:bc:35:78:
                    ee:df:04:09:1e:16:76:87:29:30:84:8f:05:a6:5e:
                    65:76:aa:90:41:b4:d5:99:7c:90:66:ce:6c:49:87:
                    10:4b:30:e5:7a:3c:19:bf:a1:a3:7e:ac:c1:85:57:
                    d7:1b:0f:a6:c0:61:65:a6:30:6e:3b:84:68:4a:e8:
                    c7:ca:c9:71:df:d6:3b:d7:1f:60:4f:e8:af:17:75:
                    5a:9b:a9:09:d3:90:0f:c5:4e:0e:e0:28:8c:40:90:
                    f0:7f:1b:9e:29:cc:ef:10:ef:28:87:ec:a4:fd:d7:
                    a2:f6:2b:f2:0a:dd:6b:55:e9:c1:d9:ec:18:55:42:
                    ee:e6:ee:92:e5:a9:f5:7d:8b:92:dc:91:ea:45:43:
                    8b:1f:3a:50:c6:05:fb:ba:79:4d:a5:92:67:34:eb:
                    41:3e:ba:7a:a3:fe:d3:84:17:57:c7:32:da:78:a4:
                    88:8f:79:63:ce:28:0f:b8:82:da:57:6e:a2:7d:13:
                    ea:28:55:5b:77:43:92:86:29:c3:24:6e:82:f1:75:
                    07:66:57:93:53:26:85:7c:7b:cf:1a:f1:64:98:76:
                    5b:bf:15:bb:9b:65:fa:d0:01:f9:36:e3:e0:49:9d:
                    05:63:c8:7f:19:2b:fe:3b:09:99:fc:0e:52:08:95:
                    8d:b9:fa:3c:b3:11:fd:23:79:09:c9:4d:af:ee:f7:
                    90:93:16:7c:e9:e9:05:19:16:2b:0d:6d:df:86:cc:
                    b5:45:61:4d:10:9b:3c:65:3a:39:35:40:ec:73:f2:
                    68:14:ac:51:b4:b8:77:e7:89:15:2a:14:b7:40:9a:
                    b8:3b:6e:6a:d6:1f:29:f1:06:f4:6d:27:7c:e0:a4:
                    0a:34:9b:d0:21:88:f1:6e:5d:1a:4f:8b:44:0c:67:
                    ff:5d:f0:a6:81:0c:e0:b0:0a:a0:c8:b1:f4:f8:be:
                    1c:cc:6e:a8:c4:71:76:d2:78:93:b4:c0:99:c2:76:
                    47:a6:de:f0:04:8a:4f:7f:92:20:d2:75:56:28:66:
                    76:49:1b:2a:f7:2b:3f:12:80:f4:7a:94:3e:65:cd:
                    92:8b:e2:9e:3f:6a:88:36:d5:23:de:43:da:91:e7:
                    e8:d3:36:2e:b9:cf:80:6d:9c:c0:13:a3:f6:97:20:
                    e3:74:b2:79:ba:31:8e:15:3d:c1:f2:ac:63:ed:2e:
                    06:5a:b8:33:cc:45:60:5c:e8:ce:73:1b:be:3b:2b:
                    1f:cb:71:59:ff:61:cf:36:b2:8b:09:00:d9:d9:8d:
                    47:5d:f1:66:75:5b:f8:0a:73:fc:ef:fb:50:6f:75:
                    a5:4b:e0:bb:9d:b5:29:9f:79:3e:e2:29:16:12:0a:
                    7a:6f:ef
                Exponent: 65537 (0x10001)
    Signature Algorithm: sha256WithRSAEncryption
         7e:18:ad:a3:28:8f:86:ad:7a:33:46:d6:73:28:f5:e4:22:a8:
         62:f7:14:20:0c:29:d4:f1:64:91:42:23:c3:ea:38:09:08:23:
         8c:12:fb:7f:cb:e4:5f:0e:4d:0a:04:fe:a3:3f:17:34:89:10:
         a2:3a:08:65:72:cc:51:cf:0b:da:8e:aa:cc:1b:98:69:f5:31:
         39:65:ff:cc:4b:69:00:5e:04:52:8b:65:00:25:99:53:49:52:
         1c:ce:69:33:c9:24:5e:12:da:96:b6:74:13:68:57:50:a7:ce:
         c8:ef:87:61:f7:27:9d:47:4c:8c:83:1a:80:77:f1:42:89:4e:
         56:fe:72:0e:19:46:26:36:bb:55:c2:ad:f1:b3:84:a2:70:42:
         80:0f:9d:93:8b:ac:44:f2:19:cd:89:df:98:77:7c:7c:8f:12:
         68:ca:dc:e6:30:4a:8b:66:65:c1:0b:05:e8:8f:a8:87:2e:dd:
         d5:3b:be:18:a5:05:0c:1a:7f:da:3c:cd:03:de:55:3a:ed:61:
         61:35:c0:f7:48:0c:2d:17:aa:14:2f:b9:47:cf:35:68:a4:0f:
         26:f6:1e:73:05:f2:26:e2:75:cd:92:19:90:b6:d2:e6:6c:4b:
         d2:1f:8d:e6:76:51:43:64:c0:17:d5:ad:ff:d2:1d:59:72:56:
         c2:d5:36:a4:e7:ae:c4:a7:20:7e:44:92:5e:09:dc:ad:c0:7f:
         73:05:f3:ae:f0:6f:7e:88:26:da:a4:19:71:b8:7d:7d:04:01:
         61:fb:69:42:5d:84:04:3d:95:3a:12:35:e0:41:9c:bc:8f:73:
         0f:1d:73:83:bf:6d:4f:bf:df:69:79:f4:ce:4e:4c:4e:68:ed:
         5b:ed:56:a3:29:5b:94:3c:54:c2:50:5a:2e:9c:89:eb:92:e8:
         3f:84:f4:3e:e0:0f:b5:6b:41:ca:f7:09:e2:6f:cb:b0:05:5f:
         66:10:d3:83:5c:f6:02:37:9f:38:62:ee:88:be:12:ff:8f:f6:
         12:0f:30:29:9a:15:00:05:b7:ad:f3:01:2b:5c:aa:0c:30:b1:
         7a:68:29:4c:42:b3:2a:1b:2f:28:d3:be:51:6b:80:53:67:58:
         e6:e8:3c:40:8c:b8:8c:50:b2:63:ec:97:6c:ab:f0:b8:e4:cf:
         4c:20:25:2b:27:fc:0f:f3:01:79:bf:27:e1:65:fd:da:02:39:
         aa:87:aa:c0:b1:a5:3f:6a:d4:9b:48:15:44:63:9c:be:50:f0:
         16:28:e2:fb:70:e2:a5:8f:77:d4:86:44:f2:05:12:76:94:94:
         f3:96:b2:92:07:4b:93:54:05:f6:d2:4e:2d:4f:88:dc:da:bf:
         94:88:b7:c1:6b:73:a3:82
-----BEGIN CERTIFICATE-----
MIIFPzCCAycCAQ4wDQYJKoZIhvcNAQELBQAwdDELMAkGA1UEBhMCZnIxDDAKBgNV
BAgMA2lkZjEOMAwGA1UEBwwFcGFyaXMxEDAOBgNVBAoMB3ZpdGFtdWkxFDASBgNV
BAsMC2F1dGhvcml0aWVzMR8wHQYDVQQDDBZjYV9pbnRlcm1lZGlhdGVfc2VydmVy
MB4XDTIwMDkyNTIzMzYyNloXDTIzMDkyNTIzMzYyNlowVzELMAkGA1UEBhMCZnIx
DDAKBgNVBAgMA2lkZjEOMAwGA1UEBwwFcGFyaXMxEDAOBgNVBAoMB3ZpdGFtdWkx
GDAWBgNVBAMMD2Rldi52aXRhbXVpLmNvbTCCAiIwDQYJKoZIhvcNAQEBBQADggIP
ADCCAgoCggIBAKsYV1lAPJOTJOYQvDV47t8ECR4WdocpMISPBaZeZXaqkEG01Zl8
kGbObEmHEEsw5Xo8Gb+ho36swYVX1xsPpsBhZaYwbjuEaErox8rJcd/WO9cfYE/o
rxd1WpupCdOQD8VODuAojECQ8H8bninM7xDvKIfspP3XovYr8grda1XpwdnsGFVC
7ubukuWp9X2LktyR6kVDix86UMYF+7p5TaWSZzTrQT66eqP+04QXV8cy2nikiI95
Y84oD7iC2lduon0T6ihVW3dDkoYpwyRugvF1B2ZXk1MmhXx7zxrxZJh2W78Vu5tl
+tAB+Tbj4EmdBWPIfxkr/jsJmfwOUgiVjbn6PLMR/SN5CclNr+73kJMWfOnpBRkW
Kw1t34bMtUVhTRCbPGU6OTVA7HPyaBSsUbS4d+eJFSoUt0CauDtuatYfKfEG9G0n
fOCkCjSb0CGI8W5dGk+LRAxn/13wpoEM4LAKoMix9Pi+HMxuqMRxdtJ4k7TAmcJ2
R6be8ASKT3+SINJ1VihmdkkbKvcrPxKA9HqUPmXNkovinj9qiDbVI95D2pHn6NM2
LrnPgG2cwBOj9pcg43SyeboxjhU9wfKsY+0uBlq4M8xFYFzoznMbvjsrH8txWf9h
zzayiwkA2dmNR13xZnVb+Apz/O/7UG91pUvgu521KZ95PuIpFhIKem/vAgMBAAEw
DQYJKoZIhvcNAQELBQADggIBAH4YraMoj4atejNG1nMo9eQiqGL3FCAMKdTxZJFC
I8PqOAkII4wS+3/L5F8OTQoE/qM/FzSJEKI6CGVyzFHPC9qOqswbmGn1MTll/8xL
aQBeBFKLZQAlmVNJUhzOaTPJJF4S2pa2dBNoV1Cnzsjvh2H3J51HTIyDGoB38UKJ
Tlb+cg4ZRiY2u1XCrfGzhKJwQoAPnZOLrETyGc2J35h3fHyPEmjK3OYwSotmZcEL
BeiPqIcu3dU7vhilBQwaf9o8zQPeVTrtYWE1wPdIDC0XqhQvuUfPNWikDyb2HnMF
8ibidc2SGZC20uZsS9IfjeZ2UUNkwBfVrf/SHVlyVsLVNqTnrsSnIH5Ekl4J3K3A
f3MF867wb36IJtqkGXG4fX0EAWH7aUJdhAQ9lToSNeBBnLyPcw8dc4O/bU+/32l5
9M5OTE5o7VvtVqMpW5Q8VMJQWi6cieuS6D+E9D7gD7VrQcr3CeJvy7AFX2YQ04Nc
9gI3nzhi7oi+Ev+P9hIPMCmaFQAFt63zAStcqgwwsXpoKUxCsyobLyjTvlFrgFNn
WOboPECMuIxQsmPsl2yr8Ljkz0wgJSsn/A/zAXm/J+Fl/doCOaqHqsCxpT9q1JtI
FURjnL5Q8BYo4vtw4qWPd9SGRPIFEnaUlPOWspIHS5NUBfbSTi1PiNzav5SIt8Fr
c6OC
-----END CERTIFICATE-----
