Certificate:
    Data:
        Version: 1 (0x0)
        Serial Number: 38 (0x26)
        Signature Algorithm: sha256WithRSAEncryption
        Issuer: C=fr, ST=idf, L=paris, O=vitamui, OU=authorities, CN=ca_intermediate_server
        Validity
            Not Before: Nov 23 16:59:14 2022 GMT
            Not After : Nov 22 16:59:14 2025 GMT
        Subject: C=fr, ST=idf, L=paris, O=vitamui, CN=dev.vitamui.com
        Subject Public Key Info:
            Public Key Algorithm: rsaEncryption
                RSA Public-Key: (4096 bit)
                Modulus:
                    00:e8:15:3e:e6:e2:5c:c4:9e:33:6b:8b:37:12:52:
                    32:7a:2b:d9:7d:64:b1:55:ed:64:95:c0:af:ae:79:
                    49:b2:8b:a2:50:12:6b:e4:c0:81:03:da:0e:44:53:
                    fb:19:9a:d6:f1:0d:ab:42:70:c8:a1:f7:b6:ce:82:
                    77:81:1a:64:09:bb:c5:2e:79:55:6c:f6:3c:ad:83:
                    e4:04:b3:b1:ae:f3:34:59:98:40:06:37:7c:be:0a:
                    12:31:ca:57:ab:e5:7f:27:39:11:40:2c:1c:57:39:
                    ab:0a:dd:11:3f:80:d4:f6:76:96:62:d8:f5:2e:12:
                    41:81:8f:87:b6:ec:80:82:0a:2b:9a:ba:70:26:43:
                    d9:02:2d:96:f1:ac:2b:c6:b7:73:84:d1:42:da:34:
                    70:7d:cc:2f:4f:0d:12:77:f2:64:c8:7e:d5:04:57:
                    62:de:97:9a:b5:8e:d5:a5:14:d2:29:73:0f:ee:17:
                    92:07:98:9a:45:39:fa:2e:e0:ad:c4:ec:8a:a4:8c:
                    8d:d9:e5:73:02:af:9f:18:64:c1:b0:ee:0c:24:1b:
                    bd:bb:a3:cf:69:da:ab:d3:b2:bf:a2:5a:7e:e0:14:
                    e9:58:57:a7:47:c5:ce:8a:73:3c:bb:fc:37:60:4a:
                    33:36:90:cf:6d:02:4f:b6:90:03:ca:cb:95:8a:ad:
                    b2:ac:1d:ac:02:cd:6a:f9:22:ec:c6:cc:6a:cb:4b:
                    1d:a4:ca:1f:3a:63:06:cc:d2:23:88:62:40:fd:59:
                    31:bc:09:7a:8d:aa:f1:5e:f4:58:b0:cc:39:e5:42:
                    2f:59:ef:ae:53:0f:1c:e6:20:89:1e:86:b7:49:03:
                    57:ab:50:e9:36:03:59:4e:17:2b:4b:c8:09:3d:0b:
                    a7:22:c6:ef:61:f1:43:44:e6:69:54:f4:16:d1:27:
                    e6:58:c3:a4:42:1d:9c:99:8f:c3:60:79:3b:60:cb:
                    3f:3c:88:7d:3d:55:54:2c:3a:f6:f3:d6:cb:01:ed:
                    da:49:6e:37:7b:68:5f:c8:ed:1e:2c:9b:0c:83:ce:
                    33:48:f6:48:2a:24:17:0a:f3:44:c8:6b:8a:e8:a2:
                    e1:c5:97:62:9f:21:30:37:3e:74:c7:0d:31:6a:25:
                    8f:54:d9:56:78:04:59:88:6c:c4:07:b6:df:61:21:
                    9f:ac:0b:ca:e1:f3:16:d2:74:f5:96:3d:cf:59:8c:
                    01:43:01:bd:68:d8:55:4c:52:f1:48:2a:09:07:f8:
                    1b:df:b0:12:52:b3:00:2c:6e:f2:61:6b:89:a6:6d:
                    b2:1c:85:11:bd:d8:3c:00:09:0d:49:40:a5:6b:02:
                    f3:7e:87:bb:af:55:3c:fd:57:14:2c:c0:94:27:04:
                    a4:1c:d5
                Exponent: 65537 (0x10001)
    Signature Algorithm: sha256WithRSAEncryption
         00:79:1a:82:32:32:bb:dd:3e:d4:7a:71:5a:4e:82:c3:9c:73:
         fc:75:a8:78:95:6d:ff:22:99:ec:b9:8a:af:52:c8:30:c6:17:
         e1:70:be:66:53:c5:67:27:34:fd:a5:95:03:3b:7b:fe:78:12:
         e6:45:1f:15:18:47:ea:bb:37:21:f8:ea:b9:bf:f9:ef:18:38:
         1c:7e:21:6c:d1:7f:22:7f:60:6b:a3:31:0e:ee:a0:62:58:89:
         f8:33:da:f8:4b:c8:89:da:eb:ae:fc:ca:b8:21:fc:4e:18:a0:
         e1:dc:ab:d5:02:02:31:34:47:2d:2f:2a:28:d8:e8:d4:ef:cc:
         1f:6d:c4:88:ad:9b:ae:b4:f8:75:72:e2:d9:e2:1c:6a:32:1a:
         1a:d6:98:13:dc:46:a6:eb:2d:75:4c:55:1d:52:ae:7f:3a:99:
         f0:35:db:04:6b:3a:47:85:be:1c:69:75:36:8c:d7:97:1a:d3:
         89:af:bd:f4:a8:d8:fd:d8:7f:b6:57:8c:b1:78:bf:da:45:2f:
         a8:1e:27:75:65:0b:9f:08:a3:5a:bd:6f:47:1a:d5:87:b3:95:
         a6:ca:e3:99:6b:b2:42:53:3f:70:9a:11:13:46:52:0b:07:3e:
         53:a1:03:39:5b:78:e5:bf:b3:49:eb:b9:99:10:95:c3:50:ca:
         01:d2:48:71:9a:7a:ab:e5:b2:65:ee:39:58:1b:6b:26:ca:07:
         39:70:6a:40:0d:91:b5:11:e1:6b:fb:95:a8:bd:25:1f:e7:5a:
         a3:d8:85:24:f2:f5:7a:3c:db:af:19:7c:b9:27:c8:18:23:1c:
         5d:42:9d:91:54:d9:05:16:b1:17:c2:8d:77:7a:4d:20:9d:ab:
         42:cc:c7:ae:79:1e:bb:3c:3a:b9:4c:62:bc:e3:84:22:10:00:
         80:ea:bc:83:6a:bb:c8:8d:e7:35:71:3b:87:50:a6:94:18:4c:
         1c:84:1a:e1:df:bc:61:ef:99:9d:dd:2b:3d:fc:a7:be:33:9a:
         4e:4c:89:0d:70:f9:f9:5b:cc:6f:f8:35:e7:59:e7:73:ce:7a:
         7c:dd:a2:e9:58:54:7b:f3:6c:97:64:e3:df:b8:67:24:6e:e9:
         e8:ff:36:20:11:2e:e2:e0:29:88:04:6e:bd:ce:ab:6a:7e:9e:
         23:aa:be:33:e9:89:fa:fc:a7:ce:9f:51:0d:68:8c:ad:a1:05:
         8b:b7:eb:57:62:aa:c7:2a:c4:72:e3:25:95:4f:77:75:59:e9:
         5a:50:ce:f5:0f:5f:f9:bf:f8:c6:26:7f:22:46:67:a0:2a:b8:
         3c:4c:9c:67:36:01:18:27:05:69:5c:2b:e7:54:da:d1:80:c4:
         6c:0f:ca:1e:8b:52:30:32
-----BEGIN CERTIFICATE-----
MIIFPzCCAycCASYwDQYJKoZIhvcNAQELBQAwdDELMAkGA1UEBhMCZnIxDDAKBgNV
BAgMA2lkZjEOMAwGA1UEBwwFcGFyaXMxEDAOBgNVBAoMB3ZpdGFtdWkxFDASBgNV
BAsMC2F1dGhvcml0aWVzMR8wHQYDVQQDDBZjYV9pbnRlcm1lZGlhdGVfc2VydmVy
MB4XDTIyMTEyMzE2NTkxNFoXDTI1MTEyMjE2NTkxNFowVzELMAkGA1UEBhMCZnIx
DDAKBgNVBAgMA2lkZjEOMAwGA1UEBwwFcGFyaXMxEDAOBgNVBAoMB3ZpdGFtdWkx
GDAWBgNVBAMMD2Rldi52aXRhbXVpLmNvbTCCAiIwDQYJKoZIhvcNAQEBBQADggIP
ADCCAgoCggIBAOgVPubiXMSeM2uLNxJSMnor2X1ksVXtZJXAr655SbKLolASa+TA
gQPaDkRT+xma1vENq0JwyKH3ts6Cd4EaZAm7xS55VWz2PK2D5ASzsa7zNFmYQAY3
fL4KEjHKV6vlfyc5EUAsHFc5qwrdET+A1PZ2lmLY9S4SQYGPh7bsgIIKK5q6cCZD
2QItlvGsK8a3c4TRQto0cH3ML08NEnfyZMh+1QRXYt6XmrWO1aUU0ilzD+4XkgeY
mkU5+i7grcTsiqSMjdnlcwKvnxhkwbDuDCQbvbujz2naq9Oyv6JafuAU6VhXp0fF
zopzPLv8N2BKMzaQz20CT7aQA8rLlYqtsqwdrALNavki7MbMastLHaTKHzpjBszS
I4hiQP1ZMbwJeo2q8V70WLDMOeVCL1nvrlMPHOYgiR6Gt0kDV6tQ6TYDWU4XK0vI
CT0LpyLG72HxQ0TmaVT0FtEn5ljDpEIdnJmPw2B5O2DLPzyIfT1VVCw69vPWywHt
2kluN3toX8jtHiybDIPOM0j2SCokFwrzRMhriuii4cWXYp8hMDc+dMcNMWolj1TZ
VngEWYhsxAe232Ehn6wLyuHzFtJ09ZY9z1mMAUMBvWjYVUxS8UgqCQf4G9+wElKz
ACxu8mFriaZtshyFEb3YPAAJDUlApWsC836Hu69VPP1XFCzAlCcEpBzVAgMBAAEw
DQYJKoZIhvcNAQELBQADggIBAAB5GoIyMrvdPtR6cVpOgsOcc/x1qHiVbf8imey5
iq9SyDDGF+FwvmZTxWcnNP2llQM7e/54EuZFHxUYR+q7NyH46rm/+e8YOBx+IWzR
fyJ/YGujMQ7uoGJYifgz2vhLyIna6678yrgh/E4YoOHcq9UCAjE0Ry0vKijY6NTv
zB9txIitm660+HVy4tniHGoyGhrWmBPcRqbrLXVMVR1Srn86mfA12wRrOkeFvhxp
dTaM15ca04mvvfSo2P3Yf7ZXjLF4v9pFL6geJ3VlC58Io1q9b0ca1YezlabK45lr
skJTP3CaERNGUgsHPlOhAzlbeOW/s0nruZkQlcNQygHSSHGaeqvlsmXuOVgbaybK
BzlwakANkbUR4Wv7lai9JR/nWqPYhSTy9Xo8268ZfLknyBgjHF1CnZFU2QUWsRfC
jXd6TSCdq0LMx655Hrs8OrlMYrzjhCIQAIDqvINqu8iN5zVxO4dQppQYTByEGuHf
vGHvmZ3dKz38p74zmk5MiQ1w+flbzG/4NedZ53POenzdoulYVHvzbJdk49+4ZyRu
6ej/NiARLuLgKYgEbr3Oq2p+niOqvjPpifr8p86fUQ1ojK2hBYu361diqscqxHLj
JZVPd3VZ6VpQzvUPX/m/+MYmfyJGZ6AquDxMnGc2ARgnBWlcK+dU2tGAxGwPyh6L
UjAy
-----END CERTIFICATE-----
