Certificate:
    Data:
        Version: 1 (0x0)
        Serial Number: 44 (0x2c)
        Signature Algorithm: sha256WithRSAEncryption
        Issuer: C=fr, ST=idf, L=paris, O=vitamui, OU=authorities, CN=ca_intermediate_server
        Validity
            Not Before: Nov 23 16:59:25 2022 GMT
            Not After : Nov 22 16:59:25 2025 GMT
        Subject: C=fr, ST=idf, L=paris, O=vitamui, CN=dev.vitamui.com
        Subject Public Key Info:
            Public Key Algorithm: rsaEncryption
                RSA Public-Key: (4096 bit)
                Modulus:
                    00:f3:6d:ad:56:a7:84:c9:79:f5:10:48:49:64:9a:
                    ab:9f:c8:a6:3c:f7:a7:e2:c7:42:5c:8e:9b:be:66:
                    e2:3d:a2:da:fd:ae:76:33:1d:f4:ca:ac:9e:1d:0c:
                    59:55:a4:04:5d:3a:67:74:bd:e6:0f:10:03:d7:f4:
                    f5:a5:df:a5:1e:c3:08:71:91:1a:9b:3c:5b:86:e0:
                    61:5d:a9:b0:f6:e9:04:fd:88:c7:aa:12:a4:e2:29:
                    14:8f:4d:80:96:bd:f5:9a:e8:2b:c8:ba:6e:3d:69:
                    4e:bb:ae:1d:62:21:06:4c:35:97:71:97:06:a0:ec:
                    4d:98:db:cc:21:96:75:98:a1:50:03:7b:c5:00:09:
                    4d:63:f2:01:cd:02:f4:05:21:6a:29:86:4e:db:b7:
                    4e:8d:bf:0f:b9:1a:2a:51:23:ee:23:64:ab:dd:c0:
                    ac:d6:65:58:61:bc:77:bf:fc:37:0b:06:72:92:56:
                    65:f8:5e:c5:4c:1a:00:54:2d:b8:04:11:32:b7:d1:
                    76:99:db:53:72:77:d2:8a:14:21:89:f1:93:93:f6:
                    ab:74:e7:dc:f0:aa:6c:00:77:b6:75:68:cf:c8:b2:
                    68:5b:38:7c:b0:e4:55:f8:09:c4:96:ce:37:a9:88:
                    89:51:be:a0:30:19:4d:78:4a:a3:cd:6b:dd:e6:be:
                    b4:17:46:ce:bf:d6:11:09:dd:12:52:23:b6:ac:63:
                    17:c1:f0:76:c6:c8:fd:6e:f9:f3:0a:66:18:06:fd:
                    24:ed:5d:3e:02:ee:2d:a7:df:bc:40:07:f9:12:a5:
                    d3:09:93:f1:3d:33:88:24:28:78:34:07:50:96:48:
                    66:9f:42:91:9e:c0:33:ab:5a:64:24:d8:1a:3b:b7:
                    44:46:4b:43:7b:10:bd:ad:6f:c4:7d:6e:bf:cd:9b:
                    03:4d:35:f6:ce:80:6d:30:46:4c:7b:20:81:0a:4b:
                    79:0c:02:23:24:e1:c1:36:cc:cc:82:a5:4c:5a:f8:
                    e1:84:60:dc:79:1d:3d:03:d2:ee:5c:77:8f:6f:a2:
                    97:41:60:81:eb:b5:79:58:0c:51:05:5e:3b:21:3a:
                    cd:de:3c:b0:6e:8b:8f:d7:82:c2:df:9f:c6:94:49:
                    70:6d:dc:df:a1:28:89:01:1c:d3:22:36:d3:9f:53:
                    8e:22:6a:34:6b:6a:b4:01:91:6d:a6:a1:fa:75:1b:
                    04:d0:c3:11:cf:62:87:89:fa:30:d9:9d:4d:76:e1:
                    84:1c:14:44:d5:16:a2:fd:31:a5:fc:48:ba:02:9a:
                    4f:f6:b5:8e:cb:c5:0a:f2:b1:e6:cf:38:b7:d9:08:
                    7a:44:72:c7:f0:6c:2e:f8:de:64:4f:f3:b4:1a:56:
                    df:37:53
                Exponent: 65537 (0x10001)
    Signature Algorithm: sha256WithRSAEncryption
         94:18:79:23:36:54:2e:02:94:9d:a7:fd:23:9d:0c:71:1d:d9:
         fb:ea:1b:02:d9:63:a4:41:81:cb:0d:e7:25:3a:69:40:e8:4a:
         90:6d:08:a8:9f:12:c8:8a:0e:d9:79:30:21:68:a6:0b:fa:2a:
         95:8e:fd:aa:79:e0:6d:1e:b5:32:42:81:39:4e:c1:12:4f:a8:
         9f:3d:fe:d5:4b:29:60:2c:06:18:a4:1c:61:86:28:5c:5e:cd:
         7e:47:fe:84:3e:96:1b:81:06:16:7b:ba:be:78:f0:ba:4c:4a:
         a2:ce:2e:50:a6:94:ca:58:5d:b2:13:7a:b4:51:43:a7:cc:4a:
         d3:e6:41:18:20:02:5b:f5:2c:93:cf:52:59:3b:ed:ab:7e:80:
         e2:23:05:e5:a3:f6:58:ee:72:e7:71:8f:d3:3c:5b:8b:43:4a:
         e5:f7:58:a2:c4:df:49:40:ff:2a:ce:70:50:1a:24:34:90:eb:
         ed:a7:0b:b1:94:fb:8a:2a:ed:1d:5e:b9:59:ad:c1:92:04:56:
         93:b9:54:b7:5b:57:41:91:c5:82:d0:dd:96:d4:d9:01:59:b3:
         e8:13:8e:e8:b8:3c:89:61:2b:08:3f:56:96:9e:69:82:3a:8e:
         35:44:7e:83:f4:a7:b3:71:9f:6e:ae:91:cb:3c:0c:cc:74:d9:
         1b:8d:4e:b9:0f:ee:e6:18:d0:71:50:2c:33:00:40:57:f9:f3:
         79:a5:20:49:a7:5c:7e:b4:4b:5a:03:5a:7d:f8:3f:ad:5c:07:
         66:95:21:e9:1c:70:57:97:4f:3e:36:87:41:32:f5:0c:7d:4a:
         05:5a:e3:c2:e7:19:14:ff:a7:b2:83:17:39:26:9f:32:98:ba:
         0c:d8:e1:23:65:d8:ee:18:b9:b9:64:1d:f2:39:b5:50:a4:a3:
         9d:cd:94:5f:88:ac:17:3a:cb:09:1e:72:d1:50:2f:40:26:31:
         19:f9:e4:06:6e:e0:0d:ff:12:75:f5:6f:9f:b6:d1:be:e0:09:
         fa:43:0b:0c:d7:c5:58:4d:53:cc:6f:96:fe:9a:9e:3d:bf:a2:
         79:82:84:82:c9:5f:1b:4c:60:d5:63:1a:99:02:0a:a4:8c:a2:
         11:71:76:82:19:cc:c0:32:a6:88:7e:ff:b8:3a:34:1c:0e:b0:
         f5:73:10:6f:94:f3:b6:7b:c1:9e:bf:39:7c:f7:28:12:57:5a:
         79:51:c0:2c:54:2b:77:75:97:42:26:d8:27:02:6d:14:81:53:
         0a:f4:ad:14:71:85:5f:60:42:67:37:17:9b:d8:47:bf:a6:42:
         a1:e8:ba:5b:29:d3:5b:09:e8:2c:25:93:c9:6f:e0:59:3c:95:
         ce:80:b5:85:ae:53:63:4a
-----BEGIN CERTIFICATE-----
MIIFPzCCAycCASwwDQYJKoZIhvcNAQELBQAwdDELMAkGA1UEBhMCZnIxDDAKBgNV
BAgMA2lkZjEOMAwGA1UEBwwFcGFyaXMxEDAOBgNVBAoMB3ZpdGFtdWkxFDASBgNV
BAsMC2F1dGhvcml0aWVzMR8wHQYDVQQDDBZjYV9pbnRlcm1lZGlhdGVfc2VydmVy
MB4XDTIyMTEyMzE2NTkyNVoXDTI1MTEyMjE2NTkyNVowVzELMAkGA1UEBhMCZnIx
DDAKBgNVBAgMA2lkZjEOMAwGA1UEBwwFcGFyaXMxEDAOBgNVBAoMB3ZpdGFtdWkx
GDAWBgNVBAMMD2Rldi52aXRhbXVpLmNvbTCCAiIwDQYJKoZIhvcNAQEBBQADggIP
ADCCAgoCggIBAPNtrVanhMl59RBISWSaq5/Ipjz3p+LHQlyOm75m4j2i2v2udjMd
9Mqsnh0MWVWkBF06Z3S95g8QA9f09aXfpR7DCHGRGps8W4bgYV2psPbpBP2Ix6oS
pOIpFI9NgJa99ZroK8i6bj1pTruuHWIhBkw1l3GXBqDsTZjbzCGWdZihUAN7xQAJ
TWPyAc0C9AUhaimGTtu3To2/D7kaKlEj7iNkq93ArNZlWGG8d7/8NwsGcpJWZfhe
xUwaAFQtuAQRMrfRdpnbU3J30ooUIYnxk5P2q3Tn3PCqbAB3tnVoz8iyaFs4fLDk
VfgJxJbON6mIiVG+oDAZTXhKo81r3ea+tBdGzr/WEQndElIjtqxjF8HwdsbI/W75
8wpmGAb9JO1dPgLuLaffvEAH+RKl0wmT8T0ziCQoeDQHUJZIZp9CkZ7AM6taZCTY
Gju3REZLQ3sQva1vxH1uv82bA0019s6AbTBGTHsggQpLeQwCIyThwTbMzIKlTFr4
4YRg3HkdPQPS7lx3j2+il0Fggeu1eVgMUQVeOyE6zd48sG6Lj9eCwt+fxpRJcG3c
36EoiQEc0yI2059TjiJqNGtqtAGRbaah+nUbBNDDEc9ih4n6MNmdTXbhhBwURNUW
ov0xpfxIugKaT/a1jsvFCvKx5s84t9kIekRyx/BsLvjeZE/ztBpW3zdTAgMBAAEw
DQYJKoZIhvcNAQELBQADggIBAJQYeSM2VC4ClJ2n/SOdDHEd2fvqGwLZY6RBgcsN
5yU6aUDoSpBtCKifEsiKDtl5MCFopgv6KpWO/ap54G0etTJCgTlOwRJPqJ89/tVL
KWAsBhikHGGGKFxezX5H/oQ+lhuBBhZ7ur548LpMSqLOLlCmlMpYXbITerRRQ6fM
StPmQRggAlv1LJPPUlk77at+gOIjBeWj9ljucudxj9M8W4tDSuX3WKLE30lA/yrO
cFAaJDSQ6+2nC7GU+4oq7R1euVmtwZIEVpO5VLdbV0GRxYLQ3ZbU2QFZs+gTjui4
PIlhKwg/VpaeaYI6jjVEfoP0p7Nxn26ukcs8DMx02RuNTrkP7uYY0HFQLDMAQFf5
83mlIEmnXH60S1oDWn34P61cB2aVIekccFeXTz42h0Ey9Qx9SgVa48LnGRT/p7KD
FzkmnzKYugzY4SNl2O4YublkHfI5tVCko53NlF+IrBc6ywkectFQL0AmMRn55AZu
4A3/EnX1b5+20b7gCfpDCwzXxVhNU8xvlv6anj2/onmChILJXxtMYNVjGpkCCqSM
ohFxdoIZzMAypoh+/7g6NBwOsPVzEG+U87Z7wZ6/OXz3KBJXWnlRwCxUK3d1l0Im
2CcCbRSBUwr0rRRxhV9gQmc3F5vYR7+mQqHoulsp01sJ6Cwlk8lv4Fk8lc6AtYWu
U2NK
-----END CERTIFICATE-----
