Certificate:
    Data:
        Version: 1 (0x0)
        Serial Number: 47 (0x2f)
        Signature Algorithm: sha256WithRSAEncryption
        Issuer: C=fr, ST=idf, L=paris, O=vitamui, OU=authorities, CN=ca_intermediate_server
        Validity
            Not Before: Nov 23 16:59:30 2022 GMT
            Not After : Nov 22 16:59:30 2025 GMT
        Subject: C=fr, ST=idf, L=paris, O=vitamui, CN=dev.vitamui.com
        Subject Public Key Info:
            Public Key Algorithm: rsaEncryption
                RSA Public-Key: (4096 bit)
                Modulus:
                    00:a4:5a:05:0a:c3:39:d4:71:d1:50:7b:5a:f1:c4:
                    80:54:3c:7f:6e:f9:bc:34:8c:e9:47:a0:f8:dd:05:
                    ce:13:b2:f7:45:a9:f4:45:85:6e:d6:b4:ba:be:a2:
                    fb:07:83:ba:cb:60:67:39:87:87:3f:e3:b4:1f:90:
                    88:ca:82:72:11:22:d7:49:09:14:be:66:5b:d1:d6:
                    50:55:ee:28:78:ad:36:0e:c7:f8:4d:15:41:3a:e8:
                    a2:46:1f:aa:be:4e:a3:f6:54:7c:39:2f:b7:8f:80:
                    4c:2f:94:2f:ca:4f:3e:99:f9:33:c0:5d:ea:34:e4:
                    12:a4:b5:40:df:8f:25:2b:f9:64:92:a1:b0:18:47:
                    49:a9:b4:82:32:72:31:78:30:d1:65:91:f9:eb:95:
                    e2:7c:3c:71:c1:7b:66:55:ae:bc:cb:b8:6f:2c:a0:
                    d3:2e:30:7a:99:6f:94:59:54:06:77:bd:ba:60:7a:
                    42:6b:d9:db:9a:2b:17:61:7c:ca:0a:29:de:97:1a:
                    f9:64:a3:50:f9:41:cc:d0:60:7f:a2:2b:76:95:03:
                    ea:5e:a3:87:90:a0:fe:e9:70:8d:81:a3:4c:e3:e2:
                    09:0e:21:12:7e:6d:5b:55:06:3c:de:b5:da:35:0b:
                    a0:22:76:15:4f:bf:95:d2:43:c8:43:db:fa:b8:83:
                    d5:07:07:a8:b2:25:8f:2d:1e:fb:bd:a3:12:6e:aa:
                    a4:3b:57:3e:c5:b6:02:86:49:f4:b8:e0:6f:50:bd:
                    aa:73:23:1f:87:a4:3a:46:68:72:68:88:1d:76:09:
                    e6:7b:61:10:1a:13:7c:e2:ba:57:4b:5e:7a:7c:21:
                    fe:88:44:49:c6:9f:11:79:4b:ef:32:9d:3f:00:ff:
                    db:af:fe:f0:5e:d5:e9:a8:91:35:be:bb:18:09:d1:
                    7a:5b:ec:1b:d7:91:e2:61:85:68:0b:9b:a4:85:48:
                    f8:d2:b8:73:1b:70:9e:c0:20:60:d6:b7:92:bf:c9:
                    8d:eb:e1:32:a3:b9:b6:be:00:6f:71:6b:17:6c:ef:
                    05:c6:95:97:69:c7:98:e6:78:b9:dc:e6:48:ea:9c:
                    67:9c:3a:c9:36:d3:54:08:a8:d7:f4:35:0a:53:73:
                    2d:c9:27:23:e8:47:4b:59:91:71:a6:bd:c5:07:5c:
                    b1:90:9f:89:70:7d:03:1d:29:43:02:08:b6:75:39:
                    ea:f0:1d:b2:c2:b9:49:2f:9a:81:4b:28:53:df:a5:
                    cb:49:6a:49:e2:23:a2:57:c9:f1:d4:60:65:31:31:
                    7f:4e:89:07:88:9d:50:d9:a6:a1:fb:76:64:5b:5f:
                    fb:70:f9:f9:92:3c:c5:81:a2:62:f7:8c:60:82:55:
                    93:f9:47
                Exponent: 65537 (0x10001)
    Signature Algorithm: sha256WithRSAEncryption
         16:43:d5:fb:2d:a8:6a:5e:5d:a9:dd:6f:77:24:cf:32:ea:7d:
         14:bd:c7:e5:98:2c:b3:5b:3c:69:57:b7:b4:f0:76:d1:c4:9d:
         90:ad:66:aa:ea:d7:41:80:00:40:fb:d5:3d:27:19:64:4b:f8:
         60:25:b6:1b:5f:d0:fa:b1:d3:a1:c2:9c:a4:23:6f:3d:5d:3a:
         d8:f0:c8:59:d5:04:70:20:81:2c:7e:ae:26:67:a3:5f:33:8d:
         85:76:26:3d:b4:c7:6e:ca:a7:8d:20:a1:bb:07:d1:2e:27:09:
         26:d9:22:ec:29:d6:79:2e:32:71:5d:44:34:b6:a0:b7:11:a4:
         a3:d8:39:39:92:ea:10:bc:3b:95:62:9f:6c:37:d2:26:73:6a:
         58:22:d4:77:4e:bd:a2:6d:7f:84:d4:91:a2:5d:d6:b0:47:1a:
         ee:54:46:ff:af:08:92:69:c1:02:60:7f:c5:0f:4c:02:45:a3:
         ba:2e:c0:a4:54:f6:e3:ae:ed:63:f3:a4:9b:84:bb:7f:30:68:
         0f:e2:04:a5:e1:d3:92:18:c0:fe:01:3f:2f:98:cb:bf:49:f5:
         37:8a:b6:80:9d:bc:2c:c9:70:34:79:20:be:2c:27:a6:97:ea:
         94:e8:35:11:c8:f6:dd:f4:15:f0:b5:6b:13:d3:42:2b:44:15:
         bc:54:ec:86:b7:c4:d9:a5:ec:49:35:26:30:a7:a2:43:2a:ef:
         79:7d:8b:cf:b6:ff:a2:86:4d:a1:ea:d0:c3:fd:8a:0d:ff:59:
         9c:28:e1:c2:5e:63:fd:3d:5d:53:91:f8:9d:19:21:a2:66:38:
         e6:2b:6c:45:14:56:ed:38:17:96:ba:a3:b2:b3:7e:a7:59:4e:
         ec:1e:4e:c7:a8:97:cd:14:df:d9:44:4f:22:96:ab:07:ac:30:
         2f:42:ef:6d:ff:72:e7:42:1c:5c:d4:07:4f:a6:44:b8:2c:91:
         e5:79:1d:7e:8b:1d:00:54:c3:49:c4:64:2a:c8:44:94:c4:81:
         9f:7c:84:26:92:e0:e9:6c:ce:99:b7:7c:76:1a:1f:70:6f:ee:
         d0:e2:ee:84:4c:7a:7f:01:d0:16:9c:2e:7f:2d:5b:e8:86:1b:
         f1:8d:05:9e:df:c1:eb:ce:6d:66:cb:13:f4:ca:4e:bc:a0:56:
         cc:e2:0a:5c:e9:e9:e2:d2:38:32:84:ba:90:25:44:77:b9:62:
         f2:12:6d:74:49:0a:e9:6a:71:08:79:a3:11:e5:5a:1e:be:8e:
         05:05:bc:7b:63:92:2a:56:d9:b0:2b:ba:32:d4:8b:e9:c2:5b:
         92:38:79:0b:09:e2:13:aa:3d:dd:e4:ff:25:56:f7:4a:a5:33:
         3d:fa:1a:f1:93:3d:3b:ef
-----BEGIN CERTIFICATE-----
MIIFPzCCAycCAS8wDQYJKoZIhvcNAQELBQAwdDELMAkGA1UEBhMCZnIxDDAKBgNV
BAgMA2lkZjEOMAwGA1UEBwwFcGFyaXMxEDAOBgNVBAoMB3ZpdGFtdWkxFDASBgNV
BAsMC2F1dGhvcml0aWVzMR8wHQYDVQQDDBZjYV9pbnRlcm1lZGlhdGVfc2VydmVy
MB4XDTIyMTEyMzE2NTkzMFoXDTI1MTEyMjE2NTkzMFowVzELMAkGA1UEBhMCZnIx
DDAKBgNVBAgMA2lkZjEOMAwGA1UEBwwFcGFyaXMxEDAOBgNVBAoMB3ZpdGFtdWkx
GDAWBgNVBAMMD2Rldi52aXRhbXVpLmNvbTCCAiIwDQYJKoZIhvcNAQEBBQADggIP
ADCCAgoCggIBAKRaBQrDOdRx0VB7WvHEgFQ8f275vDSM6Ueg+N0FzhOy90Wp9EWF
bta0ur6i+weDustgZzmHhz/jtB+QiMqCchEi10kJFL5mW9HWUFXuKHitNg7H+E0V
QTrookYfqr5Oo/ZUfDkvt4+ATC+UL8pPPpn5M8Bd6jTkEqS1QN+PJSv5ZJKhsBhH
Sam0gjJyMXgw0WWR+euV4nw8ccF7ZlWuvMu4byyg0y4weplvlFlUBne9umB6QmvZ
25orF2F8ygop3pca+WSjUPlBzNBgf6IrdpUD6l6jh5Cg/ulwjYGjTOPiCQ4hEn5t
W1UGPN612jULoCJ2FU+/ldJDyEPb+riD1QcHqLIljy0e+72jEm6qpDtXPsW2AoZJ
9Ljgb1C9qnMjH4ekOkZocmiIHXYJ5nthEBoTfOK6V0teenwh/ohEScafEXlL7zKd
PwD/26/+8F7V6aiRNb67GAnRelvsG9eR4mGFaAubpIVI+NK4cxtwnsAgYNa3kr/J
jevhMqO5tr4Ab3FrF2zvBcaVl2nHmOZ4udzmSOqcZ5w6yTbTVAio1/Q1ClNzLckn
I+hHS1mRcaa9xQdcsZCfiXB9Ax0pQwIItnU56vAdssK5SS+agUsoU9+ly0lqSeIj
olfJ8dRgZTExf06JB4idUNmmoft2ZFtf+3D5+ZI8xYGiYveMYIJVk/lHAgMBAAEw
DQYJKoZIhvcNAQELBQADggIBABZD1fstqGpeXandb3ckzzLqfRS9x+WYLLNbPGlX
t7TwdtHEnZCtZqrq10GAAED71T0nGWRL+GAlthtf0Pqx06HCnKQjbz1dOtjwyFnV
BHAggSx+riZno18zjYV2Jj20x27Kp40gobsH0S4nCSbZIuwp1nkuMnFdRDS2oLcR
pKPYOTmS6hC8O5Vin2w30iZzalgi1HdOvaJtf4TUkaJd1rBHGu5URv+vCJJpwQJg
f8UPTAJFo7ouwKRU9uOu7WPzpJuEu38waA/iBKXh05IYwP4BPy+Yy79J9TeKtoCd
vCzJcDR5IL4sJ6aX6pToNRHI9t30FfC1axPTQitEFbxU7Ia3xNml7Ek1JjCnokMq
73l9i8+2/6KGTaHq0MP9ig3/WZwo4cJeY/09XVOR+J0ZIaJmOOYrbEUUVu04F5a6
o7KzfqdZTuweTseol80U39lETyKWqwesMC9C723/cudCHFzUB0+mRLgskeV5HX6L
HQBUw0nEZCrIRJTEgZ98hCaS4Olszpm3fHYaH3Bv7tDi7oRMen8B0BacLn8tW+iG
G/GNBZ7fwevObWbLE/TKTrygVsziClzp6eLSODKEupAlRHe5YvISbXRJCulqcQh5
oxHlWh6+jgUFvHtjkipW2bArujLUi+nCW5I4eQsJ4hOqPd3k/yVW90qlMz36GvGT
PTvv
-----END CERTIFICATE-----
