Certificate:
    Data:
        Version: 1 (0x0)
        Serial Number: 142 (0x8e)
    Signature Algorithm: sha256WithRSAEncryption
        Issuer: C=fr, ST=idf, L=paris, O=vitamui, OU=authorities, CN=ca_intermediate_server
        Validity
            Not Before: Dec  6 12:55:04 2021 GMT
            Not After : Dec  5 12:55:04 2024 GMT
        Subject: C=fr, ST=idf, L=paris, O=vitamui, CN=dev.vitamui.com
        Subject Public Key Info:
            Public Key Algorithm: rsaEncryption
                Public-Key: (4096 bit)
                Modulus:
                    00:cb:ef:f4:bf:9c:f3:ee:60:df:0b:18:b8:9a:38:
                    62:b1:a6:5d:ea:4d:4a:28:c3:97:93:70:ed:a6:dc:
                    a4:1b:51:6b:47:99:cf:41:c6:13:e6:33:70:30:1f:
                    82:ec:7c:41:7e:ef:3a:96:34:bd:bb:b1:8f:23:33:
                    a9:c8:8f:59:c1:73:95:0f:ef:44:82:02:63:74:16:
                    ca:e7:09:6c:fb:84:60:bb:d3:2d:4e:d1:f6:98:29:
                    b9:0d:00:95:c0:c0:8f:a8:3e:cb:e6:15:e4:47:69:
                    aa:db:00:37:49:73:32:c4:d2:4d:b1:fc:46:c4:98:
                    58:d2:e8:05:55:02:77:c5:e8:a8:71:0c:10:5e:5f:
                    6d:8d:76:0b:c7:33:61:77:9e:1e:0a:f9:1b:e5:02:
                    da:b6:d2:bc:47:04:27:fb:d4:b8:67:f6:d6:db:63:
                    ed:29:79:38:f3:ce:5d:75:01:6e:19:72:f4:14:11:
                    e8:ec:92:41:f7:ea:1e:d2:76:0e:b0:51:74:92:b9:
                    bb:87:18:2c:46:71:b7:23:6d:c6:93:e7:fb:b0:cf:
                    dd:47:6b:01:d8:12:4a:5f:2c:6c:29:cc:f2:e1:6e:
                    c2:ac:ba:ca:6f:b4:c9:0b:74:73:22:88:c4:af:64:
                    d1:6b:26:e5:0c:f8:21:cd:d2:43:46:13:bd:30:e6:
                    ce:61:75:38:4e:19:05:fe:52:ee:82:4a:71:28:12:
                    e9:ef:04:19:ce:1e:38:db:92:e8:5c:8e:85:ee:1f:
                    d0:68:9c:d3:3b:8a:eb:82:79:75:d7:73:4e:e8:e6:
                    bd:de:f7:41:0b:8a:61:40:3e:ec:9d:71:1f:e0:11:
                    e6:de:1c:31:39:31:4d:d4:41:23:7f:3a:aa:b2:e5:
                    d3:6c:63:6a:13:2d:29:d3:2b:65:b6:15:bc:3b:5c:
                    8b:23:2b:42:90:40:d0:4b:40:3c:b7:c3:84:49:c5:
                    e5:d9:72:9e:6e:80:c2:09:db:4b:6d:25:5d:94:27:
                    6a:e1:dd:56:2c:34:10:0f:31:7c:a1:e7:81:57:08:
                    4d:e1:73:2d:27:8f:63:86:20:ec:d4:20:4a:32:87:
                    53:b6:79:28:bc:bf:93:3b:8f:fc:1a:c7:c3:0e:a4:
                    fa:16:09:b2:2b:18:0c:53:42:5c:6e:17:e9:99:20:
                    2f:1b:8a:aa:0d:17:f8:f3:59:e2:99:3a:31:37:3f:
                    7a:6f:c2:0b:ed:0f:34:0a:2a:53:d2:89:ca:5d:18:
                    ef:83:1d:eb:f5:eb:0c:9a:b2:b3:84:38:d3:40:01:
                    29:9e:c0:33:cd:c3:e0:a9:a7:57:73:c8:05:5b:06:
                    2e:45:8c:61:cb:a6:6c:9b:eb:07:46:a1:d4:b3:21:
                    94:79:9f
                Exponent: 65537 (0x10001)
    Signature Algorithm: sha256WithRSAEncryption
         84:6c:b1:ac:80:41:ac:a2:85:e3:ba:7f:d3:3a:3e:95:6f:ab:
         c6:4c:59:8c:ed:e6:ba:e1:af:6a:be:2a:b4:ca:ec:db:d2:da:
         91:3c:e2:49:86:6e:77:08:0e:fe:47:36:10:9d:5d:95:b4:3a:
         6e:d9:d8:0a:98:71:e5:98:96:ae:9f:88:5c:2a:32:0e:15:a7:
         0e:93:d9:8f:37:06:1a:be:22:11:92:d6:53:06:42:a2:a4:02:
         c7:f5:6c:95:62:ec:12:42:5b:ed:00:91:dd:34:4e:94:48:99:
         b3:57:51:b4:f4:54:d0:7c:65:ee:de:ed:20:58:3b:dc:ac:c9:
         28:69:9f:21:9a:49:76:bd:8f:be:7e:6a:e8:5b:06:eb:1a:ff:
         14:d1:41:02:9e:56:aa:04:de:75:58:8f:7d:b6:86:da:87:e4:
         41:84:c3:cf:fc:5b:83:2e:4b:97:17:39:1a:bf:b6:8d:f4:67:
         2a:e4:7c:eb:90:10:fd:21:aa:18:0e:e0:42:7b:90:1c:67:f0:
         e9:4e:60:b7:d1:bd:94:bd:3f:1c:71:c9:22:50:04:a9:0e:98:
         51:2d:74:df:fe:3e:de:5b:f7:86:13:f4:51:a4:d7:40:f0:19:
         2d:7a:6c:74:77:bc:f9:94:a5:ce:49:85:fd:2d:6a:d6:0d:f7:
         fd:cc:7e:a3:bc:2e:42:6b:a1:f9:a9:04:38:fe:5b:f0:75:fb:
         81:cc:cf:a6:73:64:50:13:e2:f6:dc:ae:8e:38:6d:3f:8d:7c:
         54:25:65:3b:16:ff:24:df:9c:22:c1:02:08:56:e2:e1:a5:54:
         7a:1c:a7:e5:5d:a4:93:18:ea:6e:f2:76:0f:c6:12:52:bc:2b:
         b3:57:30:95:b2:09:f9:68:02:ea:b6:96:41:15:96:27:cf:f9:
         d5:9d:0f:7c:1e:3e:89:8c:b4:c3:07:f1:fa:cc:87:0e:f4:8a:
         46:17:46:05:a5:e5:bc:e9:bd:89:10:d6:99:b9:d1:57:f4:62:
         44:66:46:e6:0d:59:f8:2e:01:59:bb:55:8a:40:36:df:f1:46:
         21:88:5a:4b:da:15:cb:5b:fe:1e:b1:86:c5:97:5f:4d:8c:91:
         6c:5f:03:56:1e:8b:33:83:1a:f5:70:12:a1:cf:33:36:ff:67:
         30:f8:46:51:2b:23:3e:ca:61:e4:79:ba:35:cd:b7:87:9f:9c:
         7e:aa:4f:5a:97:bd:bc:d3:d0:4f:f8:1d:16:90:e7:7f:1b:02:
         89:b1:6c:59:8c:77:51:9a:3e:13:29:0e:91:85:b1:ee:6e:27:
         da:4b:5a:f2:44:b2:ac:91:0d:f3:2d:04:67:9b:02:7d:f8:22:
         38:fb:0a:9c:1c:0b:89:c5
-----BEGIN CERTIFICATE-----
MIIFQDCCAygCAgCOMA0GCSqGSIb3DQEBCwUAMHQxCzAJBgNVBAYTAmZyMQwwCgYD
VQQIDANpZGYxDjAMBgNVBAcMBXBhcmlzMRAwDgYDVQQKDAd2aXRhbXVpMRQwEgYD
VQQLDAthdXRob3JpdGllczEfMB0GA1UEAwwWY2FfaW50ZXJtZWRpYXRlX3NlcnZl
cjAeFw0yMTEyMDYxMjU1MDRaFw0yNDEyMDUxMjU1MDRaMFcxCzAJBgNVBAYTAmZy
MQwwCgYDVQQIDANpZGYxDjAMBgNVBAcMBXBhcmlzMRAwDgYDVQQKDAd2aXRhbXVp
MRgwFgYDVQQDDA9kZXYudml0YW11aS5jb20wggIiMA0GCSqGSIb3DQEBAQUAA4IC
DwAwggIKAoICAQDL7/S/nPPuYN8LGLiaOGKxpl3qTUoow5eTcO2m3KQbUWtHmc9B
xhPmM3AwH4LsfEF+7zqWNL27sY8jM6nIj1nBc5UP70SCAmN0FsrnCWz7hGC70y1O
0faYKbkNAJXAwI+oPsvmFeRHaarbADdJczLE0k2x/EbEmFjS6AVVAnfF6KhxDBBe
X22NdgvHM2F3nh4K+RvlAtq20rxHBCf71Lhn9tbbY+0peTjzzl11AW4ZcvQUEejs
kkH36h7Sdg6wUXSSubuHGCxGcbcjbcaT5/uwz91HawHYEkpfLGwpzPLhbsKsuspv
tMkLdHMiiMSvZNFrJuUM+CHN0kNGE70w5s5hdThOGQX+Uu6CSnEoEunvBBnOHjjb
kuhcjoXuH9BonNM7iuuCeXXXc07o5r3e90ELimFAPuydcR/gEebeHDE5MU3UQSN/
Oqqy5dNsY2oTLSnTK2W2Fbw7XIsjK0KQQNBLQDy3w4RJxeXZcp5ugMIJ20ttJV2U
J2rh3VYsNBAPMXyh54FXCE3hcy0nj2OGIOzUIEoyh1O2eSi8v5M7j/wax8MOpPoW
CbIrGAxTQlxuF+mZIC8biqoNF/jzWeKZOjE3P3pvwgvtDzQKKlPSicpdGO+DHev1
6wyasrOEONNAASmewDPNw+Cpp1dzyAVbBi5FjGHLpmyb6wdGodSzIZR5nwIDAQAB
MA0GCSqGSIb3DQEBCwUAA4ICAQCEbLGsgEGsooXjun/TOj6Vb6vGTFmM7ea64a9q
viq0yuzb0tqRPOJJhm53CA7+RzYQnV2VtDpu2dgKmHHlmJaun4hcKjIOFacOk9mP
NwYaviIRktZTBkKipALH9WyVYuwSQlvtAJHdNE6USJmzV1G09FTQfGXu3u0gWDvc
rMkoaZ8hmkl2vY++fmroWwbrGv8U0UECnlaqBN51WI99tobah+RBhMPP/FuDLkuX
Fzkav7aN9Gcq5HzrkBD9IaoYDuBCe5AcZ/DpTmC30b2UvT8ccckiUASpDphRLXTf
/j7eW/eGE/RRpNdA8Bktemx0d7z5lKXOSYX9LWrWDff9zH6jvC5Ca6H5qQQ4/lvw
dfuBzM+mc2RQE+L23K6OOG0/jXxUJWU7Fv8k35wiwQIIVuLhpVR6HKflXaSTGOpu
8nYPxhJSvCuzVzCVsgn5aALqtpZBFZYnz/nVnQ98Hj6JjLTDB/H6zIcO9IpGF0YF
peW86b2JENaZudFX9GJEZkbmDVn4LgFZu1WKQDbf8UYhiFpL2hXLW/4esYbFl19N
jJFsXwNWHoszgxr1cBKhzzM2/2cw+EZRKyM+ymHkebo1zbeHn5x+qk9al72809BP
+B0WkOd/GwKJsWxZjHdRmj4TKQ6RhbHubifaS1ryRLKskQ3zLQRnmwJ9+CI4+wqc
HAuJxQ==
-----END CERTIFICATE-----
