Certificate:
    Data:
        Version: 1 (0x0)
        Serial Number: 139 (0x8b)
    Signature Algorithm: sha256WithRSAEncryption
        Issuer: C=fr, ST=idf, L=paris, O=vitamui, OU=authorities, CN=ca_intermediate_server
        Validity
            Not Before: Dec  6 12:54:44 2021 GMT
            Not After : Dec  5 12:54:44 2024 GMT
        Subject: C=fr, ST=idf, L=paris, O=vitamui, CN=dev.vitamui.com
        Subject Public Key Info:
            Public Key Algorithm: rsaEncryption
                Public-Key: (4096 bit)
                Modulus:
                    00:d8:61:7d:02:23:e3:fb:1d:4e:b2:91:5e:f1:19:
                    9f:64:ee:f9:41:d5:2d:df:25:62:13:ac:49:02:79:
                    b0:be:30:db:93:a9:9d:f8:05:6f:d5:94:ea:81:e9:
                    38:9b:6d:53:dd:5c:ee:3b:48:01:a3:e7:19:41:bd:
                    f1:33:fd:15:ad:0b:56:f4:c9:4c:77:18:7a:55:c3:
                    82:7a:fd:28:15:cb:c9:b2:b3:b6:9e:a5:04:bf:d9:
                    26:52:09:b5:43:1e:c3:f2:12:8f:74:a3:9c:50:53:
                    27:a3:70:28:a3:22:c8:b7:da:ef:12:8a:ba:04:bb:
                    e6:17:d4:f9:e6:c7:19:53:30:2d:59:e0:78:22:fc:
                    2e:8d:4b:fc:92:19:8d:19:6a:5c:6a:47:59:3d:88:
                    43:37:2b:6f:97:b4:a1:3c:52:95:45:13:6e:28:d6:
                    ce:91:1f:63:cd:92:22:41:41:62:f0:7f:71:ac:4a:
                    fb:ec:4b:72:81:e9:df:78:6d:20:9f:3e:1d:89:e6:
                    8b:10:b9:89:f0:19:99:d1:75:a6:6c:ca:03:4f:db:
                    d9:c3:42:83:e5:39:e9:ab:dc:7e:a0:6e:db:39:71:
                    85:90:b2:5b:a0:b5:f5:32:a5:7c:78:e9:f2:93:88:
                    e8:aa:42:a1:e8:22:55:d9:70:06:cd:cb:be:cb:39:
                    46:7d:1c:00:e1:92:56:74:3e:ac:27:e0:69:4f:5e:
                    47:8c:dc:d4:70:c2:a4:e6:d8:37:a9:c9:00:15:48:
                    29:f8:0c:20:22:9c:ef:1a:a1:3a:b3:1c:76:96:6f:
                    3c:6a:19:7b:e7:e9:2c:a5:8b:f3:44:2d:5e:12:94:
                    e9:6f:86:29:a2:8f:ec:aa:a9:bd:97:a2:da:d1:31:
                    5b:88:c1:0d:a5:8b:e6:8d:c4:d3:74:24:26:30:5e:
                    ad:e6:65:1a:14:d8:f9:0a:7b:84:1f:b1:10:e9:23:
                    bf:d1:31:6c:f4:aa:f5:00:8f:71:40:e7:c6:fc:6e:
                    83:eb:23:d3:98:df:81:c7:3d:e6:f3:12:a2:2f:6c:
                    5e:3c:22:07:e4:06:5c:bd:98:5e:12:c9:01:9a:74:
                    52:91:96:64:7b:64:7e:0e:cd:b0:8e:27:1d:db:40:
                    9f:03:fb:ad:49:cd:fb:f5:03:d4:f9:ad:b9:4c:56:
                    fe:22:8d:3c:7a:0d:ab:9c:59:1e:31:ba:f1:9c:e9:
                    17:bd:a6:be:34:52:fe:e1:c1:25:fb:e4:66:5c:70:
                    ba:40:72:70:c0:62:90:62:4c:e6:57:01:9d:97:4d:
                    24:bb:20:7f:ab:80:a6:e5:94:17:2f:54:6b:ed:0e:
                    b2:a2:b3:02:a3:17:b8:34:c7:b6:b0:c4:cf:c7:37:
                    25:7d:07
                Exponent: 65537 (0x10001)
    Signature Algorithm: sha256WithRSAEncryption
         8f:22:03:1a:e0:e5:f3:91:4f:b6:d5:4c:27:37:e7:5c:33:17:
         16:6f:42:56:0e:39:3c:ad:db:51:02:13:4c:e9:65:4f:78:a8:
         8e:ed:5e:e1:8d:05:56:67:7e:50:17:bf:20:97:1f:0b:d4:d8:
         3c:b6:62:f8:13:bb:6a:46:70:b8:b0:34:4b:47:a3:d8:f4:4c:
         a0:00:73:37:48:3c:ce:20:84:12:7f:45:cf:37:53:3f:6a:5d:
         31:96:37:43:08:98:35:94:e5:96:9d:ec:dc:7a:64:1e:60:51:
         49:dd:f4:23:a3:30:63:9d:d3:bf:f2:a3:e1:ec:19:8c:ad:d7:
         32:36:a3:e3:66:ca:c5:86:4e:b4:78:f8:7e:1d:55:40:48:06:
         e8:ae:0d:bb:58:15:c1:06:13:3f:b5:64:8e:ff:ca:39:10:d6:
         69:6c:f7:88:8c:7c:47:0e:87:bd:72:9f:d0:cd:9a:f0:c7:9e:
         2d:d5:ee:6e:83:6f:bd:64:5c:2d:56:98:f2:cb:7a:b9:d2:c9:
         40:5e:52:55:05:d9:ae:bd:98:20:51:af:f8:b6:fe:ca:75:c7:
         a3:43:79:a6:7e:f4:69:6f:30:25:81:42:15:17:1f:bd:19:a4:
         dc:c8:fe:33:a1:21:dd:35:e6:35:31:da:34:8a:17:09:66:bc:
         5e:56:5e:9d:a9:08:2d:91:90:88:7a:3f:ef:92:e5:87:bf:93:
         05:d5:62:77:a5:2b:f9:72:92:dd:fd:70:b6:1b:0a:6f:84:be:
         86:1c:5b:d0:a9:30:07:65:44:95:ed:20:11:11:be:4f:06:a8:
         18:97:9b:d2:7b:ec:b3:fc:c0:4c:77:ff:e5:ea:31:6c:60:18:
         7f:62:54:1a:74:0b:f3:d7:f9:d3:5f:de:0f:ee:06:10:9a:86:
         02:2d:ab:d4:cb:95:80:01:4c:7e:18:d5:50:85:c7:0b:28:97:
         17:2c:11:44:08:05:75:aa:dd:99:44:0c:b1:6d:a6:5e:2f:20:
         af:ec:5b:27:a8:16:5e:db:0b:93:db:f3:5e:75:77:29:a3:36:
         3c:22:85:0c:51:1c:5f:63:04:5c:cf:ce:11:d5:7d:2a:f2:df:
         5f:72:a3:f6:97:a1:a1:60:b5:d6:6c:dd:eb:10:38:39:44:86:
         20:d9:dc:35:0a:23:dd:45:1a:5e:f1:16:0d:15:1e:b4:01:b4:
         d2:1b:05:8f:d3:a2:fc:73:52:81:df:23:8f:50:67:f3:4f:27:
         53:46:67:72:07:ab:f9:d2:34:38:b5:12:c3:bd:3f:aa:a9:1d:
         8f:22:b4:33:c7:5a:d4:6d:8a:c9:67:05:34:cc:2a:80:21:df:
         4b:6b:49:ef:49:a4:ba:46
-----BEGIN CERTIFICATE-----
MIIFQDCCAygCAgCLMA0GCSqGSIb3DQEBCwUAMHQxCzAJBgNVBAYTAmZyMQwwCgYD
VQQIDANpZGYxDjAMBgNVBAcMBXBhcmlzMRAwDgYDVQQKDAd2aXRhbXVpMRQwEgYD
VQQLDAthdXRob3JpdGllczEfMB0GA1UEAwwWY2FfaW50ZXJtZWRpYXRlX3NlcnZl
cjAeFw0yMTEyMDYxMjU0NDRaFw0yNDEyMDUxMjU0NDRaMFcxCzAJBgNVBAYTAmZy
MQwwCgYDVQQIDANpZGYxDjAMBgNVBAcMBXBhcmlzMRAwDgYDVQQKDAd2aXRhbXVp
MRgwFgYDVQQDDA9kZXYudml0YW11aS5jb20wggIiMA0GCSqGSIb3DQEBAQUAA4IC
DwAwggIKAoICAQDYYX0CI+P7HU6ykV7xGZ9k7vlB1S3fJWITrEkCebC+MNuTqZ34
BW/VlOqB6TibbVPdXO47SAGj5xlBvfEz/RWtC1b0yUx3GHpVw4J6/SgVy8mys7ae
pQS/2SZSCbVDHsPyEo90o5xQUyejcCijIsi32u8SiroEu+YX1PnmxxlTMC1Z4Hgi
/C6NS/ySGY0ZalxqR1k9iEM3K2+XtKE8UpVFE24o1s6RH2PNkiJBQWLwf3GsSvvs
S3KB6d94bSCfPh2J5osQuYnwGZnRdaZsygNP29nDQoPlOemr3H6gbts5cYWQslug
tfUypXx46fKTiOiqQqHoIlXZcAbNy77LOUZ9HADhklZ0Pqwn4GlPXkeM3NRwwqTm
2DepyQAVSCn4DCAinO8aoTqzHHaWbzxqGXvn6Syli/NELV4SlOlvhimij+yqqb2X
otrRMVuIwQ2li+aNxNN0JCYwXq3mZRoU2PkKe4QfsRDpI7/RMWz0qvUAj3FA58b8
boPrI9OY34HHPebzEqIvbF48IgfkBly9mF4SyQGadFKRlmR7ZH4OzbCOJx3bQJ8D
+61Jzfv1A9T5rblMVv4ijTx6DaucWR4xuvGc6Re9pr40Uv7hwSX75GZccLpAcnDA
YpBiTOZXAZ2XTSS7IH+rgKbllBcvVGvtDrKiswKjF7g0x7awxM/HNyV9BwIDAQAB
MA0GCSqGSIb3DQEBCwUAA4ICAQCPIgMa4OXzkU+21UwnN+dcMxcWb0JWDjk8rdtR
AhNM6WVPeKiO7V7hjQVWZ35QF78glx8L1Ng8tmL4E7tqRnC4sDRLR6PY9EygAHM3
SDzOIIQSf0XPN1M/al0xljdDCJg1lOWWnezcemQeYFFJ3fQjozBjndO/8qPh7BmM
rdcyNqPjZsrFhk60ePh+HVVASAborg27WBXBBhM/tWSO/8o5ENZpbPeIjHxHDoe9
cp/QzZrwx54t1e5ug2+9ZFwtVpjyy3q50slAXlJVBdmuvZggUa/4tv7KdcejQ3mm
fvRpbzAlgUIVFx+9GaTcyP4zoSHdNeY1Mdo0ihcJZrxeVl6dqQgtkZCIej/vkuWH
v5MF1WJ3pSv5cpLd/XC2GwpvhL6GHFvQqTAHZUSV7SAREb5PBqgYl5vSe+yz/MBM
d//l6jFsYBh/YlQadAvz1/nTX94P7gYQmoYCLavUy5WAAUx+GNVQhccLKJcXLBFE
CAV1qt2ZRAyxbaZeLyCv7FsnqBZe2wuT2/NedXcpozY8IoUMURxfYwRcz84R1X0q
8t9fcqP2l6GhYLXWbN3rEDg5RIYg2dw1CiPdRRpe8RYNFR60AbTSGwWP06L8c1KB
3yOPUGfzTydTRmdyB6v50jQ4tRLDvT+qqR2PIrQzx1rUbYrJZwU0zCqAId9La0nv
SaS6Rg==
-----END CERTIFICATE-----
