Certificate:
    Data:
        Version: 1 (0x0)
        Serial Number: 134 (0x86)
    Signature Algorithm: sha256WithRSAEncryption
        Issuer: C=fr, ST=idf, L=paris, O=vitamui, OU=authorities, CN=ca_intermediate_server
        Validity
            Not Before: Dec  6 12:54:16 2021 GMT
            Not After : Dec  5 12:54:16 2024 GMT
        Subject: C=fr, ST=idf, L=paris, O=vitamui, CN=dev.vitamui.com
        Subject Public Key Info:
            Public Key Algorithm: rsaEncryption
                Public-Key: (4096 bit)
                Modulus:
                    00:be:cf:42:3c:24:6c:f1:77:70:43:8e:61:92:20:
                    9d:c8:c6:45:6d:17:41:a7:26:d4:ee:e8:e1:76:fe:
                    6f:a5:5f:68:f9:75:71:19:d1:c9:5c:fb:06:9c:dd:
                    d5:30:61:0e:f3:49:8a:7d:4a:46:88:3e:cd:28:3b:
                    22:45:2b:ab:eb:3b:de:11:cd:80:f6:09:ed:a6:74:
                    9d:89:3d:cb:cc:2e:11:f8:b6:d6:43:28:1c:96:56:
                    2e:91:6f:3f:d5:52:ac:7d:31:c0:a4:18:96:a3:84:
                    7e:e9:7d:01:44:03:08:c7:46:15:22:68:41:35:67:
                    49:54:43:f3:f2:80:57:fe:5c:90:f6:ab:8b:87:2f:
                    e7:47:fc:04:b2:83:cd:3b:af:0e:30:7c:74:db:c2:
                    f1:81:1b:2e:30:d9:54:ed:d0:8e:45:bf:5f:19:17:
                    f2:72:63:69:e8:f4:ed:85:df:78:bc:d2:c8:2d:1d:
                    b1:4e:5b:da:92:f3:0c:45:e5:cb:7d:83:e4:33:51:
                    f5:0b:c9:df:38:ea:c6:b8:73:7d:8a:14:78:76:01:
                    39:a7:08:62:cf:ef:c0:3e:58:1e:bf:42:c3:ca:92:
                    5b:f1:62:74:79:08:e1:8a:8f:a3:aa:c1:a7:6a:eb:
                    d5:77:3f:f4:cf:6a:30:3b:4f:59:62:5c:62:17:69:
                    60:c0:81:4e:ed:79:45:4f:3b:2e:21:b6:ac:14:c1:
                    7d:3c:aa:7f:48:7e:94:c1:54:52:b2:bb:0f:64:89:
                    4d:d1:74:01:1a:b9:9f:f1:f2:6d:e0:0a:cd:3f:48:
                    ea:f6:4f:30:1e:6b:5d:36:d9:0f:04:4e:2f:a1:8c:
                    62:22:06:74:ce:28:a1:a8:af:ef:b8:8d:a9:a4:d0:
                    58:cd:99:b2:42:7f:6d:eb:5c:87:f1:31:73:da:84:
                    91:1d:d8:50:70:e2:fe:57:b0:ab:ee:98:6c:73:2b:
                    bb:5a:4a:f0:34:57:c6:bf:3a:b8:60:41:62:82:19:
                    9a:ff:cb:68:0d:e6:f0:7b:15:1b:ca:a5:f1:bc:a1:
                    df:d1:8b:0d:a3:5c:a2:f0:c8:7e:2f:e3:cf:98:8d:
                    1c:1f:1e:3c:3f:21:de:18:99:2d:b6:59:03:a4:5a:
                    05:92:7e:7e:78:aa:f0:72:bb:05:cd:47:a5:bb:01:
                    83:17:c3:22:3a:14:40:30:7e:2f:82:8c:d4:ce:f6:
                    2b:b1:76:d3:d8:5c:cd:35:fa:3d:7f:72:30:df:42:
                    4d:be:01:ff:db:ab:ec:ce:c0:0c:8a:02:7a:e9:53:
                    3a:5f:e6:33:5f:81:de:69:2d:aa:c8:6b:ed:59:f9:
                    bc:b5:7a:bd:3f:ac:a9:0f:06:9f:5e:c2:5f:3d:3e:
                    63:af:8f
                Exponent: 65537 (0x10001)
    Signature Algorithm: sha256WithRSAEncryption
         99:43:04:ef:17:8b:27:b9:1f:0c:99:0a:e0:9a:7c:8e:7d:ca:
         ef:dc:13:37:47:66:44:29:4f:73:2f:04:5b:e8:bc:57:0d:60:
         46:26:cb:e5:0c:8c:ce:be:a1:57:93:79:9b:4b:2c:82:84:4f:
         7a:14:b2:1b:d7:a5:a4:d4:bd:86:cd:a8:94:20:34:36:83:7a:
         f0:de:05:4e:e9:79:10:22:de:af:a0:f9:45:66:41:0c:7c:65:
         f2:e4:bd:cd:2f:d4:6d:99:f8:88:a4:21:6c:e5:54:d0:62:09:
         3a:cf:b6:ba:b4:90:04:65:9d:a5:95:02:63:84:37:50:58:bd:
         64:23:8c:57:45:ac:34:0c:43:86:08:be:a6:ac:a8:44:b1:84:
         ce:42:25:c8:6f:d2:f4:64:a2:09:e8:dc:8f:a0:3c:18:f6:39:
         93:61:6c:18:30:80:44:ce:22:7a:41:c6:70:49:2f:27:06:4c:
         3e:dd:ea:5d:b0:36:f4:ce:35:4d:0d:b5:88:c0:b4:db:57:48:
         0b:5c:ce:61:c5:db:34:46:a4:71:ad:7f:5d:9d:b9:a1:97:bf:
         8e:4a:1b:55:fe:66:2a:a1:a1:f3:a4:f7:42:6a:a9:25:03:1d:
         cd:34:e9:d5:fd:25:b0:45:50:b4:8a:27:d2:a2:50:c3:58:75:
         8a:2d:0a:d1:ae:fe:fa:a4:81:eb:60:c7:9b:de:de:7e:b7:c4:
         d8:bb:e1:ec:e6:d4:d0:66:51:50:3f:bb:fb:4c:79:fa:83:d5:
         26:99:40:a0:b8:8a:10:60:f8:9c:55:db:22:c7:f1:7b:c0:73:
         43:0a:74:6a:ce:2e:4a:1f:69:77:fd:b0:f5:3b:4c:50:e3:6f:
         ae:89:fe:7a:82:81:34:fd:64:e0:65:b4:ae:09:75:57:dc:6e:
         55:23:69:4b:b6:54:cc:21:7b:a3:8d:78:af:e1:bb:cf:e6:ad:
         80:7b:32:61:84:93:4d:a5:e3:73:c3:d5:f3:08:2e:af:2a:ac:
         ce:10:81:23:50:bb:b5:ac:f0:8e:4d:e6:4e:6f:d9:80:ca:98:
         66:06:54:6e:a2:5c:2d:5f:9d:e6:bb:03:e8:ca:ed:f5:5e:73:
         cb:43:98:57:19:85:bc:8d:27:97:54:2a:11:65:b8:be:5a:1b:
         e0:f8:da:86:2d:52:87:89:e8:65:ec:c2:00:9c:d0:fc:a1:38:
         7c:c2:ba:96:01:e0:52:5d:88:1e:7c:f7:60:74:a4:49:75:f1:
         09:fb:95:04:9e:7e:b7:bb:36:32:3d:aa:c7:2a:c6:75:71:7b:
         62:74:4d:d4:a2:06:a7:6a:b9:34:dc:4f:11:ce:81:01:95:77:
         4a:cf:6a:18:29:7b:6b:e1
-----BEGIN CERTIFICATE-----
MIIFQDCCAygCAgCGMA0GCSqGSIb3DQEBCwUAMHQxCzAJBgNVBAYTAmZyMQwwCgYD
VQQIDANpZGYxDjAMBgNVBAcMBXBhcmlzMRAwDgYDVQQKDAd2aXRhbXVpMRQwEgYD
VQQLDAthdXRob3JpdGllczEfMB0GA1UEAwwWY2FfaW50ZXJtZWRpYXRlX3NlcnZl
cjAeFw0yMTEyMDYxMjU0MTZaFw0yNDEyMDUxMjU0MTZaMFcxCzAJBgNVBAYTAmZy
MQwwCgYDVQQIDANpZGYxDjAMBgNVBAcMBXBhcmlzMRAwDgYDVQQKDAd2aXRhbXVp
MRgwFgYDVQQDDA9kZXYudml0YW11aS5jb20wggIiMA0GCSqGSIb3DQEBAQUAA4IC
DwAwggIKAoICAQC+z0I8JGzxd3BDjmGSIJ3IxkVtF0GnJtTu6OF2/m+lX2j5dXEZ
0clc+wac3dUwYQ7zSYp9SkaIPs0oOyJFK6vrO94RzYD2Ce2mdJ2JPcvMLhH4ttZD
KByWVi6Rbz/VUqx9McCkGJajhH7pfQFEAwjHRhUiaEE1Z0lUQ/PygFf+XJD2q4uH
L+dH/ASyg807rw4wfHTbwvGBGy4w2VTt0I5Fv18ZF/JyY2no9O2F33i80sgtHbFO
W9qS8wxF5ct9g+QzUfULyd846sa4c32KFHh2ATmnCGLP78A+WB6/QsPKklvxYnR5
COGKj6Oqwadq69V3P/TPajA7T1liXGIXaWDAgU7teUVPOy4htqwUwX08qn9IfpTB
VFKyuw9kiU3RdAEauZ/x8m3gCs0/SOr2TzAea1022Q8ETi+hjGIiBnTOKKGor++4
jamk0FjNmbJCf23rXIfxMXPahJEd2FBw4v5XsKvumGxzK7taSvA0V8a/OrhgQWKC
GZr/y2gN5vB7FRvKpfG8od/Riw2jXKLwyH4v48+YjRwfHjw/Id4YmS22WQOkWgWS
fn54qvByuwXNR6W7AYMXwyI6FEAwfi+CjNTO9iuxdtPYXM01+j1/cjDfQk2+Af/b
q+zOwAyKAnrpUzpf5jNfgd5pLarIa+1Z+by1er0/rKkPBp9ewl89PmOvjwIDAQAB
MA0GCSqGSIb3DQEBCwUAA4ICAQCZQwTvF4snuR8MmQrgmnyOfcrv3BM3R2ZEKU9z
LwRb6LxXDWBGJsvlDIzOvqFXk3mbSyyChE96FLIb16Wk1L2GzaiUIDQ2g3rw3gVO
6XkQIt6voPlFZkEMfGXy5L3NL9RtmfiIpCFs5VTQYgk6z7a6tJAEZZ2llQJjhDdQ
WL1kI4xXRaw0DEOGCL6mrKhEsYTOQiXIb9L0ZKIJ6NyPoDwY9jmTYWwYMIBEziJ6
QcZwSS8nBkw+3epdsDb0zjVNDbWIwLTbV0gLXM5hxds0RqRxrX9dnbmhl7+OShtV
/mYqoaHzpPdCaqklAx3NNOnV/SWwRVC0iifSolDDWHWKLQrRrv76pIHrYMeb3t5+
t8TYu+Hs5tTQZlFQP7v7THn6g9UmmUCguIoQYPicVdsix/F7wHNDCnRqzi5KH2l3
/bD1O0xQ42+uif56goE0/WTgZbSuCXVX3G5VI2lLtlTMIXujjXiv4bvP5q2AezJh
hJNNpeNzw9XzCC6vKqzOEIEjULu1rPCOTeZOb9mAyphmBlRuolwtX53muwPoyu31
XnPLQ5hXGYW8jSeXVCoRZbi+Whvg+NqGLVKHiehl7MIAnND8oTh8wrqWAeBSXYge
fPdgdKRJdfEJ+5UEnn63uzYyParHKsZ1cXtidE3Uoganark03E8RzoEBlXdKz2oY
KXtr4Q==
-----END CERTIFICATE-----
