Certificate:
    Data:
        Version: 1 (0x0)
        Serial Number: 43 (0x2b)
        Signature Algorithm: sha256WithRSAEncryption
        Issuer: C=fr, ST=idf, L=paris, O=vitamui, OU=authorities, CN=ca_intermediate_server
        Validity
            Not Before: Nov 23 16:59:23 2022 GMT
            Not After : Nov 22 16:59:23 2025 GMT
        Subject: C=fr, ST=idf, L=paris, O=vitamui, CN=dev.vitamui.com
        Subject Public Key Info:
            Public Key Algorithm: rsaEncryption
                RSA Public-Key: (4096 bit)
                Modulus:
                    00:e0:25:bd:35:92:33:24:fc:23:c4:5d:a9:36:82:
                    e6:dc:de:67:81:a0:42:ea:cf:c3:88:4d:74:22:68:
                    2d:66:67:c3:80:00:7e:dd:aa:8b:6d:7e:b1:fb:1e:
                    40:e9:d7:b7:ce:a8:89:15:d2:a2:e4:b1:82:e4:08:
                    ed:4f:03:73:2c:db:25:dc:01:53:10:f0:19:65:3e:
                    59:e0:d2:7b:0b:69:59:ca:2b:9f:f7:14:ad:63:8d:
                    a9:42:39:02:57:72:44:6b:99:1b:55:d4:b6:65:a3:
                    a5:eb:b1:2b:c7:c5:32:b4:33:13:3b:86:48:0e:89:
                    53:40:f6:c9:d5:08:68:46:53:2e:f7:5b:91:25:e6:
                    e6:8e:43:1c:c1:0b:d7:80:c1:d2:31:50:97:9e:e5:
                    6d:f8:56:0a:b4:c0:53:53:5c:ab:03:42:0f:97:cf:
                    1f:9e:e5:d0:50:69:0d:11:e0:35:77:43:05:9a:40:
                    ad:9f:9c:63:1a:a1:42:c5:0a:49:38:cd:15:85:62:
                    ec:07:78:1c:ce:7d:39:6f:a5:6c:c8:76:56:1f:ad:
                    6e:fc:bf:8f:7b:3f:30:61:d1:e4:75:68:4a:34:38:
                    36:0b:6d:27:08:7a:43:b0:46:90:86:33:f0:7f:01:
                    be:57:10:61:c7:5e:23:a7:83:95:c5:e3:1f:20:c0:
                    ba:e7:28:6d:bc:e9:7d:0f:ae:53:95:1a:ea:59:97:
                    c8:0b:da:33:7d:1e:d7:03:64:aa:5a:75:71:2c:77:
                    4c:4c:c3:a0:16:49:28:4b:46:db:6d:b7:2e:e2:28:
                    f6:5d:12:a0:a9:d9:6e:38:c4:d4:33:16:5e:fa:92:
                    b8:8c:69:43:b1:8e:3a:5b:82:ac:1c:a2:8f:31:17:
                    69:28:9b:95:4e:08:6f:89:60:de:49:a7:13:a4:c1:
                    cc:3d:4a:0c:ea:4d:25:c7:03:fb:ea:2b:0f:93:5d:
                    11:8c:a3:87:6a:41:bb:f7:54:19:1d:1a:88:6d:97:
                    fe:f2:bd:e1:26:c6:55:d8:6c:a5:07:9e:e9:23:47:
                    cf:30:5a:f6:a3:2f:6f:dc:c6:c3:10:4d:4b:6f:6f:
                    22:05:bd:d7:ae:b1:eb:51:dd:9b:99:10:ac:b1:0c:
                    b7:96:a3:c3:a0:0d:10:21:3b:3f:dc:b7:39:db:2f:
                    bf:43:83:07:14:46:fe:21:77:0b:c0:a7:7c:73:e9:
                    0a:4a:d6:51:bd:60:ce:75:23:5e:d9:d9:1b:41:56:
                    46:11:8f:92:82:13:0a:98:65:65:e5:ed:6d:cd:68:
                    b2:b9:7b:be:27:20:0d:88:b5:1a:eb:b3:de:c8:10:
                    d2:61:27:b6:f4:40:c1:67:ef:23:7f:6e:32:56:d1:
                    02:2d:4d
                Exponent: 65537 (0x10001)
    Signature Algorithm: sha256WithRSAEncryption
         21:3b:87:43:e2:67:5d:1f:d6:2f:06:f0:46:54:e5:0b:e2:f7:
         34:dc:bc:90:90:83:1e:1a:26:7f:70:7a:9b:4f:c8:95:20:18:
         2a:66:5f:fd:b6:07:b5:4e:1c:ca:28:d2:ad:c4:9b:1b:d8:33:
         ed:e4:ab:b3:a8:f7:9a:81:3c:d7:20:77:b3:99:62:dd:ea:ea:
         04:1a:67:13:52:ad:f7:27:3b:0e:17:23:e0:57:95:c2:e4:4d:
         16:ee:1e:73:79:2e:b9:1b:93:4f:4d:1e:db:ea:bc:fd:30:02:
         62:d1:b8:4c:ec:b8:f0:4a:ff:55:7f:f0:d4:91:f2:40:27:be:
         6e:15:d9:47:5a:30:fb:73:38:07:ed:2a:ba:18:cf:38:31:f3:
         ca:cd:9f:03:b0:bc:04:1d:2e:89:f1:d3:a2:c1:a5:b1:11:60:
         4f:e1:a5:18:11:12:11:e0:e1:41:16:a4:48:c6:f6:f9:bc:d2:
         58:57:cc:4a:b2:8f:f2:24:c9:74:fc:7a:f8:b6:7d:d7:8d:1d:
         68:c8:74:af:90:86:ba:23:65:67:14:d2:f8:b1:5d:8c:07:d4:
         fb:a1:49:6b:9a:31:25:ec:6a:d3:7b:b4:d1:98:81:98:01:e2:
         68:3f:c3:f3:98:cb:19:58:9a:dc:c5:52:7e:99:8a:2a:c1:a8:
         3b:a9:73:67:30:8f:2a:83:0f:ef:e9:40:9f:41:4b:d7:b9:05:
         d9:39:c3:1a:94:5a:e6:75:e1:8d:e0:31:55:43:68:d5:88:14:
         a2:a2:f0:20:f0:01:fa:05:aa:9c:fa:20:3a:f8:b2:27:07:74:
         50:47:70:b7:5f:fa:6a:d7:54:f6:68:74:88:56:18:83:70:21:
         90:0a:9b:e2:f6:72:ca:c1:a3:74:ad:c3:7b:3e:e0:b3:c6:c6:
         ea:ff:e8:b8:38:f4:21:52:5f:04:f5:6d:c9:fc:e3:34:84:3d:
         4c:b5:e2:42:d8:8b:35:a1:a4:0b:49:62:9c:4f:4a:41:fb:85:
         ae:13:05:35:48:7e:2b:c6:84:35:8b:a5:ad:52:0f:64:ca:b7:
         05:c1:51:cc:be:3a:72:c7:82:6b:7e:5d:ee:32:3b:2d:98:3f:
         28:e7:f0:04:35:de:6a:6f:9a:f5:c6:ac:31:69:3e:13:62:fd:
         16:c5:02:a6:bf:a9:4f:cc:03:2e:36:9e:fe:c8:26:66:50:42:
         2f:2c:70:a2:e4:0c:f5:16:b6:b8:44:55:5d:36:7a:08:a4:64:
         e5:9c:e0:e2:5e:db:ac:95:46:ec:81:d7:c8:89:b0:ef:87:ef:
         0a:15:75:7f:7e:c4:82:6e:27:85:12:89:d5:c2:41:73:5c:ad:
         69:a2:e1:59:be:2c:ef:ef
-----BEGIN CERTIFICATE-----
MIIFPzCCAycCASswDQYJKoZIhvcNAQELBQAwdDELMAkGA1UEBhMCZnIxDDAKBgNV
BAgMA2lkZjEOMAwGA1UEBwwFcGFyaXMxEDAOBgNVBAoMB3ZpdGFtdWkxFDASBgNV
BAsMC2F1dGhvcml0aWVzMR8wHQYDVQQDDBZjYV9pbnRlcm1lZGlhdGVfc2VydmVy
MB4XDTIyMTEyMzE2NTkyM1oXDTI1MTEyMjE2NTkyM1owVzELMAkGA1UEBhMCZnIx
DDAKBgNVBAgMA2lkZjEOMAwGA1UEBwwFcGFyaXMxEDAOBgNVBAoMB3ZpdGFtdWkx
GDAWBgNVBAMMD2Rldi52aXRhbXVpLmNvbTCCAiIwDQYJKoZIhvcNAQEBBQADggIP
ADCCAgoCggIBAOAlvTWSMyT8I8RdqTaC5tzeZ4GgQurPw4hNdCJoLWZnw4AAft2q
i21+sfseQOnXt86oiRXSouSxguQI7U8DcyzbJdwBUxDwGWU+WeDSewtpWcorn/cU
rWONqUI5AldyRGuZG1XUtmWjpeuxK8fFMrQzEzuGSA6JU0D2ydUIaEZTLvdbkSXm
5o5DHMEL14DB0jFQl57lbfhWCrTAU1NcqwNCD5fPH57l0FBpDRHgNXdDBZpArZ+c
YxqhQsUKSTjNFYVi7Ad4HM59OW+lbMh2Vh+tbvy/j3s/MGHR5HVoSjQ4NgttJwh6
Q7BGkIYz8H8BvlcQYcdeI6eDlcXjHyDAuucobbzpfQ+uU5Ua6lmXyAvaM30e1wNk
qlp1cSx3TEzDoBZJKEtG2223LuIo9l0SoKnZbjjE1DMWXvqSuIxpQ7GOOluCrByi
jzEXaSiblU4Ib4lg3kmnE6TBzD1KDOpNJccD++orD5NdEYyjh2pBu/dUGR0aiG2X
/vK94SbGVdhspQee6SNHzzBa9qMvb9zGwxBNS29vIgW9166x61Hdm5kQrLEMt5aj
w6ANECE7P9y3Odsvv0ODBxRG/iF3C8CnfHPpCkrWUb1gznUjXtnZG0FWRhGPkoIT
CphlZeXtbc1osrl7vicgDYi1Guuz3sgQ0mEntvRAwWfvI39uMlbRAi1NAgMBAAEw
DQYJKoZIhvcNAQELBQADggIBACE7h0PiZ10f1i8G8EZU5Qvi9zTcvJCQgx4aJn9w
eptPyJUgGCpmX/22B7VOHMoo0q3EmxvYM+3kq7Oo95qBPNcgd7OZYt3q6gQaZxNS
rfcnOw4XI+BXlcLkTRbuHnN5Lrkbk09NHtvqvP0wAmLRuEzsuPBK/1V/8NSR8kAn
vm4V2UdaMPtzOAftKroYzzgx88rNnwOwvAQdLonx06LBpbERYE/hpRgREhHg4UEW
pEjG9vm80lhXzEqyj/IkyXT8evi2fdeNHWjIdK+QhrojZWcU0vixXYwH1PuhSWua
MSXsatN7tNGYgZgB4mg/w/OYyxlYmtzFUn6ZiirBqDupc2cwjyqDD+/pQJ9BS9e5
Bdk5wxqUWuZ14Y3gMVVDaNWIFKKi8CDwAfoFqpz6IDr4sicHdFBHcLdf+mrXVPZo
dIhWGINwIZAKm+L2csrBo3Stw3s+4LPGxur/6Lg49CFSXwT1bcn84zSEPUy14kLY
izWhpAtJYpxPSkH7ha4TBTVIfivGhDWLpa1SD2TKtwXBUcy+OnLHgmt+Xe4yOy2Y
Pyjn8AQ13mpvmvXGrDFpPhNi/RbFAqa/qU/MAy42nv7IJmZQQi8scKLkDPUWtrhE
VV02egikZOWc4OJe26yVRuyB18iJsO+H7woVdX9+xIJuJ4USidXCQXNcrWmi4Vm+
LO/v
-----END CERTIFICATE-----
