Certificate:
    Data:
        Version: 1 (0x0)
        Serial Number: 37 (0x25)
        Signature Algorithm: sha256WithRSAEncryption
        Issuer: C=fr, ST=idf, L=paris, O=vitamui, OU=authorities, CN=ca_intermediate_server
        Validity
            Not Before: Nov 23 16:59:12 2022 GMT
            Not After : Nov 22 16:59:12 2025 GMT
        Subject: C=fr, ST=idf, L=paris, O=vitamui, CN=dev.vitamui.com
        Subject Public Key Info:
            Public Key Algorithm: rsaEncryption
                RSA Public-Key: (4096 bit)
                Modulus:
                    00:dc:65:1f:a9:1b:50:02:de:6c:01:1f:76:0e:d5:
                    11:ad:cc:31:b9:5f:9c:ad:c7:98:78:ce:d5:bf:91:
                    78:c8:15:b4:70:10:4e:f5:b4:c1:e3:1c:5a:e8:48:
                    87:ec:24:96:af:3d:d1:f7:06:09:c9:ee:7f:07:ae:
                    e5:15:d5:df:15:af:89:c2:ee:89:b6:62:37:9f:00:
                    fb:c7:61:8f:ee:9e:d0:1a:06:bf:1f:2c:d8:91:b0:
                    c8:77:fb:06:33:47:0a:e1:d8:b0:01:11:75:20:b7:
                    02:fb:5f:be:97:b8:79:b2:fb:76:b5:a7:1c:4e:be:
                    3d:16:b1:4d:6d:dc:88:7f:af:7e:b7:9a:af:87:cd:
                    db:75:22:1c:56:37:47:4b:42:a2:4b:de:f7:e4:87:
                    ba:de:24:b3:3b:14:04:3d:7e:01:75:b7:aa:bd:d0:
                    4b:46:17:75:d8:54:6d:93:98:14:4f:a8:86:09:a9:
                    26:57:14:00:3c:32:ff:eb:47:37:09:68:4a:45:9b:
                    93:a5:7a:47:18:46:ab:8e:24:1f:6f:f2:95:24:e4:
                    89:3a:c2:2f:a9:67:ae:e3:06:d7:d3:4c:a7:08:b7:
                    e7:98:de:c3:47:07:e7:79:f3:21:e9:7a:c1:d4:0b:
                    0b:05:eb:f7:90:26:64:e4:4b:ad:31:1b:8f:c4:40:
                    81:5c:30:b0:98:ab:d4:8e:ed:02:66:53:0f:fb:ac:
                    b4:ae:14:c0:07:74:1f:fc:1c:ba:6d:b3:65:03:f8:
                    29:ca:fe:ac:6b:8a:9a:ce:53:a4:af:5a:ac:05:a4:
                    8a:0b:0e:44:e4:48:cf:7f:9a:c3:4c:8a:f9:7c:7c:
                    e9:10:6a:56:94:39:51:72:fb:09:bd:53:10:f7:7c:
                    e1:94:9e:48:14:b9:39:14:d6:8f:d1:b2:6c:c4:26:
                    62:2f:05:c2:5e:fd:0b:a9:52:02:f1:b8:12:1d:42:
                    2b:62:d6:18:14:ef:2f:b6:bb:f8:40:5c:48:f2:d9:
                    49:a9:5f:ec:5c:c8:41:25:32:c8:b9:b8:e1:4b:ed:
                    ab:d1:33:47:c2:04:1b:49:7a:aa:42:9e:5c:c4:35:
                    48:8e:6e:fb:9b:8c:24:61:dd:4b:8d:7b:2e:4f:db:
                    d5:95:18:93:af:74:33:1a:b5:d6:55:31:e9:2a:7d:
                    92:ca:44:fc:8c:71:4b:c6:e4:76:7c:ba:15:13:ed:
                    00:5f:61:e0:bc:4f:09:ba:74:56:1e:ff:05:45:13:
                    e7:e7:e6:17:b9:2f:cd:7b:e7:8b:62:a7:c7:0d:9c:
                    c1:16:05:d4:42:66:55:72:ce:47:61:57:4c:bd:8b:
                    4d:44:af:2f:c2:2e:68:ab:de:a7:34:53:73:cd:59:
                    9f:a0:5f
                Exponent: 65537 (0x10001)
    Signature Algorithm: sha256WithRSAEncryption
         45:86:f1:2c:7d:0a:c9:2f:f2:b8:96:d2:8b:99:f0:9b:1c:b0:
         4b:db:da:0c:c0:3c:0c:6c:ae:4a:1a:07:53:39:cf:80:46:27:
         ab:66:4b:66:e0:1c:2d:26:3f:a2:bb:7c:0d:bf:3f:bb:37:c9:
         80:9c:07:ff:53:66:b9:b4:1a:61:b5:a6:5b:d7:ac:a4:35:20:
         44:20:d9:55:fa:7e:80:7c:f2:68:cd:50:6c:47:27:15:40:de:
         5f:85:b9:0a:fd:b6:80:b0:50:55:44:c4:c5:e9:21:46:70:8f:
         55:6c:a4:4f:e0:46:af:61:80:9a:32:96:0b:aa:07:df:3d:a1:
         54:c4:ce:a6:68:0a:d0:04:ae:bf:99:c3:36:fa:ff:4c:fe:6c:
         30:e7:02:a7:cc:01:0e:86:56:1f:55:50:7f:db:1e:ae:b9:56:
         d1:9b:8e:e3:bf:24:88:3f:79:ea:69:08:0c:db:15:b5:0f:0e:
         ea:d3:ed:96:ea:fd:61:c6:3b:27:71:aa:36:00:8c:3e:eb:b7:
         ab:90:f2:d0:d4:a9:b5:e0:95:2c:72:0c:bd:ae:8c:b5:81:fc:
         13:0f:9a:a2:cc:0c:b1:63:dc:9a:f4:20:7f:fd:91:92:4e:87:
         c7:a3:27:91:3c:c4:00:ce:b3:c0:7f:34:64:64:0a:35:5d:4a:
         3f:55:eb:89:e8:8d:92:63:2d:28:05:f9:65:5a:95:26:18:86:
         b3:b1:74:6b:99:1f:21:c7:a9:16:13:af:53:59:cb:6b:52:87:
         1e:8e:7c:f4:4e:30:54:c0:02:c1:e0:53:4b:af:e1:52:fb:27:
         e6:d4:7f:08:9a:de:8b:4d:0b:7e:14:89:7b:fd:c3:6c:39:a0:
         db:99:49:fe:78:77:76:c7:9e:3f:ae:69:e3:03:e7:a6:09:c8:
         91:77:72:7c:98:0d:cf:59:33:46:2a:d1:89:85:f9:ce:7b:67:
         d8:20:87:ee:33:15:9e:04:32:34:e7:dc:60:81:97:75:0e:bd:
         25:9e:08:a4:0e:03:b4:11:10:6b:17:7f:ef:d7:d2:97:64:44:
         57:cd:a4:86:69:2f:7e:eb:88:23:91:68:d1:e3:6e:92:a5:1d:
         76:0a:b7:94:39:80:f5:6f:2e:5a:ed:f6:58:87:61:10:46:09:
         b2:e5:b3:8c:ac:a5:31:29:d2:d0:ed:3b:80:97:83:59:c8:2e:
         05:64:5f:2d:af:72:51:15:7f:34:73:ed:37:60:b8:9c:3d:96:
         0b:2a:b2:54:2b:2d:64:30:d6:0e:e4:32:c5:4d:02:ef:cc:48:
         0f:bb:e8:36:57:e0:6e:48:d5:2a:37:7f:a2:45:5b:48:bc:ee:
         0d:c9:e2:e4:7a:4b:fc:ff
-----BEGIN CERTIFICATE-----
MIIFPzCCAycCASUwDQYJKoZIhvcNAQELBQAwdDELMAkGA1UEBhMCZnIxDDAKBgNV
BAgMA2lkZjEOMAwGA1UEBwwFcGFyaXMxEDAOBgNVBAoMB3ZpdGFtdWkxFDASBgNV
BAsMC2F1dGhvcml0aWVzMR8wHQYDVQQDDBZjYV9pbnRlcm1lZGlhdGVfc2VydmVy
MB4XDTIyMTEyMzE2NTkxMloXDTI1MTEyMjE2NTkxMlowVzELMAkGA1UEBhMCZnIx
DDAKBgNVBAgMA2lkZjEOMAwGA1UEBwwFcGFyaXMxEDAOBgNVBAoMB3ZpdGFtdWkx
GDAWBgNVBAMMD2Rldi52aXRhbXVpLmNvbTCCAiIwDQYJKoZIhvcNAQEBBQADggIP
ADCCAgoCggIBANxlH6kbUALebAEfdg7VEa3MMblfnK3HmHjO1b+ReMgVtHAQTvW0
weMcWuhIh+wklq890fcGCcnufweu5RXV3xWvicLuibZiN58A+8dhj+6e0BoGvx8s
2JGwyHf7BjNHCuHYsAERdSC3Avtfvpe4ebL7drWnHE6+PRaxTW3ciH+vfrear4fN
23UiHFY3R0tCokve9+SHut4kszsUBD1+AXW3qr3QS0YXddhUbZOYFE+ohgmpJlcU
ADwy/+tHNwloSkWbk6V6RxhGq44kH2/ylSTkiTrCL6lnruMG19NMpwi355jew0cH
53nzIel6wdQLCwXr95AmZORLrTEbj8RAgVwwsJir1I7tAmZTD/ustK4UwAd0H/wc
um2zZQP4Kcr+rGuKms5TpK9arAWkigsORORIz3+aw0yK+Xx86RBqVpQ5UXL7Cb1T
EPd84ZSeSBS5ORTWj9GybMQmYi8Fwl79C6lSAvG4Eh1CK2LWGBTvL7a7+EBcSPLZ
Salf7FzIQSUyyLm44Uvtq9EzR8IEG0l6qkKeXMQ1SI5u+5uMJGHdS417Lk/b1ZUY
k690Mxq11lUx6Sp9kspE/IxxS8bkdny6FRPtAF9h4LxPCbp0Vh7/BUUT5+fmF7kv
zXvni2Knxw2cwRYF1EJmVXLOR2FXTL2LTUSvL8IuaKvepzRTc81Zn6BfAgMBAAEw
DQYJKoZIhvcNAQELBQADggIBAEWG8Sx9Cskv8riW0ouZ8JscsEvb2gzAPAxsrkoa
B1M5z4BGJ6tmS2bgHC0mP6K7fA2/P7s3yYCcB/9TZrm0GmG1plvXrKQ1IEQg2VX6
foB88mjNUGxHJxVA3l+FuQr9toCwUFVExMXpIUZwj1VspE/gRq9hgJoylguqB989
oVTEzqZoCtAErr+Zwzb6/0z+bDDnAqfMAQ6GVh9VUH/bHq65VtGbjuO/JIg/eepp
CAzbFbUPDurT7Zbq/WHGOydxqjYAjD7rt6uQ8tDUqbXglSxyDL2ujLWB/BMPmqLM
DLFj3Jr0IH/9kZJOh8ejJ5E8xADOs8B/NGRkCjVdSj9V64nojZJjLSgF+WValSYY
hrOxdGuZHyHHqRYTr1NZy2tShx6OfPROMFTAAsHgU0uv4VL7J+bUfwia3otNC34U
iXv9w2w5oNuZSf54d3bHnj+uaeMD56YJyJF3cnyYDc9ZM0Yq0YmF+c57Z9ggh+4z
FZ4EMjTn3GCBl3UOvSWeCKQOA7QREGsXf+/X0pdkRFfNpIZpL37riCORaNHjbpKl
HXYKt5Q5gPVvLlrt9liHYRBGCbLls4yspTEp0tDtO4CXg1nILgVkXy2vclEVfzRz
7TdguJw9lgsqslQrLWQw1g7kMsVNAu/MSA+76DZX4G5I1So3f6JFW0i87g3J4uR6
S/z/
-----END CERTIFICATE-----
