Certificate:
    Data:
        Version: 1 (0x0)
        Serial Number: 56 (0x38)
        Signature Algorithm: sha256WithRSAEncryption
        Issuer: C=fr, ST=idf, L=paris, O=vitamui, OU=authorities, CN=ca_intermediate_server
        Validity
            Not Before: Nov 23 16:59:49 2022 GMT
            Not After : Nov 22 16:59:49 2025 GMT
        Subject: C=fr, ST=idf, L=paris, O=vitamui, CN=dev.vitamui.com
        Subject Public Key Info:
            Public Key Algorithm: rsaEncryption
                RSA Public-Key: (4096 bit)
                Modulus:
                    00:b8:2c:12:0c:b0:0d:f8:b7:a7:13:de:dc:04:25:
                    f9:ef:30:cf:be:e7:55:01:76:1b:80:ef:97:10:7a:
                    3b:57:89:74:09:43:c0:42:b6:f5:c2:88:c4:8f:2f:
                    b8:5b:0c:73:b5:4a:70:da:88:6f:ef:82:d8:26:26:
                    a2:6d:be:9e:fa:86:16:86:5b:99:a6:8a:4f:84:5e:
                    f6:c5:85:47:0a:26:ee:1a:e4:51:83:d1:c5:bb:6f:
                    3c:5b:f2:c1:ff:b7:e7:7b:21:62:4a:dc:0e:60:98:
                    8a:1d:70:14:68:92:68:7d:a5:ff:65:b2:0b:c8:2c:
                    67:9e:2a:7b:3c:5a:26:d1:03:bd:8f:28:7c:7b:15:
                    e5:6d:6b:a4:df:68:65:6f:8a:b4:95:16:43:30:34:
                    f0:86:a7:2a:b8:8e:d4:df:2e:ad:15:a8:23:8f:06:
                    6b:2f:5b:31:8b:66:d0:9c:40:3c:43:fe:1b:db:46:
                    3a:4f:e3:24:b8:c0:fb:d0:38:c9:56:e2:eb:bf:9d:
                    52:9d:d8:85:2f:ec:43:a4:29:ea:60:d9:d2:28:1e:
                    63:11:f8:e5:02:09:c2:e9:e3:99:58:65:af:bc:3a:
                    a7:78:8b:c7:c9:b1:50:ed:58:1f:9f:5d:1c:6c:23:
                    da:b8:1e:2f:82:19:90:3e:63:f3:4e:9e:0b:9f:3b:
                    ec:22:3b:3c:b4:c5:7e:5a:7d:c1:03:28:23:89:1e:
                    44:a8:70:55:71:20:d4:7f:5f:0d:73:16:30:34:7e:
                    3c:1b:e0:21:13:0a:2a:3a:31:ff:1d:f5:49:90:54:
                    ca:12:16:61:03:a6:14:27:12:31:15:30:c4:29:d3:
                    10:bd:72:a7:4d:03:72:97:52:3d:1a:26:c0:c8:e9:
                    f6:47:44:e6:10:4d:09:0c:81:ea:f0:e1:0f:4d:b2:
                    30:1e:ec:2a:fc:fe:ef:e5:88:4d:17:e7:5b:24:3e:
                    ee:24:6c:33:f8:23:95:e5:42:9b:38:b9:7b:f3:ed:
                    ab:77:c7:7f:b9:c9:14:0c:81:d6:45:17:e4:6c:f1:
                    11:ec:4f:c0:8b:49:6d:e0:c8:8a:33:eb:36:cd:6e:
                    ae:12:16:52:96:9f:c3:a1:e9:f4:03:47:e9:dc:75:
                    4c:fb:c6:71:fb:1b:ee:5a:69:46:d4:65:88:8c:78:
                    24:c9:7e:3f:27:97:88:44:a5:5f:03:d2:15:6b:71:
                    39:a4:c0:1a:55:b2:d3:90:bc:a1:91:2f:af:70:94:
                    4a:f4:83:d3:d7:c5:e6:1b:51:f3:4b:2f:eb:b2:d7:
                    47:4c:65:12:54:dc:4f:a6:b9:c3:b6:f7:4a:29:8b:
                    f7:19:5b:c4:3f:a2:02:da:82:97:ec:9a:3d:33:f6:
                    91:50:67
                Exponent: 65537 (0x10001)
    Signature Algorithm: sha256WithRSAEncryption
         3e:fa:dc:c3:5e:77:80:07:76:1a:c9:1a:36:71:9d:84:5c:70:
         df:27:8d:e0:f0:03:dc:23:2e:66:5e:77:b3:26:16:38:a8:66:
         36:f3:8c:c2:9d:5c:65:e7:36:f2:d5:e1:b2:21:6e:47:88:48:
         7f:5a:83:4f:6a:1a:85:8c:42:a2:2d:27:26:9f:23:6e:f6:9a:
         1b:37:87:3f:c8:f1:c9:7f:4d:21:62:fe:72:41:4a:be:cb:46:
         39:96:4e:26:02:74:9c:27:94:d5:b5:12:84:dd:86:17:aa:a6:
         0a:be:ee:ec:07:f0:b9:c1:46:0e:8b:50:1e:74:15:b4:b4:e0:
         b5:95:49:41:30:e9:62:2d:7a:71:0b:4b:8b:30:93:0c:41:bf:
         dd:7c:a4:1e:75:b9:59:e1:16:d4:04:ec:e1:7e:bd:a8:b9:aa:
         14:39:36:f1:9e:4d:4a:a5:cb:6a:b0:32:80:95:9b:04:d0:14:
         d3:9e:1a:dc:ff:83:98:fc:00:04:91:57:9a:3d:8b:e8:6d:c0:
         d0:49:28:68:21:5f:9f:db:fb:9e:b3:56:20:eb:54:57:5b:22:
         86:47:62:ef:fc:7a:3c:9f:2c:9e:f4:16:6f:2c:0c:38:0c:81:
         15:92:03:3b:dc:ae:dd:83:5b:ec:b9:a5:58:97:29:b0:cc:39:
         de:f6:65:00:4d:05:3f:1a:9e:d1:cf:2b:6a:57:0d:ea:22:48:
         bc:1c:ca:22:41:41:99:27:8b:9f:37:3e:9c:8d:6c:e3:ad:ae:
         85:25:16:8f:97:fc:7f:ec:33:ec:a5:46:07:bb:45:d8:c4:2c:
         c9:e2:a6:81:a2:1b:3f:73:cc:40:f8:31:5b:54:a1:eb:e8:c4:
         40:ef:f8:26:66:97:34:a8:0f:14:64:7c:d7:e6:ef:cb:75:1e:
         7b:d9:31:52:99:1e:27:d4:f1:9c:d2:4e:4f:da:d2:61:22:ee:
         85:12:90:33:e5:9f:f9:d0:45:c8:6a:bf:5a:2f:43:d1:e7:96:
         e7:ab:c6:ff:87:ee:27:85:d3:dc:25:bf:1f:8f:29:7b:c1:7e:
         ce:3a:a7:9c:1d:55:df:4d:93:52:82:36:d7:d4:e1:66:81:6b:
         90:5e:b1:4f:e6:98:61:4c:e8:45:db:cc:1a:ce:9d:e8:d6:91:
         6e:c4:05:18:c6:6e:e5:42:6c:79:4d:32:8d:ec:32:eb:72:13:
         8c:c7:d6:d2:a8:84:52:1a:a6:cf:2d:ab:d1:07:eb:6f:c4:e4:
         08:3f:20:ff:6e:a9:10:fe:20:bb:96:a4:b7:93:29:d1:ad:cc:
         f4:81:b0:ed:54:57:c5:92:79:f8:f3:92:41:c1:e2:31:97:df:
         68:76:07:39:af:7a:00:bf
-----BEGIN CERTIFICATE-----
MIIFPzCCAycCATgwDQYJKoZIhvcNAQELBQAwdDELMAkGA1UEBhMCZnIxDDAKBgNV
BAgMA2lkZjEOMAwGA1UEBwwFcGFyaXMxEDAOBgNVBAoMB3ZpdGFtdWkxFDASBgNV
BAsMC2F1dGhvcml0aWVzMR8wHQYDVQQDDBZjYV9pbnRlcm1lZGlhdGVfc2VydmVy
MB4XDTIyMTEyMzE2NTk0OVoXDTI1MTEyMjE2NTk0OVowVzELMAkGA1UEBhMCZnIx
DDAKBgNVBAgMA2lkZjEOMAwGA1UEBwwFcGFyaXMxEDAOBgNVBAoMB3ZpdGFtdWkx
GDAWBgNVBAMMD2Rldi52aXRhbXVpLmNvbTCCAiIwDQYJKoZIhvcNAQEBBQADggIP
ADCCAgoCggIBALgsEgywDfi3pxPe3AQl+e8wz77nVQF2G4DvlxB6O1eJdAlDwEK2
9cKIxI8vuFsMc7VKcNqIb++C2CYmom2+nvqGFoZbmaaKT4Re9sWFRwom7hrkUYPR
xbtvPFvywf+353shYkrcDmCYih1wFGiSaH2l/2WyC8gsZ54qezxaJtEDvY8ofHsV
5W1rpN9oZW+KtJUWQzA08IanKriO1N8urRWoI48Gay9bMYtm0JxAPEP+G9tGOk/j
JLjA+9A4yVbi67+dUp3YhS/sQ6Qp6mDZ0igeYxH45QIJwunjmVhlr7w6p3iLx8mx
UO1YH59dHGwj2rgeL4IZkD5j806eC5877CI7PLTFflp9wQMoI4keRKhwVXEg1H9f
DXMWMDR+PBvgIRMKKjox/x31SZBUyhIWYQOmFCcSMRUwxCnTEL1yp00DcpdSPRom
wMjp9kdE5hBNCQyB6vDhD02yMB7sKvz+7+WITRfnWyQ+7iRsM/gjleVCmzi5e/Pt
q3fHf7nJFAyB1kUX5GzxEexPwItJbeDIijPrNs1urhIWUpafw6Hp9ANH6dx1TPvG
cfsb7lppRtRliIx4JMl+PyeXiESlXwPSFWtxOaTAGlWy05C8oZEvr3CUSvSD09fF
5htR80sv67LXR0xlElTcT6a5w7b3SimL9xlbxD+iAtqCl+yaPTP2kVBnAgMBAAEw
DQYJKoZIhvcNAQELBQADggIBAD763MNed4AHdhrJGjZxnYRccN8njeDwA9wjLmZe
d7MmFjioZjbzjMKdXGXnNvLV4bIhbkeISH9ag09qGoWMQqItJyafI272mhs3hz/I
8cl/TSFi/nJBSr7LRjmWTiYCdJwnlNW1EoTdhheqpgq+7uwH8LnBRg6LUB50FbS0
4LWVSUEw6WItenELS4swkwxBv918pB51uVnhFtQE7OF+vai5qhQ5NvGeTUqly2qw
MoCVmwTQFNOeGtz/g5j8AASRV5o9i+htwNBJKGghX5/b+56zViDrVFdbIoZHYu/8
ejyfLJ70Fm8sDDgMgRWSAzvcrt2DW+y5pViXKbDMOd72ZQBNBT8antHPK2pXDeoi
SLwcyiJBQZkni583PpyNbOOtroUlFo+X/H/sM+ylRge7RdjELMnipoGiGz9zzED4
MVtUoevoxEDv+CZmlzSoDxRkfNfm78t1HnvZMVKZHifU8ZzSTk/a0mEi7oUSkDPl
n/nQRchqv1ovQ9Hnluerxv+H7ieF09wlvx+PKXvBfs46p5wdVd9Nk1KCNtfU4WaB
a5BesU/mmGFM6EXbzBrOnejWkW7EBRjGbuVCbHlNMo3sMutyE4zH1tKohFIaps8t
q9EH62/E5Ag/IP9uqRD+ILuWpLeTKdGtzPSBsO1UV8WSefjzkkHB4jGX32h2Bzmv
egC/
-----END CERTIFICATE-----
