Certificate:
    Data:
        Version: 1 (0x0)
        Serial Number: 9 (0x9)
        Signature Algorithm: sha256WithRSAEncryption
        Issuer: C=fr, ST=idf, L=paris, O=vitamui, OU=authorities, CN=ca_intermediate_server
        Validity
            Not Before: May 20 09:10:51 2020 GMT
            Not After : May 20 09:10:51 2023 GMT
        Subject: C=fr, ST=idf, L=paris, O=vitamui, CN=dev.vitamui.com
        Subject Public Key Info:
            Public Key Algorithm: rsaEncryption
                RSA Public-Key: (4096 bit)
                Modulus:
                    00:b6:f0:a4:e4:9d:04:18:8c:61:11:0c:52:8e:bf:
                    34:ec:d7:8b:d8:95:cf:84:df:e9:c7:f7:2f:05:0e:
                    37:d3:07:53:88:3c:ff:0e:4e:7f:75:f8:2b:33:0a:
                    bb:fc:6c:2a:67:32:ac:85:74:fa:04:37:75:7e:27:
                    9f:1e:75:de:32:be:57:79:3b:d9:ec:31:ce:44:2a:
                    2d:dd:94:c5:99:9c:bc:82:41:ce:50:a1:cc:14:0e:
                    bf:e6:76:27:9a:b8:fa:81:11:94:9a:50:37:bb:fd:
                    d1:8c:7d:04:41:cf:b7:20:72:9b:73:13:57:2f:98:
                    b9:99:a6:f5:4e:4b:d9:c2:2c:dd:e3:93:99:82:6e:
                    0e:4c:33:31:43:65:58:d8:6c:6e:c9:d6:05:c0:89:
                    91:8f:f3:f0:13:c9:cb:9f:42:24:03:91:17:5b:68:
                    3d:a2:22:08:fb:b6:f5:f6:73:83:bf:d7:5c:4c:fb:
                    05:f5:0f:f7:92:2e:87:b3:c4:13:5d:6e:ee:65:7e:
                    b8:5b:b4:26:87:80:47:b7:89:89:06:81:4d:d6:b4:
                    43:18:dc:fb:ce:1a:a2:14:45:c4:4a:97:7a:aa:71:
                    4d:2c:24:b9:06:11:3a:08:a4:5a:cf:20:39:70:88:
                    a6:c0:ef:59:ac:08:58:1b:27:d0:de:ca:26:0a:96:
                    c1:b1:f2:df:7c:e0:fb:3a:d1:79:3c:77:f0:66:02:
                    cb:3f:4a:a0:13:5c:38:da:a2:32:97:8d:36:4c:84:
                    43:69:99:12:76:3c:61:6b:c0:73:97:e4:29:46:7c:
                    cc:ec:77:82:1e:37:8e:7b:7a:5a:ff:c6:3b:34:2c:
                    bb:39:41:7c:ce:d6:e0:c4:9e:3b:70:92:d5:a7:cc:
                    c8:15:3d:83:9b:1b:a1:7e:bd:9f:0a:c9:9a:5f:51:
                    be:aa:9f:c4:de:55:3c:81:95:56:94:0b:37:78:e5:
                    ab:5c:69:f2:5b:ce:0c:7b:27:37:06:a7:95:93:02:
                    98:5d:15:9d:24:ff:41:88:4c:29:cd:c0:c6:bf:62:
                    18:03:78:91:d9:c3:77:3e:98:33:cf:0f:ec:14:51:
                    a4:19:bc:b4:fd:1e:52:66:bc:27:96:d6:8f:a4:5b:
                    b1:2f:9d:7b:a2:45:28:5e:8c:a9:db:4e:b9:b2:af:
                    0a:1c:67:ea:96:ce:9f:3b:53:36:00:9d:2a:eb:11:
                    23:73:77:0d:b3:9c:0d:76:9a:72:6d:99:9f:94:37:
                    2b:5b:b9:af:86:82:f5:c6:0b:61:11:e2:83:a2:7a:
                    03:b7:5b:c5:57:c9:d4:33:3a:3a:7c:32:27:86:ca:
                    2b:c9:4b:27:fb:75:6c:cc:17:c0:31:f8:08:28:af:
                    91:13:85
                Exponent: 65537 (0x10001)
    Signature Algorithm: sha256WithRSAEncryption
         8b:a2:ec:ff:75:dc:c6:6b:ac:97:20:95:37:f5:7f:82:c2:b3:
         44:3e:4f:05:76:3b:59:1b:4e:3e:6a:4b:02:ee:a1:2b:b6:76:
         8a:e4:7a:e3:46:57:1b:4b:08:b0:ea:df:ef:78:e6:03:30:ac:
         35:8c:09:f4:c7:6e:20:64:fe:eb:34:f3:b3:ec:02:e5:0b:8f:
         fc:cb:50:74:7a:df:86:eb:f7:92:18:d1:6e:19:e1:38:23:21:
         3f:b3:8f:e3:62:35:92:ea:36:93:ac:d4:35:99:fd:84:d6:6b:
         3a:21:19:04:7e:16:6a:ad:4d:b8:0a:ab:af:10:3b:43:c4:c7:
         3a:24:a7:47:f3:ad:d3:1b:b1:62:97:99:f8:d0:6e:38:96:92:
         25:50:d8:51:78:b3:81:e6:62:3f:f0:1f:28:1a:44:43:58:2a:
         0e:21:c6:24:81:db:ca:be:8a:22:67:d6:ef:78:f4:ac:cd:76:
         bc:a4:db:7d:76:76:07:a9:72:ed:0b:83:94:fd:52:53:a0:6d:
         d1:a3:f3:46:52:52:48:83:0a:6c:44:47:f1:b4:d6:49:d8:04:
         67:62:63:7e:e8:15:05:c4:8c:22:82:03:63:38:d0:df:2b:91:
         c8:bb:c8:1e:f7:ea:72:5d:cd:4d:1b:4c:2c:41:d6:cb:81:1c:
         b3:a2:96:ab:4f:48:79:e4:32:67:9c:f4:d1:ba:ad:86:8b:ea:
         94:f5:14:26:0c:81:29:90:f6:09:07:31:53:20:b8:ab:78:02:
         10:bf:9d:02:77:03:aa:63:27:19:f9:ca:10:df:3b:91:1f:e3:
         bd:04:d2:a1:8d:b1:4a:8c:b5:60:2d:c5:6c:7a:5a:3d:e5:7f:
         b2:bc:e9:5d:d3:ca:65:89:eb:41:c5:82:04:32:25:1d:e7:ba:
         fe:e8:2a:b9:c7:e2:89:8b:1d:f3:9b:4e:b0:17:2b:24:b4:88:
         4c:20:8e:81:4b:73:af:83:b4:ef:e2:12:b7:24:af:42:ed:78:
         d2:1e:02:1a:00:44:69:40:83:d3:ce:5b:75:56:37:70:01:24:
         66:86:f5:a1:22:1a:81:01:a1:bb:aa:b6:0d:87:4b:30:6b:d2:
         9f:d9:42:ac:07:dd:19:d3:0a:3e:ca:19:e5:40:b5:53:26:25:
         60:34:db:9e:8b:2a:ed:91:2d:0f:da:9f:aa:4e:cc:61:a9:0f:
         7c:da:7a:c0:74:65:2f:be:0f:85:ca:07:d9:e6:d6:37:24:05:
         86:d1:ca:7c:83:31:9d:3f:9a:92:3e:f0:ae:01:69:61:5b:ee:
         8f:3f:e6:fd:7c:ea:8a:2b:dd:5f:f6:67:af:f9:2f:21:6f:57:
         7f:30:76:c5:7d:fe:91:c3
-----BEGIN CERTIFICATE-----
MIIFPzCCAycCAQkwDQYJKoZIhvcNAQELBQAwdDELMAkGA1UEBhMCZnIxDDAKBgNV
BAgMA2lkZjEOMAwGA1UEBwwFcGFyaXMxEDAOBgNVBAoMB3ZpdGFtdWkxFDASBgNV
BAsMC2F1dGhvcml0aWVzMR8wHQYDVQQDDBZjYV9pbnRlcm1lZGlhdGVfc2VydmVy
MB4XDTIwMDUyMDA5MTA1MVoXDTIzMDUyMDA5MTA1MVowVzELMAkGA1UEBhMCZnIx
DDAKBgNVBAgMA2lkZjEOMAwGA1UEBwwFcGFyaXMxEDAOBgNVBAoMB3ZpdGFtdWkx
GDAWBgNVBAMMD2Rldi52aXRhbXVpLmNvbTCCAiIwDQYJKoZIhvcNAQEBBQADggIP
ADCCAgoCggIBALbwpOSdBBiMYREMUo6/NOzXi9iVz4Tf6cf3LwUON9MHU4g8/w5O
f3X4KzMKu/xsKmcyrIV0+gQ3dX4nnx513jK+V3k72ewxzkQqLd2UxZmcvIJBzlCh
zBQOv+Z2J5q4+oERlJpQN7v90Yx9BEHPtyBym3MTVy+YuZmm9U5L2cIs3eOTmYJu
DkwzMUNlWNhsbsnWBcCJkY/z8BPJy59CJAORF1toPaIiCPu29fZzg7/XXEz7BfUP
95Iuh7PEE11u7mV+uFu0JoeAR7eJiQaBTda0Qxjc+84aohRFxEqXeqpxTSwkuQYR
OgikWs8gOXCIpsDvWawIWBsn0N7KJgqWwbHy33zg+zrReTx38GYCyz9KoBNcONqi
MpeNNkyEQ2mZEnY8YWvAc5fkKUZ8zOx3gh43jnt6Wv/GOzQsuzlBfM7W4MSeO3CS
1afMyBU9g5sboX69nwrJml9RvqqfxN5VPIGVVpQLN3jlq1xp8lvODHsnNwanlZMC
mF0VnST/QYhMKc3Axr9iGAN4kdnDdz6YM88P7BRRpBm8tP0eUma8J5bWj6RbsS+d
e6JFKF6MqdtOubKvChxn6pbOnztTNgCdKusRI3N3DbOcDXaacm2Zn5Q3K1u5r4aC
9cYLYRHig6J6A7dbxVfJ1DM6OnwyJ4bKK8lLJ/t1bMwXwDH4CCivkROFAgMBAAEw
DQYJKoZIhvcNAQELBQADggIBAIui7P913MZrrJcglTf1f4LCs0Q+TwV2O1kbTj5q
SwLuoSu2dorkeuNGVxtLCLDq3+945gMwrDWMCfTHbiBk/us087PsAuULj/zLUHR6
34br95IY0W4Z4TgjIT+zj+NiNZLqNpOs1DWZ/YTWazohGQR+FmqtTbgKq68QO0PE
xzokp0fzrdMbsWKXmfjQbjiWkiVQ2FF4s4HmYj/wHygaRENYKg4hxiSB28q+iiJn
1u949KzNdryk2312dgepcu0Lg5T9UlOgbdGj80ZSUkiDCmxER/G01knYBGdiY37o
FQXEjCKCA2M40N8rkci7yB736nJdzU0bTCxB1suBHLOilqtPSHnkMmec9NG6rYaL
6pT1FCYMgSmQ9gkHMVMguKt4AhC/nQJ3A6pjJxn5yhDfO5Ef470E0qGNsUqMtWAt
xWx6Wj3lf7K86V3TymWJ60HFggQyJR3nuv7oKrnH4omLHfObTrAXKyS0iEwgjoFL
c6+DtO/iErckr0LteNIeAhoARGlAg9POW3VWN3ABJGaG9aEiGoEBobuqtg2HSzBr
0p/ZQqwH3RnTCj7KGeVAtVMmJWA0256LKu2RLQ/an6pOzGGpD3zaesB0ZS++D4XK
B9nm1jckBYbRynyDMZ0/mpI+8K4BaWFb7o8/5v186oor3V/2Z6/5LyFvV38wdsV9
/pHD
-----END CERTIFICATE-----
