Certificate:
    Data:
        Version: 1 (0x0)
        Serial Number: 150 (0x96)
    Signature Algorithm: sha256WithRSAEncryption
        Issuer: C=fr, ST=idf, L=paris, O=vitamui, OU=authorities, CN=ca_intermediate_server
        Validity
            Not Before: Dec  6 12:55:55 2021 GMT
            Not After : Dec  5 12:55:55 2024 GMT
        Subject: C=fr, ST=idf, L=paris, O=vitamui, CN=dev.vitamui.com
        Subject Public Key Info:
            Public Key Algorithm: rsaEncryption
                Public-Key: (4096 bit)
                Modulus:
                    00:c1:9d:8b:39:51:d3:46:5b:23:0a:6c:2b:39:e1:
                    8c:7c:15:e1:08:08:70:45:d2:31:da:32:01:e1:00:
                    d6:ec:cb:cf:4e:a1:7b:aa:ee:0a:f9:55:2e:a4:a2:
                    ef:c7:a1:ce:7c:56:0a:b3:c2:bd:85:59:46:d1:9e:
                    f5:fe:68:5e:2a:4b:33:d7:7c:70:61:46:86:41:4e:
                    ab:0b:2a:6e:8b:a9:3d:21:24:4a:19:9c:3a:69:93:
                    82:6a:c5:b5:f3:6d:83:99:89:76:7a:28:3a:25:5a:
                    63:ca:57:80:f4:6b:2c:94:13:93:4b:c5:4d:6d:70:
                    ff:a3:67:b8:be:44:50:f0:ad:0c:8d:a2:98:a1:ab:
                    b2:97:0b:46:07:86:bd:77:15:3e:e4:47:d9:07:2c:
                    fd:55:e8:91:37:e8:f3:c4:c6:81:2b:58:fe:a2:13:
                    95:10:c5:7d:0c:26:20:51:93:91:d7:4e:5e:8d:66:
                    e1:7b:82:03:9e:f7:34:cb:46:38:3c:69:7f:03:53:
                    7c:b5:3f:fa:bc:9b:8c:7f:f5:50:07:14:12:78:5b:
                    3d:80:07:d0:bc:4d:d8:6e:08:8c:c0:bb:57:f4:21:
                    05:2a:b0:c5:b3:8d:39:1b:4f:07:c0:7a:76:2f:b9:
                    1f:b8:01:ac:eb:5a:70:a2:9d:f6:bb:d0:8b:11:ff:
                    d7:71:f8:a7:a7:f8:9b:27:d8:4c:bf:af:c1:ed:3c:
                    65:5e:18:44:b8:04:37:bb:2b:8a:f1:b3:49:48:f0:
                    f9:18:b4:31:16:09:c1:8d:46:69:24:08:5d:4d:a9:
                    83:fa:79:27:9b:e8:ed:31:63:6e:26:6b:cd:89:8f:
                    61:85:dc:e1:ca:97:96:fa:48:64:c9:23:1f:64:89:
                    5e:84:5d:7a:d8:75:6c:e8:2c:e0:d7:15:61:10:3c:
                    6c:11:e4:32:d7:2f:9a:68:8f:be:32:2e:ae:e6:65:
                    03:47:47:fa:d9:68:37:96:87:57:b2:c3:17:7e:a9:
                    76:fc:0b:8b:ab:a0:b4:e2:6c:8f:64:16:30:6b:68:
                    69:f8:cc:3c:47:c2:88:a3:60:86:55:0a:ef:b9:d4:
                    e8:0c:f8:f7:be:e4:03:cd:66:b0:de:1b:04:0c:10:
                    de:fd:40:93:23:4c:2f:ed:9b:93:25:d3:49:e9:1b:
                    bc:6e:31:10:7b:2b:82:50:58:c8:ea:f8:e0:25:1c:
                    c1:43:3c:3e:3e:7e:65:6a:2a:c7:d9:7b:b5:00:32:
                    12:a7:d8:45:dc:8d:90:96:e7:0a:29:bf:8a:b6:fe:
                    bf:50:e2:ef:81:ab:f6:8c:36:65:33:18:c1:b9:33:
                    f2:03:5e:5c:79:29:a7:4a:c8:15:11:25:b4:e3:98:
                    f4:b7:7d
                Exponent: 65537 (0x10001)
    Signature Algorithm: sha256WithRSAEncryption
         8d:1c:4d:58:cf:cc:fd:56:01:05:73:41:e2:2f:97:17:4d:e4:
         99:f3:70:81:43:25:d4:ad:c2:41:57:2c:ee:15:36:01:ae:0f:
         c3:00:69:83:38:70:56:69:78:35:a0:40:12:30:57:9a:fa:8f:
         a7:1a:3b:91:d7:11:99:ee:16:7e:b7:25:bb:21:ec:23:9f:ab:
         03:47:29:78:a1:7b:34:7d:41:83:a7:fa:6f:05:22:ec:85:da:
         25:5c:66:3c:f2:d9:79:bd:a6:5c:4d:f4:90:78:7c:77:95:7b:
         31:fe:b6:44:73:9b:0d:ea:76:2d:65:cb:f4:7d:74:88:48:97:
         6d:c7:05:62:46:39:33:78:8f:e3:2b:f1:52:6f:e5:10:32:5c:
         70:95:f3:5f:f1:1a:83:c8:98:0b:ec:d0:46:1a:ed:76:60:e3:
         60:03:c6:6f:be:a4:07:a4:cc:93:f5:9d:7a:3c:a1:97:77:68:
         c2:a7:73:b4:64:88:d8:fd:24:87:82:9a:01:ff:75:b7:50:bd:
         b6:ad:d3:b0:5e:4b:62:85:21:36:70:9d:50:71:1d:ef:24:d3:
         60:f9:f9:16:de:cb:36:43:0b:11:9e:0d:22:0c:5b:d8:4b:51:
         1d:75:94:d9:17:c2:a7:e5:90:ff:d0:5c:af:a5:52:48:a8:54:
         13:2a:73:9b:dd:9b:72:46:01:cb:1c:d4:41:41:53:ff:ca:4d:
         c2:1e:10:dd:3f:0f:5b:c0:58:fb:df:87:e9:56:c7:cc:80:01:
         83:06:81:dc:a0:e7:1f:9f:21:d0:7e:64:31:ec:51:43:6a:42:
         ea:b2:45:62:da:85:a9:64:96:49:a7:47:69:2a:9f:32:1a:64:
         f5:29:86:e2:49:46:f7:51:f7:96:94:4c:c0:7f:d7:3d:2a:b6:
         95:c2:bb:57:b1:b7:21:c5:38:7d:75:4c:38:f1:ad:41:90:d3:
         16:85:af:c6:55:21:bc:d8:df:49:98:f5:42:91:cb:db:80:dc:
         ab:29:20:9a:ef:f6:f4:66:43:c0:ab:5f:92:3c:fb:6e:f1:41:
         46:e0:e3:9b:48:34:a3:c3:6d:b6:a6:93:1f:a2:b2:f9:a6:3a:
         26:9f:96:37:6e:a4:ad:54:29:7b:ac:53:e4:59:e2:08:66:bb:
         75:fa:d0:97:da:a6:0c:e4:2c:1a:38:34:23:71:78:00:90:9e:
         21:4e:f6:16:a1:e5:b8:31:14:f6:ae:9f:70:75:1d:97:12:cd:
         ed:86:40:f1:87:e9:8b:33:24:1c:77:53:5d:29:63:6a:f8:c8:
         76:7a:57:be:9e:3e:e3:a1:25:d7:1f:97:05:29:37:e6:c7:55:
         2a:f3:05:e0:40:50:01:df
-----BEGIN CERTIFICATE-----
MIIFQDCCAygCAgCWMA0GCSqGSIb3DQEBCwUAMHQxCzAJBgNVBAYTAmZyMQwwCgYD
VQQIDANpZGYxDjAMBgNVBAcMBXBhcmlzMRAwDgYDVQQKDAd2aXRhbXVpMRQwEgYD
VQQLDAthdXRob3JpdGllczEfMB0GA1UEAwwWY2FfaW50ZXJtZWRpYXRlX3NlcnZl
cjAeFw0yMTEyMDYxMjU1NTVaFw0yNDEyMDUxMjU1NTVaMFcxCzAJBgNVBAYTAmZy
MQwwCgYDVQQIDANpZGYxDjAMBgNVBAcMBXBhcmlzMRAwDgYDVQQKDAd2aXRhbXVp
MRgwFgYDVQQDDA9kZXYudml0YW11aS5jb20wggIiMA0GCSqGSIb3DQEBAQUAA4IC
DwAwggIKAoICAQDBnYs5UdNGWyMKbCs54Yx8FeEICHBF0jHaMgHhANbsy89OoXuq
7gr5VS6kou/Hoc58Vgqzwr2FWUbRnvX+aF4qSzPXfHBhRoZBTqsLKm6LqT0hJEoZ
nDppk4JqxbXzbYOZiXZ6KDolWmPKV4D0ayyUE5NLxU1tcP+jZ7i+RFDwrQyNopih
q7KXC0YHhr13FT7kR9kHLP1V6JE36PPExoErWP6iE5UQxX0MJiBRk5HXTl6NZuF7
ggOe9zTLRjg8aX8DU3y1P/q8m4x/9VAHFBJ4Wz2AB9C8TdhuCIzAu1f0IQUqsMWz
jTkbTwfAenYvuR+4AazrWnCinfa70IsR/9dx+Ken+Jsn2Ey/r8HtPGVeGES4BDe7
K4rxs0lI8PkYtDEWCcGNRmkkCF1NqYP6eSeb6O0xY24ma82Jj2GF3OHKl5b6SGTJ
Ix9kiV6EXXrYdWzoLODXFWEQPGwR5DLXL5poj74yLq7mZQNHR/rZaDeWh1eywxd+
qXb8C4uroLTibI9kFjBraGn4zDxHwoijYIZVCu+51OgM+Pe+5APNZrDeGwQMEN79
QJMjTC/tm5Ml00npG7xuMRB7K4JQWMjq+OAlHMFDPD4+fmVqKsfZe7UAMhKn2EXc
jZCW5wopv4q2/r9Q4u+Bq/aMNmUzGMG5M/IDXlx5KadKyBURJbTjmPS3fQIDAQAB
MA0GCSqGSIb3DQEBCwUAA4ICAQCNHE1Yz8z9VgEFc0HiL5cXTeSZ83CBQyXUrcJB
VyzuFTYBrg/DAGmDOHBWaXg1oEASMFea+o+nGjuR1xGZ7hZ+tyW7Iewjn6sDRyl4
oXs0fUGDp/pvBSLshdolXGY88tl5vaZcTfSQeHx3lXsx/rZEc5sN6nYtZcv0fXSI
SJdtxwViRjkzeI/jK/FSb+UQMlxwlfNf8RqDyJgL7NBGGu12YONgA8ZvvqQHpMyT
9Z16PKGXd2jCp3O0ZIjY/SSHgpoB/3W3UL22rdOwXktihSE2cJ1QcR3vJNNg+fkW
3ss2QwsRng0iDFvYS1EddZTZF8Kn5ZD/0FyvpVJIqFQTKnOb3ZtyRgHLHNRBQVP/
yk3CHhDdPw9bwFj734fpVsfMgAGDBoHcoOcfnyHQfmQx7FFDakLqskVi2oWpZJZJ
p0dpKp8yGmT1KYbiSUb3UfeWlEzAf9c9KraVwrtXsbchxTh9dUw48a1BkNMWha/G
VSG82N9JmPVCkcvbgNyrKSCa7/b0ZkPAq1+SPPtu8UFG4OObSDSjw222ppMforL5
pjomn5Y3bqStVCl7rFPkWeIIZrt1+tCX2qYM5CwaODQjcXgAkJ4hTvYWoeW4MRT2
rp9wdR2XEs3thkDxh+mLMyQcd1NdKWNq+Mh2ele+nj7joSXXH5cFKTfmx1Uq8wXg
QFAB3w==
-----END CERTIFICATE-----
