Certificate:
    Data:
        Version: 1 (0x0)
        Serial Number: 132 (0x84)
    Signature Algorithm: sha256WithRSAEncryption
        Issuer: C=fr, ST=idf, L=paris, O=vitamui, OU=authorities, CN=ca_intermediate_server
        Validity
            Not Before: Dec  6 12:54:07 2021 GMT
            Not After : Dec  5 12:54:07 2024 GMT
        Subject: C=fr, ST=idf, L=paris, O=vitamui, CN=dev.vitamui.com
        Subject Public Key Info:
            Public Key Algorithm: rsaEncryption
                Public-Key: (4096 bit)
                Modulus:
                    00:c6:6f:9c:35:3e:d8:7f:83:98:4a:58:20:07:23:
                    9d:55:64:f3:a1:89:ea:d4:b8:a4:df:7e:d2:95:fe:
                    a1:f0:d8:9d:56:79:c7:d6:b0:d0:3b:ad:3b:71:e5:
                    82:4f:a8:51:8c:f9:50:55:ce:f2:8e:10:ce:a8:91:
                    e1:f1:54:f5:25:eb:b3:71:45:e1:81:6d:8c:dc:8d:
                    8b:79:98:e6:6d:4d:3e:02:20:7d:12:57:f6:7b:14:
                    4b:e6:d0:75:72:17:38:15:80:50:53:cb:40:e8:72:
                    31:1c:84:2d:fd:b4:98:4d:34:92:2b:53:a8:3f:a2:
                    35:23:b8:39:35:26:84:bb:a5:f4:49:6c:4b:9e:02:
                    1b:ac:cd:87:fb:02:ba:68:35:55:ee:76:6a:11:46:
                    ef:d2:fe:7f:dd:ec:83:db:f4:e0:5f:77:bc:ba:88:
                    89:52:f6:4f:9f:93:02:c9:24:76:97:0d:91:68:4a:
                    b3:f1:01:81:82:bc:55:2a:d6:b0:a8:5c:f0:26:2a:
                    ad:50:13:e8:57:c7:1d:fb:83:52:5d:db:be:7b:ed:
                    af:ff:38:ff:9f:31:72:e4:8d:9f:62:17:8d:4f:30:
                    23:d9:3d:85:9f:bb:ca:bf:c8:55:ec:66:1c:e4:22:
                    29:8a:7d:be:bb:6d:f0:b9:dd:e2:8d:0f:c3:c4:9d:
                    a1:ef:18:c0:ba:3f:ca:06:61:ae:c4:c6:e3:47:da:
                    da:75:35:0c:74:80:28:3e:29:db:3d:da:1c:32:52:
                    b3:78:da:03:9b:d8:c0:2b:fa:08:b3:16:1a:30:cd:
                    0f:83:7d:e1:34:1b:78:af:ed:09:fb:af:12:9a:af:
                    ea:3b:d3:0c:bf:f0:5b:c4:a5:15:4f:cf:23:b2:0c:
                    13:ba:55:47:8b:44:d5:91:22:91:51:9a:c8:de:8a:
                    2f:0f:29:23:51:c4:a5:64:f6:8b:56:6e:c0:09:39:
                    79:08:8a:26:33:20:7b:f8:a5:c0:fe:c0:73:9d:c7:
                    a7:0c:22:ef:9f:8e:dd:cb:15:71:b5:50:38:94:df:
                    a1:d8:df:18:80:b3:48:c4:b8:19:14:a9:c1:99:f5:
                    ce:40:1a:eb:99:0e:33:f2:9f:e5:bc:cf:18:53:5e:
                    94:fb:1b:17:e4:23:0a:5e:cc:72:1c:17:d3:7e:db:
                    82:51:e1:e8:f7:47:4b:71:31:dd:b1:c6:a6:12:9d:
                    9f:e7:56:85:a8:0f:a6:db:d4:8a:f9:4f:92:ef:5c:
                    20:38:46:b5:d5:12:7c:62:4b:1c:98:b5:e9:ca:69:
                    c7:d1:3f:e4:08:43:68:f4:98:d8:4c:e9:4f:8b:08:
                    47:f3:55:5f:87:04:2b:d0:06:cc:c1:a7:b7:ef:42:
                    07:ba:bd
                Exponent: 65537 (0x10001)
    Signature Algorithm: sha256WithRSAEncryption
         4d:41:e8:b5:d1:e6:a5:f9:ca:53:24:94:27:c8:50:c3:24:79:
         b9:f0:88:9f:9b:43:c8:82:2a:4e:2e:e9:cb:72:29:1b:57:e4:
         38:2b:5c:00:e7:3e:97:7e:a1:d9:8f:dc:73:4f:a0:71:96:cc:
         8b:d3:d3:ee:9d:f5:18:c7:42:e5:0b:2d:63:c7:87:d1:db:ec:
         c4:b4:b7:e4:4f:ca:ee:cc:a0:2d:b8:2f:1d:04:c7:cd:38:05:
         3c:e4:8c:1a:d8:b9:7f:d9:98:e6:bc:4b:dd:aa:9e:11:5e:be:
         fa:5f:f2:ee:94:c8:2b:48:12:3d:77:23:ca:ed:79:5e:0f:59:
         b4:f2:0e:98:95:00:00:2c:bc:58:eb:a5:f5:ba:b3:e3:6c:09:
         83:cc:6c:03:6b:ce:50:2c:68:1b:7e:11:6d:06:0f:2a:ee:07:
         81:fe:40:43:51:85:cc:e0:9d:ef:6c:32:f1:5d:da:e0:4a:c6:
         b0:84:6f:b5:d3:85:7a:56:08:11:49:e3:ff:4e:bd:d9:cb:20:
         29:80:82:70:22:2a:25:1f:f4:18:fb:16:21:6e:ce:c1:2f:fd:
         f0:76:fe:b7:15:d2:c8:3d:01:02:d3:1b:83:81:16:09:66:9c:
         ea:5a:f7:58:df:10:6f:c9:d3:b0:b8:e8:f7:51:64:52:a0:c1:
         a9:39:b9:49:9d:b5:df:6f:95:fc:f4:4a:3f:27:86:a1:25:09:
         80:3b:cd:e6:87:61:2d:7a:59:f9:20:2f:e1:45:66:6b:01:ad:
         21:1d:9c:52:d7:88:aa:80:d7:2e:8b:ba:46:de:1e:f8:bf:a9:
         0a:9f:6f:dd:82:dd:64:68:31:0e:57:62:df:21:eb:de:42:a1:
         d6:38:5f:2e:8b:3f:12:13:a6:5f:29:8f:db:fb:fe:b1:c4:37:
         94:90:10:c9:df:e4:0d:e0:62:fc:07:8b:da:8a:3c:e6:58:8d:
         7d:d7:08:bc:3f:83:a4:5f:75:ed:d3:75:f2:ce:14:f6:b4:3a:
         01:a2:8c:b2:b3:84:02:a6:d8:8a:50:c4:5f:cd:97:7b:c5:ec:
         5a:41:34:09:a3:b2:03:ba:ff:f3:85:c6:36:d0:0a:14:96:73:
         79:b2:a0:8e:91:8b:23:f5:d8:3d:ab:8b:7e:13:ec:17:2e:81:
         99:a3:34:b8:f5:62:a1:94:20:6f:e1:a4:a9:89:17:2a:06:fe:
         b3:68:ce:6e:11:f6:8b:24:be:d7:97:bd:52:15:8c:d4:a6:c6:
         55:2d:33:aa:7a:d0:4b:dc:84:d6:ac:2a:23:7a:7c:37:8f:e6:
         39:da:c8:0f:db:70:09:a6:72:e2:cc:0d:db:ab:69:33:23:c1:
         f1:93:84:7d:ae:70:c3:65
-----BEGIN CERTIFICATE-----
MIIFQDCCAygCAgCEMA0GCSqGSIb3DQEBCwUAMHQxCzAJBgNVBAYTAmZyMQwwCgYD
VQQIDANpZGYxDjAMBgNVBAcMBXBhcmlzMRAwDgYDVQQKDAd2aXRhbXVpMRQwEgYD
VQQLDAthdXRob3JpdGllczEfMB0GA1UEAwwWY2FfaW50ZXJtZWRpYXRlX3NlcnZl
cjAeFw0yMTEyMDYxMjU0MDdaFw0yNDEyMDUxMjU0MDdaMFcxCzAJBgNVBAYTAmZy
MQwwCgYDVQQIDANpZGYxDjAMBgNVBAcMBXBhcmlzMRAwDgYDVQQKDAd2aXRhbXVp
MRgwFgYDVQQDDA9kZXYudml0YW11aS5jb20wggIiMA0GCSqGSIb3DQEBAQUAA4IC
DwAwggIKAoICAQDGb5w1Pth/g5hKWCAHI51VZPOhierUuKTfftKV/qHw2J1WecfW
sNA7rTtx5YJPqFGM+VBVzvKOEM6okeHxVPUl67NxReGBbYzcjYt5mOZtTT4CIH0S
V/Z7FEvm0HVyFzgVgFBTy0DocjEchC39tJhNNJIrU6g/ojUjuDk1JoS7pfRJbEue
AhuszYf7ArpoNVXudmoRRu/S/n/d7IPb9OBfd7y6iIlS9k+fkwLJJHaXDZFoSrPx
AYGCvFUq1rCoXPAmKq1QE+hXxx37g1Jd27577a//OP+fMXLkjZ9iF41PMCPZPYWf
u8q/yFXsZhzkIimKfb67bfC53eKND8PEnaHvGMC6P8oGYa7ExuNH2tp1NQx0gCg+
Kds92hwyUrN42gOb2MAr+gizFhowzQ+DfeE0G3iv7Qn7rxKar+o70wy/8FvEpRVP
zyOyDBO6VUeLRNWRIpFRmsjeii8PKSNRxKVk9otWbsAJOXkIiiYzIHv4pcD+wHOd
x6cMIu+fjt3LFXG1UDiU36HY3xiAs0jEuBkUqcGZ9c5AGuuZDjPyn+W8zxhTXpT7
GxfkIwpezHIcF9N+24JR4ej3R0txMd2xxqYSnZ/nVoWoD6bb1Ir5T5LvXCA4RrXV
EnxiSxyYtenKacfRP+QIQ2j0mNhM6U+LCEfzVV+HBCvQBszBp7fvQge6vQIDAQAB
MA0GCSqGSIb3DQEBCwUAA4ICAQBNQei10eal+cpTJJQnyFDDJHm58Iifm0PIgipO
LunLcikbV+Q4K1wA5z6XfqHZj9xzT6BxlsyL09PunfUYx0LlCy1jx4fR2+zEtLfk
T8ruzKAtuC8dBMfNOAU85Iwa2Ll/2ZjmvEvdqp4RXr76X/LulMgrSBI9dyPK7Xle
D1m08g6YlQAALLxY66X1urPjbAmDzGwDa85QLGgbfhFtBg8q7geB/kBDUYXM4J3v
bDLxXdrgSsawhG+104V6VggRSeP/Tr3ZyyApgIJwIiolH/QY+xYhbs7BL/3wdv63
FdLIPQEC0xuDgRYJZpzqWvdY3xBvydOwuOj3UWRSoMGpOblJnbXfb5X89Eo/J4ah
JQmAO83mh2Eteln5IC/hRWZrAa0hHZxS14iqgNcui7pG3h74v6kKn2/dgt1kaDEO
V2LfIeveQqHWOF8uiz8SE6ZfKY/b+/6xxDeUkBDJ3+QN4GL8B4vaijzmWI191wi8
P4OkX3Xt03XyzhT2tDoBooyys4QCptiKUMRfzZd7xexaQTQJo7IDuv/zhcY20AoU
lnN5sqCOkYsj9dg9q4t+E+wXLoGZozS49WKhlCBv4aSpiRcqBv6zaM5uEfaLJL7X
l71SFYzUpsZVLTOqetBL3ITWrCojenw3j+Y52sgP23AJpnLizA3bq2kzI8Hxk4R9
rnDDZQ==
-----END CERTIFICATE-----
