Certificate:
    Data:
        Version: 1 (0x0)
        Serial Number: 35 (0x23)
        Signature Algorithm: sha256WithRSAEncryption
        Issuer: C=fr, ST=idf, L=paris, O=vitamui, OU=authorities, CN=ca_intermediate_server
        Validity
            Not Before: Nov 23 16:59:08 2022 GMT
            Not After : Nov 22 16:59:08 2025 GMT
        Subject: C=fr, ST=idf, L=paris, O=vitamui, CN=dev.vitamui.com
        Subject Public Key Info:
            Public Key Algorithm: rsaEncryption
                RSA Public-Key: (4096 bit)
                Modulus:
                    00:ce:fc:ad:22:b5:b6:13:30:23:de:a2:3d:8c:a8:
                    b0:87:e1:f3:73:cd:9e:a5:b4:10:d0:94:0b:43:81:
                    54:7d:92:ac:fb:f8:4f:f2:35:05:1e:d7:df:ad:58:
                    7d:58:2d:09:65:75:95:45:d9:ce:88:cf:01:f6:1a:
                    c3:1b:46:ac:9c:07:cb:ea:ab:25:70:ee:d8:4b:91:
                    b3:d1:94:b4:0c:0b:d4:0a:87:fe:b5:86:1b:0c:33:
                    15:66:33:fc:f4:f4:58:09:01:c0:3c:5d:33:3b:b5:
                    65:5b:60:09:e2:c4:ae:ea:65:0c:b1:77:d9:f4:f9:
                    f7:88:65:89:8f:43:93:a7:ef:04:d8:48:3f:fb:a8:
                    69:b9:f6:61:2a:af:50:30:3f:31:c1:6a:63:56:f2:
                    4b:83:78:af:ad:b9:65:f2:da:e5:25:b7:6f:29:d0:
                    b2:d6:d5:fd:6c:9e:5c:a7:e6:60:2e:8e:78:4f:68:
                    a3:1f:c2:ce:c6:2f:c3:a6:df:b5:97:98:44:e0:9f:
                    1f:db:8c:ec:34:9a:3e:77:7a:e3:6f:90:e7:f0:fa:
                    92:5f:bb:55:b4:e7:d1:8b:58:52:90:13:77:b1:19:
                    07:14:4c:32:2c:86:7b:2c:7b:40:c2:80:35:ba:9d:
                    b6:74:34:70:08:89:88:87:4c:2f:7a:ef:e2:9c:58:
                    fa:79:cf:5a:58:2e:64:f3:28:44:91:7d:6a:96:67:
                    65:ad:e8:3e:b6:15:c1:fc:05:0f:ab:9e:14:15:dd:
                    9e:cb:28:a9:81:9a:71:42:33:17:7b:95:6b:b7:5f:
                    ef:c3:5b:ef:b9:e0:4f:27:e4:24:a6:cb:ec:ef:e8:
                    e3:1b:af:15:42:a2:fb:e0:6d:20:da:35:f6:34:6d:
                    3d:23:a2:b2:d5:14:87:a2:50:cb:80:97:ce:d0:9c:
                    76:74:ed:e3:17:fc:61:f7:ef:80:ed:f5:b4:21:b7:
                    5a:88:50:0b:33:3e:5d:87:82:e7:f4:a0:28:7c:5c:
                    79:49:2e:23:2c:a1:59:6a:20:59:a0:a7:4f:58:51:
                    be:3d:d8:c7:2c:09:12:8b:e5:74:13:07:03:f8:b3:
                    6f:dd:85:33:41:58:ab:07:63:19:8c:d6:bd:11:f0:
                    44:7e:21:2b:1e:62:de:9a:08:e9:d2:f1:9a:c1:9e:
                    cf:38:1c:14:cf:0f:c9:a4:e6:6e:f5:6f:0b:b6:fd:
                    9a:c5:02:f0:75:47:d7:06:52:17:07:0f:af:ec:11:
                    d9:45:c7:30:7b:e1:82:c9:c5:d6:d0:12:1a:d1:71:
                    86:59:bc:c4:e4:fd:6a:c9:bf:b7:ab:7c:0a:3b:01:
                    37:5b:ae:08:95:02:a6:ef:36:88:73:68:d3:29:eb:
                    99:2b:33
                Exponent: 65537 (0x10001)
    Signature Algorithm: sha256WithRSAEncryption
         64:ac:24:79:35:d5:8e:9e:c6:15:5d:3b:ff:80:62:6f:fc:c8:
         a6:7f:d4:4e:5d:55:25:4c:0a:f0:d6:ec:e3:5f:d4:0a:6a:10:
         c8:64:9a:56:b6:33:96:78:3d:c7:57:69:e7:a3:25:3f:a4:19:
         2b:8b:7b:38:51:d9:d3:25:0b:df:5f:45:9b:ec:9e:56:33:d3:
         23:ed:72:c1:94:21:da:87:57:d1:77:42:f1:50:ff:09:38:20:
         cd:86:06:eb:3a:8c:de:5d:b1:78:c7:ce:d7:03:4f:88:49:86:
         4a:ad:db:97:ab:27:15:a8:5c:40:b4:e1:a1:f8:a7:fd:43:9c:
         8b:e1:f8:78:2a:7f:99:26:be:56:b4:a8:3f:ec:ca:30:46:67:
         ad:78:ef:5a:38:e7:68:88:1a:33:71:e3:99:0b:b0:76:05:cc:
         6f:4c:fe:86:ee:03:ae:66:98:2a:82:9e:29:6d:a8:99:fb:1d:
         9e:6d:57:5f:e0:b3:83:38:15:2f:e1:30:40:c0:3e:9f:a0:23:
         a1:13:eb:a0:3f:f4:42:d0:88:08:61:24:44:bd:a2:4d:0d:59:
         e1:f4:9d:79:fb:18:8e:31:2b:4c:d7:49:09:ed:a9:ce:dc:25:
         44:2a:25:7d:20:13:35:eb:d0:5e:a4:bb:f4:6c:8b:68:9c:37:
         2f:1d:5d:61:3b:5d:0c:71:d3:fc:f5:fb:89:79:e4:26:1c:4f:
         1e:d2:97:f5:bc:e4:6d:2e:17:cc:81:18:59:b5:3f:f3:cd:da:
         d8:31:66:9e:7f:43:20:e2:e4:c8:37:dc:13:7b:37:9d:81:14:
         a7:a8:72:b6:c1:5e:6c:08:a5:ad:e8:a5:8e:91:45:4c:ca:63:
         46:35:f8:9d:7c:da:6a:f6:ab:a1:05:08:87:40:91:16:3d:d9:
         e9:bd:7c:ef:cd:a7:db:db:a5:a9:a4:ec:20:04:26:1e:9a:04:
         1e:b6:f3:1e:4a:29:27:87:a2:e0:86:82:df:ab:c9:c7:78:65:
         5c:80:5d:99:ab:07:06:d3:c2:a9:fe:f8:32:6a:8c:14:14:0b:
         75:bb:16:cb:e2:ba:ce:74:b6:ce:68:98:df:d4:0e:d4:d7:4b:
         ec:89:90:bc:91:ae:b5:ae:8a:98:f2:4b:c2:ee:94:9e:36:92:
         21:a2:d2:8e:8e:7e:d4:c7:17:bc:29:de:60:be:d1:84:1a:a5:
         4a:b7:8b:b8:e0:e2:af:fe:c1:d8:18:51:10:b9:84:cf:d9:f0:
         da:ad:45:b1:97:00:f8:8a:48:76:6b:20:e7:41:ec:9a:c9:88:
         c1:d8:49:c9:e7:d9:df:16:31:55:45:5e:e1:f7:4b:e7:86:ba:
         34:b4:cb:e3:73:2f:0e:a8
-----BEGIN CERTIFICATE-----
MIIFPzCCAycCASMwDQYJKoZIhvcNAQELBQAwdDELMAkGA1UEBhMCZnIxDDAKBgNV
BAgMA2lkZjEOMAwGA1UEBwwFcGFyaXMxEDAOBgNVBAoMB3ZpdGFtdWkxFDASBgNV
BAsMC2F1dGhvcml0aWVzMR8wHQYDVQQDDBZjYV9pbnRlcm1lZGlhdGVfc2VydmVy
MB4XDTIyMTEyMzE2NTkwOFoXDTI1MTEyMjE2NTkwOFowVzELMAkGA1UEBhMCZnIx
DDAKBgNVBAgMA2lkZjEOMAwGA1UEBwwFcGFyaXMxEDAOBgNVBAoMB3ZpdGFtdWkx
GDAWBgNVBAMMD2Rldi52aXRhbXVpLmNvbTCCAiIwDQYJKoZIhvcNAQEBBQADggIP
ADCCAgoCggIBAM78rSK1thMwI96iPYyosIfh83PNnqW0ENCUC0OBVH2SrPv4T/I1
BR7X361YfVgtCWV1lUXZzojPAfYawxtGrJwHy+qrJXDu2EuRs9GUtAwL1AqH/rWG
GwwzFWYz/PT0WAkBwDxdMzu1ZVtgCeLEruplDLF32fT594hliY9Dk6fvBNhIP/uo
abn2YSqvUDA/McFqY1byS4N4r625ZfLa5SW3bynQstbV/WyeXKfmYC6OeE9oox/C
zsYvw6bftZeYROCfH9uM7DSaPnd642+Q5/D6kl+7VbTn0YtYUpATd7EZBxRMMiyG
eyx7QMKANbqdtnQ0cAiJiIdML3rv4pxY+nnPWlguZPMoRJF9apZnZa3oPrYVwfwF
D6ueFBXdnssoqYGacUIzF3uVa7df78Nb77ngTyfkJKbL7O/o4xuvFUKi++BtINo1
9jRtPSOistUUh6JQy4CXztCcdnTt4xf8YffvgO31tCG3WohQCzM+XYeC5/SgKHxc
eUkuIyyhWWogWaCnT1hRvj3YxywJEovldBMHA/izb92FM0FYqwdjGYzWvRHwRH4h
Kx5i3poI6dLxmsGezzgcFM8PyaTmbvVvC7b9msUC8HVH1wZSFwcPr+wR2UXHMHvh
gsnF1tASGtFxhlm8xOT9asm/t6t8CjsBN1uuCJUCpu82iHNo0ynrmSszAgMBAAEw
DQYJKoZIhvcNAQELBQADggIBAGSsJHk11Y6exhVdO/+AYm/8yKZ/1E5dVSVMCvDW
7ONf1ApqEMhkmla2M5Z4PcdXaeejJT+kGSuLezhR2dMlC99fRZvsnlYz0yPtcsGU
IdqHV9F3QvFQ/wk4IM2GBus6jN5dsXjHztcDT4hJhkqt25erJxWoXEC04aH4p/1D
nIvh+Hgqf5kmvla0qD/syjBGZ61471o452iIGjNx45kLsHYFzG9M/obuA65mmCqC
niltqJn7HZ5tV1/gs4M4FS/hMEDAPp+gI6ET66A/9ELQiAhhJES9ok0NWeH0nXn7
GI4xK0zXSQntqc7cJUQqJX0gEzXr0F6ku/Rsi2icNy8dXWE7XQxx0/z1+4l55CYc
Tx7Sl/W85G0uF8yBGFm1P/PN2tgxZp5/QyDi5Mg33BN7N52BFKeocrbBXmwIpa3o
pY6RRUzKY0Y1+J182mr2q6EFCIdAkRY92em9fO/Np9vbpamk7CAEJh6aBB628x5K
KSeHouCGgt+rycd4ZVyAXZmrBwbTwqn++DJqjBQUC3W7Fsvius50ts5omN/UDtTX
S+yJkLyRrrWuipjyS8LulJ42kiGi0o6OftTHF7wp3mC+0YQapUq3i7jg4q/+wdgY
URC5hM/Z8NqtRbGXAPiKSHZrIOdB7JrJiMHYScnn2d8WMVVFXuH3S+eGujS0y+Nz
Lw6o
-----END CERTIFICATE-----
