Certificate:
    Data:
        Version: 1 (0x0)
        Serial Number: 16 (0x10)
        Signature Algorithm: sha256WithRSAEncryption
        Issuer: C=fr, ST=idf, L=paris, O=vitamui, OU=authorities, CN=ca_intermediate_server
        Validity
            Not Before: Nov 19 09:16:49 2020 GMT
            Not After : Nov 19 09:16:49 2023 GMT
        Subject: C=fr, ST=idf, L=paris, O=vitamui, CN=dev.vitamui.com
        Subject Public Key Info:
            Public Key Algorithm: rsaEncryption
                RSA Public-Key: (4096 bit)
                Modulus:
                    00:be:91:b6:63:e8:e2:69:23:a3:9b:cb:56:19:da:
                    fe:be:ed:4c:d9:1c:6b:21:1f:e4:72:58:f6:1a:d4:
                    78:72:ea:72:a5:59:03:2b:32:5a:f3:5b:c7:1d:a7:
                    a6:14:80:a8:3e:4e:70:72:6b:a5:85:62:5a:15:e4:
                    f4:bc:b7:92:78:97:1a:2c:3c:84:2d:f4:35:19:57:
                    d8:e0:61:65:af:04:db:5b:8f:69:04:5e:ff:01:eb:
                    a9:e2:de:26:60:9d:ef:4a:d8:47:56:7f:05:df:ab:
                    03:4d:a0:69:14:e5:ba:bb:f1:06:13:3a:e3:df:7d:
                    fa:b8:52:c2:4b:dc:02:0b:e5:d5:f8:22:82:9d:f7:
                    77:d8:a1:c6:e1:9c:fc:e2:cf:04:51:c3:f6:9f:ef:
                    65:e1:a1:71:45:e0:51:c7:65:a0:3b:8a:98:4b:19:
                    0c:49:c8:a4:fb:50:53:68:87:8d:d5:94:1f:21:ad:
                    8e:43:6c:e6:79:8f:7e:a0:ea:f6:9f:33:23:6f:48:
                    df:57:f4:8b:42:2f:5e:2a:bf:51:ce:86:f4:08:a8:
                    2b:f7:a4:af:e3:c3:3c:a4:ef:dc:e3:56:3d:c5:cd:
                    3f:4a:c7:2d:82:ba:0d:d5:2f:e5:cc:34:b5:c7:21:
                    fb:6b:0b:f4:04:8c:6a:dd:b0:be:67:21:c7:2b:6d:
                    cf:a8:72:84:25:68:c3:7d:ac:dd:dd:3d:1d:0f:d7:
                    10:a8:01:53:c7:c7:59:f7:eb:0a:dc:5c:37:3a:74:
                    5a:2a:00:dd:10:7a:98:30:9a:91:5d:fb:4e:99:95:
                    17:40:5e:ec:ab:cb:84:01:0f:f2:23:33:e6:6d:1e:
                    b1:82:e5:64:f7:a9:21:f3:d2:9c:fa:5d:ec:5c:fb:
                    de:52:d9:ea:43:59:90:cf:3e:ec:d8:20:25:c7:7b:
                    a4:45:81:5d:5d:23:0e:d5:b0:e5:78:7d:99:cc:7c:
                    24:97:44:53:6e:5b:ab:88:03:78:4b:c9:52:e4:79:
                    f4:28:39:92:c9:f6:85:b0:ca:a8:39:a2:46:b1:b7:
                    2d:19:2b:8d:01:a6:8d:62:88:14:9c:f8:a7:83:1b:
                    8e:9f:7e:33:83:22:b1:03:9b:5a:de:f2:82:bc:80:
                    46:49:ea:fb:13:8b:0f:70:ba:85:66:c3:35:a6:e4:
                    89:34:9f:b7:9a:d5:02:ff:4a:63:90:4d:86:b2:4f:
                    4b:75:4d:6a:68:de:0f:38:79:ff:4c:9e:a5:f5:7c:
                    77:97:de:a2:63:eb:06:bb:fe:69:c1:66:aa:99:b6:
                    de:69:3a:e0:d7:de:53:84:72:e9:cc:e2:00:d9:e1:
                    03:e6:bc:75:b3:f5:09:cf:40:2d:20:f9:23:c8:0f:
                    d3:05:09
                Exponent: 65537 (0x10001)
    Signature Algorithm: sha256WithRSAEncryption
         00:eb:55:b0:9b:29:2d:6e:f1:38:10:41:22:63:9f:3b:6a:b4:
         30:41:af:96:fb:f6:7e:ee:82:a8:1e:e4:12:2c:5f:f9:a5:a4:
         a6:b0:fa:3e:37:2e:b7:5f:f3:87:60:87:e5:43:5e:ce:26:f0:
         38:77:a1:06:61:b4:64:a5:b9:bf:f5:53:e6:d6:49:db:3d:11:
         d7:6c:47:ec:69:2e:13:35:34:2a:f7:76:07:e1:96:8f:7a:ee:
         ed:e1:d0:56:bc:ca:23:ac:99:3f:19:bd:61:ad:c6:b8:49:df:
         53:37:6c:9b:d2:8d:2b:00:6f:7b:34:fd:df:3e:09:49:c3:70:
         6f:2c:06:9b:c3:83:7b:61:31:cc:30:69:f3:e9:c6:56:c2:89:
         73:9b:2b:e5:d0:83:d3:50:21:cd:16:dd:7e:8e:aa:23:4c:d8:
         7c:22:6c:c7:79:1b:5d:b4:c6:77:17:d6:08:31:37:85:92:01:
         39:b2:99:67:65:10:cb:d2:67:e0:e6:d2:a6:9e:a8:32:77:df:
         bf:7a:8c:0c:19:7c:16:b6:38:2d:7a:07:04:ea:56:be:f6:0b:
         39:f3:25:dc:fe:3b:0c:96:6d:47:17:ff:f0:d7:5c:b5:84:ed:
         55:bc:e7:86:fc:52:4e:80:92:d0:6b:ff:fa:02:53:69:07:57:
         7c:f5:d0:46:06:dc:0f:d8:93:c0:c0:fc:64:93:40:ef:0f:f4:
         d3:12:2b:59:3f:2a:df:d7:3e:82:52:60:d8:27:06:dc:bf:3b:
         01:f2:20:74:8c:d2:49:41:c3:e6:8e:1f:2c:2c:ee:26:51:8a:
         cf:68:38:88:78:3e:20:ce:6b:1f:04:70:2e:a2:a3:7a:4a:1f:
         6c:0e:1c:13:ad:11:be:e4:74:23:84:38:be:41:59:d8:21:f1:
         c5:e7:5e:5b:aa:98:8a:4b:a1:58:d1:cc:e4:55:67:85:c3:8e:
         02:86:c0:ab:c5:70:3a:3c:6e:56:1b:9f:f2:a7:ac:14:36:8b:
         a2:9a:c3:ad:36:7e:06:06:d2:9d:82:87:47:ac:5c:03:74:24:
         74:89:bd:62:15:b9:c1:f8:78:cf:1d:5b:32:3d:2b:b6:86:31:
         4c:dc:00:13:ab:15:fb:c7:2f:51:c1:db:04:2c:33:08:ea:ad:
         6b:6a:77:6a:95:53:79:24:b3:e9:41:de:c5:d6:57:10:96:12:
         f7:11:b9:57:1c:d7:8c:f5:ed:49:26:f9:24:49:61:ab:1f:4e:
         b5:70:28:cc:25:73:27:82:75:9d:e2:85:88:c1:4d:18:f8:6c:
         46:ff:48:a1:5a:0b:1d:cd:87:56:de:30:e1:e0:6d:d1:ea:23:
         ac:0e:f5:82:7e:22:6d:1b
-----BEGIN CERTIFICATE-----
MIIFPzCCAycCARAwDQYJKoZIhvcNAQELBQAwdDELMAkGA1UEBhMCZnIxDDAKBgNV
BAgMA2lkZjEOMAwGA1UEBwwFcGFyaXMxEDAOBgNVBAoMB3ZpdGFtdWkxFDASBgNV
BAsMC2F1dGhvcml0aWVzMR8wHQYDVQQDDBZjYV9pbnRlcm1lZGlhdGVfc2VydmVy
MB4XDTIwMTExOTA5MTY0OVoXDTIzMTExOTA5MTY0OVowVzELMAkGA1UEBhMCZnIx
DDAKBgNVBAgMA2lkZjEOMAwGA1UEBwwFcGFyaXMxEDAOBgNVBAoMB3ZpdGFtdWkx
GDAWBgNVBAMMD2Rldi52aXRhbXVpLmNvbTCCAiIwDQYJKoZIhvcNAQEBBQADggIP
ADCCAgoCggIBAL6RtmPo4mkjo5vLVhna/r7tTNkcayEf5HJY9hrUeHLqcqVZAysy
WvNbxx2nphSAqD5OcHJrpYViWhXk9Ly3kniXGiw8hC30NRlX2OBhZa8E21uPaQRe
/wHrqeLeJmCd70rYR1Z/Bd+rA02gaRTlurvxBhM64999+rhSwkvcAgvl1fgigp33
d9ihxuGc/OLPBFHD9p/vZeGhcUXgUcdloDuKmEsZDEnIpPtQU2iHjdWUHyGtjkNs
5nmPfqDq9p8zI29I31f0i0IvXiq/Uc6G9AioK/ekr+PDPKTv3ONWPcXNP0rHLYK6
DdUv5cw0tcch+2sL9ASMat2wvmchxyttz6hyhCVow32s3d09HQ/XEKgBU8fHWffr
CtxcNzp0WioA3RB6mDCakV37TpmVF0Be7KvLhAEP8iMz5m0esYLlZPepIfPSnPpd
7Fz73lLZ6kNZkM8+7NggJcd7pEWBXV0jDtWw5Xh9mcx8JJdEU25bq4gDeEvJUuR5
9Cg5ksn2hbDKqDmiRrG3LRkrjQGmjWKIFJz4p4Mbjp9+M4MisQObWt7ygryARknq
+xOLD3C6hWbDNabkiTSft5rVAv9KY5BNhrJPS3VNamjeDzh5/0yepfV8d5feomPr
Brv+acFmqpm23mk64NfeU4Ry6cziANnhA+a8dbP1Cc9ALSD5I8gP0wUJAgMBAAEw
DQYJKoZIhvcNAQELBQADggIBAADrVbCbKS1u8TgQQSJjnztqtDBBr5b79n7ugqge
5BIsX/mlpKaw+j43Lrdf84dgh+VDXs4m8Dh3oQZhtGSlub/1U+bWSds9EddsR+xp
LhM1NCr3dgfhlo967u3h0Fa8yiOsmT8ZvWGtxrhJ31M3bJvSjSsAb3s0/d8+CUnD
cG8sBpvDg3thMcwwafPpxlbCiXObK+XQg9NQIc0W3X6OqiNM2HwibMd5G120xncX
1ggxN4WSATmymWdlEMvSZ+Dm0qaeqDJ33796jAwZfBa2OC16BwTqVr72CznzJdz+
OwyWbUcX//DXXLWE7VW854b8Uk6AktBr//oCU2kHV3z10EYG3A/Yk8DA/GSTQO8P
9NMSK1k/Kt/XPoJSYNgnBty/OwHyIHSM0klBw+aOHyws7iZRis9oOIh4PiDOax8E
cC6io3pKH2wOHBOtEb7kdCOEOL5BWdgh8cXnXluqmIpLoVjRzORVZ4XDjgKGwKvF
cDo8blYbn/KnrBQ2i6Kaw602fgYG0p2Ch0esXAN0JHSJvWIVucH4eM8dWzI9K7aG
MUzcABOrFfvHL1HB2wQsMwjqrWtqd2qVU3kks+lB3sXWVxCWEvcRuVcc14z17Ukm
+SRJYasfTrVwKMwlcyeCdZ3ihYjBTRj4bEb/SKFaCx3Nh1beMOHgbdHqI6wO9YJ+
Im0b
-----END CERTIFICATE-----
