Certificate:
    Data:
        Version: 1 (0x0)
        Serial Number: 53 (0x35)
        Signature Algorithm: sha256WithRSAEncryption
        Issuer: C=fr, ST=idf, L=paris, O=vitamui, OU=authorities, CN=ca_intermediate_server
        Validity
            Not Before: Nov 23 16:59:43 2022 GMT
            Not After : Nov 22 16:59:43 2025 GMT
        Subject: C=fr, ST=idf, L=paris, O=vitamui, CN=dev.vitamui.com
        Subject Public Key Info:
            Public Key Algorithm: rsaEncryption
                RSA Public-Key: (4096 bit)
                Modulus:
                    00:a9:1c:68:bb:48:19:b1:8b:7a:d3:47:9c:3e:50:
                    f9:5e:61:8d:9d:25:de:f7:99:09:bc:e0:eb:c4:ab:
                    ff:33:7b:c3:df:a8:41:e4:bf:49:0a:fe:3f:5f:62:
                    c9:fc:5e:34:a7:46:2d:7d:ed:a9:c6:39:d4:98:84:
                    47:41:8d:36:73:8e:4a:b5:91:d2:40:11:4a:ac:bc:
                    4b:c5:6f:44:7f:57:01:98:97:ed:03:6f:a7:91:b6:
                    8a:11:46:0d:77:53:72:35:b0:1b:5a:de:1b:fe:61:
                    e5:d3:e2:ec:5e:41:3c:ff:ba:70:4a:28:4c:2d:25:
                    ee:a1:ea:31:a1:60:1f:f4:ea:26:1d:a4:01:07:4c:
                    0b:39:ea:f5:22:5b:68:ca:a9:5d:65:39:c7:46:16:
                    46:74:b1:ee:fb:1d:26:d7:30:23:46:eb:b2:ae:09:
                    66:87:c4:a7:10:70:27:e6:cd:1d:b1:cb:c5:0c:87:
                    0d:a1:22:41:18:3c:ed:d5:19:5d:92:3f:bd:c2:23:
                    8b:39:d9:ad:e9:c2:e7:21:a6:fa:6c:92:61:6d:6f:
                    94:3c:8b:1f:bc:0d:3d:94:2f:04:8a:89:ed:d3:8c:
                    2b:61:d4:b6:c5:8f:d2:14:a0:f1:36:6a:a9:a7:9e:
                    9d:b2:e3:b0:cd:45:1a:56:33:63:40:df:d2:70:5a:
                    bd:20:6a:68:3e:16:d3:23:c0:a6:f0:55:24:5e:b1:
                    12:a6:62:3a:a3:4f:6b:4e:de:7b:4b:08:76:ba:d5:
                    b8:12:93:81:b0:fb:6e:1e:0b:f5:6c:68:d1:13:c8:
                    bd:9f:a8:cf:4d:2f:eb:6a:18:0a:2a:f1:bb:97:fa:
                    64:2c:78:a6:12:5a:4e:01:5a:01:05:ae:2f:5e:72:
                    07:a2:c5:bf:c8:29:3a:37:a9:6a:63:31:92:6b:ac:
                    bc:65:09:a5:e1:d0:27:e7:a6:dd:0a:3a:44:e0:3f:
                    1a:d5:4e:e1:36:3c:c6:44:bf:44:75:82:34:56:0e:
                    f1:99:3f:89:aa:24:9a:3f:c4:78:29:9e:4c:13:34:
                    8b:dd:68:ea:90:7f:ce:e0:d4:9a:a8:e8:a5:b0:fc:
                    7b:6e:89:7d:c6:10:57:3a:73:e5:51:d7:13:be:f1:
                    be:a1:c4:67:26:f5:fd:5e:9d:a5:7c:d9:b6:73:a6:
                    d9:94:94:df:01:64:6b:4f:14:00:fe:24:51:b1:55:
                    f9:66:86:d7:a2:3b:ad:83:33:f4:f4:97:ce:90:76:
                    f0:04:9a:c7:07:0c:07:92:f9:65:e2:82:f2:8a:2f:
                    84:b9:97:b5:b1:e3:b9:24:d0:06:58:16:ee:f2:89:
                    72:2a:f2:09:1c:16:24:d7:1b:d6:60:2b:88:e2:9e:
                    20:7d:b7
                Exponent: 65537 (0x10001)
    Signature Algorithm: sha256WithRSAEncryption
         79:f4:13:56:bc:a7:9b:fd:ac:4f:eb:cf:e4:6e:c1:2a:61:81:
         e5:b5:ab:7f:d4:8f:d9:45:ac:80:62:79:fa:c2:f0:35:8f:08:
         27:bd:66:c5:52:28:d6:7e:c5:9d:c2:0f:68:44:4a:87:c9:8e:
         2b:5a:b0:21:b6:31:f5:3c:0f:40:03:ac:61:cc:0a:6f:d7:a2:
         77:c8:33:92:b3:61:29:07:2d:46:f9:c2:eb:49:54:c7:96:95:
         d4:48:be:2a:b2:26:d1:5f:13:ba:93:4c:bb:d6:ca:87:01:9a:
         0c:22:84:94:14:99:1d:7d:c7:88:18:45:6b:e6:11:1a:8a:c7:
         9f:26:6c:3b:9b:d4:82:21:2a:53:3e:d1:a3:d0:40:26:44:1d:
         32:c1:13:8e:a9:ea:1a:d9:c6:34:eb:08:b5:2f:f6:4e:4b:58:
         49:7e:f0:b0:58:61:12:bf:77:fb:32:04:b2:9c:b2:3a:5c:95:
         bd:7a:b2:b6:ec:04:9a:b7:01:f1:8d:c2:ac:7d:73:68:49:6b:
         dc:86:eb:ef:ae:84:b7:cd:14:bd:5f:48:3f:24:1c:b3:fd:95:
         9a:b8:2a:26:67:d3:a5:c0:70:6b:41:1a:9e:81:f7:bc:e9:01:
         df:42:71:b2:57:29:bf:8f:bb:98:45:b5:23:82:b9:18:7e:54:
         f6:99:10:05:17:f2:32:12:73:f6:be:3f:c5:5d:87:9f:82:f5:
         18:ea:5f:cc:eb:1b:14:f0:3f:39:ac:46:05:d5:79:70:a4:67:
         ad:2c:85:2d:79:20:55:6c:11:a2:2d:d3:31:27:1b:57:ec:4b:
         69:07:8f:02:26:5b:97:20:bd:db:80:f5:1d:db:b6:c4:30:bb:
         7f:fe:d5:f1:48:df:a6:c6:99:fc:4a:cf:77:d4:a3:89:1e:0d:
         29:7b:22:68:14:0b:a7:d4:78:59:12:9f:38:a8:a3:2b:d6:20:
         0a:c7:46:44:d1:f1:65:86:2c:7f:fc:22:a2:05:60:9f:42:6e:
         76:16:21:be:80:88:db:09:df:a4:df:b1:df:69:ab:92:db:e2:
         2a:d8:87:7e:d2:46:16:35:e5:55:f3:34:ee:f2:af:fb:38:07:
         78:ff:47:3e:6b:98:f8:13:34:b2:07:06:ae:a7:ea:d4:9e:d7:
         01:31:30:1f:72:8c:c9:95:c0:fe:d8:eb:a5:25:81:c8:2f:01:
         2c:68:33:6a:8b:f9:36:d2:0e:22:7a:56:15:71:03:99:5f:9a:
         df:4e:c7:e9:a5:97:60:ef:8e:5a:ab:c4:57:0c:2a:36:fb:7b:
         3a:cf:01:f6:a1:22:1e:cc:29:44:dd:65:94:ec:fc:24:6a:ee:
         38:32:85:45:7c:c5:5a:76
-----BEGIN CERTIFICATE-----
MIIFPzCCAycCATUwDQYJKoZIhvcNAQELBQAwdDELMAkGA1UEBhMCZnIxDDAKBgNV
BAgMA2lkZjEOMAwGA1UEBwwFcGFyaXMxEDAOBgNVBAoMB3ZpdGFtdWkxFDASBgNV
BAsMC2F1dGhvcml0aWVzMR8wHQYDVQQDDBZjYV9pbnRlcm1lZGlhdGVfc2VydmVy
MB4XDTIyMTEyMzE2NTk0M1oXDTI1MTEyMjE2NTk0M1owVzELMAkGA1UEBhMCZnIx
DDAKBgNVBAgMA2lkZjEOMAwGA1UEBwwFcGFyaXMxEDAOBgNVBAoMB3ZpdGFtdWkx
GDAWBgNVBAMMD2Rldi52aXRhbXVpLmNvbTCCAiIwDQYJKoZIhvcNAQEBBQADggIP
ADCCAgoCggIBAKkcaLtIGbGLetNHnD5Q+V5hjZ0l3veZCbzg68Sr/zN7w9+oQeS/
SQr+P19iyfxeNKdGLX3tqcY51JiER0GNNnOOSrWR0kARSqy8S8VvRH9XAZiX7QNv
p5G2ihFGDXdTcjWwG1reG/5h5dPi7F5BPP+6cEooTC0l7qHqMaFgH/TqJh2kAQdM
Cznq9SJbaMqpXWU5x0YWRnSx7vsdJtcwI0brsq4JZofEpxBwJ+bNHbHLxQyHDaEi
QRg87dUZXZI/vcIjiznZrenC5yGm+mySYW1vlDyLH7wNPZQvBIqJ7dOMK2HUtsWP
0hSg8TZqqaeenbLjsM1FGlYzY0Df0nBavSBqaD4W0yPApvBVJF6xEqZiOqNPa07e
e0sIdrrVuBKTgbD7bh4L9Wxo0RPIvZ+oz00v62oYCirxu5f6ZCx4phJaTgFaAQWu
L15yB6LFv8gpOjepamMxkmusvGUJpeHQJ+em3Qo6ROA/GtVO4TY8xkS/RHWCNFYO
8Zk/iaokmj/EeCmeTBM0i91o6pB/zuDUmqjopbD8e26JfcYQVzpz5VHXE77xvqHE
Zyb1/V6dpXzZtnOm2ZSU3wFka08UAP4kUbFV+WaG16I7rYMz9PSXzpB28ASaxwcM
B5L5ZeKC8oovhLmXtbHjuSTQBlgW7vKJciryCRwWJNcb1mAriOKeIH23AgMBAAEw
DQYJKoZIhvcNAQELBQADggIBAHn0E1a8p5v9rE/rz+RuwSphgeW1q3/Uj9lFrIBi
efrC8DWPCCe9ZsVSKNZ+xZ3CD2hESofJjitasCG2MfU8D0ADrGHMCm/XonfIM5Kz
YSkHLUb5wutJVMeWldRIviqyJtFfE7qTTLvWyocBmgwihJQUmR19x4gYRWvmERqK
x58mbDub1IIhKlM+0aPQQCZEHTLBE46p6hrZxjTrCLUv9k5LWEl+8LBYYRK/d/sy
BLKcsjpclb16srbsBJq3AfGNwqx9c2hJa9yG6++uhLfNFL1fSD8kHLP9lZq4KiZn
06XAcGtBGp6B97zpAd9CcbJXKb+Pu5hFtSOCuRh+VPaZEAUX8jISc/a+P8Vdh5+C
9RjqX8zrGxTwPzmsRgXVeXCkZ60shS15IFVsEaIt0zEnG1fsS2kHjwImW5cgvduA
9R3btsQwu3/+1fFI36bGmfxKz3fUo4keDSl7ImgUC6fUeFkSnziooyvWIArHRkTR
8WWGLH/8IqIFYJ9CbnYWIb6AiNsJ36Tfsd9pq5Lb4irYh37SRhY15VXzNO7yr/s4
B3j/Rz5rmPgTNLIHBq6n6tSe1wExMB9yjMmVwP7Y66UlgcgvASxoM2qL+TbSDiJ6
VhVxA5lfmt9Ox+mll2DvjlqrxFcMKjb7ezrPAfahIh7MKUTdZZTs/CRq7jgyhUV8
xVp2
-----END CERTIFICATE-----
