Certificate:
    Data:
        Version: 1 (0x0)
        Serial Number: 19 (0x13)
        Signature Algorithm: sha256WithRSAEncryption
        Issuer: C=fr, ST=idf, L=paris, O=vitamui, OU=authorities, CN=ca_intermediate_server
        Validity
            Not Before: Oct 20 15:03:45 2020 GMT
            Not After : Oct 20 15:03:45 2023 GMT
        Subject: C=fr, ST=idf, L=paris, O=vitamui, CN=dev.vitamui.com
        Subject Public Key Info:
            Public Key Algorithm: rsaEncryption
                RSA Public-Key: (4096 bit)
                Modulus:
                    00:b0:c6:87:9f:c9:5d:f3:1d:32:78:89:a1:bc:d7:
                    df:dd:df:c3:91:3b:36:b6:80:c9:5c:0c:68:d9:9d:
                    69:54:ed:59:e5:31:aa:82:56:ad:aa:55:71:80:d5:
                    be:7a:8c:f4:db:98:d7:6b:f0:5b:40:10:4f:be:2c:
                    a5:d9:e9:ed:15:ee:f7:36:7c:64:a7:30:5f:52:94:
                    fe:ad:e3:a1:89:56:61:8f:f8:11:ab:55:28:47:32:
                    54:c9:4b:00:e7:64:5e:b1:cb:86:12:5b:5f:91:80:
                    02:c1:27:88:5e:97:53:ea:ce:02:3f:2a:62:15:5b:
                    43:59:82:06:d2:5c:47:06:55:12:68:b6:65:22:78:
                    78:08:bc:a7:30:cd:e7:2d:cc:47:ae:75:b5:63:32:
                    1d:4a:1e:72:51:c8:9c:32:a2:fd:8f:21:8f:dd:00:
                    4f:ac:52:11:cc:39:3c:0a:eb:ad:ca:7d:56:fd:1e:
                    2d:67:42:e9:0b:2b:69:12:30:9c:3c:0b:df:43:7f:
                    53:8d:71:1c:10:78:00:31:ee:ad:69:cb:28:c8:e4:
                    80:7a:ca:23:39:14:23:0b:c1:9d:49:56:6b:6f:b9:
                    7c:3b:a3:63:8c:df:89:82:8b:b5:e2:11:37:89:86:
                    4d:82:ea:25:6a:36:c4:6f:ab:22:08:2c:28:0c:d3:
                    f1:c6:5b:ef:9c:cc:7b:ae:c5:eb:ba:1b:4f:70:c1:
                    bd:19:a5:a6:88:39:41:30:90:15:67:a2:78:41:4d:
                    e0:22:8f:3e:4c:07:f5:62:cd:66:34:c5:2a:0b:c9:
                    40:48:9d:4a:39:65:8d:53:fb:70:fd:45:99:2f:ab:
                    5e:68:76:31:c1:e6:42:60:64:93:1d:66:9a:ee:80:
                    8c:35:6d:36:c3:9d:de:42:e5:90:e3:0a:f0:2b:88:
                    05:b6:06:54:a3:d5:e0:a3:c5:ee:e4:8f:33:f8:4f:
                    de:79:8f:27:b2:20:ef:a0:f2:dc:cb:e1:d7:98:39:
                    37:b1:0c:63:23:81:cb:12:e3:51:cf:40:48:f7:0c:
                    41:96:ad:a5:57:76:ab:88:80:55:0e:7c:9d:e0:6e:
                    a7:79:17:fa:4e:ec:ff:58:29:75:05:09:48:b5:6a:
                    04:38:26:63:15:f6:bd:c2:d7:e3:31:25:a0:44:b7:
                    d7:3e:bf:d9:cb:ac:71:6c:38:90:37:18:87:53:9a:
                    7b:61:13:44:90:ca:42:84:1e:d6:a1:e3:74:9f:da:
                    ef:e0:1c:09:e8:2f:06:3b:fc:21:e6:d2:2a:b8:3f:
                    ee:d3:47:5c:19:fa:ff:0a:84:8e:4a:78:8d:f0:81:
                    fe:e2:2e:c9:dd:7b:78:75:a1:ef:31:d5:e2:62:de:
                    17:c8:11
                Exponent: 65537 (0x10001)
    Signature Algorithm: sha256WithRSAEncryption
         5b:ce:92:02:27:91:21:04:4c:8b:9d:82:73:01:e7:50:d2:ff:
         ad:61:84:41:e0:c0:c7:c9:62:13:8a:97:90:7e:1c:92:97:b0:
         43:3e:9d:51:e8:96:86:13:71:56:a5:09:8a:2b:e1:e0:de:61:
         51:04:80:46:8e:50:9c:9b:8b:c4:aa:03:1d:8c:af:82:6a:c1:
         d5:74:49:3d:62:fd:1a:4f:be:33:a6:de:4e:49:4f:6d:37:fd:
         7a:71:42:ae:46:f1:da:47:71:e5:3d:95:cd:46:da:02:35:0a:
         30:e3:a6:5d:b6:54:b6:a2:08:8b:37:de:24:e1:9d:32:78:25:
         4d:cb:e0:f4:b7:b2:6c:a6:14:b1:b5:3f:e3:7d:29:44:d1:81:
         24:cf:e0:4d:13:c9:e1:9e:39:c0:3b:2e:ef:af:21:79:bc:04:
         55:23:1e:a9:72:db:80:2d:0c:96:44:45:af:83:bb:4c:95:73:
         52:47:ee:dd:ca:4e:b7:e5:d2:20:93:bf:b4:dc:f8:92:51:c8:
         75:66:54:3b:cb:fb:3f:36:ec:55:0f:46:76:99:d5:33:99:86:
         de:77:75:52:db:df:98:e5:54:00:f2:0d:98:67:ae:e7:c8:76:
         29:59:ca:2d:30:62:7c:b5:bc:91:2c:b5:4a:4e:11:4d:02:6c:
         02:f9:7a:45:d1:bd:e7:6c:25:33:f2:09:11:14:60:47:24:16:
         3a:d0:c2:93:80:96:62:f4:c9:08:fe:56:39:0f:36:84:f0:3a:
         4c:6a:01:a5:b5:a1:9e:5c:09:ec:ac:c2:80:d5:4f:ec:90:9e:
         d3:e5:29:b3:e8:13:06:fd:4f:f3:4e:c4:93:0e:ca:11:8b:84:
         77:2c:41:c0:4e:e8:b1:39:24:aa:4f:f5:60:6b:bb:a7:a6:aa:
         9a:f7:71:2b:79:7e:ed:59:60:f4:16:f7:ee:de:16:c7:8e:52:
         38:5d:2d:a6:3b:f8:a5:da:3c:a1:e1:d7:a9:a3:6b:45:3b:fd:
         82:4d:95:36:ec:4c:f7:05:58:27:ea:90:8b:49:54:90:06:2c:
         cd:db:df:35:37:71:ee:aa:36:fb:17:0e:51:e9:37:b1:e8:e6:
         88:a0:3e:cc:27:dc:d8:27:f5:48:5e:18:6a:e4:5e:09:5b:6d:
         ff:1b:ff:85:5f:37:1f:5e:18:5a:b0:ac:e1:71:1e:f4:90:f8:
         40:ef:c7:b9:99:3c:ee:e2:9e:f3:d0:d6:94:20:be:27:20:7f:
         ac:e0:6a:58:d7:6e:78:93:a0:14:5c:c5:d5:41:fc:12:8b:7a:
         24:30:13:80:41:c6:f5:a3:08:98:68:fe:e0:e5:f3:6b:62:3a:
         15:7d:8a:85:19:c6:8e:ea
-----BEGIN CERTIFICATE-----
MIIFPzCCAycCARMwDQYJKoZIhvcNAQELBQAwdDELMAkGA1UEBhMCZnIxDDAKBgNV
BAgMA2lkZjEOMAwGA1UEBwwFcGFyaXMxEDAOBgNVBAoMB3ZpdGFtdWkxFDASBgNV
BAsMC2F1dGhvcml0aWVzMR8wHQYDVQQDDBZjYV9pbnRlcm1lZGlhdGVfc2VydmVy
MB4XDTIwMTAyMDE1MDM0NVoXDTIzMTAyMDE1MDM0NVowVzELMAkGA1UEBhMCZnIx
DDAKBgNVBAgMA2lkZjEOMAwGA1UEBwwFcGFyaXMxEDAOBgNVBAoMB3ZpdGFtdWkx
GDAWBgNVBAMMD2Rldi52aXRhbXVpLmNvbTCCAiIwDQYJKoZIhvcNAQEBBQADggIP
ADCCAgoCggIBALDGh5/JXfMdMniJobzX393fw5E7NraAyVwMaNmdaVTtWeUxqoJW
rapVcYDVvnqM9NuY12vwW0AQT74spdnp7RXu9zZ8ZKcwX1KU/q3joYlWYY/4EatV
KEcyVMlLAOdkXrHLhhJbX5GAAsEniF6XU+rOAj8qYhVbQ1mCBtJcRwZVEmi2ZSJ4
eAi8pzDN5y3MR651tWMyHUoeclHInDKi/Y8hj90AT6xSEcw5PArrrcp9Vv0eLWdC
6QsraRIwnDwL30N/U41xHBB4ADHurWnLKMjkgHrKIzkUIwvBnUlWa2+5fDujY4zf
iYKLteIRN4mGTYLqJWo2xG+rIggsKAzT8cZb75zMe67F67obT3DBvRmlpog5QTCQ
FWeieEFN4CKPPkwH9WLNZjTFKgvJQEidSjlljVP7cP1FmS+rXmh2McHmQmBkkx1m
mu6AjDVtNsOd3kLlkOMK8CuIBbYGVKPV4KPF7uSPM/hP3nmPJ7Ig76Dy3Mvh15g5
N7EMYyOByxLjUc9ASPcMQZatpVd2q4iAVQ58neBup3kX+k7s/1gpdQUJSLVqBDgm
YxX2vcLX4zEloES31z6/2cuscWw4kDcYh1Oae2ETRJDKQoQe1qHjdJ/a7+AcCegv
Bjv8IebSKrg/7tNHXBn6/wqEjkp4jfCB/uIuyd17eHWh7zHV4mLeF8gRAgMBAAEw
DQYJKoZIhvcNAQELBQADggIBAFvOkgInkSEETIudgnMB51DS/61hhEHgwMfJYhOK
l5B+HJKXsEM+nVHoloYTcValCYor4eDeYVEEgEaOUJybi8SqAx2Mr4JqwdV0ST1i
/RpPvjOm3k5JT203/XpxQq5G8dpHceU9lc1G2gI1CjDjpl22VLaiCIs33iThnTJ4
JU3L4PS3smymFLG1P+N9KUTRgSTP4E0TyeGeOcA7Lu+vIXm8BFUjHqly24AtDJZE
Ra+Du0yVc1JH7t3KTrfl0iCTv7Tc+JJRyHVmVDvL+z827FUPRnaZ1TOZht53dVLb
35jlVADyDZhnrufIdilZyi0wYny1vJEstUpOEU0CbAL5ekXRvedsJTPyCREUYEck
FjrQwpOAlmL0yQj+VjkPNoTwOkxqAaW1oZ5cCeyswoDVT+yQntPlKbPoEwb9T/NO
xJMOyhGLhHcsQcBO6LE5JKpP9WBru6emqpr3cSt5fu1ZYPQW9+7eFseOUjhdLaY7
+KXaPKHh16mja0U7/YJNlTbsTPcFWCfqkItJVJAGLM3b3zU3ce6qNvsXDlHpN7Ho
5oigPswn3Ngn9UheGGrkXglbbf8b/4VfNx9eGFqwrOFxHvSQ+EDvx7mZPO7invPQ
1pQgvicgf6zgaljXbniToBRcxdVB/BKLeiQwE4BBxvWjCJho/uDl82tiOhV9ioUZ
xo7q
-----END CERTIFICATE-----
