Certificate:
    Data:
        Version: 1 (0x0)
        Serial Number: 31 (0x1f)
        Signature Algorithm: sha256WithRSAEncryption
        Issuer: C=fr, ST=idf, L=paris, O=vitamui, OU=authorities, CN=ca_intermediate_server
        Validity
            Not Before: Dec  9 09:41:02 2020 GMT
            Not After : Dec  9 09:41:02 2023 GMT
        Subject: C=fr, ST=idf, L=paris, O=vitamui, CN=dev.vitamui.com
        Subject Public Key Info:
            Public Key Algorithm: rsaEncryption
                RSA Public-Key: (4096 bit)
                Modulus:
                    00:a4:23:7d:14:58:a6:b4:de:69:0a:b5:a4:d2:ca:
                    b7:c4:c7:a2:bc:c6:65:b5:30:37:e2:8f:50:52:8b:
                    14:c7:1e:4e:20:ec:bf:2e:fb:c4:3a:e8:8a:08:e9:
                    e1:ae:31:37:09:5d:1e:ec:f9:3d:ff:d1:fa:1d:dd:
                    3d:ee:de:79:d4:a6:87:c3:1a:0b:97:f9:f2:0e:cd:
                    75:04:1e:b1:b2:94:c4:1d:e0:3f:c4:d7:1b:f4:e9:
                    7d:36:ec:5c:d8:d1:f4:e9:de:23:e6:fa:99:09:e4:
                    85:3d:49:3c:69:e4:bc:c5:08:ab:a7:7b:30:09:81:
                    1f:f7:60:d6:6d:8a:c2:92:b6:ea:d6:ad:f7:d5:fc:
                    0b:c3:b1:7e:2c:75:94:07:12:6c:f5:68:89:97:a1:
                    32:92:a1:ea:e8:f3:c5:20:f7:0c:3d:b0:06:cf:a3:
                    d9:d4:36:1f:be:90:1d:ec:21:9e:a6:44:e9:5e:dd:
                    b9:8e:b4:41:c5:70:39:16:a2:81:8a:95:3b:3a:c4:
                    35:bb:cd:de:32:e5:0b:f2:30:33:82:70:a5:ca:5d:
                    66:c3:3d:e1:35:c2:49:7e:13:4d:df:ba:8f:2e:d3:
                    9c:30:83:de:f7:13:bc:f0:06:41:3b:b0:d2:2a:76:
                    d0:f9:94:a4:11:d7:f5:c3:32:c6:7f:8a:1d:06:cc:
                    01:8f:dd:f7:23:73:c9:09:d6:5b:ff:ac:6e:b8:24:
                    a9:a2:93:13:85:47:bb:7f:8a:99:4b:dd:8c:5e:b0:
                    36:7c:cc:4f:5e:08:df:62:80:9b:4c:91:e4:aa:60:
                    0b:84:9e:24:78:49:f0:08:8f:92:aa:44:22:75:e2:
                    8a:b6:86:00:70:ca:1d:fb:ec:26:46:b8:e8:a3:dd:
                    12:a7:fa:5e:de:c4:69:f6:65:52:c9:ea:40:b7:8a:
                    5c:15:0c:3b:33:64:2d:3d:0c:8b:0b:48:48:be:1e:
                    03:49:3f:b6:2a:6c:14:fb:42:a1:42:3a:7d:c2:a2:
                    e3:6b:f0:7b:c6:b2:64:90:e2:1b:5e:0e:6b:f7:0c:
                    ad:2a:83:5c:c2:ab:bf:65:82:0f:04:dc:30:aa:bd:
                    bc:99:43:3e:ff:79:01:90:43:cd:7c:64:7e:d8:cc:
                    7d:6c:df:08:ce:42:e3:c2:ab:59:0c:2b:dd:c1:51:
                    77:64:1c:2a:9f:9b:63:51:eb:95:34:1f:6b:ef:e3:
                    bf:b1:5a:27:f6:0d:e4:16:7e:f8:f1:58:3d:22:8f:
                    27:b2:07:93:6e:cf:d2:e0:c0:fa:61:71:17:7f:79:
                    07:07:eb:35:71:68:dc:54:aa:e1:64:be:80:61:68:
                    a0:be:88:41:3e:dc:57:22:9f:1c:66:19:2f:f0:31:
                    a5:99:f3
                Exponent: 65537 (0x10001)
    Signature Algorithm: sha256WithRSAEncryption
         29:e4:4e:6e:3c:98:f2:cb:0f:e1:50:8f:ad:d8:dd:b3:f7:50:
         5c:5c:9d:4c:43:d9:f4:44:f2:f4:1e:c7:55:6a:25:cf:47:df:
         d1:6d:7a:3c:f4:cd:c4:66:de:39:9b:0a:c7:b2:b7:b6:a6:00:
         d1:3c:9c:e3:a7:a8:29:7d:ec:83:fd:49:ef:93:64:b9:5d:41:
         bb:bd:56:b5:92:1c:a4:a5:a4:51:95:21:6b:d7:d9:98:e4:87:
         2b:ba:da:ec:ad:42:4d:ac:a9:37:71:e6:17:1a:81:d5:cf:11:
         40:7a:a1:ab:f4:25:62:ce:46:62:a1:36:18:21:3c:56:03:f0:
         25:45:19:ee:d4:e4:43:55:75:a9:ef:04:e7:38:14:97:51:f3:
         4d:67:21:f1:3c:57:61:9f:08:0e:2c:71:ff:80:44:d2:a2:30:
         29:56:d4:6c:dc:3e:97:9d:6f:81:d5:de:49:71:22:7a:25:7e:
         5d:c8:37:49:d0:27:2f:67:64:78:aa:d0:2b:d9:22:72:bd:fe:
         48:7d:57:7b:5c:a9:d2:1e:a2:55:a9:63:bb:08:82:d3:aa:db:
         0d:18:1e:19:36:c0:b5:33:db:be:33:6d:11:12:88:c5:94:e4:
         2d:fe:7b:77:6e:b3:07:32:ef:e6:1a:5a:81:16:fa:d0:c1:6d:
         ce:de:1b:97:f0:9f:4a:3e:7b:48:a6:7c:67:89:5c:53:97:52:
         e5:be:30:56:e9:be:11:4a:df:1d:52:0c:40:cd:88:2a:7a:46:
         77:79:e2:9e:49:9b:41:b5:93:8d:b0:fb:db:b4:ba:47:4f:86:
         fe:1c:70:87:50:73:54:0c:a5:c4:55:95:8d:26:35:2e:1c:49:
         a9:6e:a0:cf:0c:ba:65:34:a9:21:7c:72:6f:7a:4f:7f:71:3f:
         23:9b:6c:ba:36:6b:91:26:6e:61:c4:f1:b5:06:a2:51:87:07:
         90:a5:9a:19:98:81:59:f2:49:6e:4e:da:3d:61:be:f0:b2:04:
         cd:16:04:2e:18:49:c2:af:d9:68:bd:4a:71:ed:10:75:d1:3f:
         a2:18:05:aa:2d:ec:9e:9a:7c:e3:b5:dd:72:78:f8:6b:d3:7d:
         76:89:05:6d:00:12:23:ff:b0:e7:47:67:b2:12:39:93:09:2e:
         97:00:12:f4:6d:1b:0c:6f:16:a1:5c:5f:28:b9:bb:b9:72:e7:
         53:0b:6f:d7:c8:47:a4:f8:10:e3:ac:bc:1b:92:de:bc:7b:89:
         48:58:5a:c0:83:06:55:c1:f1:73:23:c0:c8:69:11:50:b9:12:
         ee:5d:f2:0e:78:74:76:56:31:a6:14:b9:d8:0f:4a:31:4c:d3:
         f1:28:75:c2:3c:ca:0f:78
-----BEGIN CERTIFICATE-----
MIIFPzCCAycCAR8wDQYJKoZIhvcNAQELBQAwdDELMAkGA1UEBhMCZnIxDDAKBgNV
BAgMA2lkZjEOMAwGA1UEBwwFcGFyaXMxEDAOBgNVBAoMB3ZpdGFtdWkxFDASBgNV
BAsMC2F1dGhvcml0aWVzMR8wHQYDVQQDDBZjYV9pbnRlcm1lZGlhdGVfc2VydmVy
MB4XDTIwMTIwOTA5NDEwMloXDTIzMTIwOTA5NDEwMlowVzELMAkGA1UEBhMCZnIx
DDAKBgNVBAgMA2lkZjEOMAwGA1UEBwwFcGFyaXMxEDAOBgNVBAoMB3ZpdGFtdWkx
GDAWBgNVBAMMD2Rldi52aXRhbXVpLmNvbTCCAiIwDQYJKoZIhvcNAQEBBQADggIP
ADCCAgoCggIBAKQjfRRYprTeaQq1pNLKt8THorzGZbUwN+KPUFKLFMceTiDsvy77
xDroigjp4a4xNwldHuz5Pf/R+h3dPe7eedSmh8MaC5f58g7NdQQesbKUxB3gP8TX
G/TpfTbsXNjR9OneI+b6mQnkhT1JPGnkvMUIq6d7MAmBH/dg1m2KwpK26tat99X8
C8Oxfix1lAcSbPVoiZehMpKh6ujzxSD3DD2wBs+j2dQ2H76QHewhnqZE6V7duY60
QcVwORaigYqVOzrENbvN3jLlC/IwM4JwpcpdZsM94TXCSX4TTd+6jy7TnDCD3vcT
vPAGQTuw0ip20PmUpBHX9cMyxn+KHQbMAY/d9yNzyQnWW/+sbrgkqaKTE4VHu3+K
mUvdjF6wNnzMT14I32KAm0yR5KpgC4SeJHhJ8AiPkqpEInXiiraGAHDKHfvsJka4
6KPdEqf6Xt7EafZlUsnqQLeKXBUMOzNkLT0MiwtISL4eA0k/tipsFPtCoUI6fcKi
42vwe8ayZJDiG14Oa/cMrSqDXMKrv2WCDwTcMKq9vJlDPv95AZBDzXxkftjMfWzf
CM5C48KrWQwr3cFRd2QcKp+bY1HrlTQfa+/jv7FaJ/YN5BZ++PFYPSKPJ7IHk27P
0uDA+mFxF395BwfrNXFo3FSq4WS+gGFooL6IQT7cVyKfHGYZL/AxpZnzAgMBAAEw
DQYJKoZIhvcNAQELBQADggIBACnkTm48mPLLD+FQj63Y3bP3UFxcnUxD2fRE8vQe
x1VqJc9H39Ftejz0zcRm3jmbCseyt7amANE8nOOnqCl97IP9Se+TZLldQbu9VrWS
HKSlpFGVIWvX2Zjkhyu62uytQk2sqTdx5hcagdXPEUB6oav0JWLORmKhNhghPFYD
8CVFGe7U5ENVdanvBOc4FJdR801nIfE8V2GfCA4scf+ARNKiMClW1GzcPpedb4HV
3klxInolfl3IN0nQJy9nZHiq0CvZInK9/kh9V3tcqdIeolWpY7sIgtOq2w0YHhk2
wLUz274zbRESiMWU5C3+e3duswcy7+YaWoEW+tDBbc7eG5fwn0o+e0imfGeJXFOX
UuW+MFbpvhFK3x1SDEDNiCp6Rnd54p5Jm0G1k42w+9u0ukdPhv4ccIdQc1QMpcRV
lY0mNS4cSaluoM8MumU0qSF8cm96T39xPyObbLo2a5EmbmHE8bUGolGHB5ClmhmY
gVnySW5O2j1hvvCyBM0WBC4YScKv2Wi9SnHtEHXRP6IYBaot7J6afOO13XJ4+GvT
fXaJBW0AEiP/sOdHZ7ISOZMJLpcAEvRtGwxvFqFcXyi5u7ly51MLb9fIR6T4EOOs
vBuS3rx7iUhYWsCDBlXB8XMjwMhpEVC5Eu5d8g54dHZWMaYUudgPSjFM0/EodcI8
yg94
-----END CERTIFICATE-----
