Certificate:
    Data:
        Version: 1 (0x0)
        Serial Number: 148 (0x94)
    Signature Algorithm: sha256WithRSAEncryption
        Issuer: C=fr, ST=idf, L=paris, O=vitamui, OU=authorities, CN=ca_intermediate_server
        Validity
            Not Before: Dec  6 12:55:39 2021 GMT
            Not After : Dec  5 12:55:39 2024 GMT
        Subject: C=fr, ST=idf, L=paris, O=vitamui, CN=dev.vitamui.com
        Subject Public Key Info:
            Public Key Algorithm: rsaEncryption
                Public-Key: (4096 bit)
                Modulus:
                    00:c3:5f:83:34:d0:45:8f:5a:b5:81:70:4f:46:b5:
                    f8:97:81:c9:e9:e5:01:5b:87:82:1a:d1:4d:16:bf:
                    60:bf:23:53:fc:2b:21:73:07:f8:1e:b0:e9:a0:c2:
                    08:22:8a:06:ef:8c:00:e0:73:a7:0c:83:16:58:aa:
                    18:20:71:94:0a:61:76:9b:72:74:40:41:e9:79:f6:
                    f4:94:ad:7c:d2:7a:f1:46:95:af:e9:57:95:2d:44:
                    e9:fa:ac:07:d8:af:6b:8d:ba:0a:3a:25:0e:65:65:
                    71:56:e2:2f:d2:dd:99:74:c5:23:3b:37:fc:5a:95:
                    db:ed:50:64:9c:ad:f3:c1:f8:13:f7:ff:6d:56:37:
                    5b:36:c1:17:18:c4:1c:21:de:06:33:14:71:a0:7d:
                    d0:e8:61:66:c1:dc:7a:3e:7d:d3:3b:1c:77:30:41:
                    df:e7:40:93:f9:51:94:c4:cc:22:38:85:6b:44:84:
                    47:18:a0:ad:f5:2a:95:ab:80:10:c5:07:25:0c:56:
                    93:cc:11:2c:df:39:03:fd:f1:dd:fb:ac:1d:ff:8d:
                    dd:26:b4:19:e2:12:e0:1c:7d:21:b4:5f:05:fe:10:
                    f4:02:ba:4a:6c:05:cd:54:35:a6:90:1b:d9:f5:fb:
                    9e:6d:7b:e9:77:31:ae:40:b4:48:74:4b:ab:77:45:
                    c8:ce:5d:58:d8:84:c1:0a:3d:11:e3:1e:a5:36:0e:
                    2b:55:aa:1f:01:34:90:3f:5b:67:23:56:44:66:7a:
                    5f:af:7c:be:be:82:25:1d:41:60:d6:5b:cf:ae:82:
                    4a:58:0f:4b:08:46:f9:32:44:67:72:07:f0:6c:39:
                    bd:5c:30:79:22:72:83:3f:9b:c0:c3:3e:b4:b8:25:
                    80:93:42:91:01:7b:3c:4b:e9:a6:0d:16:86:20:a3:
                    0b:15:98:1e:d6:8c:8a:a0:05:e1:48:47:79:ec:f3:
                    3f:f6:a2:9a:1f:af:4c:98:af:66:f8:80:df:38:24:
                    7a:17:7d:dd:56:79:9e:32:2b:d2:26:a9:e9:c5:31:
                    ac:c6:7e:43:ab:58:a0:38:1c:c2:0b:38:f6:af:30:
                    a6:55:f0:8d:1d:b2:44:cb:b4:0b:90:55:41:98:39:
                    6f:73:35:94:b7:1f:b2:c4:d0:0c:47:6c:e4:bb:c9:
                    e2:7b:92:fd:87:a5:2c:51:b1:ee:71:4d:7c:2d:ce:
                    f0:2c:9a:5a:6f:c0:64:aa:40:57:7e:df:86:a0:41:
                    3d:29:e4:24:31:56:7a:22:fe:89:ab:b8:36:a2:b4:
                    0c:8f:45:3f:f2:e6:30:50:09:a3:18:dd:a4:f7:b7:
                    fa:e7:07:80:4a:4e:68:68:ae:56:8c:39:65:e6:4a:
                    99:cd:d9
                Exponent: 65537 (0x10001)
    Signature Algorithm: sha256WithRSAEncryption
         62:d9:d3:db:5e:64:93:f4:77:43:4f:c5:46:c8:87:d9:f1:d0:
         c5:a9:07:ff:1c:da:aa:73:58:05:52:e3:2e:02:84:c4:e2:da:
         69:e2:75:88:29:63:9b:6e:43:b2:c4:b9:a8:d7:1c:90:c6:f2:
         7b:0c:38:1d:67:c7:f4:28:e1:0a:ee:d1:79:49:4a:bc:b1:98:
         59:c0:57:3d:63:40:81:7c:76:a0:53:2f:66:28:4c:7d:b0:b0:
         99:1e:76:c7:1a:f5:91:19:5d:a8:37:93:fb:59:ba:68:e7:2b:
         f0:97:7a:ae:94:12:9d:cf:5e:8c:a2:ab:eb:08:26:51:e2:90:
         b2:c1:e8:8a:06:1e:67:e4:4a:cc:74:c0:70:c2:8e:c4:77:4f:
         e3:9f:d2:3f:84:cf:89:69:38:f3:81:ae:99:e1:c1:bc:18:d0:
         fb:00:e0:e9:52:5c:61:45:f7:99:93:de:0d:8e:15:b5:34:9a:
         44:d9:57:bf:73:7e:d0:17:4d:89:68:bc:6e:44:75:20:3c:b2:
         31:b9:f9:08:a9:de:62:de:70:4c:3a:6d:b6:20:25:e1:94:dc:
         3a:b2:22:53:d2:1f:44:75:2e:17:a9:4c:c7:ba:2b:19:3c:89:
         b1:e0:45:5a:56:0b:45:1c:bc:be:e4:ed:32:77:b6:4f:53:51:
         01:fe:42:4f:4e:5a:6e:0f:fc:9b:50:84:66:98:9d:c8:56:73:
         1c:c5:45:fe:0e:58:e4:51:fe:7b:00:cd:e8:58:03:52:45:ab:
         52:c7:fd:e5:e7:67:97:04:b8:b3:ff:92:37:24:bf:b2:af:af:
         3c:8d:18:41:6f:25:e3:45:2d:b7:ce:3b:84:1b:fa:f5:90:40:
         57:f1:8b:b0:a9:74:24:cc:ad:53:8f:8f:35:95:0d:fb:f9:bd:
         f5:60:bd:1e:89:eb:8a:2c:cc:bd:12:bb:f2:f6:91:79:96:3c:
         09:3d:73:66:ee:5a:b6:9a:ba:8a:57:32:e4:79:1f:00:61:8d:
         9d:60:4a:cb:73:b7:61:0f:f3:40:7f:5b:3f:bd:b0:ab:70:09:
         99:0d:41:1c:39:df:ce:31:e8:c7:a4:3a:31:f4:f0:98:26:3b:
         eb:0f:c9:ba:82:2d:e1:73:e7:ea:1f:60:d6:93:71:5f:ee:dc:
         a9:ce:ed:f5:c4:89:b8:63:bb:00:e5:12:82:7a:72:c5:5a:fb:
         e8:f9:14:10:e9:bf:3d:31:f3:18:b1:d0:1c:02:1f:5c:96:af:
         06:63:40:a7:3c:68:d0:d3:e8:0e:c1:69:31:bb:52:7e:dd:ca:
         9e:1d:e5:c8:f0:18:82:ff:18:f4:fb:6e:65:f0:6d:03:3a:a6:
         83:79:70:7c:39:18:8a:01
-----BEGIN CERTIFICATE-----
MIIFQDCCAygCAgCUMA0GCSqGSIb3DQEBCwUAMHQxCzAJBgNVBAYTAmZyMQwwCgYD
VQQIDANpZGYxDjAMBgNVBAcMBXBhcmlzMRAwDgYDVQQKDAd2aXRhbXVpMRQwEgYD
VQQLDAthdXRob3JpdGllczEfMB0GA1UEAwwWY2FfaW50ZXJtZWRpYXRlX3NlcnZl
cjAeFw0yMTEyMDYxMjU1MzlaFw0yNDEyMDUxMjU1MzlaMFcxCzAJBgNVBAYTAmZy
MQwwCgYDVQQIDANpZGYxDjAMBgNVBAcMBXBhcmlzMRAwDgYDVQQKDAd2aXRhbXVp
MRgwFgYDVQQDDA9kZXYudml0YW11aS5jb20wggIiMA0GCSqGSIb3DQEBAQUAA4IC
DwAwggIKAoICAQDDX4M00EWPWrWBcE9GtfiXgcnp5QFbh4Ia0U0Wv2C/I1P8KyFz
B/gesOmgwggiigbvjADgc6cMgxZYqhggcZQKYXabcnRAQel59vSUrXzSevFGla/p
V5UtROn6rAfYr2uNugo6JQ5lZXFW4i/S3Zl0xSM7N/xaldvtUGScrfPB+BP3/21W
N1s2wRcYxBwh3gYzFHGgfdDoYWbB3Ho+fdM7HHcwQd/nQJP5UZTEzCI4hWtEhEcY
oK31KpWrgBDFByUMVpPMESzfOQP98d37rB3/jd0mtBniEuAcfSG0XwX+EPQCukps
Bc1UNaaQG9n1+55te+l3Ma5AtEh0S6t3RcjOXVjYhMEKPRHjHqU2DitVqh8BNJA/
W2cjVkRmel+vfL6+giUdQWDWW8+ugkpYD0sIRvkyRGdyB/BsOb1cMHkicoM/m8DD
PrS4JYCTQpEBezxL6aYNFoYgowsVmB7WjIqgBeFIR3ns8z/2opofr0yYr2b4gN84
JHoXfd1WeZ4yK9ImqenFMazGfkOrWKA4HMILOPavMKZV8I0dskTLtAuQVUGYOW9z
NZS3H7LE0AxHbOS7yeJ7kv2HpSxRse5xTXwtzvAsmlpvwGSqQFd+34agQT0p5CQx
Vnoi/omruDaitAyPRT/y5jBQCaMY3aT3t/rnB4BKTmhorlaMOWXmSpnN2QIDAQAB
MA0GCSqGSIb3DQEBCwUAA4ICAQBi2dPbXmST9HdDT8VGyIfZ8dDFqQf/HNqqc1gF
UuMuAoTE4tpp4nWIKWObbkOyxLmo1xyQxvJ7DDgdZ8f0KOEK7tF5SUq8sZhZwFc9
Y0CBfHagUy9mKEx9sLCZHnbHGvWRGV2oN5P7Wbpo5yvwl3qulBKdz16MoqvrCCZR
4pCyweiKBh5n5ErMdMBwwo7Ed0/jn9I/hM+JaTjzga6Z4cG8GND7AODpUlxhRfeZ
k94NjhW1NJpE2Ve/c37QF02JaLxuRHUgPLIxufkIqd5i3nBMOm22ICXhlNw6siJT
0h9EdS4XqUzHuisZPImx4EVaVgtFHLy+5O0yd7ZPU1EB/kJPTlpuD/ybUIRmmJ3I
VnMcxUX+DljkUf57AM3oWANSRatSx/3l52eXBLiz/5I3JL+yr688jRhBbyXjRS23
zjuEG/r1kEBX8YuwqXQkzK1Tj481lQ37+b31YL0eieuKLMy9Ervy9pF5ljwJPXNm
7lq2mrqKVzLkeR8AYY2dYErLc7dhD/NAf1s/vbCrcAmZDUEcOd/OMejHpDox9PCY
JjvrD8m6gi3hc+fqH2DWk3Ff7typzu31xIm4Y7sA5RKCenLFWvvo+RQQ6b89MfMY
sdAcAh9clq8GY0CnPGjQ0+gOwWkxu1J+3cqeHeXI8BiC/xj0+25l8G0DOqaDeXB8
ORiKAQ==
-----END CERTIFICATE-----
