Certificate:
    Data:
        Version: 1 (0x0)
        Serial Number: 19 (0x13)
        Signature Algorithm: sha256WithRSAEncryption
        Issuer: C=fr, ST=idf, L=paris, O=vitamui, OU=authorities, CN=ca_intermediate_server
        Validity
            Not Before: Nov 25 16:50:59 2020 GMT
            Not After : Nov 25 16:50:59 2023 GMT
        Subject: C=fr, ST=idf, L=paris, O=vitamui, CN=dev.vitamui.com
        Subject Public Key Info:
            Public Key Algorithm: rsaEncryption
                RSA Public-Key: (4096 bit)
                Modulus:
                    00:c5:55:cd:cb:a6:60:b3:e8:9f:83:6a:f2:c2:9e:
                    c5:6e:be:64:7e:8e:4e:f1:37:6f:aa:52:a1:f4:32:
                    86:bf:b5:eb:e0:57:a8:87:35:31:f9:b5:23:cf:c3:
                    12:de:56:fa:84:cc:b3:db:7f:97:59:fb:c5:1c:67:
                    d0:69:42:41:41:b6:52:71:5a:1e:c7:bb:1a:c9:b6:
                    8f:9a:49:95:28:d4:6a:70:83:91:47:67:a1:c3:e6:
                    5c:e2:b4:cd:f4:38:bf:bf:a0:91:7a:17:7e:23:c7:
                    0b:73:51:10:69:47:6a:85:45:01:f4:28:b2:dc:68:
                    b5:88:02:8d:5c:2d:62:d6:dc:14:a8:be:72:b4:93:
                    6d:53:39:63:45:27:50:b0:d8:8f:80:2b:2d:9c:7a:
                    6b:db:13:28:eb:72:f1:a6:60:d1:03:c7:6d:c1:6f:
                    cf:2c:e7:54:49:63:9b:8c:cd:2c:e3:04:69:4b:a1:
                    f4:cb:c4:04:28:b7:59:a1:95:02:6c:4b:cb:22:f6:
                    fa:29:40:d8:d1:2e:b4:e6:6f:e1:29:8b:73:ba:ec:
                    a1:8e:78:59:36:6f:87:58:cc:1a:9a:2c:43:66:73:
                    18:11:af:c0:fc:af:00:30:c0:37:fa:fa:82:50:16:
                    bd:cc:ca:52:15:f1:c1:56:ce:37:e0:9b:94:b8:6f:
                    da:99:fe:07:01:71:78:ab:bc:be:58:90:5e:49:e1:
                    4b:0b:c6:c7:53:8e:a2:6a:71:15:e4:c4:df:cd:8a:
                    3b:b0:b4:51:cc:ff:95:3a:ba:76:6d:82:26:cb:ca:
                    d5:56:e9:8a:bc:75:a3:0a:d0:16:b5:70:b1:10:3d:
                    32:6f:fe:e9:30:b2:11:8a:e9:c6:f4:9d:01:72:0f:
                    15:c2:72:a4:1e:74:d9:57:63:cb:a1:a6:f5:eb:ae:
                    53:73:9a:98:66:d5:24:5a:14:77:cc:d9:54:ee:dd:
                    ba:c7:3f:b0:75:de:0a:09:7f:45:c0:f0:88:b3:da:
                    2d:f1:c2:95:f8:af:3f:22:0b:3d:1c:0f:f0:1f:44:
                    6d:64:4b:87:5c:39:2a:57:f7:dc:fd:2b:c6:08:92:
                    3c:23:0a:1c:9b:c2:8b:f9:30:05:c4:8f:79:0c:c1:
                    43:7d:47:ff:4b:12:4d:2b:90:8a:c1:72:2f:04:25:
                    4f:54:22:a6:3f:d1:4f:51:d4:aa:08:42:ca:08:ad:
                    cd:e2:d6:fd:ce:b7:b8:a4:2a:6c:f5:bd:ee:dd:c4:
                    b8:c4:93:3a:1e:53:b5:a3:36:d3:fa:b1:a9:62:2a:
                    61:65:e4:08:01:e0:fb:79:b5:85:66:ab:92:71:37:
                    45:e4:ac:b0:5d:77:d1:fa:05:a6:93:42:a6:7b:bb:
                    fd:84:c5
                Exponent: 65537 (0x10001)
    Signature Algorithm: sha256WithRSAEncryption
         89:54:f1:c5:d4:36:5c:32:ae:fd:51:02:a4:d3:3b:43:1c:b9:
         ba:30:a4:9e:52:a8:d8:54:51:82:65:c7:a4:c3:61:35:31:c6:
         11:58:03:1d:ec:e7:eb:df:3e:0f:86:86:17:2f:b4:74:dc:62:
         11:80:dc:b6:ca:3d:bc:68:b8:94:30:74:8f:35:6a:7d:1e:9b:
         0b:a0:73:62:00:68:29:95:4e:f2:1b:88:f5:ac:16:de:55:ba:
         45:1b:6b:1d:16:f5:1f:34:9a:d9:cb:ed:03:d2:a6:b7:eb:e5:
         0d:3d:c9:90:1a:f3:a5:f8:22:d2:bb:d1:eb:83:80:51:a3:7a:
         28:92:a7:b3:65:15:56:61:60:a1:d7:5a:fd:84:4c:3f:c1:28:
         74:1e:d7:11:a7:0b:17:77:fa:05:58:db:43:ce:10:85:b3:90:
         3c:17:f5:53:1a:40:c1:47:81:41:e7:6c:00:2e:2a:81:b3:86:
         5f:51:f8:46:fa:1c:d6:7f:c6:ba:ee:5f:55:f0:ea:69:42:c4:
         1a:e2:a5:27:11:d9:46:00:55:81:a1:98:0c:1a:2e:ad:c1:bb:
         7d:bc:7f:e8:71:e2:f3:13:7e:07:d1:71:c2:f1:69:2d:ec:7d:
         e1:55:04:3d:65:e2:ae:5f:e8:16:3e:cf:53:87:83:2c:be:2b:
         df:85:2a:d2:2b:9d:9d:b1:ae:20:e3:44:3c:f0:7a:9a:29:59:
         0a:24:b6:90:f5:73:6b:ef:e6:df:90:5b:05:a2:3b:2a:a4:a9:
         c7:e6:9d:f9:9a:95:2b:73:d0:af:9b:fe:09:a6:49:92:7b:40:
         ce:63:ed:5f:9f:76:3c:ae:35:5f:13:81:dc:7a:00:34:62:21:
         5a:1e:e2:b5:52:7a:42:8d:51:aa:56:6e:0a:95:25:7f:94:d4:
         f5:ae:e2:77:c2:c4:d6:49:c7:04:2a:f6:38:d4:6d:73:c4:8d:
         05:ad:56:83:ff:26:9c:fa:a6:ae:0f:c8:dc:9d:35:22:f9:83:
         31:76:32:2b:9f:ac:a2:87:d8:17:c0:d0:dd:6c:0b:76:c6:21:
         87:50:d0:55:a5:58:e3:c1:1c:46:e5:3f:23:ef:c0:28:40:51:
         a4:2b:a9:b0:f2:30:7e:3c:e9:f6:14:72:64:99:f5:e8:86:16:
         21:fe:a3:4f:1a:a1:b0:02:7d:6c:dc:9e:fb:19:19:b1:e2:ab:
         bb:64:49:01:9f:96:ab:fa:34:10:53:31:be:f2:77:0d:60:ef:
         98:de:29:ae:5e:4a:37:d9:5d:50:a7:21:2c:ac:37:9d:02:0b:
         b3:a3:1c:ad:67:f4:46:f3:f8:aa:12:60:6b:db:e6:f1:3e:35:
         f0:6e:d6:7a:cc:a5:1e:e0
-----BEGIN CERTIFICATE-----
MIIFPzCCAycCARMwDQYJKoZIhvcNAQELBQAwdDELMAkGA1UEBhMCZnIxDDAKBgNV
BAgMA2lkZjEOMAwGA1UEBwwFcGFyaXMxEDAOBgNVBAoMB3ZpdGFtdWkxFDASBgNV
BAsMC2F1dGhvcml0aWVzMR8wHQYDVQQDDBZjYV9pbnRlcm1lZGlhdGVfc2VydmVy
MB4XDTIwMTEyNTE2NTA1OVoXDTIzMTEyNTE2NTA1OVowVzELMAkGA1UEBhMCZnIx
DDAKBgNVBAgMA2lkZjEOMAwGA1UEBwwFcGFyaXMxEDAOBgNVBAoMB3ZpdGFtdWkx
GDAWBgNVBAMMD2Rldi52aXRhbXVpLmNvbTCCAiIwDQYJKoZIhvcNAQEBBQADggIP
ADCCAgoCggIBAMVVzcumYLPon4Nq8sKexW6+ZH6OTvE3b6pSofQyhr+16+BXqIc1
Mfm1I8/DEt5W+oTMs9t/l1n7xRxn0GlCQUG2UnFaHse7Gsm2j5pJlSjUanCDkUdn
ocPmXOK0zfQ4v7+gkXoXfiPHC3NREGlHaoVFAfQostxotYgCjVwtYtbcFKi+crST
bVM5Y0UnULDYj4ArLZx6a9sTKOty8aZg0QPHbcFvzyznVEljm4zNLOMEaUuh9MvE
BCi3WaGVAmxLyyL2+ilA2NEutOZv4SmLc7rsoY54WTZvh1jMGposQ2ZzGBGvwPyv
ADDAN/r6glAWvczKUhXxwVbON+CblLhv2pn+BwFxeKu8vliQXknhSwvGx1OOompx
FeTE382KO7C0Ucz/lTq6dm2CJsvK1Vbpirx1owrQFrVwsRA9Mm/+6TCyEYrpxvSd
AXIPFcJypB502Vdjy6Gm9euuU3OamGbVJFoUd8zZVO7dusc/sHXeCgl/RcDwiLPa
LfHClfivPyILPRwP8B9EbWRLh1w5Klf33P0rxgiSPCMKHJvCi/kwBcSPeQzBQ31H
/0sSTSuQisFyLwQlT1Qipj/RT1HUqghCygitzeLW/c63uKQqbPW97t3EuMSTOh5T
taM20/qxqWIqYWXkCAHg+3m1hWarknE3ReSssF130foFppNCpnu7/YTFAgMBAAEw
DQYJKoZIhvcNAQELBQADggIBAIlU8cXUNlwyrv1RAqTTO0McubowpJ5SqNhUUYJl
x6TDYTUxxhFYAx3s5+vfPg+GhhcvtHTcYhGA3LbKPbxouJQwdI81an0emwugc2IA
aCmVTvIbiPWsFt5VukUbax0W9R80mtnL7QPSprfr5Q09yZAa86X4ItK70euDgFGj
eiiSp7NlFVZhYKHXWv2ETD/BKHQe1xGnCxd3+gVY20POEIWzkDwX9VMaQMFHgUHn
bAAuKoGzhl9R+Eb6HNZ/xrruX1Xw6mlCxBripScR2UYAVYGhmAwaLq3Bu328f+hx
4vMTfgfRccLxaS3sfeFVBD1l4q5f6BY+z1OHgyy+K9+FKtIrnZ2xriDjRDzwepop
WQoktpD1c2vv5t+QWwWiOyqkqcfmnfmalStz0K+b/gmmSZJ7QM5j7V+fdjyuNV8T
gdx6ADRiIVoe4rVSekKNUapWbgqVJX+U1PWu4nfCxNZJxwQq9jjUbXPEjQWtVoP/
Jpz6pq4PyNydNSL5gzF2MiufrKKH2BfA0N1sC3bGIYdQ0FWlWOPBHEblPyPvwChA
UaQrqbDyMH486fYUcmSZ9eiGFiH+o08aobACfWzcnvsZGbHiq7tkSQGflqv6NBBT
Mb7ydw1g75jeKa5eSjfZXVCnISysN50CC7OjHK1n9Ebz+KoSYGvb5vE+NfBu1nrM
pR7g
-----END CERTIFICATE-----
