Certificate:
    Data:
        Version: 1 (0x0)
        Serial Number: 32 (0x20)
        Signature Algorithm: sha256WithRSAEncryption
        Issuer: C=fr, ST=idf, L=paris, O=vitamui, OU=authorities, CN=ca_intermediate_server
        Validity
            Not Before: May 19 15:47:28 2022 GMT
            Not After : May 18 15:47:28 2025 GMT
        Subject: C=fr, ST=idf, L=paris, O=vitamui, CN=dev.vitamui.com
        Subject Public Key Info:
            Public Key Algorithm: rsaEncryption
                RSA Public-Key: (4096 bit)
                Modulus:
                    00:c9:7b:63:fc:01:ec:96:34:68:d3:b5:54:9a:83:
                    fc:77:c1:32:b8:c6:a6:c0:79:7e:18:50:cf:69:1c:
                    3b:de:12:56:5f:32:2c:01:fb:af:d1:d8:36:0f:7a:
                    e9:77:58:c2:70:ab:1d:fd:a5:7d:88:ff:61:a0:60:
                    4f:04:b7:19:89:5c:a9:ef:6c:43:42:07:87:fa:9d:
                    b0:6b:be:00:5d:46:28:2a:18:5e:71:94:9c:c5:74:
                    f1:65:93:cd:df:75:f6:bc:06:e3:99:d5:5d:f7:ca:
                    48:e5:bd:89:5a:db:f5:28:84:6f:10:f0:65:70:35:
                    ae:7f:3e:66:f0:71:79:d8:4c:96:29:74:17:b0:81:
                    e5:ae:fa:c7:9b:41:05:65:27:16:f3:46:25:7b:d0:
                    2c:3b:96:b0:c6:f1:85:1b:3c:bd:c7:27:eb:9a:95:
                    be:94:6c:1f:57:49:d8:f2:42:58:b8:66:23:46:87:
                    ca:d9:7d:2d:c8:5d:ea:5f:f3:42:2a:f0:73:38:0a:
                    dc:d0:de:4c:b6:1e:70:55:03:a2:c7:27:37:9c:08:
                    41:ce:15:13:9c:63:7f:2a:10:e1:eb:08:c0:1a:2c:
                    22:7f:71:37:33:93:36:06:e7:d9:88:a3:e4:a8:0b:
                    5b:9c:9b:0c:7a:a8:67:39:6e:b6:5a:9f:29:25:bb:
                    5d:d6:c6:f1:03:88:67:5f:4b:5c:8b:77:04:c6:43:
                    f7:b2:84:b8:53:23:6d:eb:ba:6c:ff:00:03:79:0b:
                    03:af:b8:e1:da:91:5f:17:d4:f8:84:9d:91:1f:52:
                    58:6f:05:5a:17:aa:12:81:ee:23:0c:78:6d:be:8b:
                    88:1d:64:d4:73:e0:cb:7c:96:3c:5f:f3:79:86:75:
                    48:9b:71:af:dd:d4:59:4d:7c:a3:44:15:ae:05:98:
                    fe:14:d8:0d:28:65:fb:83:32:b1:3a:ce:4d:a7:7b:
                    bd:51:25:1a:41:c7:d1:09:b5:56:ef:57:54:b5:77:
                    3c:87:9e:03:09:6c:9b:78:a7:a6:fb:47:66:33:11:
                    8f:0b:a3:1f:54:a8:1e:3d:d8:d2:c5:80:37:2f:33:
                    af:6b:cc:d0:76:fb:a9:72:a0:2e:22:96:aa:c0:8e:
                    8e:44:52:3c:18:b5:1f:cb:cc:5c:8f:4b:69:d2:2b:
                    f3:4d:53:bb:64:3a:54:38:29:12:97:34:77:5e:d6:
                    2f:99:aa:61:54:29:2c:59:1b:1f:a5:1f:9a:2a:1f:
                    17:5d:ea:a1:00:8c:53:b8:1d:a5:e4:39:f8:5f:33:
                    d6:43:91:86:26:37:c0:e6:14:41:1f:9d:9c:83:12:
                    e6:dc:a9:88:5d:10:2b:8a:ef:62:fe:66:8e:46:6b:
                    78:70:c7
                Exponent: 65537 (0x10001)
    Signature Algorithm: sha256WithRSAEncryption
         63:15:5c:51:f6:35:21:f7:8a:4f:be:39:4f:8b:b1:fc:a1:ff:
         78:f4:40:bf:f7:d2:e3:b0:7d:b9:b5:0d:2f:67:30:ac:50:60:
         03:b8:53:63:38:19:81:6b:86:3c:d1:77:7d:aa:5e:53:cb:51:
         f9:f2:0f:c2:48:22:90:5e:3d:26:a1:c7:4e:23:13:9f:f7:a4:
         a6:fe:c2:d3:3b:86:f5:15:d7:d1:ae:f6:99:39:9b:54:5b:11:
         cf:2c:7b:00:cd:45:85:86:3b:81:2a:0f:ac:89:23:4d:56:2d:
         70:b4:82:d3:3f:da:9f:12:a9:67:d7:dd:4f:1b:12:8d:e8:c0:
         92:9e:a4:7d:f4:3a:4c:c5:77:a3:78:de:c2:c5:e9:ac:f1:89:
         a5:7a:24:98:f9:d8:f6:53:33:aa:e9:9e:6f:c5:ba:88:6b:b4:
         af:be:00:62:b5:4a:59:07:75:82:15:50:87:a0:f7:a8:2c:25:
         2b:91:14:62:0a:7b:5f:95:37:f2:e0:e0:b7:19:6b:aa:9c:91:
         2f:3b:04:7a:e3:65:ce:6e:85:c2:ab:82:86:54:3b:f5:fc:99:
         1a:19:35:ef:20:c7:da:85:ad:be:95:03:8a:29:af:73:9a:9c:
         96:13:23:ad:e1:f3:22:22:53:77:e3:b9:71:cd:3d:d2:f1:81:
         e0:24:64:4e:12:b7:14:53:8c:76:53:01:cf:3d:7a:db:ba:5d:
         46:21:e8:1c:39:6c:5b:ba:19:3c:97:d9:e7:a9:ca:f1:54:4e:
         93:3d:c8:91:e8:02:17:cb:71:9f:5c:2f:ca:24:19:a9:74:c9:
         10:ed:04:ba:63:5c:94:37:a5:36:8d:52:4b:ec:c0:c6:36:4c:
         d3:4c:93:5f:e5:c9:94:14:e3:93:26:29:12:75:87:8e:b0:1e:
         51:a7:d8:19:9d:1d:2e:18:75:7a:ca:d1:15:62:fb:41:bc:0b:
         9f:69:3e:cf:3c:7e:12:5c:a2:a4:7c:3e:9e:90:8d:8c:e9:73:
         32:ab:72:bf:dc:dc:4f:ed:6a:c5:51:64:5d:b1:2f:15:eb:0b:
         e8:d6:73:99:cc:6a:cd:55:1e:d9:63:15:7e:86:7d:11:00:ee:
         8a:1b:4a:cb:ba:23:12:6d:6f:71:66:9f:a6:b4:0c:b4:a9:a0:
         08:b6:b3:52:f1:96:9a:19:7d:62:21:ff:2c:3f:a5:80:0e:41:
         b5:54:54:7e:76:03:50:d0:54:2e:98:8e:12:51:56:85:f8:a3:
         72:91:f9:5a:de:5a:03:cb:cc:83:97:bf:69:54:20:1f:3d:17:
         a0:a5:dd:75:2d:c2:e2:78:07:fb:a1:97:4e:6b:8c:34:57:3f:
         77:89:0c:01:92:a9:38:20
-----BEGIN CERTIFICATE-----
MIIFPzCCAycCASAwDQYJKoZIhvcNAQELBQAwdDELMAkGA1UEBhMCZnIxDDAKBgNV
BAgMA2lkZjEOMAwGA1UEBwwFcGFyaXMxEDAOBgNVBAoMB3ZpdGFtdWkxFDASBgNV
BAsMC2F1dGhvcml0aWVzMR8wHQYDVQQDDBZjYV9pbnRlcm1lZGlhdGVfc2VydmVy
MB4XDTIyMDUxOTE1NDcyOFoXDTI1MDUxODE1NDcyOFowVzELMAkGA1UEBhMCZnIx
DDAKBgNVBAgMA2lkZjEOMAwGA1UEBwwFcGFyaXMxEDAOBgNVBAoMB3ZpdGFtdWkx
GDAWBgNVBAMMD2Rldi52aXRhbXVpLmNvbTCCAiIwDQYJKoZIhvcNAQEBBQADggIP
ADCCAgoCggIBAMl7Y/wB7JY0aNO1VJqD/HfBMrjGpsB5fhhQz2kcO94SVl8yLAH7
r9HYNg966XdYwnCrHf2lfYj/YaBgTwS3GYlcqe9sQ0IHh/qdsGu+AF1GKCoYXnGU
nMV08WWTzd919rwG45nVXffKSOW9iVrb9SiEbxDwZXA1rn8+ZvBxedhMlil0F7CB
5a76x5tBBWUnFvNGJXvQLDuWsMbxhRs8vccn65qVvpRsH1dJ2PJCWLhmI0aHytl9
Lchd6l/zQirwczgK3NDeTLYecFUDoscnN5wIQc4VE5xjfyoQ4esIwBosIn9xNzOT
Ngbn2Yij5KgLW5ybDHqoZzlutlqfKSW7XdbG8QOIZ19LXIt3BMZD97KEuFMjbeu6
bP8AA3kLA6+44dqRXxfU+ISdkR9SWG8FWheqEoHuIwx4bb6LiB1k1HPgy3yWPF/z
eYZ1SJtxr93UWU18o0QVrgWY/hTYDShl+4MysTrOTad7vVElGkHH0Qm1Vu9XVLV3
PIeeAwlsm3inpvtHZjMRjwujH1SoHj3Y0sWANy8zr2vM0Hb7qXKgLiKWqsCOjkRS
PBi1H8vMXI9LadIr801Tu2Q6VDgpEpc0d17WL5mqYVQpLFkbH6UfmiofF13qoQCM
U7gdpeQ5+F8z1kORhiY3wOYUQR+dnIMS5typiF0QK4rvYv5mjkZreHDHAgMBAAEw
DQYJKoZIhvcNAQELBQADggIBAGMVXFH2NSH3ik++OU+Lsfyh/3j0QL/30uOwfbm1
DS9nMKxQYAO4U2M4GYFrhjzRd32qXlPLUfnyD8JIIpBePSahx04jE5/3pKb+wtM7
hvUV19Gu9pk5m1RbEc8sewDNRYWGO4EqD6yJI01WLXC0gtM/2p8SqWfX3U8bEo3o
wJKepH30OkzFd6N43sLF6azxiaV6JJj52PZTM6rpnm/FuohrtK++AGK1SlkHdYIV
UIeg96gsJSuRFGIKe1+VN/Lg4LcZa6qckS87BHrjZc5uhcKrgoZUO/X8mRoZNe8g
x9qFrb6VA4opr3OanJYTI63h8yIiU3fjuXHNPdLxgeAkZE4StxRTjHZTAc89etu6
XUYh6Bw5bFu6GTyX2eepyvFUTpM9yJHoAhfLcZ9cL8okGal0yRDtBLpjXJQ3pTaN
UkvswMY2TNNMk1/lyZQU45MmKRJ1h46wHlGn2BmdHS4YdXrK0RVi+0G8C59pPs88
fhJcoqR8Pp6QjYzpczKrcr/c3E/tasVRZF2xLxXrC+jWc5nMas1VHtljFX6GfREA
7oobSsu6IxJtb3Fmn6a0DLSpoAi2s1LxlpoZfWIh/yw/pYAOQbVUVH52A1DQVC6Y
jhJRVoX4o3KR+VreWgPLzIOXv2lUIB89F6Cl3XUtwuJ4B/uhl05rjDRXP3eJDAGS
qTgg
-----END CERTIFICATE-----
