Certificate:
    Data:
        Version: 1 (0x0)
        Serial Number: 55 (0x37)
        Signature Algorithm: sha256WithRSAEncryption
        Issuer: C=fr, ST=idf, L=paris, O=vitamui, OU=authorities, CN=ca_intermediate_server
        Validity
            Not Before: Nov 23 16:59:46 2022 GMT
            Not After : Nov 22 16:59:46 2025 GMT
        Subject: C=fr, ST=idf, L=paris, O=vitamui, CN=dev.vitamui.com
        Subject Public Key Info:
            Public Key Algorithm: rsaEncryption
                RSA Public-Key: (4096 bit)
                Modulus:
                    00:a2:e7:bd:28:96:54:42:40:08:b6:8d:ed:c3:0a:
                    92:7d:51:d9:78:37:d8:ed:54:ce:c2:1e:71:cd:0f:
                    e6:cb:74:06:67:56:bb:bf:ac:d3:b2:84:95:32:93:
                    99:7e:49:02:17:a0:d3:52:74:cd:9d:92:53:30:ac:
                    3a:19:dc:9c:d3:2d:af:c1:1b:de:9a:83:1a:d1:31:
                    93:90:3c:b4:82:75:54:70:6d:db:e4:00:5e:49:3c:
                    56:1f:26:6e:e8:ac:04:a8:b5:54:bb:17:02:36:51:
                    86:c4:3b:5c:ff:78:c9:9c:c1:48:1c:2a:06:3b:e4:
                    25:de:b7:6a:b4:3c:f4:e3:bd:9d:31:09:54:98:07:
                    48:5a:00:bd:59:6b:af:50:95:61:3c:4b:03:6b:22:
                    7f:23:c0:51:fe:08:ae:f9:13:d0:6f:eb:bf:0e:8a:
                    cf:6b:f2:5d:4a:ea:d1:40:24:64:8c:f0:0c:ce:60:
                    f9:80:1c:8f:93:fc:3a:c7:35:7c:80:24:bc:fa:6b:
                    6e:ef:19:ed:37:56:00:b4:e7:44:81:96:1f:8d:1e:
                    12:86:dd:c7:b3:ba:ab:9b:7c:6b:02:ae:f6:a2:04:
                    42:d6:93:99:8c:87:ae:dd:4c:45:10:c8:c9:3f:71:
                    50:f8:bf:97:5c:b2:26:e0:92:ad:c1:ad:56:d7:ae:
                    b6:b6:f0:dc:da:dc:16:6f:57:cd:66:a2:d7:e9:b6:
                    e2:cd:2a:2f:f0:03:8a:88:19:71:ae:d6:1a:7a:9d:
                    36:1f:b3:03:9d:65:d0:bc:07:8c:40:fc:85:e3:5e:
                    d4:87:c9:19:d9:a6:72:16:59:91:1e:45:e4:32:67:
                    e9:f3:04:14:8f:d5:d5:bd:58:55:c7:d6:e5:8f:25:
                    cc:d1:f1:01:31:ce:f4:6d:c8:ca:ef:da:cc:aa:92:
                    1a:fe:e2:5e:5e:61:0c:68:ff:f1:b8:7a:16:18:e4:
                    5f:56:00:61:56:6a:21:52:1d:c9:2e:96:51:c3:1b:
                    84:cc:0e:17:01:fa:ff:38:bf:ee:57:c3:64:1b:98:
                    77:f6:e9:42:c6:13:57:5e:2d:6c:d4:ac:9d:5d:c5:
                    16:17:fa:6a:29:a7:20:90:1a:a4:34:f2:3f:50:71:
                    66:c6:e2:c4:de:97:a5:80:a1:b4:98:fe:50:34:e1:
                    f3:2d:c0:73:79:87:6e:fb:85:4b:08:e1:a8:d2:e5:
                    c0:bc:f9:35:d2:03:f5:61:e3:2a:a5:fe:ab:3d:9b:
                    87:9d:d0:fd:85:b2:3e:bf:1f:51:1a:e7:70:e6:17:
                    b8:3a:bd:bf:7c:da:f4:55:30:79:e6:7e:84:f7:26:
                    bd:56:5d:7f:cc:cd:1c:51:75:5d:6d:95:05:95:a5:
                    8d:5a:5b
                Exponent: 65537 (0x10001)
    Signature Algorithm: sha256WithRSAEncryption
         87:3b:97:09:22:05:52:f6:cf:ed:cd:db:d2:0f:a6:34:5f:38:
         48:c9:f3:34:9a:f4:9f:05:d6:2e:47:90:a8:10:c7:86:05:45:
         38:37:ee:db:39:fa:98:41:23:cb:39:4e:bf:71:f3:c0:47:7e:
         1e:52:c7:94:76:81:74:d0:a9:21:b4:2c:30:e2:a8:89:f1:7d:
         33:55:e3:57:e3:e2:55:92:67:c3:48:a0:0c:79:0e:c4:72:7c:
         e4:fb:b2:26:e6:17:fc:e8:ea:07:55:07:20:79:a9:03:f8:48:
         39:72:e6:d1:72:be:70:c9:eb:3e:dd:4c:32:9b:1a:45:d7:99:
         0b:44:87:19:b4:e7:9f:53:46:30:aa:cd:17:91:96:29:49:0d:
         c0:a8:5a:6c:91:2d:97:b7:30:22:7b:7d:71:24:82:8b:13:dd:
         79:7b:39:c1:97:97:f7:4d:89:bf:cd:cb:fc:2b:35:1a:f6:f3:
         b6:62:7a:96:fe:b5:34:1d:7e:cd:97:eb:8e:74:e4:b4:23:4d:
         07:17:75:75:b6:86:49:b7:25:85:08:22:1a:77:5d:a2:67:d3:
         85:d2:c7:7a:ef:42:3c:8f:87:6f:8d:a4:ea:61:c4:07:a5:14:
         f1:8a:35:e4:da:19:32:de:50:1f:68:a8:a8:12:0f:eb:21:90:
         51:d2:f3:3d:30:4f:4c:5c:b0:ea:9f:1e:38:0d:63:93:42:85:
         34:f6:fc:14:a7:ba:d7:84:c5:50:56:e4:c3:c6:8a:c3:61:23:
         b9:06:15:9a:f7:1b:a1:79:61:20:85:53:eb:a5:c6:54:19:fb:
         2b:1d:dd:62:e4:81:13:fb:cd:f4:ed:48:8b:b2:50:14:8f:6c:
         cb:c5:61:0a:11:49:bd:3c:5b:82:90:11:70:e5:87:3a:16:87:
         42:b9:ef:fb:77:aa:1d:df:de:bb:32:ef:79:a4:34:ba:0b:dd:
         5f:98:9d:00:df:91:04:26:cb:a5:cc:4a:0d:55:e7:b5:a9:54:
         3e:ca:6f:ee:93:4e:91:78:80:47:fa:8b:ef:a2:84:5e:1a:b5:
         68:7c:e4:96:b7:a1:7d:54:05:37:eb:fe:c8:ad:c9:31:a5:14:
         51:0f:6c:d5:bf:43:95:f9:0f:f7:b1:c8:67:b6:93:1a:cc:ae:
         88:ec:9c:ce:d6:4b:34:03:30:96:86:e6:92:03:c1:8d:ee:80:
         64:fc:70:32:ea:fd:1d:35:4e:d8:3a:b8:ab:98:a8:c5:02:f0:
         2d:31:6f:9f:1c:12:06:e9:5a:64:11:40:a8:a6:2f:f6:43:6e:
         3d:1c:fb:5b:bf:57:ec:43:bc:a1:90:d5:6e:e2:a3:38:95:d8:
         40:79:e5:75:8a:40:bd:ad
-----BEGIN CERTIFICATE-----
MIIFPzCCAycCATcwDQYJKoZIhvcNAQELBQAwdDELMAkGA1UEBhMCZnIxDDAKBgNV
BAgMA2lkZjEOMAwGA1UEBwwFcGFyaXMxEDAOBgNVBAoMB3ZpdGFtdWkxFDASBgNV
BAsMC2F1dGhvcml0aWVzMR8wHQYDVQQDDBZjYV9pbnRlcm1lZGlhdGVfc2VydmVy
MB4XDTIyMTEyMzE2NTk0NloXDTI1MTEyMjE2NTk0NlowVzELMAkGA1UEBhMCZnIx
DDAKBgNVBAgMA2lkZjEOMAwGA1UEBwwFcGFyaXMxEDAOBgNVBAoMB3ZpdGFtdWkx
GDAWBgNVBAMMD2Rldi52aXRhbXVpLmNvbTCCAiIwDQYJKoZIhvcNAQEBBQADggIP
ADCCAgoCggIBAKLnvSiWVEJACLaN7cMKkn1R2Xg32O1UzsIecc0P5st0BmdWu7+s
07KElTKTmX5JAheg01J0zZ2SUzCsOhncnNMtr8Eb3pqDGtExk5A8tIJ1VHBt2+QA
Xkk8Vh8mbuisBKi1VLsXAjZRhsQ7XP94yZzBSBwqBjvkJd63arQ89OO9nTEJVJgH
SFoAvVlrr1CVYTxLA2sifyPAUf4IrvkT0G/rvw6Kz2vyXUrq0UAkZIzwDM5g+YAc
j5P8Osc1fIAkvPprbu8Z7TdWALTnRIGWH40eEobdx7O6q5t8awKu9qIEQtaTmYyH
rt1MRRDIyT9xUPi/l1yyJuCSrcGtVteutrbw3NrcFm9XzWai1+m24s0qL/ADiogZ
ca7WGnqdNh+zA51l0LwHjED8heNe1IfJGdmmchZZkR5F5DJn6fMEFI/V1b1YVcfW
5Y8lzNHxATHO9G3Iyu/azKqSGv7iXl5hDGj/8bh6FhjkX1YAYVZqIVIdyS6WUcMb
hMwOFwH6/zi/7lfDZBuYd/bpQsYTV14tbNSsnV3FFhf6aimnIJAapDTyP1BxZsbi
xN6XpYChtJj+UDTh8y3Ac3mHbvuFSwjhqNLlwLz5NdID9WHjKqX+qz2bh53Q/YWy
Pr8fURrncOYXuDq9v3za9FUweeZ+hPcmvVZdf8zNHFF1XW2VBZWljVpbAgMBAAEw
DQYJKoZIhvcNAQELBQADggIBAIc7lwkiBVL2z+3N29IPpjRfOEjJ8zSa9J8F1i5H
kKgQx4YFRTg37ts5+phBI8s5Tr9x88BHfh5Sx5R2gXTQqSG0LDDiqInxfTNV41fj
4lWSZ8NIoAx5DsRyfOT7sibmF/zo6gdVByB5qQP4SDly5tFyvnDJ6z7dTDKbGkXX
mQtEhxm0559TRjCqzReRlilJDcCoWmyRLZe3MCJ7fXEkgosT3Xl7OcGXl/dNib/N
y/wrNRr287Ziepb+tTQdfs2X64505LQjTQcXdXW2hkm3JYUIIhp3XaJn04XSx3rv
QjyPh2+NpOphxAelFPGKNeTaGTLeUB9oqKgSD+shkFHS8z0wT0xcsOqfHjgNY5NC
hTT2/BSnuteExVBW5MPGisNhI7kGFZr3G6F5YSCFU+ulxlQZ+ysd3WLkgRP7zfTt
SIuyUBSPbMvFYQoRSb08W4KQEXDlhzoWh0K57/t3qh3f3rsy73mkNLoL3V+YnQDf
kQQmy6XMSg1V57WpVD7Kb+6TTpF4gEf6i++ihF4atWh85Ja3oX1UBTfr/sityTGl
FFEPbNW/Q5X5D/exyGe2kxrMrojsnM7WSzQDMJaG5pIDwY3ugGT8cDLq/R01Ttg6
uKuYqMUC8C0xb58cEgbpWmQRQKimL/ZDbj0c+1u/V+xDvKGQ1W7ioziV2EB55XWK
QL2t
-----END CERTIFICATE-----
