Certificate:
    Data:
        Version: 1 (0x0)
        Serial Number: 8 (0x8)
        Signature Algorithm: sha256WithRSAEncryption
        Issuer: C=fr, ST=idf, L=paris, O=vitamui, OU=authorities, CN=ca_intermediate_server
        Validity
            Not Before: May  5 12:35:04 2020 GMT
            Not After : May  5 12:35:04 2023 GMT
        Subject: C=fr, ST=idf, L=paris, O=vitamui, CN=dev.vitamui.com
        Subject Public Key Info:
            Public Key Algorithm: rsaEncryption
                RSA Public-Key: (4096 bit)
                Modulus:
                    00:bf:68:69:8b:ad:9f:6b:15:44:55:8a:22:6c:bc:
                    20:e1:8f:b8:41:6f:a6:97:6d:3a:ed:52:5b:6a:0b:
                    7a:82:6c:78:bc:7d:2b:85:a3:18:2d:38:c1:ea:cf:
                    3f:6b:7a:25:d4:d0:b5:ed:67:78:06:6f:b6:35:8f:
                    dc:18:c3:23:cb:54:ab:2c:41:f7:f5:98:b3:74:55:
                    51:21:6a:45:71:70:1e:60:6f:87:a6:59:ee:ca:4c:
                    9c:19:fc:ff:32:c1:ce:63:de:fa:f7:f5:fe:10:bd:
                    59:08:87:d1:62:f8:b9:c8:58:fb:3a:f7:78:0a:07:
                    e4:4a:85:df:c2:88:13:74:91:f2:66:56:8d:ec:c7:
                    f2:5f:22:3d:16:da:22:64:f5:ab:39:a7:0d:13:44:
                    38:63:eb:21:00:5f:c6:c0:ff:96:f7:41:29:e8:40:
                    9c:14:69:d0:b6:d8:78:fc:b6:21:a3:70:74:47:19:
                    ac:18:b9:46:77:d5:d2:47:64:d8:8c:4e:7c:01:5d:
                    2b:55:ad:b6:25:dc:2b:9c:b5:bf:14:92:d5:bf:07:
                    51:d9:45:61:f6:5c:30:19:f8:70:f4:dd:a4:b3:10:
                    4d:f4:91:30:2c:cd:d2:84:d7:4c:79:88:d3:40:25:
                    9c:3b:d8:a9:66:12:0e:e4:7e:63:54:ff:12:91:4e:
                    ba:9c:4c:09:99:57:23:cf:fb:22:08:b0:2c:10:fc:
                    64:8f:fb:95:c3:6a:c2:8b:8a:c7:48:83:c7:7a:bd:
                    f2:ee:cf:34:80:2c:64:ca:23:fd:00:20:20:2d:8f:
                    df:f6:d3:94:62:bf:6a:b1:cd:a4:7f:89:97:3b:75:
                    af:b9:88:31:52:20:f3:38:8a:93:b1:67:09:72:09:
                    60:73:b7:2a:3b:cc:81:af:2d:92:68:48:d4:1d:79:
                    48:c8:99:41:c0:c0:5b:09:e3:26:93:a2:63:49:db:
                    92:82:6a:e3:66:95:13:98:e2:1e:1d:f5:85:a0:ce:
                    5b:9d:39:de:8f:c2:8e:da:98:2b:71:60:af:c7:f9:
                    e5:a7:a1:00:a4:50:f9:ed:34:02:f5:84:0f:2b:d0:
                    0c:fa:b1:65:56:b2:31:e9:04:f0:ba:0d:3e:0b:c6:
                    17:12:2f:cd:7b:df:e0:50:f1:34:d3:9c:df:9f:9c:
                    f3:30:d3:60:3f:f9:7e:b0:7b:cd:9e:a7:a8:86:65:
                    5d:5e:3e:28:40:bb:ea:ec:2c:4b:fa:eb:cc:80:5c:
                    8e:0d:e2:fe:de:84:20:8e:d8:37:0c:12:8e:f2:b4:
                    e5:0d:5f:78:fd:d8:d4:c8:7d:80:d6:8a:be:2e:84:
                    2d:c0:89:2d:c3:d0:fd:05:9e:b2:ad:f9:37:ca:6d:
                    9e:80:43
                Exponent: 65537 (0x10001)
    Signature Algorithm: sha256WithRSAEncryption
         45:91:9a:b2:7d:49:90:77:6f:33:5f:68:f6:ce:8a:d8:01:2c:
         fc:a6:94:a5:fe:f1:73:51:38:13:0c:80:d8:19:9b:7c:15:f4:
         9a:0e:5e:a3:5d:a6:c5:ba:7c:18:bd:7b:dc:8b:fc:52:96:03:
         8c:a5:6f:27:5a:11:3b:00:58:32:7f:d2:99:a7:04:af:62:c2:
         4d:6f:9f:64:aa:9e:dc:9b:bc:76:c4:90:72:5b:0b:8a:7d:74:
         b8:c1:eb:83:87:54:60:70:e6:4e:14:f3:97:f0:54:17:9a:e8:
         20:0a:d9:2f:29:e7:3d:26:5b:51:e9:2c:fa:e6:8e:e9:23:79:
         78:b0:20:30:22:ee:11:65:b7:40:dc:bf:09:e9:d5:71:cb:b9:
         87:46:fc:ff:56:f1:55:22:e6:06:05:93:5c:b4:f9:f2:d1:1b:
         ac:d5:60:b2:72:dd:4d:c6:16:e0:f9:94:79:d3:1c:04:46:34:
         c9:a2:0c:56:96:73:5d:37:71:5e:59:9d:2e:a0:7d:f5:ff:c5:
         38:8f:fb:36:4a:de:9f:68:94:76:e0:7b:5c:0b:96:4a:8a:ef:
         08:32:e1:65:0a:28:47:20:f4:81:4c:5b:b1:ea:9c:81:1c:a9:
         86:db:e2:d1:d5:dd:81:e0:45:02:fe:f1:60:ef:5e:25:15:b6:
         a0:8c:51:20:b3:ae:8b:29:25:ce:08:f6:e6:1a:d8:1c:d4:29:
         50:c9:44:43:6b:7f:e2:8d:a4:61:8f:d2:7e:c2:ed:ce:51:cd:
         15:9f:f4:99:89:43:14:86:70:c0:e6:b6:b5:50:5d:d8:26:8f:
         38:ae:75:18:1b:24:7d:dd:88:cd:65:0e:8e:11:b3:60:3f:2d:
         57:ac:1b:87:c5:6b:91:4c:9c:cf:84:cc:69:a9:a8:23:c7:12:
         6a:f2:a9:a9:55:9c:51:a0:1d:70:2d:c8:1e:13:2b:fc:31:72:
         80:7d:64:5a:b5:10:14:82:af:80:83:bf:9a:c8:4f:64:10:76:
         25:55:3c:91:1d:36:86:dd:ac:bb:f1:86:89:e0:7f:0e:e9:bd:
         44:56:f2:b5:ad:ef:77:a6:c9:3a:a7:35:4c:d0:61:43:83:5a:
         32:39:7d:61:32:f9:64:a6:db:ac:89:28:47:a0:9c:d0:e8:11:
         fa:80:ec:c2:05:db:00:ff:65:54:a8:f0:5f:60:83:45:12:43:
         d1:d1:5f:93:c9:7a:72:63:c4:ec:1a:0c:68:8a:aa:f5:5b:1e:
         5b:8c:81:f5:33:1a:8f:7b:66:26:5f:cc:d4:bb:f0:9d:83:9d:
         3e:d1:04:1a:97:ce:03:f8:2d:eb:f5:9a:c3:1e:5a:3c:46:0c:
         46:c4:f7:e3:fe:d8:89:21
-----BEGIN CERTIFICATE-----
MIIFPzCCAycCAQgwDQYJKoZIhvcNAQELBQAwdDELMAkGA1UEBhMCZnIxDDAKBgNV
BAgMA2lkZjEOMAwGA1UEBwwFcGFyaXMxEDAOBgNVBAoMB3ZpdGFtdWkxFDASBgNV
BAsMC2F1dGhvcml0aWVzMR8wHQYDVQQDDBZjYV9pbnRlcm1lZGlhdGVfc2VydmVy
MB4XDTIwMDUwNTEyMzUwNFoXDTIzMDUwNTEyMzUwNFowVzELMAkGA1UEBhMCZnIx
DDAKBgNVBAgMA2lkZjEOMAwGA1UEBwwFcGFyaXMxEDAOBgNVBAoMB3ZpdGFtdWkx
GDAWBgNVBAMMD2Rldi52aXRhbXVpLmNvbTCCAiIwDQYJKoZIhvcNAQEBBQADggIP
ADCCAgoCggIBAL9oaYutn2sVRFWKImy8IOGPuEFvppdtOu1SW2oLeoJseLx9K4Wj
GC04werPP2t6JdTQte1neAZvtjWP3BjDI8tUqyxB9/WYs3RVUSFqRXFwHmBvh6ZZ
7spMnBn8/zLBzmPe+vf1/hC9WQiH0WL4uchY+zr3eAoH5EqF38KIE3SR8mZWjezH
8l8iPRbaImT1qzmnDRNEOGPrIQBfxsD/lvdBKehAnBRp0LbYePy2IaNwdEcZrBi5
RnfV0kdk2IxOfAFdK1WttiXcK5y1vxSS1b8HUdlFYfZcMBn4cPTdpLMQTfSRMCzN
0oTXTHmI00AlnDvYqWYSDuR+Y1T/EpFOupxMCZlXI8/7IgiwLBD8ZI/7lcNqwouK
x0iDx3q98u7PNIAsZMoj/QAgIC2P3/bTlGK/arHNpH+Jlzt1r7mIMVIg8ziKk7Fn
CXIJYHO3KjvMga8tkmhI1B15SMiZQcDAWwnjJpOiY0nbkoJq42aVE5jiHh31haDO
W5053o/CjtqYK3Fgr8f55aehAKRQ+e00AvWEDyvQDPqxZVayMekE8LoNPgvGFxIv
zXvf4FDxNNOc35+c8zDTYD/5frB7zZ6nqIZlXV4+KEC76uwsS/rrzIBcjg3i/t6E
II7YNwwSjvK05Q1feP3Y1Mh9gNaKvi6ELcCJLcPQ/QWesq35N8ptnoBDAgMBAAEw
DQYJKoZIhvcNAQELBQADggIBAEWRmrJ9SZB3bzNfaPbOitgBLPymlKX+8XNROBMM
gNgZm3wV9JoOXqNdpsW6fBi9e9yL/FKWA4ylbydaETsAWDJ/0pmnBK9iwk1vn2Sq
ntybvHbEkHJbC4p9dLjB64OHVGBw5k4U85fwVBea6CAK2S8p5z0mW1HpLPrmjukj
eXiwIDAi7hFlt0Dcvwnp1XHLuYdG/P9W8VUi5gYFk1y0+fLRG6zVYLJy3U3GFuD5
lHnTHARGNMmiDFaWc103cV5ZnS6gffX/xTiP+zZK3p9olHbge1wLlkqK7wgy4WUK
KEcg9IFMW7HqnIEcqYbb4tHV3YHgRQL+8WDvXiUVtqCMUSCzrospJc4I9uYa2BzU
KVDJRENrf+KNpGGP0n7C7c5RzRWf9JmJQxSGcMDmtrVQXdgmjziudRgbJH3diM1l
Do4Rs2A/LVesG4fFa5FMnM+EzGmpqCPHEmryqalVnFGgHXAtyB4TK/wxcoB9ZFq1
EBSCr4CDv5rIT2QQdiVVPJEdNobdrLvxhongfw7pvURW8rWt73emyTqnNUzQYUOD
WjI5fWEy+WSm26yJKEegnNDoEfqA7MIF2wD/ZVSo8F9gg0USQ9HRX5PJenJjxOwa
DGiKqvVbHluMgfUzGo97ZiZfzNS78J2DnT7RBBqXzgP4Lev1msMeWjxGDEbE9+P+
2Ikh
-----END CERTIFICATE-----
