Certificate:
    Data:
        Version: 1 (0x0)
        Serial Number: 144 (0x90)
    Signature Algorithm: sha256WithRSAEncryption
        Issuer: C=fr, ST=idf, L=paris, O=vitamui, OU=authorities, CN=ca_intermediate_server
        Validity
            Not Before: Dec  6 12:55:16 2021 GMT
            Not After : Dec  5 12:55:16 2024 GMT
        Subject: C=fr, ST=idf, L=paris, O=vitamui, CN=dev.vitamui.com
        Subject Public Key Info:
            Public Key Algorithm: rsaEncryption
                Public-Key: (4096 bit)
                Modulus:
                    00:e7:57:c6:f4:09:63:94:49:6b:d1:ba:a2:25:59:
                    ad:76:d3:93:c6:3e:16:a0:63:a6:9e:0f:06:c2:23:
                    19:26:5d:25:11:ff:8a:09:62:d5:6f:9d:4d:ee:94:
                    81:95:5a:7a:66:d9:e9:9c:e4:91:1f:14:02:42:ea:
                    ee:5c:be:f9:8d:09:b9:37:fe:e4:76:5c:25:8e:63:
                    ac:bc:73:5c:b9:e0:b8:6c:ba:06:77:e9:34:31:31:
                    c1:4c:71:9a:e0:d8:b0:50:30:c8:a9:eb:0b:c2:cd:
                    89:1a:0d:ac:cc:5a:ac:63:7d:5e:ca:e6:b1:8b:d4:
                    f9:7f:ef:db:a3:e4:c5:37:9f:88:ed:c3:32:cb:48:
                    d6:7c:e3:dc:8c:82:6b:a0:6c:cd:b0:c8:c3:11:cc:
                    d1:66:e9:61:61:b1:1a:8a:3d:8d:26:90:f4:97:81:
                    44:3f:f2:68:3b:79:be:77:27:6a:91:35:03:09:34:
                    b4:22:01:d1:0c:e1:9d:69:35:9c:bb:d4:4a:ec:e9:
                    ec:a2:ee:b2:a4:b4:cc:cd:7e:7f:c5:e7:81:fa:52:
                    e6:74:ff:d0:1f:ab:76:06:3c:1e:61:cf:2b:a0:ce:
                    66:05:0d:06:13:22:78:70:ea:99:4d:ea:8e:cc:45:
                    d3:17:31:aa:81:93:ca:75:06:92:c2:3e:79:dc:f6:
                    72:94:01:62:68:ef:68:c3:fa:29:62:13:db:d8:25:
                    72:15:3d:66:32:3b:e2:71:8f:84:8e:34:c7:e5:9f:
                    d9:e2:cf:ec:3e:6b:1c:6a:37:a1:66:37:a4:ca:95:
                    47:f2:84:dd:30:63:41:d6:b5:89:02:0a:58:3e:02:
                    01:f8:04:40:98:22:08:3d:a0:f0:7d:df:56:ec:b3:
                    47:95:e5:71:1d:00:d9:8a:7e:d6:11:a9:d0:3a:64:
                    36:4b:95:c0:8d:52:dd:ac:d7:73:d8:48:45:7f:47:
                    91:cf:e5:c5:ca:11:ba:d2:cf:59:e9:25:54:17:c8:
                    09:56:91:24:9c:12:9a:46:d8:8d:2c:b2:ec:85:b5:
                    78:9b:7c:34:e5:10:dc:a2:56:93:75:20:9f:5c:b1:
                    f0:96:f9:87:db:1e:ce:46:2e:e5:2b:d8:2d:d7:81:
                    f6:13:73:a5:e6:82:ef:46:f6:d8:26:38:90:a8:17:
                    a5:36:6e:ce:af:85:5e:e0:51:6c:de:d2:2e:e9:5c:
                    4b:41:09:43:2e:88:84:0e:fe:ed:0c:02:6d:00:6f:
                    1e:8c:f8:a9:59:72:b0:c1:ff:21:27:50:8e:3b:fb:
                    5e:29:9b:3d:be:c2:a2:76:cc:99:ec:af:1e:15:19:
                    31:63:54:a2:63:ad:3b:ce:13:0e:93:03:c8:99:53:
                    6f:af:af
                Exponent: 65537 (0x10001)
    Signature Algorithm: sha256WithRSAEncryption
         34:e2:dc:68:7d:ec:c3:bc:9e:aa:01:c6:ab:22:55:1d:e9:23:
         a6:54:2a:9f:62:e9:bd:58:ce:f9:f1:d9:86:86:60:04:26:87:
         d2:ec:07:b0:a8:ce:6d:7e:90:0a:d3:ed:42:8e:86:a5:f6:7c:
         52:6e:1b:c4:8b:45:d8:31:f9:1b:b2:20:9f:4e:b3:e6:17:8e:
         7a:bb:3f:b4:5c:07:d4:7c:da:54:7b:90:c3:d2:e5:af:08:d4:
         e4:da:03:55:b0:9b:8a:ed:c9:89:0e:a8:ba:ae:31:02:b0:93:
         6f:ce:a6:5f:9c:15:dd:a8:f8:6b:d5:39:f8:c9:a8:35:61:f3:
         6f:ea:62:7f:6b:80:11:f1:58:9c:13:37:0b:02:48:33:b2:af:
         c0:f9:86:0d:3e:46:d0:d4:62:c1:35:08:b0:4f:98:c2:f5:52:
         18:15:e2:6e:00:69:7b:01:ed:86:42:13:db:4a:71:58:2b:93:
         73:30:cd:e8:99:99:18:d3:e7:d8:e9:15:9f:8a:4f:d5:70:c6:
         75:19:79:f5:19:4a:14:03:48:18:f0:0a:3e:ca:d8:6c:2c:48:
         85:db:50:41:30:5e:61:e4:d3:53:2b:c0:c7:62:be:06:6d:1e:
         30:e6:a2:df:59:62:94:aa:d1:1f:1f:f0:d6:a5:d7:51:ec:c0:
         0d:cc:f8:f7:23:32:cc:e2:80:d1:68:8b:b6:64:37:2a:60:92:
         04:5b:ca:b2:90:7a:af:d4:27:8a:24:3a:a0:e2:4c:ac:7b:f8:
         c8:a6:73:88:e3:f2:37:d4:aa:4a:53:a2:c3:5a:af:ce:3f:54:
         1a:1a:e1:8f:d3:2c:0c:0a:4f:ee:43:ed:80:64:96:6a:5f:04:
         e6:0b:23:21:b3:d9:86:89:21:ba:79:97:8c:04:0b:62:bf:02:
         e0:b9:94:bf:53:88:c8:1b:7a:15:ce:1d:82:91:58:27:98:c2:
         29:15:ba:48:7b:a2:70:d6:29:12:30:8c:50:a4:0c:60:ec:26:
         9e:4b:4b:99:06:b6:98:9c:fb:b5:1c:46:c5:db:24:70:95:d3:
         95:74:ab:91:b7:c8:33:6e:56:76:64:cc:4e:fd:7f:1d:a3:8d:
         8f:0f:25:c6:67:c7:32:bf:26:dc:6c:bf:f1:da:c3:70:05:55:
         03:47:75:cd:26:46:53:4a:e3:4b:fe:8e:3d:87:73:c1:ca:36:
         81:96:30:59:97:8e:16:4e:55:fc:64:f7:f8:9f:a2:25:73:8c:
         9b:90:7d:9a:ae:ec:06:54:0b:40:ff:4f:02:67:5d:d4:2d:fd:
         54:c3:29:9d:ed:99:35:18:be:ff:b1:b7:b0:e4:97:41:06:86:
         02:33:c3:32:f1:48:36:a7
-----BEGIN CERTIFICATE-----
MIIFQDCCAygCAgCQMA0GCSqGSIb3DQEBCwUAMHQxCzAJBgNVBAYTAmZyMQwwCgYD
VQQIDANpZGYxDjAMBgNVBAcMBXBhcmlzMRAwDgYDVQQKDAd2aXRhbXVpMRQwEgYD
VQQLDAthdXRob3JpdGllczEfMB0GA1UEAwwWY2FfaW50ZXJtZWRpYXRlX3NlcnZl
cjAeFw0yMTEyMDYxMjU1MTZaFw0yNDEyMDUxMjU1MTZaMFcxCzAJBgNVBAYTAmZy
MQwwCgYDVQQIDANpZGYxDjAMBgNVBAcMBXBhcmlzMRAwDgYDVQQKDAd2aXRhbXVp
MRgwFgYDVQQDDA9kZXYudml0YW11aS5jb20wggIiMA0GCSqGSIb3DQEBAQUAA4IC
DwAwggIKAoICAQDnV8b0CWOUSWvRuqIlWa1205PGPhagY6aeDwbCIxkmXSUR/4oJ
YtVvnU3ulIGVWnpm2emc5JEfFAJC6u5cvvmNCbk3/uR2XCWOY6y8c1y54LhsugZ3
6TQxMcFMcZrg2LBQMMip6wvCzYkaDazMWqxjfV7K5rGL1Pl/79uj5MU3n4jtwzLL
SNZ849yMgmugbM2wyMMRzNFm6WFhsRqKPY0mkPSXgUQ/8mg7eb53J2qRNQMJNLQi
AdEM4Z1pNZy71Ers6eyi7rKktMzNfn/F54H6UuZ0/9Afq3YGPB5hzyugzmYFDQYT
Inhw6plN6o7MRdMXMaqBk8p1BpLCPnnc9nKUAWJo72jD+iliE9vYJXIVPWYyO+Jx
j4SONMfln9niz+w+axxqN6FmN6TKlUfyhN0wY0HWtYkCClg+AgH4BECYIgg9oPB9
31bss0eV5XEdANmKftYRqdA6ZDZLlcCNUt2s13PYSEV/R5HP5cXKEbrSz1npJVQX
yAlWkSScEppG2I0ssuyFtXibfDTlENyiVpN1IJ9csfCW+YfbHs5GLuUr2C3XgfYT
c6Xmgu9G9tgmOJCoF6U2bs6vhV7gUWze0i7pXEtBCUMuiIQO/u0MAm0Abx6M+KlZ
crDB/yEnUI47+14pmz2+wqJ2zJnsrx4VGTFjVKJjrTvOEw6TA8iZU2+vrwIDAQAB
MA0GCSqGSIb3DQEBCwUAA4ICAQA04txofezDvJ6qAcarIlUd6SOmVCqfYum9WM75
8dmGhmAEJofS7AewqM5tfpAK0+1Cjoal9nxSbhvEi0XYMfkbsiCfTrPmF456uz+0
XAfUfNpUe5DD0uWvCNTk2gNVsJuK7cmJDqi6rjECsJNvzqZfnBXdqPhr1Tn4yag1
YfNv6mJ/a4AR8VicEzcLAkgzsq/A+YYNPkbQ1GLBNQiwT5jC9VIYFeJuAGl7Ae2G
QhPbSnFYK5NzMM3omZkY0+fY6RWfik/VcMZ1GXn1GUoUA0gY8Ao+ythsLEiF21BB
MF5h5NNTK8DHYr4GbR4w5qLfWWKUqtEfH/DWpddR7MANzPj3IzLM4oDRaIu2ZDcq
YJIEW8qykHqv1CeKJDqg4kyse/jIpnOI4/I31KpKU6LDWq/OP1QaGuGP0ywMCk/u
Q+2AZJZqXwTmCyMhs9mGiSG6eZeMBAtivwLguZS/U4jIG3oVzh2CkVgnmMIpFbpI
e6Jw1ikSMIxQpAxg7CaeS0uZBraYnPu1HEbF2yRwldOVdKuRt8gzblZ2ZMxO/X8d
o42PDyXGZ8cyvybcbL/x2sNwBVUDR3XNJkZTSuNL/o49h3PByjaBljBZl44WTlX8
ZPf4n6Ilc4ybkH2aruwGVAtA/08CZ13ULf1Uwymd7Zk1GL7/sbew5JdBBoYCM8My
8Ug2pw==
-----END CERTIFICATE-----
