Certificate:
    Data:
        Version: 1 (0x0)
        Serial Number: 52 (0x34)
        Signature Algorithm: sha256WithRSAEncryption
        Issuer: C=fr, ST=idf, L=paris, O=vitamui, OU=authorities, CN=ca_intermediate_server
        Validity
            Not Before: Nov 23 16:59:40 2022 GMT
            Not After : Nov 22 16:59:40 2025 GMT
        Subject: C=fr, ST=idf, L=paris, O=vitamui, CN=dev.vitamui.com
        Subject Public Key Info:
            Public Key Algorithm: rsaEncryption
                RSA Public-Key: (4096 bit)
                Modulus:
                    00:bc:10:ad:5e:52:d4:de:26:da:04:1a:da:79:95:
                    26:54:4b:ad:e8:59:5a:06:fc:2e:7f:71:a0:b9:fd:
                    14:83:8c:5f:8c:88:96:f4:5f:1a:10:05:9e:3e:4c:
                    ad:f4:fd:db:17:7d:7c:f1:fc:ff:41:04:74:60:48:
                    ba:ea:14:ac:bf:e5:0d:d1:21:84:f8:74:b4:9a:cc:
                    c3:c2:d5:80:c2:6a:75:fb:34:56:a1:06:45:d0:ca:
                    82:cd:f7:aa:68:12:fc:9d:60:2c:c5:7a:31:00:e2:
                    65:e3:c6:fc:4b:9d:52:34:fd:81:41:a7:58:2a:b4:
                    1c:43:18:6e:98:8a:97:ad:74:60:b4:ac:fd:98:96:
                    da:7f:34:3c:fa:c7:27:bc:28:44:53:2c:84:18:31:
                    d6:e2:2b:88:24:ab:51:0f:58:f2:13:5f:8a:48:5b:
                    15:16:ab:69:23:e4:5c:67:c9:17:13:45:16:15:f5:
                    ac:16:3c:c7:23:49:e3:3d:7f:18:6b:4f:9f:0e:1b:
                    2f:be:29:7d:bf:d4:98:ba:d4:a6:22:27:df:df:aa:
                    1e:ed:41:6d:a0:c7:15:94:fe:34:69:46:1b:17:e9:
                    1f:6e:9c:24:dd:01:e2:73:f0:32:12:dc:8d:0e:7e:
                    e2:5a:07:4b:d5:e5:c7:96:5b:02:6a:b0:e3:08:ed:
                    83:01:a5:fd:d9:4e:df:fb:a7:53:87:ed:3f:d5:36:
                    4c:96:80:63:2e:e8:05:62:c1:9a:10:37:37:2e:74:
                    b3:e3:fb:82:4e:53:56:56:bc:5c:e9:1c:07:d2:38:
                    78:51:1d:54:4b:ca:e1:ad:8d:13:d4:cb:f4:a0:5f:
                    ea:b3:ad:9e:97:6c:da:d8:e6:8f:65:0c:cd:fd:cb:
                    b2:aa:2c:a4:20:d9:94:0e:5e:f9:c0:c6:12:b4:50:
                    92:53:3f:63:29:df:74:48:42:18:80:7e:13:fb:80:
                    f7:6d:f0:3d:62:71:52:36:53:b7:67:40:82:0e:25:
                    52:2c:eb:55:b0:9c:8a:12:c8:d5:ce:50:d5:29:08:
                    69:75:a7:e2:20:d2:79:fd:5d:4a:0b:f5:f9:7d:ac:
                    ec:55:9b:38:38:68:ee:f9:89:1b:52:75:bc:24:73:
                    db:d9:e0:cc:2b:8d:16:6f:3a:ae:41:34:8d:3d:41:
                    aa:50:2f:7a:34:bf:ac:ba:a3:e3:77:e1:dc:7a:1d:
                    15:cd:25:91:a0:a4:9e:e8:e7:ef:70:01:79:fc:aa:
                    8c:00:4a:21:66:0d:43:32:14:1c:02:ac:a8:6b:e2:
                    0b:8e:53:fe:6a:14:88:b6:a2:6d:c7:33:d1:b1:8e:
                    38:ac:55:ed:ed:d9:19:88:b8:27:4d:2f:1c:c7:84:
                    2e:f4:01
                Exponent: 65537 (0x10001)
    Signature Algorithm: sha256WithRSAEncryption
         87:c0:e2:20:5e:ab:5e:05:63:b0:f2:ac:8e:c2:58:93:30:8a:
         da:bd:aa:c0:6f:b7:d8:ae:8d:da:37:39:fd:c5:b5:78:01:32:
         35:48:73:a9:47:9c:83:44:73:b4:bf:e5:d9:39:99:e4:fb:7d:
         fd:f0:55:8b:9f:61:92:4f:53:c8:2e:7a:10:0f:0c:4d:6c:3a:
         e0:a7:c1:46:aa:f9:a3:44:50:e0:53:9e:3f:b1:ea:79:1c:6b:
         9e:d9:e5:4e:00:d0:bb:bb:ba:83:d9:74:92:66:f8:4b:7e:91:
         b6:24:a5:ba:e9:89:5a:a6:5b:f4:c1:5d:fc:78:a1:5b:fe:93:
         f3:d7:d5:f1:ed:b9:b9:60:cd:26:9a:00:4e:3f:39:e1:d8:ed:
         92:23:9c:12:88:88:11:bb:27:bc:de:23:ae:d7:95:09:61:67:
         ad:a9:27:a1:e6:03:6d:85:d7:b6:c4:5b:c9:ea:20:36:53:71:
         37:57:90:0e:6c:5b:a6:3d:d2:fb:b5:43:d1:61:ae:07:c0:94:
         53:ca:e5:cd:ea:3b:d9:cd:fc:b3:c8:77:e4:6b:ab:28:10:4c:
         4b:15:10:cc:d2:3b:88:d8:b9:91:81:fe:35:07:da:61:a4:9f:
         a2:0c:fd:88:d7:5b:5f:3b:26:7d:31:40:fb:82:39:a2:83:15:
         f7:72:c2:be:90:95:d4:7b:e5:15:04:32:f3:a2:3f:f5:b1:e9:
         7f:1d:18:ec:9a:95:16:bb:8c:c5:07:fa:74:61:dc:75:75:73:
         ac:cf:18:9a:5d:56:ed:c6:91:ac:4f:c4:cc:ae:1f:55:79:e1:
         8a:39:d1:98:fb:63:d6:d3:32:e6:3f:24:7b:62:2f:64:c7:78:
         46:00:3e:81:3b:03:6d:3b:c1:dd:fd:b3:ba:6a:27:a1:13:62:
         35:1f:8a:77:5c:9a:8f:22:88:05:66:0c:bc:f6:bd:ba:4a:87:
         26:cc:ab:27:aa:d7:6e:2c:fb:0c:45:00:d6:47:45:77:f9:a3:
         4f:34:a7:b6:1e:b4:c2:46:a4:79:1d:dc:00:86:0c:a3:79:d2:
         82:df:1f:e8:68:91:ee:91:c7:68:76:df:af:b6:49:6d:19:0d:
         ac:bf:f7:ca:f4:30:56:79:cb:29:2a:55:c6:3b:a7:b6:b0:fa:
         b2:cd:a2:41:3a:0b:bd:9b:f9:d1:72:81:b8:6a:8f:8f:19:b8:
         75:17:36:22:fe:5f:8e:0e:38:2e:7c:b4:8b:ad:32:0c:a7:b9:
         bd:0a:a1:8a:42:02:6b:92:72:f5:5a:de:b7:39:93:5d:39:b3:
         65:d3:28:85:e3:42:0e:52:42:90:fb:a9:6f:31:3b:62:dc:3d:
         4b:20:0e:83:06:47:8b:ce
-----BEGIN CERTIFICATE-----
MIIFPzCCAycCATQwDQYJKoZIhvcNAQELBQAwdDELMAkGA1UEBhMCZnIxDDAKBgNV
BAgMA2lkZjEOMAwGA1UEBwwFcGFyaXMxEDAOBgNVBAoMB3ZpdGFtdWkxFDASBgNV
BAsMC2F1dGhvcml0aWVzMR8wHQYDVQQDDBZjYV9pbnRlcm1lZGlhdGVfc2VydmVy
MB4XDTIyMTEyMzE2NTk0MFoXDTI1MTEyMjE2NTk0MFowVzELMAkGA1UEBhMCZnIx
DDAKBgNVBAgMA2lkZjEOMAwGA1UEBwwFcGFyaXMxEDAOBgNVBAoMB3ZpdGFtdWkx
GDAWBgNVBAMMD2Rldi52aXRhbXVpLmNvbTCCAiIwDQYJKoZIhvcNAQEBBQADggIP
ADCCAgoCggIBALwQrV5S1N4m2gQa2nmVJlRLrehZWgb8Ln9xoLn9FIOMX4yIlvRf
GhAFnj5MrfT92xd9fPH8/0EEdGBIuuoUrL/lDdEhhPh0tJrMw8LVgMJqdfs0VqEG
RdDKgs33qmgS/J1gLMV6MQDiZePG/EudUjT9gUGnWCq0HEMYbpiKl610YLSs/ZiW
2n80PPrHJ7woRFMshBgx1uIriCSrUQ9Y8hNfikhbFRaraSPkXGfJFxNFFhX1rBY8
xyNJ4z1/GGtPnw4bL74pfb/UmLrUpiIn39+qHu1BbaDHFZT+NGlGGxfpH26cJN0B
4nPwMhLcjQ5+4loHS9Xlx5ZbAmqw4wjtgwGl/dlO3/unU4ftP9U2TJaAYy7oBWLB
mhA3Ny50s+P7gk5TVla8XOkcB9I4eFEdVEvK4a2NE9TL9KBf6rOtnpds2tjmj2UM
zf3LsqospCDZlA5e+cDGErRQklM/YynfdEhCGIB+E/uA923wPWJxUjZTt2dAgg4l
UizrVbCcihLI1c5Q1SkIaXWn4iDSef1dSgv1+X2s7FWbODho7vmJG1J1vCRz29ng
zCuNFm86rkE0jT1BqlAvejS/rLqj43fh3HodFc0lkaCknujn73ABefyqjABKIWYN
QzIUHAKsqGviC45T/moUiLaibccz0bGOOKxV7e3ZGYi4J00vHMeELvQBAgMBAAEw
DQYJKoZIhvcNAQELBQADggIBAIfA4iBeq14FY7DyrI7CWJMwitq9qsBvt9iujdo3
Of3FtXgBMjVIc6lHnINEc7S/5dk5meT7ff3wVYufYZJPU8guehAPDE1sOuCnwUaq
+aNEUOBTnj+x6nkca57Z5U4A0Lu7uoPZdJJm+Et+kbYkpbrpiVqmW/TBXfx4oVv+
k/PX1fHtublgzSaaAE4/OeHY7ZIjnBKIiBG7J7zeI67XlQlhZ62pJ6HmA22F17bE
W8nqIDZTcTdXkA5sW6Y90vu1Q9FhrgfAlFPK5c3qO9nN/LPId+RrqygQTEsVEMzS
O4jYuZGB/jUH2mGkn6IM/YjXW187Jn0xQPuCOaKDFfdywr6QldR75RUEMvOiP/Wx
6X8dGOyalRa7jMUH+nRh3HV1c6zPGJpdVu3GkaxPxMyuH1V54Yo50Zj7Y9bTMuY/
JHtiL2THeEYAPoE7A207wd39s7pqJ6ETYjUfindcmo8iiAVmDLz2vbpKhybMqyeq
124s+wxFANZHRXf5o080p7YetMJGpHkd3ACGDKN50oLfH+hoke6Rx2h236+2SW0Z
Day/98r0MFZ5yykqVcY7p7aw+rLNokE6C72b+dFygbhqj48ZuHUXNiL+X44OOC58
tIutMgynub0KoYpCAmuScvVa3rc5k105s2XTKIXjQg5SQpD7qW8xO2LcPUsgDoMG
R4vO
-----END CERTIFICATE-----
