Certificate:
    Data:
        Version: 1 (0x0)
        Serial Number: 145 (0x91)
    Signature Algorithm: sha256WithRSAEncryption
        Issuer: C=fr, ST=idf, L=paris, O=vitamui, OU=authorities, CN=ca_intermediate_server
        Validity
            Not Before: Dec  6 12:55:21 2021 GMT
            Not After : Dec  5 12:55:21 2024 GMT
        Subject: C=fr, ST=idf, L=paris, O=vitamui, CN=dev.vitamui.com
        Subject Public Key Info:
            Public Key Algorithm: rsaEncryption
                Public-Key: (4096 bit)
                Modulus:
                    00:9e:82:79:a0:be:ad:0e:a7:db:c2:bb:67:ad:34:
                    2d:be:8d:82:50:54:54:b2:2d:86:df:6b:1b:fc:76:
                    1a:df:9f:f9:5a:e2:13:b2:c6:20:30:0a:fb:6b:96:
                    e6:3a:bd:33:02:5c:21:b5:e7:36:8d:ba:dc:30:ea:
                    82:0a:e7:4c:fe:42:b4:b9:c8:b3:f8:1f:8e:9a:8f:
                    2f:a6:46:b3:d8:43:7b:04:39:42:19:17:e0:b3:83:
                    72:a8:28:a6:c7:98:fa:67:1f:48:11:0c:9b:cd:18:
                    78:02:cf:50:af:09:92:9a:9a:4e:a2:91:03:bc:c1:
                    64:86:2f:21:57:ad:cb:20:0f:ae:91:38:81:57:b7:
                    95:f9:65:c5:a4:55:c2:2b:a9:81:2f:c0:5a:10:c4:
                    87:d5:ae:1a:e5:81:ce:71:4a:1e:af:79:84:1b:d3:
                    74:7a:67:a3:55:60:3f:4f:5c:fe:60:5d:96:1d:70:
                    80:1f:97:9e:5c:55:f2:6d:8a:2b:d5:3c:ea:ca:2e:
                    cc:b5:ae:6e:ad:e3:84:e6:b0:ad:00:d8:80:91:bf:
                    65:58:98:fc:f6:7f:db:b2:3b:1a:a1:d2:87:dd:ba:
                    1d:de:6a:c9:67:98:17:7a:2e:dc:22:16:23:48:4a:
                    5b:f9:f5:81:a0:c8:95:86:95:fa:04:3c:31:96:07:
                    31:17:c7:6c:a8:ca:16:3d:63:fa:5b:49:5e:d4:d2:
                    68:dd:39:72:6c:fb:ce:f0:b1:39:2f:b7:a6:44:38:
                    15:c7:cb:af:16:37:c4:17:18:99:0d:9d:c5:ce:cd:
                    3e:da:e2:90:e7:e7:73:a0:39:33:a7:c6:2e:91:d8:
                    64:47:5c:ba:f0:59:f1:1a:25:f3:b4:2e:18:1f:dc:
                    3d:eb:39:1c:7a:39:c4:7f:71:d3:af:5c:fa:61:12:
                    da:2f:91:bd:56:05:35:b7:b8:98:3c:fc:c1:06:f1:
                    c9:43:db:0d:7d:e0:c5:eb:28:35:88:5e:5b:d0:c2:
                    ab:cc:15:00:ee:de:8a:37:97:36:4e:b4:82:0f:b7:
                    ab:ef:17:e1:ec:67:5e:fe:96:9b:1b:be:28:b9:e0:
                    00:fe:87:ac:47:c6:07:9a:8e:41:6c:1c:9e:37:12:
                    20:32:64:5b:2c:72:e8:95:5a:27:20:ad:b9:90:75:
                    b7:d6:8b:86:4a:6a:8d:db:46:d5:a9:fc:b9:0c:3d:
                    6f:ac:ce:34:5e:cb:f7:b3:08:c7:84:cc:f5:c7:8a:
                    c5:c4:ed:57:20:d0:ee:51:9c:2d:19:91:42:92:45:
                    e7:d3:a0:9c:18:4e:c8:d8:35:ff:9b:13:21:dc:d4:
                    87:89:81:e6:0b:ef:c6:8f:20:9a:11:13:20:36:71:
                    ce:72:1d
                Exponent: 65537 (0x10001)
    Signature Algorithm: sha256WithRSAEncryption
         2e:d1:e9:50:6f:b6:52:f8:63:9a:38:bb:a3:cb:80:e0:4b:d4:
         19:a1:3e:47:b5:e7:d0:b0:c3:e2:99:86:48:3a:23:2d:79:0c:
         b7:23:27:25:b4:a2:7b:ff:e6:a2:b3:0d:20:39:60:b9:4d:c1:
         67:d8:59:7f:ac:10:4c:c0:b9:87:9d:69:e6:fe:8f:cc:e6:07:
         1a:4e:59:82:20:c4:b2:ea:2f:3b:5f:dc:d5:50:7a:91:c7:64:
         ea:f4:41:fd:28:5d:22:e9:08:bd:d5:d9:de:90:f6:bb:39:59:
         d2:6a:fb:c8:c0:cd:d3:20:5a:37:87:55:73:9f:58:28:58:e6:
         80:d7:53:cc:6b:65:18:0e:aa:c7:c5:98:75:45:70:0e:9d:88:
         fe:87:f9:18:68:f5:cb:79:30:57:b8:47:a4:ad:e7:ad:22:04:
         8b:87:aa:fa:46:ea:1f:4f:66:f0:01:d9:16:8a:0a:ef:99:39:
         5c:43:67:3a:05:7e:2f:9c:ab:32:a5:44:cf:33:5f:f1:d1:cb:
         bb:b1:d1:86:ce:2d:d4:1a:a8:fc:f3:b5:1c:da:3c:b1:22:5b:
         74:4d:cd:38:90:c5:82:44:da:47:99:6a:db:f9:c9:d6:25:9a:
         6c:25:ef:67:46:1b:d8:06:73:64:52:d9:ad:70:9c:57:1d:7e:
         ae:4b:6c:a1:e0:95:b2:61:af:33:4a:f3:24:7b:48:f5:42:21:
         56:98:92:1b:06:43:16:d8:61:94:7c:d9:a4:b1:97:2a:b1:f4:
         c5:4e:e7:9a:f3:c1:a4:e2:44:9e:4d:7e:48:4c:ae:41:b8:32:
         0b:fd:2c:f5:5f:00:ee:6e:a3:03:1d:8f:94:6b:1d:10:15:2b:
         02:80:b6:e6:f3:22:06:e9:f8:b2:ea:a8:b8:40:7e:0c:2a:60:
         df:03:fc:44:d4:70:41:3f:64:04:bc:a6:3f:2e:a6:f8:a1:fe:
         f4:ca:f1:c0:23:06:62:35:e1:6f:16:b1:89:c8:b1:10:2f:a7:
         d7:6a:8b:f2:f3:9f:27:07:d5:d1:93:9a:26:86:72:6e:e3:c5:
         10:fd:a0:20:07:23:56:5c:51:9c:59:c4:6e:88:87:cd:6d:b7:
         9e:fc:1f:40:55:15:70:10:8e:7e:ef:76:ad:fa:bf:bd:4f:0a:
         56:aa:ea:18:3f:a1:a4:59:7d:c7:7a:6e:3b:69:34:e9:a2:84:
         d3:a1:cf:52:45:17:e4:3a:c4:07:78:5f:d6:c7:c7:15:7c:84:
         a0:00:15:c8:fa:34:eb:6d:cf:d8:80:ba:9a:6b:1d:5d:6f:3a:
         0b:99:ae:80:7e:69:b8:c5:8d:54:32:77:cd:84:c7:6a:27:e5:
         e6:fa:2f:ba:e6:d5:4a:4f
-----BEGIN CERTIFICATE-----
MIIFQDCCAygCAgCRMA0GCSqGSIb3DQEBCwUAMHQxCzAJBgNVBAYTAmZyMQwwCgYD
VQQIDANpZGYxDjAMBgNVBAcMBXBhcmlzMRAwDgYDVQQKDAd2aXRhbXVpMRQwEgYD
VQQLDAthdXRob3JpdGllczEfMB0GA1UEAwwWY2FfaW50ZXJtZWRpYXRlX3NlcnZl
cjAeFw0yMTEyMDYxMjU1MjFaFw0yNDEyMDUxMjU1MjFaMFcxCzAJBgNVBAYTAmZy
MQwwCgYDVQQIDANpZGYxDjAMBgNVBAcMBXBhcmlzMRAwDgYDVQQKDAd2aXRhbXVp
MRgwFgYDVQQDDA9kZXYudml0YW11aS5jb20wggIiMA0GCSqGSIb3DQEBAQUAA4IC
DwAwggIKAoICAQCegnmgvq0Op9vCu2etNC2+jYJQVFSyLYbfaxv8dhrfn/la4hOy
xiAwCvtrluY6vTMCXCG15zaNutww6oIK50z+QrS5yLP4H46ajy+mRrPYQ3sEOUIZ
F+Czg3KoKKbHmPpnH0gRDJvNGHgCz1CvCZKamk6ikQO8wWSGLyFXrcsgD66ROIFX
t5X5ZcWkVcIrqYEvwFoQxIfVrhrlgc5xSh6veYQb03R6Z6NVYD9PXP5gXZYdcIAf
l55cVfJtiivVPOrKLsy1rm6t44TmsK0A2ICRv2VYmPz2f9uyOxqh0ofduh3easln
mBd6LtwiFiNISlv59YGgyJWGlfoEPDGWBzEXx2yoyhY9Y/pbSV7U0mjdOXJs+87w
sTkvt6ZEOBXHy68WN8QXGJkNncXOzT7a4pDn53OgOTOnxi6R2GRHXLrwWfEaJfO0
Lhgf3D3rORx6OcR/cdOvXPphEtovkb1WBTW3uJg8/MEG8clD2w194MXrKDWIXlvQ
wqvMFQDu3oo3lzZOtIIPt6vvF+HsZ17+lpsbvii54AD+h6xHxgeajkFsHJ43EiAy
ZFsscuiVWicgrbmQdbfWi4ZKao3bRtWp/LkMPW+szjRey/ezCMeEzPXHisXE7Vcg
0O5RnC0ZkUKSRefToJwYTsjYNf+bEyHc1IeJgeYL78aPIJoREyA2cc5yHQIDAQAB
MA0GCSqGSIb3DQEBCwUAA4ICAQAu0elQb7ZS+GOaOLujy4DgS9QZoT5HtefQsMPi
mYZIOiMteQy3IycltKJ7/+aisw0gOWC5TcFn2Fl/rBBMwLmHnWnm/o/M5gcaTlmC
IMSy6i87X9zVUHqRx2Tq9EH9KF0i6Qi91dnekPa7OVnSavvIwM3TIFo3h1Vzn1go
WOaA11PMa2UYDqrHxZh1RXAOnYj+h/kYaPXLeTBXuEekreetIgSLh6r6RuofT2bw
AdkWigrvmTlcQ2c6BX4vnKsypUTPM1/x0cu7sdGGzi3UGqj887Uc2jyxIlt0Tc04
kMWCRNpHmWrb+cnWJZpsJe9nRhvYBnNkUtmtcJxXHX6uS2yh4JWyYa8zSvMke0j1
QiFWmJIbBkMW2GGUfNmksZcqsfTFTuea88Gk4kSeTX5ITK5BuDIL/Sz1XwDubqMD
HY+Uax0QFSsCgLbm8yIG6fiy6qi4QH4MKmDfA/xE1HBBP2QEvKY/Lqb4of70yvHA
IwZiNeFvFrGJyLEQL6fXaovy858nB9XRk5omhnJu48UQ/aAgByNWXFGcWcRuiIfN
bbee/B9AVRVwEI5+73at+r+9TwpWquoYP6GkWX3Hem47aTTpooTToc9SRRfkOsQH
eF/Wx8cVfISgABXI+jTrbc/YgLqaax1dbzoLma6Afmm4xY1UMnfNhMdqJ+Xm+i+6
5tVKTw==
-----END CERTIFICATE-----
