Certificate:
    Data:
        Version: 1 (0x0)
        Serial Number: 10 (0xa)
        Signature Algorithm: sha256WithRSAEncryption
        Issuer: C=fr, ST=idf, L=paris, O=vitamui, OU=authorities, CN=ca_intermediate_server
        Validity
            Not Before: Jul 17 13:47:11 2020 GMT
            Not After : Jul 17 13:47:11 2023 GMT
        Subject: C=fr, ST=idf, L=paris, O=vitamui, CN=dev.vitamui.com
        Subject Public Key Info:
            Public Key Algorithm: rsaEncryption
                RSA Public-Key: (4096 bit)
                Modulus:
                    00:a5:40:f1:eb:2a:42:ab:c2:4c:70:f4:6d:c5:3a:
                    e3:7c:7b:a3:b8:1e:69:79:32:ff:54:56:9f:7b:40:
                    7c:7c:b9:39:78:08:b6:e3:39:62:82:d3:66:3d:2c:
                    62:6e:cf:19:35:85:09:c1:86:46:0d:38:25:7e:75:
                    5f:c3:e5:c2:11:93:c7:3e:1b:b1:af:c4:2f:aa:4a:
                    7b:53:92:1b:23:1d:b7:69:5b:0d:f0:d5:81:f2:62:
                    d2:a2:95:4c:27:f8:bc:0d:dc:4a:38:13:df:8c:c4:
                    7b:97:f5:ae:19:3d:a3:cd:31:11:e6:0a:9d:f3:a2:
                    32:62:7b:0c:14:b6:fe:94:01:ab:15:57:53:49:4d:
                    d2:05:81:b4:20:53:4e:c7:e8:71:98:8f:f4:36:49:
                    8a:5a:21:f2:a2:e6:7e:ae:64:e2:8d:4d:44:c5:df:
                    6f:24:c7:ee:b5:52:91:83:a6:03:6f:41:80:7b:30:
                    69:c4:d8:a2:68:77:a4:4a:50:6f:c5:09:03:0a:bf:
                    8e:84:0d:f9:23:39:99:5a:d5:f9:c9:be:26:4f:27:
                    6f:fa:81:f8:88:68:29:7b:1a:f0:76:99:33:81:dd:
                    ee:2a:f7:2f:11:70:58:f3:09:47:ae:0d:45:3a:09:
                    a4:6c:13:1c:52:31:a6:f8:0e:d5:4d:06:44:e9:2d:
                    27:ca:37:e9:a5:8a:f9:01:0f:26:71:cf:de:8f:b8:
                    14:db:d5:d1:f9:44:f3:4d:81:b6:da:30:74:a3:80:
                    ef:3c:26:c0:52:07:b8:fb:8a:7f:a4:4f:6b:9e:89:
                    4a:b1:85:66:dc:2e:aa:6c:85:82:2c:a8:61:e7:90:
                    e8:a6:64:fd:d2:69:7e:8a:ee:2e:56:d6:6e:02:ec:
                    c2:de:73:3f:5b:c5:00:09:00:e2:9a:e0:1e:d8:85:
                    7a:18:bc:91:b9:72:73:fb:21:10:fc:91:06:ce:18:
                    84:c3:9c:ef:92:76:db:6d:0a:dc:7f:42:eb:85:15:
                    59:7b:08:14:10:dc:3d:42:2a:4c:ce:a9:8a:21:48:
                    63:2e:6a:f1:47:d4:9e:04:52:b1:38:cd:d0:fd:26:
                    e0:84:89:fa:f2:b8:ae:cc:f3:f5:a3:9d:d4:47:14:
                    71:07:43:ec:e4:3b:a8:ec:a6:a8:06:89:98:cf:93:
                    c1:ba:98:74:13:00:13:f8:69:0d:fa:a8:5b:a3:a3:
                    c6:cf:16:47:24:79:c1:b9:ed:00:48:da:1d:c2:91:
                    51:9b:99:db:93:ad:0d:2c:2e:64:fd:4e:9e:a4:58:
                    9c:66:27:80:46:5b:fe:cd:9e:b1:d9:e3:5b:98:bd:
                    fd:c0:27:06:4e:71:47:d9:bd:dc:3a:c3:1c:d8:eb:
                    c5:c7:ff
                Exponent: 65537 (0x10001)
    Signature Algorithm: sha256WithRSAEncryption
         6a:8f:fb:5c:1f:41:d0:1f:4b:a0:4b:7b:e8:79:a9:04:6f:f2:
         68:39:6c:61:1d:f7:c4:0e:3a:90:99:af:47:a1:2b:78:29:40:
         bb:75:d7:13:e3:02:5f:4a:af:18:f9:9f:0c:20:0d:a5:60:c6:
         33:62:e7:99:e5:2a:3e:98:b2:e9:69:04:04:9c:09:02:46:a0:
         00:39:bc:03:0f:ac:50:c7:05:4f:9d:91:0e:b9:a4:d3:36:0b:
         71:0f:89:32:58:05:51:93:88:28:50:db:78:3f:b7:71:cb:43:
         87:81:48:6f:d1:78:70:a2:90:f3:96:bd:85:a1:e6:3d:95:cb:
         4f:be:88:41:22:3d:d6:85:40:d7:23:9b:04:cb:4f:7f:0f:ff:
         82:6c:d0:d9:e6:79:e7:cf:3b:0a:fc:d0:ec:91:4c:db:34:a5:
         17:0b:2b:fb:5a:8f:92:78:cb:15:4c:9a:ba:77:21:e7:19:d5:
         be:8f:f4:6d:18:7d:b8:3d:15:f2:07:48:87:d6:76:07:c0:a8:
         e5:24:39:a6:8c:a9:da:58:cd:a9:c3:d1:6d:8d:dc:2e:81:8d:
         48:d0:b0:9c:03:04:ee:f4:17:23:1e:2f:0c:96:4e:99:f4:be:
         35:5f:4d:d5:f1:5a:b2:33:c2:fb:01:42:40:45:1e:74:da:0b:
         d9:f7:31:49:8f:b0:86:af:44:d6:f6:55:62:49:ee:66:5d:7f:
         64:f9:88:65:0a:8f:05:19:57:65:7d:75:98:64:7f:86:63:c4:
         38:8c:73:c2:11:bd:ee:71:dd:39:c4:fb:05:84:10:12:34:b6:
         bb:18:5d:71:fa:ab:d2:6d:d1:85:eb:ca:0a:83:be:d1:3a:6f:
         c7:ba:b7:47:06:b7:1e:e5:22:a0:b6:4e:91:3d:45:2e:22:2b:
         fe:c4:27:f7:e1:1b:be:0c:c4:f8:54:c3:cd:ca:0c:c8:2c:80:
         af:95:29:a5:63:29:42:3e:b9:2a:e5:dc:b1:60:97:f4:c6:8a:
         56:bd:2a:67:d1:d2:66:e4:87:40:3c:50:73:29:11:5d:c6:f3:
         90:f3:78:6e:1d:54:21:ba:4f:0c:32:78:9f:ea:96:0b:39:59:
         fe:f4:e4:a5:02:45:31:66:a5:23:6e:ea:51:bc:ca:25:5f:a4:
         5b:8e:23:7f:e9:e7:76:ca:44:09:7c:67:a7:96:62:7f:8f:dc:
         bf:d7:af:56:02:66:0e:47:a2:e3:85:89:a8:ec:0b:b8:d1:54:
         f6:7f:d1:87:f2:f9:57:f4:49:16:05:c3:81:33:fa:a2:55:50:
         12:da:8d:be:4f:b8:ac:13:2f:b3:f7:0a:b5:bf:b1:a6:83:7e:
         72:77:b9:23:57:60:a7:4f
-----BEGIN CERTIFICATE-----
MIIFPzCCAycCAQowDQYJKoZIhvcNAQELBQAwdDELMAkGA1UEBhMCZnIxDDAKBgNV
BAgMA2lkZjEOMAwGA1UEBwwFcGFyaXMxEDAOBgNVBAoMB3ZpdGFtdWkxFDASBgNV
BAsMC2F1dGhvcml0aWVzMR8wHQYDVQQDDBZjYV9pbnRlcm1lZGlhdGVfc2VydmVy
MB4XDTIwMDcxNzEzNDcxMVoXDTIzMDcxNzEzNDcxMVowVzELMAkGA1UEBhMCZnIx
DDAKBgNVBAgMA2lkZjEOMAwGA1UEBwwFcGFyaXMxEDAOBgNVBAoMB3ZpdGFtdWkx
GDAWBgNVBAMMD2Rldi52aXRhbXVpLmNvbTCCAiIwDQYJKoZIhvcNAQEBBQADggIP
ADCCAgoCggIBAKVA8esqQqvCTHD0bcU643x7o7geaXky/1RWn3tAfHy5OXgItuM5
YoLTZj0sYm7PGTWFCcGGRg04JX51X8PlwhGTxz4bsa/EL6pKe1OSGyMdt2lbDfDV
gfJi0qKVTCf4vA3cSjgT34zEe5f1rhk9o80xEeYKnfOiMmJ7DBS2/pQBqxVXU0lN
0gWBtCBTTsfocZiP9DZJiloh8qLmfq5k4o1NRMXfbyTH7rVSkYOmA29BgHswacTY
omh3pEpQb8UJAwq/joQN+SM5mVrV+cm+Jk8nb/qB+IhoKXsa8HaZM4Hd7ir3LxFw
WPMJR64NRToJpGwTHFIxpvgO1U0GROktJ8o36aWK+QEPJnHP3o+4FNvV0flE802B
ttowdKOA7zwmwFIHuPuKf6RPa56JSrGFZtwuqmyFgiyoYeeQ6KZk/dJpforuLlbW
bgLswt5zP1vFAAkA4prgHtiFehi8kblyc/shEPyRBs4YhMOc75J2220K3H9C64UV
WXsIFBDcPUIqTM6piiFIYy5q8UfUngRSsTjN0P0m4ISJ+vK4rszz9aOd1EcUcQdD
7OQ7qOymqAaJmM+TwbqYdBMAE/hpDfqoW6Ojxs8WRyR5wbntAEjaHcKRUZuZ25Ot
DSwuZP1OnqRYnGYngEZb/s2esdnjW5i9/cAnBk5xR9m93DrDHNjrxcf/AgMBAAEw
DQYJKoZIhvcNAQELBQADggIBAGqP+1wfQdAfS6BLe+h5qQRv8mg5bGEd98QOOpCZ
r0ehK3gpQLt11xPjAl9Krxj5nwwgDaVgxjNi55nlKj6YsulpBAScCQJGoAA5vAMP
rFDHBU+dkQ65pNM2C3EPiTJYBVGTiChQ23g/t3HLQ4eBSG/ReHCikPOWvYWh5j2V
y0++iEEiPdaFQNcjmwTLT38P/4Js0NnmeefPOwr80OyRTNs0pRcLK/taj5J4yxVM
mrp3IecZ1b6P9G0Yfbg9FfIHSIfWdgfAqOUkOaaMqdpYzanD0W2N3C6BjUjQsJwD
BO70FyMeLwyWTpn0vjVfTdXxWrIzwvsBQkBFHnTaC9n3MUmPsIavRNb2VWJJ7mZd
f2T5iGUKjwUZV2V9dZhkf4ZjxDiMc8IRve5x3TnE+wWEEBI0trsYXXH6q9Jt0YXr
ygqDvtE6b8e6t0cGtx7lIqC2TpE9RS4iK/7EJ/fhG74MxPhUw83KDMgsgK+VKaVj
KUI+uSrl3LFgl/TGila9KmfR0mbkh0A8UHMpEV3G85DzeG4dVCG6TwwyeJ/qlgs5
Wf705KUCRTFmpSNu6lG8yiVfpFuOI3/p53bKRAl8Z6eWYn+P3L/Xr1YCZg5HouOF
iajsC7jRVPZ/0Yfy+Vf0SRYFw4Ez+qJVUBLajb5PuKwTL7P3CrW/saaDfnJ3uSNX
YKdP
-----END CERTIFICATE-----
