Certificate:
    Data:
        Version: 1 (0x0)
        Serial Number: 50 (0x32)
        Signature Algorithm: sha256WithRSAEncryption
        Issuer: C=fr, ST=idf, L=paris, O=vitamui, OU=authorities, CN=ca_intermediate_server
        Validity
            Not Before: Nov 23 16:59:36 2022 GMT
            Not After : Nov 22 16:59:36 2025 GMT
        Subject: C=fr, ST=idf, L=paris, O=vitamui, CN=dev.vitamui.com
        Subject Public Key Info:
            Public Key Algorithm: rsaEncryption
                RSA Public-Key: (4096 bit)
                Modulus:
                    00:b3:bf:84:5e:da:5c:b8:08:e3:85:a6:18:b2:73:
                    09:db:53:b6:2a:3d:ab:0e:05:38:d0:c0:df:e3:4a:
                    8f:63:f9:22:51:eb:54:55:5d:46:1a:c0:d0:d7:2d:
                    f5:8c:07:13:6d:f8:4c:82:c2:c7:ae:3d:29:68:78:
                    6e:75:fc:f8:b8:74:11:82:fc:94:dd:40:ef:40:e5:
                    7d:38:4b:96:73:5a:44:63:0d:48:da:1b:30:6f:f4:
                    b4:76:97:08:70:a7:1a:5b:a0:60:15:b0:78:79:c3:
                    b8:69:83:be:4b:1e:e2:fa:b1:62:48:15:03:94:15:
                    23:da:4e:eb:21:b7:e3:aa:59:4c:f4:5e:b0:5f:18:
                    7a:12:94:16:2b:f1:18:c7:e6:1b:f1:f1:d7:ca:86:
                    9a:1c:76:79:31:21:0e:1b:e9:94:17:79:c5:22:6d:
                    65:41:43:e3:67:95:15:ee:22:d6:94:9b:40:29:32:
                    ed:32:58:5d:fa:d4:b2:c6:e9:e2:5c:46:f9:6a:59:
                    6e:78:59:54:bc:b3:ea:21:5a:a6:bb:91:c2:35:c0:
                    b4:dd:82:13:ad:05:1d:76:af:7f:41:a8:67:13:db:
                    35:10:8f:1e:5e:67:a0:75:da:59:56:f6:6f:32:d1:
                    62:de:dd:03:f9:c6:8a:ea:e1:6b:e4:d1:e2:90:84:
                    7f:48:5b:49:d3:4c:cc:ca:c9:31:96:16:06:40:61:
                    07:8d:7a:79:9a:cc:ec:ca:7f:92:89:76:b9:d7:68:
                    a6:0e:1d:8f:65:cb:4e:c1:88:f5:d1:9e:e8:ba:db:
                    db:60:f3:8f:aa:03:a5:5e:4b:69:c0:c1:9d:8e:02:
                    51:c8:87:2c:dd:86:b3:a2:94:52:f7:1d:4d:e3:32:
                    9b:57:80:8f:03:77:06:25:e9:25:80:53:20:99:37:
                    32:1d:72:f8:67:ab:cb:9e:5a:4e:27:57:0c:c2:45:
                    7e:88:f0:34:72:fc:8f:6f:9a:53:8d:00:00:0a:7d:
                    ce:5a:94:85:31:14:e6:3b:64:da:2c:ae:a4:53:15:
                    8e:32:1b:b0:e5:6a:1f:8c:de:dc:02:b7:e4:8e:e9:
                    90:e6:b5:d0:84:57:e2:8b:09:1e:29:22:29:be:2e:
                    aa:3f:4e:6c:3b:14:91:8e:ee:20:74:2c:f3:f4:17:
                    d6:cd:99:b8:94:d6:55:d5:6d:c5:2d:f3:0f:55:fb:
                    7c:4e:a6:31:ce:25:33:41:6f:48:68:08:3d:87:65:
                    ab:fe:52:28:e7:2a:b9:7c:bd:66:26:bd:06:cd:e1:
                    47:a2:25:62:4d:d6:09:09:d9:9f:8f:fc:58:84:db:
                    1d:0f:fe:d5:dc:d3:5d:ce:81:fe:c8:73:df:d1:91:
                    05:21:bb
                Exponent: 65537 (0x10001)
    Signature Algorithm: sha256WithRSAEncryption
         50:96:9c:0b:c6:85:35:03:5b:34:6b:ba:b4:33:5b:fd:98:85:
         37:38:15:fd:71:af:ba:fd:f3:f7:65:7d:3f:67:0c:60:1c:41:
         ef:c6:a1:66:10:b9:60:a7:f8:bb:aa:bc:53:a0:78:bd:f8:79:
         25:47:68:ae:40:d8:46:61:ad:fa:ca:09:88:55:5e:15:ed:53:
         b6:a9:9c:f5:82:f0:d2:01:5d:8f:9e:ff:05:ac:8a:f6:b3:12:
         03:a3:ad:53:ea:ae:29:f2:de:07:d0:1b:ba:28:9c:d4:22:c4:
         4f:a5:11:b3:6d:65:59:36:92:3b:91:96:4d:6c:2c:ad:8e:42:
         c3:80:65:45:54:77:5b:31:a6:0f:18:13:a8:43:0e:59:e3:db:
         25:f6:93:f1:4c:9c:47:6d:3c:a4:00:49:97:3d:fc:f6:c9:a0:
         a6:63:e3:d6:75:b8:40:99:cd:b4:f6:0e:57:08:e0:eb:4f:e6:
         61:2f:e4:1f:bb:ae:ce:7a:27:ad:75:a6:f6:dc:df:9d:47:95:
         2a:02:c8:cc:e1:bb:69:4a:cd:d7:4f:9c:d6:73:c0:c4:e3:22:
         cc:1c:93:02:db:e8:af:bf:c6:52:56:60:ec:c8:2f:8e:24:dd:
         71:1b:af:0a:b8:e1:31:18:59:d0:63:cc:4d:81:55:56:2f:2b:
         e1:af:e7:15:eb:e5:c7:c4:0f:b5:8e:5a:cc:9d:d7:3b:94:f2:
         b6:ca:05:53:23:09:e4:fc:85:43:8a:81:70:3b:da:6a:08:4d:
         d5:b5:05:02:cb:6b:86:80:86:ef:0d:28:06:88:ae:48:54:27:
         a6:63:e2:9c:a2:2c:0a:c3:84:74:27:d6:f5:44:9d:27:f4:34:
         a0:8e:a5:8c:50:f0:fb:61:a2:5c:be:3f:3a:dc:2e:73:4e:db:
         72:f9:71:e4:2f:65:03:33:d5:91:d5:ae:0e:d3:5c:b8:9c:14:
         1f:5e:de:3e:bb:16:0f:d0:5a:91:55:db:7f:50:76:1e:21:88:
         f2:ce:36:94:86:04:7e:79:b0:34:7f:a6:4d:af:af:5b:eb:f4:
         e9:62:1b:ae:b7:c3:b3:33:1e:41:da:c5:cb:1c:98:74:10:55:
         51:35:7f:4a:5d:47:f6:aa:53:82:41:bd:59:dd:94:a4:bb:c4:
         a2:a6:6c:c4:84:c6:00:6d:b7:91:06:8c:ea:24:10:60:e5:e7:
         68:3c:c9:17:cd:e0:e0:f6:b8:4d:e8:73:cf:28:cf:3f:c9:82:
         e3:f9:f3:9d:33:1d:87:45:ee:17:02:80:b1:a9:4a:4f:0c:19:
         f5:01:03:ae:09:4c:16:9b:72:4d:d2:81:97:b2:e3:d1:05:a8:
         86:a2:dc:dc:1d:5c:98:87
-----BEGIN CERTIFICATE-----
MIIFPzCCAycCATIwDQYJKoZIhvcNAQELBQAwdDELMAkGA1UEBhMCZnIxDDAKBgNV
BAgMA2lkZjEOMAwGA1UEBwwFcGFyaXMxEDAOBgNVBAoMB3ZpdGFtdWkxFDASBgNV
BAsMC2F1dGhvcml0aWVzMR8wHQYDVQQDDBZjYV9pbnRlcm1lZGlhdGVfc2VydmVy
MB4XDTIyMTEyMzE2NTkzNloXDTI1MTEyMjE2NTkzNlowVzELMAkGA1UEBhMCZnIx
DDAKBgNVBAgMA2lkZjEOMAwGA1UEBwwFcGFyaXMxEDAOBgNVBAoMB3ZpdGFtdWkx
GDAWBgNVBAMMD2Rldi52aXRhbXVpLmNvbTCCAiIwDQYJKoZIhvcNAQEBBQADggIP
ADCCAgoCggIBALO/hF7aXLgI44WmGLJzCdtTtio9qw4FONDA3+NKj2P5IlHrVFVd
RhrA0Nct9YwHE234TILCx649KWh4bnX8+Lh0EYL8lN1A70DlfThLlnNaRGMNSNob
MG/0tHaXCHCnGlugYBWweHnDuGmDvkse4vqxYkgVA5QVI9pO6yG346pZTPResF8Y
ehKUFivxGMfmG/Hx18qGmhx2eTEhDhvplBd5xSJtZUFD42eVFe4i1pSbQCky7TJY
XfrUssbp4lxG+WpZbnhZVLyz6iFapruRwjXAtN2CE60FHXavf0GoZxPbNRCPHl5n
oHXaWVb2bzLRYt7dA/nGiurha+TR4pCEf0hbSdNMzMrJMZYWBkBhB416eZrM7Mp/
kol2uddopg4dj2XLTsGI9dGe6Lrb22Dzj6oDpV5LacDBnY4CUciHLN2Gs6KUUvcd
TeMym1eAjwN3BiXpJYBTIJk3Mh1y+Gery55aTidXDMJFfojwNHL8j2+aU40AAAp9
zlqUhTEU5jtk2iyupFMVjjIbsOVqH4ze3AK35I7pkOa10IRX4osJHikiKb4uqj9O
bDsUkY7uIHQs8/QX1s2ZuJTWVdVtxS3zD1X7fE6mMc4lM0FvSGgIPYdlq/5SKOcq
uXy9Zia9Bs3hR6IlYk3WCQnZn4/8WITbHQ/+1dzTXc6B/shz39GRBSG7AgMBAAEw
DQYJKoZIhvcNAQELBQADggIBAFCWnAvGhTUDWzRrurQzW/2YhTc4Ff1xr7r98/dl
fT9nDGAcQe/GoWYQuWCn+LuqvFOgeL34eSVHaK5A2EZhrfrKCYhVXhXtU7apnPWC
8NIBXY+e/wWsivazEgOjrVPqriny3gfQG7oonNQixE+lEbNtZVk2kjuRlk1sLK2O
QsOAZUVUd1sxpg8YE6hDDlnj2yX2k/FMnEdtPKQASZc9/PbJoKZj49Z1uECZzbT2
DlcI4OtP5mEv5B+7rs56J611pvbc351HlSoCyMzhu2lKzddPnNZzwMTjIswckwLb
6K+/xlJWYOzIL44k3XEbrwq44TEYWdBjzE2BVVYvK+Gv5xXr5cfED7WOWsyd1zuU
8rbKBVMjCeT8hUOKgXA72moITdW1BQLLa4aAhu8NKAaIrkhUJ6Zj4pyiLArDhHQn
1vVEnSf0NKCOpYxQ8Ptholy+PzrcLnNO23L5ceQvZQMz1ZHVrg7TXLicFB9e3j67
Fg/QWpFV239Qdh4hiPLONpSGBH55sDR/pk2vr1vr9OliG663w7MzHkHaxcscmHQQ
VVE1f0pdR/aqU4JBvVndlKS7xKKmbMSExgBtt5EGjOokEGDl52g8yRfN4OD2uE3o
c88ozz/JguP5850zHYdF7hcCgLGpSk8MGfUBA64JTBabck3SgZey49EFqIai3Nwd
XJiH
-----END CERTIFICATE-----
