Certificate:
    Data:
        Version: 1 (0x0)
        Serial Number: 147 (0x93)
    Signature Algorithm: sha256WithRSAEncryption
        Issuer: C=fr, ST=idf, L=paris, O=vitamui, OU=authorities, CN=ca_intermediate_server
        Validity
            Not Before: Dec  6 12:55:32 2021 GMT
            Not After : Dec  5 12:55:32 2024 GMT
        Subject: C=fr, ST=idf, L=paris, O=vitamui, CN=dev.vitamui.com
        Subject Public Key Info:
            Public Key Algorithm: rsaEncryption
                Public-Key: (4096 bit)
                Modulus:
                    00:cf:66:f4:6c:ea:f1:c2:9f:6f:c7:a1:45:26:fe:
                    a7:b7:a2:be:79:b1:8b:d5:ca:35:b8:03:8e:2b:71:
                    06:4b:8f:47:ed:8f:4e:aa:ba:02:e9:5d:de:21:01:
                    63:41:c1:9a:3b:46:75:bd:42:32:49:cf:f5:13:aa:
                    f4:20:4b:23:98:90:82:6b:4c:fa:7e:2a:76:58:3c:
                    0d:3b:a0:e4:ee:e7:9e:c4:81:4f:84:83:00:4e:06:
                    4a:0a:7d:32:c5:13:80:4b:b8:3d:a5:00:75:57:41:
                    fc:31:89:bb:cf:8b:1e:c1:35:41:f8:65:70:27:02:
                    34:a9:6d:b8:a0:3c:bf:fd:9d:a4:a2:0f:02:ce:0d:
                    b2:de:22:25:ab:e2:23:c8:04:c2:90:4b:09:01:93:
                    8b:e5:f7:83:13:2f:50:5f:80:55:ca:d4:61:6a:56:
                    e5:5e:fa:ea:f0:b1:15:6b:57:d0:3e:0d:b1:e2:d8:
                    9b:3d:00:70:44:3c:75:dd:76:2e:60:c5:a3:45:26:
                    f0:e2:65:8f:d1:2a:19:e1:24:83:6b:06:d2:54:9a:
                    83:54:c4:c4:3d:7d:9d:7e:c3:a5:b4:02:a8:59:53:
                    b0:29:7d:c1:ae:16:93:6c:f4:da:95:2a:ff:e0:11:
                    2b:ba:61:48:49:a9:39:73:4b:47:8c:f4:88:e1:28:
                    d4:3c:a7:24:bf:13:e7:61:9f:b9:fa:db:f2:e1:ff:
                    d6:da:36:5f:37:1e:4b:c0:5d:af:fe:8b:9b:8c:5d:
                    f1:87:8c:e5:5f:8a:05:cb:2c:7c:9a:d6:ed:81:f7:
                    e7:17:1f:5e:c8:65:74:74:7d:6e:35:dc:c2:44:d5:
                    ce:8e:75:5e:a3:75:fe:f1:e7:65:cc:d4:00:62:f5:
                    62:4e:f9:6e:00:ac:ee:1e:de:b4:aa:35:6f:6b:e4:
                    c1:44:d2:c8:5b:e0:82:a6:03:21:35:ee:cd:c4:89:
                    fa:bb:0f:71:9c:6a:ee:07:87:5d:4c:1e:9f:f0:d4:
                    a6:df:24:10:36:70:54:be:86:78:28:2c:0e:cb:d4:
                    41:55:c6:91:73:66:e9:10:73:a5:6d:32:c7:6d:59:
                    b0:b7:e7:e0:e2:5f:03:e8:f9:3a:a4:fd:ef:a1:d2:
                    45:e9:fc:5d:64:dc:bc:5e:2c:38:59:ce:83:2a:05:
                    56:72:75:55:08:a0:2d:88:32:4c:27:79:3d:88:25:
                    05:0b:dc:f1:79:76:a6:41:71:05:35:2e:f0:ec:c5:
                    2e:cf:cc:87:4f:27:9b:dc:e0:52:5e:bd:9a:0a:a3:
                    c8:e3:c2:f8:8b:6e:35:80:af:c7:21:c5:f1:8b:89:
                    86:fc:5c:c4:9d:ff:42:24:8d:9d:4e:1c:ec:6b:4d:
                    d2:15:63
                Exponent: 65537 (0x10001)
    Signature Algorithm: sha256WithRSAEncryption
         89:81:2b:bc:c0:1f:c8:31:b9:eb:a9:f9:7c:9f:93:88:af:76:
         e4:f9:1b:21:32:29:ed:70:6b:c3:b1:20:3b:4e:bf:3f:80:8d:
         fe:02:59:d9:44:69:9b:70:0d:34:c7:de:63:ee:e4:83:fa:da:
         d3:7f:db:cf:17:a2:a3:cb:53:7a:64:c7:33:ca:5b:c5:df:a3:
         d9:fc:fb:ca:42:7a:93:1a:bf:22:50:d7:03:28:99:77:0c:7c:
         0c:1b:df:25:27:58:a7:77:f1:85:73:3d:19:31:ff:2f:5c:b4:
         6e:6b:d0:a9:7c:5f:1f:91:79:35:a8:33:06:d0:50:6b:c8:de:
         6e:a9:b5:a6:81:dc:75:d3:1a:fb:80:72:66:08:a9:1a:11:cd:
         28:f2:64:bb:99:e1:13:c4:b4:e2:70:71:5a:97:87:e5:4d:a7:
         d1:4c:83:ef:20:6e:d9:ca:18:d8:a6:a7:1b:55:03:f4:79:e7:
         2c:98:60:c1:20:6c:ec:f8:54:c9:d4:e8:bc:90:e9:ad:e7:17:
         60:1f:42:78:99:a6:63:8e:89:23:78:09:b7:97:ff:a4:c7:59:
         0c:57:d7:f6:3a:69:7c:b1:27:10:aa:51:97:f2:26:49:1b:4a:
         0a:eb:59:cd:17:c8:17:d5:31:bb:dd:57:e0:7f:1b:95:24:44:
         ec:c5:be:b9:af:68:79:b2:bc:b6:aa:ee:34:65:dd:be:3a:a0:
         76:29:90:c2:58:79:53:b5:c2:f6:9e:61:bd:99:fd:54:cb:8f:
         d7:2a:28:26:dc:78:c3:04:8c:a3:5d:35:1a:e8:8e:3b:40:fd:
         38:cd:1c:31:02:d9:93:53:10:7b:47:b2:06:e3:aa:05:5b:38:
         58:74:3d:8d:21:48:64:0f:bd:b4:d7:f4:23:09:6e:6e:d2:72:
         0f:2b:89:f7:0f:1a:60:f0:66:fa:9a:0c:5b:b1:e2:82:3b:26:
         0d:5c:32:f4:6f:9f:df:e1:0d:36:94:54:62:8a:e2:25:c7:1c:
         9f:31:e8:cd:26:13:c4:e5:d6:c2:ec:7d:c9:5c:a9:95:f2:1f:
         90:0d:bd:78:f4:9f:60:c4:09:9e:a2:53:b6:42:fc:ef:20:eb:
         50:74:ce:45:89:70:f0:a1:f7:8a:9e:6b:c1:50:d8:e6:3b:f3:
         c4:b9:92:fd:33:e8:1f:d6:4e:4a:54:67:29:e0:ca:f7:12:67:
         54:49:7e:ff:b8:ce:9a:04:4b:3e:63:f0:1f:e8:95:a8:36:30:
         45:02:6f:54:d7:1f:5d:f1:32:65:f9:37:7c:f9:ac:e1:e6:ba:
         2d:c5:84:a2:6e:21:f3:07:68:75:79:e7:a8:85:81:14:6e:ea:
         1f:71:87:4c:cd:fa:b8:54
-----BEGIN CERTIFICATE-----
MIIFQDCCAygCAgCTMA0GCSqGSIb3DQEBCwUAMHQxCzAJBgNVBAYTAmZyMQwwCgYD
VQQIDANpZGYxDjAMBgNVBAcMBXBhcmlzMRAwDgYDVQQKDAd2aXRhbXVpMRQwEgYD
VQQLDAthdXRob3JpdGllczEfMB0GA1UEAwwWY2FfaW50ZXJtZWRpYXRlX3NlcnZl
cjAeFw0yMTEyMDYxMjU1MzJaFw0yNDEyMDUxMjU1MzJaMFcxCzAJBgNVBAYTAmZy
MQwwCgYDVQQIDANpZGYxDjAMBgNVBAcMBXBhcmlzMRAwDgYDVQQKDAd2aXRhbXVp
MRgwFgYDVQQDDA9kZXYudml0YW11aS5jb20wggIiMA0GCSqGSIb3DQEBAQUAA4IC
DwAwggIKAoICAQDPZvRs6vHCn2/HoUUm/qe3or55sYvVyjW4A44rcQZLj0ftj06q
ugLpXd4hAWNBwZo7RnW9QjJJz/UTqvQgSyOYkIJrTPp+KnZYPA07oOTu557EgU+E
gwBOBkoKfTLFE4BLuD2lAHVXQfwxibvPix7BNUH4ZXAnAjSpbbigPL/9naSiDwLO
DbLeIiWr4iPIBMKQSwkBk4vl94MTL1BfgFXK1GFqVuVe+urwsRVrV9A+DbHi2Js9
AHBEPHXddi5gxaNFJvDiZY/RKhnhJINrBtJUmoNUxMQ9fZ1+w6W0AqhZU7ApfcGu
FpNs9NqVKv/gESu6YUhJqTlzS0eM9IjhKNQ8pyS/E+dhn7n62/Lh/9baNl83HkvA
Xa/+i5uMXfGHjOVfigXLLHya1u2B9+cXH17IZXR0fW413MJE1c6OdV6jdf7x52XM
1ABi9WJO+W4ArO4e3rSqNW9r5MFE0shb4IKmAyE17s3Eifq7D3Gcau4Hh11MHp/w
1KbfJBA2cFS+hngoLA7L1EFVxpFzZukQc6VtMsdtWbC35+DiXwPo+Tqk/e+h0kXp
/F1k3LxeLDhZzoMqBVZydVUIoC2IMkwneT2IJQUL3PF5dqZBcQU1LvDsxS7PzIdP
J5vc4FJevZoKo8jjwviLbjWAr8chxfGLiYb8XMSd/0IkjZ1OHOxrTdIVYwIDAQAB
MA0GCSqGSIb3DQEBCwUAA4ICAQCJgSu8wB/IMbnrqfl8n5OIr3bk+RshMintcGvD
sSA7Tr8/gI3+AlnZRGmbcA00x95j7uSD+trTf9vPF6Kjy1N6ZMczylvF36PZ/PvK
QnqTGr8iUNcDKJl3DHwMG98lJ1ind/GFcz0ZMf8vXLRua9CpfF8fkXk1qDMG0FBr
yN5uqbWmgdx10xr7gHJmCKkaEc0o8mS7meETxLTicHFal4flTafRTIPvIG7ZyhjY
pqcbVQP0eecsmGDBIGzs+FTJ1Oi8kOmt5xdgH0J4maZjjokjeAm3l/+kx1kMV9f2
Oml8sScQqlGX8iZJG0oK61nNF8gX1TG73VfgfxuVJETsxb65r2h5sry2qu40Zd2+
OqB2KZDCWHlTtcL2nmG9mf1Uy4/XKigm3HjDBIyjXTUa6I47QP04zRwxAtmTUxB7
R7IG46oFWzhYdD2NIUhkD7201/QjCW5u0nIPK4n3Dxpg8Gb6mgxbseKCOyYNXDL0
b5/f4Q02lFRiiuIlxxyfMejNJhPE5dbC7H3JXKmV8h+QDb149J9gxAmeolO2Qvzv
IOtQdM5FiXDwofeKnmvBUNjmO/PEuZL9M+gf1k5KVGcp4Mr3EmdUSX7/uM6aBEs+
Y/Af6JWoNjBFAm9U1x9d8TJl+Td8+azh5rotxYSibiHzB2h1eeeohYEUbuofcYdM
zfq4VA==
-----END CERTIFICATE-----
