Certificate:
    Data:
        Version: 1 (0x0)
        Serial Number: 16 (0x10)
    Signature Algorithm: sha256WithRSAEncryption
        Issuer: C=fr, ST=idf, L=paris, O=vitamui, OU=authorities, CN=ca_intermediate_server
        Validity
            Not Before: Sep 25 23:36:37 2020 GMT
            Not After : Sep 25 23:36:37 2023 GMT
        Subject: C=fr, ST=idf, L=paris, O=vitamui, CN=dev.vitamui.com
        Subject Public Key Info:
            Public Key Algorithm: rsaEncryption
                Public-Key: (4096 bit)
                Modulus:
                    00:bf:70:14:ad:47:7f:8c:56:d8:7b:49:98:b8:34:
                    a7:35:fd:cb:9a:c0:c7:e9:7a:d4:bd:9f:09:22:e2:
                    bd:52:c9:68:d0:e2:a6:cc:6e:06:2c:d1:41:df:4f:
                    5d:d9:e4:47:8f:38:67:4d:09:6f:86:66:fe:b3:ab:
                    4a:d1:5e:20:70:44:44:a6:70:d7:ba:73:a2:44:1c:
                    8a:3d:40:d9:94:87:b5:d1:b2:1a:06:69:f9:bc:74:
                    a4:c9:e7:f2:5d:85:81:ac:9a:12:76:55:74:4d:97:
                    5d:f0:08:2e:21:f3:fe:3c:c9:47:3d:0e:30:4f:c2:
                    8f:04:85:43:e0:87:e7:20:75:78:c1:d9:c3:a3:f3:
                    75:b3:ef:46:e1:4d:c5:c0:7d:c6:87:b7:06:a1:dc:
                    cf:0f:5b:8a:a5:e4:24:62:d2:4b:9a:a5:cb:2c:f1:
                    77:02:2a:6c:5c:3e:00:5c:c4:6a:e7:7b:34:33:34:
                    61:f7:af:3c:1e:81:bd:bd:ff:42:77:3e:b2:55:fd:
                    cf:e5:65:58:8e:29:18:2b:d7:45:26:82:18:a6:a2:
                    a2:4d:97:58:49:ef:b8:57:1a:d8:01:92:d5:75:e1:
                    16:02:06:5a:f4:3d:c0:ff:f4:5f:47:4e:98:8b:41:
                    97:f3:f6:b0:7f:f6:53:a7:6d:56:4c:0f:a4:47:50:
                    ad:d5:5f:c3:94:3f:20:ed:cb:fc:c1:04:61:53:a9:
                    3a:e1:9e:7e:48:6e:f2:6f:cd:81:fd:2a:94:c2:07:
                    24:cb:5f:d6:47:ea:52:ae:04:88:1c:18:63:a8:23:
                    44:ff:51:8a:4f:2f:44:00:91:5d:b4:5d:24:be:35:
                    22:6c:5d:68:af:64:1d:0c:9f:a2:97:82:36:5a:ed:
                    66:5d:07:93:1c:7c:c8:32:4e:c5:53:f7:90:ac:f4:
                    f7:53:c0:1b:d9:e1:ba:55:9a:78:77:c8:ce:97:02:
                    19:29:9d:0f:ac:2a:1b:8c:c7:bc:a6:56:06:18:0e:
                    9f:6a:4f:fa:34:3d:c4:e6:9d:a9:60:52:ef:3d:71:
                    32:8b:13:07:fd:73:05:ec:b1:23:f7:6e:6d:34:bb:
                    20:a3:6b:2c:c4:65:c2:88:ee:2c:c1:81:07:ae:43:
                    73:70:65:60:ad:7b:e5:fb:0b:39:35:bb:e6:cf:61:
                    21:cc:8f:66:14:74:18:28:ce:03:fc:c6:1d:10:9e:
                    9c:ab:e1:d8:9d:d8:a2:f3:13:82:5a:68:50:b9:4c:
                    ec:2c:0c:71:7c:05:31:85:eb:94:22:b6:39:84:5f:
                    cb:ef:dd:16:9f:76:4f:c9:62:d5:ec:af:ff:18:e2:
                    c9:76:45:3c:74:f0:8d:ad:fc:29:cc:8d:7a:6c:53:
                    09:26:b3
                Exponent: 65537 (0x10001)
    Signature Algorithm: sha256WithRSAEncryption
         38:7e:91:4b:64:0d:68:33:c9:fb:32:a7:ab:50:18:82:a6:7c:
         b6:b2:12:d1:5d:da:ce:ff:52:7b:a8:42:aa:39:56:07:3f:54:
         18:5a:71:c5:0c:55:52:49:86:3c:8a:9c:72:2c:ed:d2:52:a5:
         c0:97:3d:f5:b5:e3:0b:19:21:01:5e:d3:a1:d7:32:d1:4c:99:
         9b:13:7e:e3:76:68:1f:cd:2d:16:cb:43:4c:fd:7b:d3:55:c3:
         77:0d:84:df:f7:b3:ae:b5:1a:10:66:1e:f9:00:b9:cd:0c:5e:
         30:40:62:c1:ca:f6:70:1d:56:d2:25:77:c2:8f:c5:d6:34:42:
         4d:5b:db:68:d1:ab:b5:fc:fd:d5:d9:16:20:cc:46:9a:79:e2:
         88:80:49:85:d4:09:90:7d:08:d7:e4:77:33:00:7d:b3:2a:d5:
         53:d6:00:24:b9:29:41:61:eb:63:cd:d9:53:fd:d9:61:0a:f5:
         29:8b:ba:59:bb:a9:f3:3a:f8:67:42:ef:c3:39:7d:e6:87:63:
         ff:fb:8d:7f:ae:05:f2:31:4d:5c:d1:65:7f:20:c2:7a:a8:3e:
         bf:8a:f8:dd:0a:00:9c:14:06:69:b3:db:1a:f0:05:64:dd:46:
         b0:0f:6a:2e:42:c1:6d:04:3d:18:4a:46:e8:95:67:3b:b5:27:
         e4:12:e1:ab:59:97:61:46:99:d2:3d:65:07:5e:de:06:23:86:
         0d:a1:8f:df:94:69:9a:b5:c2:6d:56:7e:39:1f:55:99:7a:30:
         74:06:86:13:ad:a7:61:3f:90:6d:46:05:e7:51:3b:36:55:75:
         06:da:01:31:68:ba:50:dc:3d:e0:60:51:cb:0b:89:4d:ef:14:
         a3:7a:1c:63:57:af:e2:8f:77:ea:20:e5:af:c2:da:73:a4:54:
         93:d9:5e:d8:aa:9c:d4:fb:7a:39:e9:96:04:12:3d:88:fa:99:
         c1:9c:f2:f6:19:61:87:04:30:e6:e2:3c:3b:d9:2f:6a:58:f1:
         30:69:73:05:2d:25:78:94:45:f3:45:93:a8:c4:1c:99:58:26:
         70:4a:fe:11:7c:fc:11:59:34:a2:f8:82:56:23:d2:f8:d8:99:
         7f:66:c5:1a:91:a9:91:4d:d5:80:93:1c:05:53:27:79:e2:ce:
         db:59:a1:5b:93:06:dd:0d:02:80:f9:6c:ee:9c:59:dd:d0:55:
         6f:39:73:e9:47:b4:8d:c9:6b:4c:b5:e4:21:43:56:df:cf:b6:
         4f:20:9e:12:a4:0a:48:1e:75:2c:e1:28:d3:56:60:bc:55:b0:
         25:86:0d:a7:fd:9a:33:36:38:dc:83:77:51:f7:ad:5f:fa:62:
         6f:09:29:27:62:ad:4d:82
-----BEGIN CERTIFICATE-----
MIIFPzCCAycCARAwDQYJKoZIhvcNAQELBQAwdDELMAkGA1UEBhMCZnIxDDAKBgNV
BAgMA2lkZjEOMAwGA1UEBwwFcGFyaXMxEDAOBgNVBAoMB3ZpdGFtdWkxFDASBgNV
BAsMC2F1dGhvcml0aWVzMR8wHQYDVQQDDBZjYV9pbnRlcm1lZGlhdGVfc2VydmVy
MB4XDTIwMDkyNTIzMzYzN1oXDTIzMDkyNTIzMzYzN1owVzELMAkGA1UEBhMCZnIx
DDAKBgNVBAgMA2lkZjEOMAwGA1UEBwwFcGFyaXMxEDAOBgNVBAoMB3ZpdGFtdWkx
GDAWBgNVBAMMD2Rldi52aXRhbXVpLmNvbTCCAiIwDQYJKoZIhvcNAQEBBQADggIP
ADCCAgoCggIBAL9wFK1Hf4xW2HtJmLg0pzX9y5rAx+l61L2fCSLivVLJaNDipsxu
BizRQd9PXdnkR484Z00Jb4Zm/rOrStFeIHBERKZw17pzokQcij1A2ZSHtdGyGgZp
+bx0pMnn8l2FgayaEnZVdE2XXfAILiHz/jzJRz0OME/CjwSFQ+CH5yB1eMHZw6Pz
dbPvRuFNxcB9xoe3BqHczw9biqXkJGLSS5qlyyzxdwIqbFw+AFzEaud7NDM0Yfev
PB6Bvb3/Qnc+slX9z+VlWI4pGCvXRSaCGKaiok2XWEnvuFca2AGS1XXhFgIGWvQ9
wP/0X0dOmItBl/P2sH/2U6dtVkwPpEdQrdVfw5Q/IO3L/MEEYVOpOuGefkhu8m/N
gf0qlMIHJMtf1kfqUq4EiBwYY6gjRP9Rik8vRACRXbRdJL41ImxdaK9kHQyfopeC
NlrtZl0Hkxx8yDJOxVP3kKz091PAG9nhulWaeHfIzpcCGSmdD6wqG4zHvKZWBhgO
n2pP+jQ9xOadqWBS7z1xMosTB/1zBeyxI/dubTS7IKNrLMRlwojuLMGBB65Dc3Bl
YK175fsLOTW75s9hIcyPZhR0GCjOA/zGHRCenKvh2J3YovMTglpoULlM7CwMcXwF
MYXrlCK2OYRfy+/dFp92T8li1eyv/xjiyXZFPHTwja38KcyNemxTCSazAgMBAAEw
DQYJKoZIhvcNAQELBQADggIBADh+kUtkDWgzyfsyp6tQGIKmfLayEtFd2s7/Unuo
Qqo5Vgc/VBhaccUMVVJJhjyKnHIs7dJSpcCXPfW14wsZIQFe06HXMtFMmZsTfuN2
aB/NLRbLQ0z9e9NVw3cNhN/3s661GhBmHvkAuc0MXjBAYsHK9nAdVtIld8KPxdY0
Qk1b22jRq7X8/dXZFiDMRpp54oiASYXUCZB9CNfkdzMAfbMq1VPWACS5KUFh62PN
2VP92WEK9SmLulm7qfM6+GdC78M5feaHY//7jX+uBfIxTVzRZX8gwnqoPr+K+N0K
AJwUBmmz2xrwBWTdRrAPai5CwW0EPRhKRuiVZzu1J+QS4atZl2FGmdI9ZQde3gYj
hg2hj9+UaZq1wm1WfjkfVZl6MHQGhhOtp2E/kG1GBedROzZVdQbaATFoulDcPeBg
UcsLiU3vFKN6HGNXr+KPd+og5a/C2nOkVJPZXtiqnNT7ejnplgQSPYj6mcGc8vYZ
YYcEMObiPDvZL2pY8TBpcwUtJXiURfNFk6jEHJlYJnBK/hF8/BFZNKL4glYj0vjY
mX9mxRqRqZFN1YCTHAVTJ3nizttZoVuTBt0NAoD5bO6cWd3QVW85c+lHtI3Ja0y1
5CFDVt/Ptk8gnhKkCkgedSzhKNNWYLxVsCWGDaf9mjM2ONyDd1H3rV/6Ym8JKSdi
rU2C
-----END CERTIFICATE-----
