Certificate:
    Data:
        Version: 1 (0x0)
        Serial Number: 49 (0x31)
        Signature Algorithm: sha256WithRSAEncryption
        Issuer: C=fr, ST=idf, L=paris, O=vitamui, OU=authorities, CN=ca_intermediate_server
        Validity
            Not Before: Nov 23 16:59:34 2022 GMT
            Not After : Nov 22 16:59:34 2025 GMT
        Subject: C=fr, ST=idf, L=paris, O=vitamui, CN=dev.vitamui.com
        Subject Public Key Info:
            Public Key Algorithm: rsaEncryption
                RSA Public-Key: (4096 bit)
                Modulus:
                    00:cb:8f:88:4e:c9:b8:60:be:88:5f:8f:a2:7d:ff:
                    96:17:ba:6d:59:3a:00:3b:c5:3e:4b:f8:65:e9:f0:
                    91:57:77:af:2a:2e:18:c6:89:12:a9:25:e2:bf:03:
                    f5:b6:35:20:74:b7:d0:94:fb:c6:f6:3a:94:68:3d:
                    cf:08:cb:dc:a8:a9:eb:6d:6e:82:66:f7:34:4c:b3:
                    1c:44:7e:93:a4:12:28:16:58:ce:16:30:03:00:ad:
                    8d:ea:28:68:80:5e:a6:51:43:d9:35:6a:a9:2c:37:
                    40:09:7e:5c:de:2b:92:d7:24:0e:b7:06:da:22:a9:
                    c3:39:3b:77:03:6e:55:6b:31:ac:9e:26:01:f6:c5:
                    c7:21:be:61:15:c3:2f:92:95:69:aa:e5:3f:49:e4:
                    38:12:6a:54:f7:1f:12:fd:9b:92:82:d8:d7:b1:0b:
                    34:32:10:21:4f:5e:77:10:de:f1:64:9c:e3:78:39:
                    60:4e:b1:2d:fb:a9:ea:9e:13:27:cb:0f:89:b4:a3:
                    ee:34:81:14:47:a9:19:70:14:e4:5e:58:a9:ba:a5:
                    7a:93:ee:7b:d7:f0:c2:5c:cd:34:e8:64:c3:17:63:
                    d1:ab:30:5a:4f:fb:be:94:9b:b2:1a:07:48:d2:b0:
                    af:6e:95:77:39:40:88:b5:99:e7:55:9b:a4:48:a5:
                    f5:c9:30:a6:73:cc:45:62:fa:1d:44:5d:f6:bd:1d:
                    fc:25:61:b6:46:99:e6:ff:c1:b4:c5:24:c0:b0:fd:
                    9d:88:4a:19:bc:66:a7:56:9c:5a:9a:92:cb:5a:d2:
                    12:55:00:10:3e:e8:29:7f:34:b3:6a:e7:e8:3c:94:
                    90:e4:a8:64:8a:ab:42:9b:f6:38:25:6d:ab:3d:d9:
                    56:c2:2c:dc:b2:a9:8d:5a:17:75:e0:2c:f4:34:9e:
                    b7:89:3c:45:b6:3e:e3:df:39:fd:ea:5a:55:e2:c1:
                    f5:03:85:54:06:da:eb:57:31:6f:2c:54:fc:34:23:
                    a6:9b:d1:e4:c7:ca:d6:03:90:72:5a:75:eb:a6:d6:
                    af:03:d6:33:6d:42:3d:79:aa:48:a4:db:a2:ec:a8:
                    91:c3:d0:e9:db:0f:97:03:76:1f:90:f6:43:ce:0e:
                    59:58:05:53:8e:90:ca:ba:29:71:ce:81:a1:12:a9:
                    82:95:f3:64:ad:79:ee:fe:ab:89:9f:6a:75:ed:57:
                    33:5a:fb:b3:8d:b2:13:4e:08:a6:c4:dc:c7:28:23:
                    a6:f3:09:4f:d5:c7:ea:2a:b6:58:0d:a0:20:5e:8d:
                    d3:31:83:4f:76:46:fc:62:0a:65:32:aa:96:f7:4f:
                    04:90:83:85:63:0b:1b:ad:65:54:5e:18:90:20:f2:
                    66:df:0b
                Exponent: 65537 (0x10001)
    Signature Algorithm: sha256WithRSAEncryption
         2b:e2:6e:d1:73:b1:15:79:f5:f8:16:15:92:d1:7e:27:f1:1c:
         78:16:90:48:f8:e7:af:5a:24:06:da:2f:0f:2a:d7:a5:d6:78:
         b0:34:bb:e6:66:6c:b0:1e:75:10:af:91:a6:cd:be:7d:ab:bb:
         8b:4c:7a:21:05:0c:fe:17:2a:1b:2e:da:25:da:9a:d1:c7:9a:
         50:a1:9b:d1:3c:72:4f:cb:4e:93:f3:65:00:d3:8d:5b:f8:c0:
         a9:1e:4f:00:b0:a1:96:57:c3:a4:ba:02:49:4c:0e:e2:de:2a:
         d2:ac:d8:d8:2a:fb:7c:dc:db:06:c5:37:98:fe:7d:ec:37:4e:
         49:2f:55:32:63:50:a6:9e:ce:65:9a:be:6c:44:11:1e:a9:5e:
         3b:18:c2:e1:a1:35:13:ab:fc:0a:e7:5f:0d:2a:f9:a8:45:fd:
         91:31:c6:79:bb:ef:38:73:10:af:cc:b3:c7:f3:2e:c9:1a:51:
         b8:ea:7c:36:ea:81:7f:05:10:97:c9:e2:32:5f:ed:eb:60:b3:
         47:9d:40:39:db:2c:bc:11:aa:75:e7:cd:28:c2:42:c2:16:24:
         d8:c2:d5:aa:ee:74:04:55:07:dd:29:3b:00:1c:7d:22:47:3c:
         de:94:4e:ca:70:44:24:c5:e6:c4:6b:bf:1e:4f:86:1b:42:40:
         9f:eb:7a:cf:30:e9:ee:d0:35:24:39:9c:75:f7:e3:f1:ec:5b:
         6f:d9:c1:a6:66:cd:b6:47:9d:f9:18:d2:68:be:e0:53:43:52:
         bd:6e:08:37:f2:ed:f5:30:a8:4b:85:8d:80:f8:20:67:f2:0e:
         2c:18:fa:f3:cd:dc:14:b3:6e:19:c9:89:61:8e:36:72:35:cc:
         20:2c:e8:79:b2:59:7b:13:f4:70:6e:d2:9d:12:52:ee:c4:1c:
         81:25:01:b8:ad:bd:17:e7:1d:19:11:4b:7b:56:09:df:43:9f:
         12:96:46:47:07:ce:06:02:a6:4c:b8:10:47:00:27:f9:5d:dd:
         c8:c0:bc:40:ef:6b:15:38:a4:e4:a4:35:66:27:45:65:fb:84:
         30:55:e9:5e:86:f1:f5:f6:69:83:08:dc:6d:64:1c:0f:08:5e:
         de:8f:be:a6:30:d6:f9:37:e9:67:81:e1:f0:12:4a:af:b5:62:
         37:c6:c4:5c:9a:cd:23:65:fe:1e:b9:1d:a1:9b:b4:b2:7b:0b:
         ec:ec:f8:1c:ef:6f:6b:d3:bb:f2:b3:5c:88:87:a6:70:c3:dc:
         08:5f:b4:6d:a1:7e:29:88:27:73:f5:c2:53:87:a7:49:ac:a4:
         e2:02:13:f8:90:1c:34:88:41:f3:68:ed:5e:f6:d8:4a:a4:6f:
         83:fd:9e:64:f9:fc:e8:7f
-----BEGIN CERTIFICATE-----
MIIFPzCCAycCATEwDQYJKoZIhvcNAQELBQAwdDELMAkGA1UEBhMCZnIxDDAKBgNV
BAgMA2lkZjEOMAwGA1UEBwwFcGFyaXMxEDAOBgNVBAoMB3ZpdGFtdWkxFDASBgNV
BAsMC2F1dGhvcml0aWVzMR8wHQYDVQQDDBZjYV9pbnRlcm1lZGlhdGVfc2VydmVy
MB4XDTIyMTEyMzE2NTkzNFoXDTI1MTEyMjE2NTkzNFowVzELMAkGA1UEBhMCZnIx
DDAKBgNVBAgMA2lkZjEOMAwGA1UEBwwFcGFyaXMxEDAOBgNVBAoMB3ZpdGFtdWkx
GDAWBgNVBAMMD2Rldi52aXRhbXVpLmNvbTCCAiIwDQYJKoZIhvcNAQEBBQADggIP
ADCCAgoCggIBAMuPiE7JuGC+iF+Pon3/lhe6bVk6ADvFPkv4ZenwkVd3ryouGMaJ
Eqkl4r8D9bY1IHS30JT7xvY6lGg9zwjL3Kip621ugmb3NEyzHER+k6QSKBZYzhYw
AwCtjeooaIBeplFD2TVqqSw3QAl+XN4rktckDrcG2iKpwzk7dwNuVWsxrJ4mAfbF
xyG+YRXDL5KVaarlP0nkOBJqVPcfEv2bkoLY17ELNDIQIU9edxDe8WSc43g5YE6x
Lfup6p4TJ8sPibSj7jSBFEepGXAU5F5YqbqlepPue9fwwlzNNOhkwxdj0aswWk/7
vpSbshoHSNKwr26VdzlAiLWZ51WbpEil9ckwpnPMRWL6HURd9r0d/CVhtkaZ5v/B
tMUkwLD9nYhKGbxmp1acWpqSy1rSElUAED7oKX80s2rn6DyUkOSoZIqrQpv2OCVt
qz3ZVsIs3LKpjVoXdeAs9DSet4k8RbY+4985/epaVeLB9QOFVAba61cxbyxU/DQj
ppvR5MfK1gOQclp166bWrwPWM21CPXmqSKTbouyokcPQ6dsPlwN2H5D2Q84OWVgF
U46Qyropcc6BoRKpgpXzZK157v6riZ9qde1XM1r7s42yE04IpsTcxygjpvMJT9XH
6iq2WA2gIF6N0zGDT3ZG/GIKZTKqlvdPBJCDhWMLG61lVF4YkCDyZt8LAgMBAAEw
DQYJKoZIhvcNAQELBQADggIBACvibtFzsRV59fgWFZLRfifxHHgWkEj4569aJAba
Lw8q16XWeLA0u+ZmbLAedRCvkabNvn2ru4tMeiEFDP4XKhsu2iXamtHHmlChm9E8
ck/LTpPzZQDTjVv4wKkeTwCwoZZXw6S6AklMDuLeKtKs2Ngq+3zc2wbFN5j+few3
TkkvVTJjUKaezmWavmxEER6pXjsYwuGhNROr/ArnXw0q+ahF/ZExxnm77zhzEK/M
s8fzLskaUbjqfDbqgX8FEJfJ4jJf7etgs0edQDnbLLwRqnXnzSjCQsIWJNjC1aru
dARVB90pOwAcfSJHPN6UTspwRCTF5sRrvx5PhhtCQJ/res8w6e7QNSQ5nHX34/Hs
W2/ZwaZmzbZHnfkY0mi+4FNDUr1uCDfy7fUwqEuFjYD4IGfyDiwY+vPN3BSzbhnJ
iWGONnI1zCAs6HmyWXsT9HBu0p0SUu7EHIElAbitvRfnHRkRS3tWCd9DnxKWRkcH
zgYCpky4EEcAJ/ld3cjAvEDvaxU4pOSkNWYnRWX7hDBV6V6G8fX2aYMI3G1kHA8I
Xt6PvqYw1vk36WeB4fASSq+1YjfGxFyazSNl/h65HaGbtLJ7C+zs+Bzvb2vTu/Kz
XIiHpnDD3AhftG2hfimIJ3P1wlOHp0mspOICE/iQHDSIQfNo7V722Eqkb4P9nmT5
/Oh/
-----END CERTIFICATE-----
