Certificate:
    Data:
        Version: 1 (0x0)
        Serial Number: 149 (0x95)
    Signature Algorithm: sha256WithRSAEncryption
        Issuer: C=fr, ST=idf, L=paris, O=vitamui, OU=authorities, CN=ca_intermediate_server
        Validity
            Not Before: Dec  6 12:55:46 2021 GMT
            Not After : Dec  5 12:55:46 2024 GMT
        Subject: C=fr, ST=idf, L=paris, O=vitamui, CN=dev.vitamui.com
        Subject Public Key Info:
            Public Key Algorithm: rsaEncryption
                Public-Key: (4096 bit)
                Modulus:
                    00:ba:ed:94:13:31:aa:a1:45:fa:d8:b9:6f:15:5d:
                    12:7a:71:9a:94:63:c6:49:81:a6:5e:b6:24:82:c5:
                    66:f8:c4:7b:25:e7:21:41:f2:0d:ad:df:83:24:bb:
                    c7:ac:9c:00:b6:f5:e5:29:89:c0:ee:fb:f4:53:a6:
                    f7:71:ba:5e:83:8c:01:74:fc:78:80:ee:55:ca:8b:
                    19:17:f3:6a:59:d3:52:cf:ca:aa:37:08:f9:ac:12:
                    b2:22:dc:f5:e3:11:ee:df:1d:83:97:48:0f:2a:02:
                    76:57:38:e7:f6:30:42:7b:a6:e4:dd:37:9d:b1:0b:
                    58:dc:6b:b2:57:75:04:f9:51:14:cb:5b:ea:d2:bb:
                    02:6d:e3:d7:84:c1:42:26:9f:4f:b7:08:d6:fb:03:
                    67:82:bf:15:d0:07:f5:ac:53:a8:c4:f7:91:01:25:
                    0d:82:89:50:87:c5:bc:60:45:ca:34:e9:3d:77:d7:
                    7f:0d:9c:93:18:6d:70:06:a5:49:91:ff:68:72:06:
                    7e:b3:b7:4b:db:41:81:2d:2e:d8:5b:09:7b:9c:79:
                    92:73:3a:5f:a2:d2:d9:ab:24:69:09:ed:b5:e0:36:
                    65:14:58:30:48:7b:f9:ef:f9:21:8a:ac:aa:65:0e:
                    4c:d2:84:68:df:4b:a9:69:5c:0c:e0:34:ca:39:24:
                    a0:2f:94:09:1e:d1:59:49:57:dd:98:f9:01:2e:6c:
                    d0:47:7d:c1:95:53:ad:fb:e8:ae:f1:7b:1d:83:26:
                    01:17:b3:1a:c8:1c:b2:af:ff:d0:3c:8f:79:b9:10:
                    ca:1d:8c:66:1d:d6:d6:9a:8c:f5:f7:2d:7a:98:26:
                    57:67:14:17:a8:b9:4b:57:0c:30:87:90:ed:20:24:
                    3b:2a:a0:db:b0:92:0b:52:6f:fb:f0:f6:3c:f7:cc:
                    3d:ea:e1:19:d5:25:e4:54:a7:8b:fa:aa:77:d2:90:
                    70:3c:a8:38:56:d2:b3:08:e2:99:a1:2f:04:de:38:
                    43:26:dc:27:21:75:36:a8:61:e3:9f:63:7c:51:cd:
                    35:d6:0c:e5:45:92:6a:8e:d2:50:cb:8b:12:85:fb:
                    fc:98:fb:6f:6b:46:6c:91:e0:1b:38:3d:3e:be:71:
                    f1:dd:b3:56:83:e2:00:dc:d6:fc:11:e6:7d:de:0e:
                    72:74:36:da:61:8c:d6:16:38:aa:de:50:52:ca:01:
                    30:5b:2f:c5:7a:32:90:54:06:0d:18:17:9e:85:fe:
                    37:63:c3:4a:92:34:b0:88:f1:d4:9d:25:ae:d6:f8:
                    81:f1:a9:da:66:b9:35:d0:c8:04:a3:a4:df:42:ed:
                    a4:79:58:61:69:52:34:de:cc:d1:93:a1:50:5b:85:
                    1a:9e:13
                Exponent: 65537 (0x10001)
    Signature Algorithm: sha256WithRSAEncryption
         8d:af:ce:15:6e:bd:8e:3d:33:30:e1:c9:10:7c:f7:b4:fa:ee:
         24:cb:fc:99:1f:4f:93:9a:e4:b7:9b:38:bb:df:21:11:da:42:
         73:7c:38:9c:b5:d5:12:4c:9d:16:95:5e:7c:56:a7:0a:d8:31:
         27:d1:31:06:a5:37:cc:72:3f:f0:49:68:4c:8d:79:18:d8:c2:
         5b:4f:38:5c:cb:a3:7a:f9:76:8d:a4:c6:de:9c:8c:c9:18:c7:
         5b:e3:db:c0:21:55:9e:f1:63:00:6d:7a:a3:00:d3:92:e6:d5:
         ec:ec:5c:0f:fc:74:cc:41:53:2c:b2:d7:2a:86:05:2a:ad:7e:
         63:73:09:c5:c6:0e:bf:d1:57:7e:e4:1a:6b:fd:89:38:89:d1:
         19:15:33:c7:5d:8a:65:ae:ea:d0:c5:cc:9f:f6:0d:77:3c:5c:
         ac:11:0f:90:7c:55:90:fb:35:5d:1a:94:74:40:07:9b:e5:8b:
         b5:9f:de:b4:1e:fb:dd:72:3b:16:c9:10:e7:87:ee:c9:90:d9:
         ca:93:f4:df:04:f5:66:bc:74:70:5a:71:ac:ae:13:c2:cd:52:
         d4:8b:5a:8c:67:cf:e7:9c:28:d5:e2:df:0a:55:75:c3:a5:13:
         fa:ed:15:e5:11:32:6e:f9:37:de:fc:10:75:cd:19:00:ff:0f:
         af:19:c5:21:07:11:a6:ef:e8:65:cd:6f:3d:8a:29:4d:b3:a6:
         75:a0:7b:38:a3:9c:51:58:64:a3:bd:87:40:15:05:70:81:32:
         76:b8:c5:2b:b9:98:1a:f7:3c:1e:93:40:7b:8c:2f:3c:a6:ca:
         75:0b:58:c6:36:6b:5e:d3:b7:a0:da:8b:14:24:01:b1:76:93:
         8c:47:da:20:ef:9f:2e:d5:55:c5:e4:bd:31:b8:66:a3:91:02:
         45:6f:f5:ea:0c:50:c7:4a:65:13:21:94:72:f4:87:b2:ed:c1:
         62:ee:ac:e9:49:d5:e1:48:db:da:77:d4:7e:46:45:98:7d:dd:
         6c:7f:df:bb:ac:69:a9:9d:31:40:47:d3:28:0a:52:ed:1d:7d:
         ad:68:40:0c:9d:6d:07:75:b1:b1:6a:8c:23:bd:a7:34:11:57:
         6f:e1:31:c1:17:98:d3:0e:b2:54:c2:f1:fe:17:ed:88:5b:71:
         e0:49:12:95:9c:8b:22:49:1c:a0:05:13:0a:89:ee:13:d9:0f:
         7b:56:f6:4b:8a:81:aa:46:ab:3d:de:02:cc:b3:5f:68:11:d5:
         c8:76:fe:21:5d:9b:18:07:c7:eb:83:4d:91:0a:6e:2c:22:f3:
         ae:b0:10:63:e6:7e:6b:a4:76:1d:69:7e:ca:ac:5e:7e:43:4d:
         bf:fe:12:e9:f7:08:96:64
-----BEGIN CERTIFICATE-----
MIIFQDCCAygCAgCVMA0GCSqGSIb3DQEBCwUAMHQxCzAJBgNVBAYTAmZyMQwwCgYD
VQQIDANpZGYxDjAMBgNVBAcMBXBhcmlzMRAwDgYDVQQKDAd2aXRhbXVpMRQwEgYD
VQQLDAthdXRob3JpdGllczEfMB0GA1UEAwwWY2FfaW50ZXJtZWRpYXRlX3NlcnZl
cjAeFw0yMTEyMDYxMjU1NDZaFw0yNDEyMDUxMjU1NDZaMFcxCzAJBgNVBAYTAmZy
MQwwCgYDVQQIDANpZGYxDjAMBgNVBAcMBXBhcmlzMRAwDgYDVQQKDAd2aXRhbXVp
MRgwFgYDVQQDDA9kZXYudml0YW11aS5jb20wggIiMA0GCSqGSIb3DQEBAQUAA4IC
DwAwggIKAoICAQC67ZQTMaqhRfrYuW8VXRJ6cZqUY8ZJgaZetiSCxWb4xHsl5yFB
8g2t34Mku8esnAC29eUpicDu+/RTpvdxul6DjAF0/HiA7lXKixkX82pZ01LPyqo3
CPmsErIi3PXjEe7fHYOXSA8qAnZXOOf2MEJ7puTdN52xC1jca7JXdQT5URTLW+rS
uwJt49eEwUImn0+3CNb7A2eCvxXQB/WsU6jE95EBJQ2CiVCHxbxgRco06T13138N
nJMYbXAGpUmR/2hyBn6zt0vbQYEtLthbCXuceZJzOl+i0tmrJGkJ7bXgNmUUWDBI
e/nv+SGKrKplDkzShGjfS6lpXAzgNMo5JKAvlAke0VlJV92Y+QEubNBHfcGVU637
6K7xex2DJgEXsxrIHLKv/9A8j3m5EModjGYd1taajPX3LXqYJldnFBeouUtXDDCH
kO0gJDsqoNuwkgtSb/vw9jz3zD3q4RnVJeRUp4v6qnfSkHA8qDhW0rMI4pmhLwTe
OEMm3CchdTaoYeOfY3xRzTXWDOVFkmqO0lDLixKF+/yY+29rRmyR4Bs4PT6+cfHd
s1aD4gDc1vwR5n3eDnJ0NtphjNYWOKreUFLKATBbL8V6MpBUBg0YF56F/jdjw0qS
NLCI8dSdJa7W+IHxqdpmuTXQyASjpN9C7aR5WGFpUjTezNGToVBbhRqeEwIDAQAB
MA0GCSqGSIb3DQEBCwUAA4ICAQCNr84Vbr2OPTMw4ckQfPe0+u4ky/yZH0+TmuS3
mzi73yER2kJzfDictdUSTJ0WlV58VqcK2DEn0TEGpTfMcj/wSWhMjXkY2MJbTzhc
y6N6+XaNpMbenIzJGMdb49vAIVWe8WMAbXqjANOS5tXs7FwP/HTMQVMsstcqhgUq
rX5jcwnFxg6/0Vd+5Bpr/Yk4idEZFTPHXYplrurQxcyf9g13PFysEQ+QfFWQ+zVd
GpR0QAeb5Yu1n960HvvdcjsWyRDnh+7JkNnKk/TfBPVmvHRwWnGsrhPCzVLUi1qM
Z8/nnCjV4t8KVXXDpRP67RXlETJu+Tfe/BB1zRkA/w+vGcUhBxGm7+hlzW89iilN
s6Z1oHs4o5xRWGSjvYdAFQVwgTJ2uMUruZga9zwek0B7jC88psp1C1jGNmte07eg
2osUJAGxdpOMR9og758u1VXF5L0xuGajkQJFb/XqDFDHSmUTIZRy9Iey7cFi7qzp
SdXhSNvad9R+RkWYfd1sf9+7rGmpnTFAR9MoClLtHX2taEAMnW0HdbGxaowjvac0
EVdv4THBF5jTDrJUwvH+F+2IW3HgSRKVnIsiSRygBRMKie4T2Q97VvZLioGqRqs9
3gLMs19oEdXIdv4hXZsYB8frg02RCm4sIvOusBBj5n5rpHYdaX7KrF5+Q02//hLp
9wiWZA==
-----END CERTIFICATE-----
