Certificate:
    Data:
        Version: 1 (0x0)
        Serial Number: 48 (0x30)
        Signature Algorithm: sha256WithRSAEncryption
        Issuer: C=fr, ST=idf, L=paris, O=vitamui, OU=authorities, CN=ca_intermediate_server
        Validity
            Not Before: Nov 23 16:59:31 2022 GMT
            Not After : Nov 22 16:59:31 2025 GMT
        Subject: C=fr, ST=idf, L=paris, O=vitamui, CN=dev.vitamui.com
        Subject Public Key Info:
            Public Key Algorithm: rsaEncryption
                RSA Public-Key: (4096 bit)
                Modulus:
                    00:ca:5f:11:7b:03:68:f9:86:9d:80:db:7a:3b:23:
                    40:4d:31:4f:12:08:85:6d:a7:20:31:92:a3:60:19:
                    ca:c3:66:f3:a3:b4:49:c0:94:60:9a:72:47:cb:63:
                    da:87:07:0d:91:78:03:5b:9a:64:c0:44:79:3a:a9:
                    53:0e:f4:34:33:69:c0:25:7c:92:9b:3d:bc:e3:c0:
                    f1:f0:22:ac:87:d9:94:8a:de:c7:56:ba:d3:5d:9a:
                    71:4f:54:85:82:36:3e:6d:af:ba:8e:72:99:98:0b:
                    a2:f4:4a:54:b9:0a:3e:ee:a1:19:ad:64:ce:64:15:
                    7a:c3:36:1e:af:ec:2e:bd:51:ce:bd:9d:32:17:07:
                    13:aa:2f:f2:ca:f4:c6:31:20:1a:8b:1e:37:d3:cb:
                    00:a6:cb:c4:18:93:d0:35:0d:41:e9:d1:ba:9b:cf:
                    50:31:dd:fc:45:04:36:bd:d6:6d:41:76:4b:cd:13:
                    2a:80:7c:d4:57:5f:f9:b6:8f:54:5c:e3:b8:8b:b7:
                    f9:c9:7f:94:11:c1:2d:81:67:2f:80:40:52:d7:97:
                    42:b3:88:bc:dd:01:ad:e7:e1:65:3d:da:a3:a9:e6:
                    3f:e3:8d:70:a0:6c:e1:d9:a3:ac:7b:bc:c8:e9:d9:
                    eb:e1:10:be:b5:c2:4a:e6:31:dd:84:89:e3:da:56:
                    eb:d7:b0:d8:37:6a:34:f0:82:0f:fa:5c:5f:c3:db:
                    1f:21:44:21:59:f4:c3:bb:ab:e4:3d:20:dc:70:e9:
                    88:f9:76:d0:d4:0b:60:68:81:d2:0b:c2:94:33:5e:
                    c7:5b:af:19:c7:78:1a:e8:d8:4f:3e:4c:84:a3:9c:
                    32:91:5a:08:9c:58:f1:12:17:9b:26:42:8f:e2:7d:
                    b6:d1:20:e6:21:70:ac:53:43:94:4b:2f:57:6e:4b:
                    2c:dc:42:4c:d8:08:f9:cc:03:ea:ae:a0:7f:e5:d4:
                    ac:55:3f:a1:a8:36:3c:59:4b:1c:5e:2e:c7:37:37:
                    74:6c:0a:ab:a8:e3:64:94:82:4e:d9:01:e3:f1:07:
                    bb:60:6f:29:82:18:1f:f1:1b:a3:53:24:a0:c3:40:
                    7d:b2:7c:4e:99:6b:30:f8:8e:80:26:3a:fd:b3:de:
                    8a:15:97:63:1c:7c:9a:fa:11:e9:dc:8e:ae:4b:78:
                    62:3c:c3:c0:dd:4f:b4:67:a0:6b:d5:55:34:98:08:
                    32:07:5f:cb:14:d9:b1:4d:a5:04:6c:d3:f9:5d:66:
                    14:10:87:db:50:f8:ad:97:b5:83:a4:9e:d9:63:84:
                    fb:40:00:cc:28:86:d2:a7:2d:f8:60:cb:1c:37:47:
                    72:13:86:e4:a5:8f:72:56:03:2f:31:6f:ba:1c:d8:
                    50:6e:45
                Exponent: 65537 (0x10001)
    Signature Algorithm: sha256WithRSAEncryption
         91:47:ab:2c:05:37:4b:99:39:93:e6:6a:d0:96:65:7c:ff:ca:
         68:6f:ff:99:c2:fd:74:15:bf:93:c3:28:04:65:52:43:88:c0:
         75:b5:3e:6c:83:10:d0:f1:37:8d:57:77:21:31:33:e4:17:8b:
         8e:2d:f6:79:cd:32:b2:3a:68:94:47:98:cc:04:15:82:57:fd:
         90:dd:2a:94:c6:97:57:9a:6a:e4:f9:1d:dc:aa:78:ae:4e:63:
         9f:da:45:7c:00:72:d3:65:e8:44:a0:1b:a4:6d:95:84:04:97:
         cf:44:fb:35:3f:0d:03:a4:ea:2b:9f:90:7d:0f:a3:96:f4:71:
         08:8f:91:a9:72:68:8e:98:d6:0e:3f:7b:2a:f0:fe:1c:70:34:
         4d:cf:f3:0c:12:cc:00:99:bf:ba:02:30:a8:ca:03:42:11:f0:
         66:89:ae:97:2d:46:80:b4:2c:8a:6b:07:53:e3:d4:35:7e:2d:
         5c:a3:d4:1f:6c:c0:90:dd:bb:03:30:fa:61:d1:6b:ba:1c:d9:
         88:dd:df:ff:df:3b:bd:a3:9a:62:9b:1a:73:dc:94:ea:e6:40:
         3e:b8:7d:ef:82:1f:c7:58:6a:c7:d1:9d:05:25:8d:41:41:d9:
         d9:df:b0:19:2e:2d:9c:aa:14:30:05:1b:75:13:1f:b9:01:b0:
         87:61:ad:19:46:e9:72:71:cd:ef:ec:d1:36:cd:e3:58:52:5f:
         f4:35:c9:10:9f:3a:96:f8:e5:7d:f8:04:93:f7:a0:60:4d:70:
         d4:22:ef:2e:91:3c:e1:cf:60:6d:2d:68:a6:31:f2:29:d4:02:
         9e:32:79:20:d7:15:1a:9d:5c:30:68:82:23:11:75:36:4f:2f:
         f5:4d:4a:c8:2e:16:af:5b:b4:40:f7:05:52:b4:33:d5:cc:27:
         c3:68:e7:c2:5b:fb:f4:58:a1:c8:12:c3:e3:20:ed:3c:57:5a:
         68:4f:a6:a2:4d:1f:5f:d8:3c:46:4d:54:0f:21:af:13:59:a5:
         ed:3b:04:90:5d:fe:65:6c:82:ab:c3:3f:ba:05:11:75:fa:8a:
         64:d3:2a:80:77:10:96:35:aa:a3:83:cd:7f:68:bb:f5:c5:7f:
         ad:81:8c:7d:31:bf:87:38:a1:f6:f0:e2:94:60:2a:fe:1a:ed:
         b0:de:0e:dd:55:9b:a9:c3:2e:0f:db:2b:5a:1a:f2:c8:df:b3:
         8d:06:67:a5:21:5d:9f:d3:72:ff:a6:d6:40:c4:45:f2:06:50:
         35:3f:e0:62:88:af:cf:b5:9b:32:3f:46:c7:3a:62:64:72:44:
         55:e6:cd:58:d4:df:a9:06:57:f2:e0:72:68:fc:50:fa:ee:4b:
         1b:0a:54:34:89:2e:95:97
-----BEGIN CERTIFICATE-----
MIIFPzCCAycCATAwDQYJKoZIhvcNAQELBQAwdDELMAkGA1UEBhMCZnIxDDAKBgNV
BAgMA2lkZjEOMAwGA1UEBwwFcGFyaXMxEDAOBgNVBAoMB3ZpdGFtdWkxFDASBgNV
BAsMC2F1dGhvcml0aWVzMR8wHQYDVQQDDBZjYV9pbnRlcm1lZGlhdGVfc2VydmVy
MB4XDTIyMTEyMzE2NTkzMVoXDTI1MTEyMjE2NTkzMVowVzELMAkGA1UEBhMCZnIx
DDAKBgNVBAgMA2lkZjEOMAwGA1UEBwwFcGFyaXMxEDAOBgNVBAoMB3ZpdGFtdWkx
GDAWBgNVBAMMD2Rldi52aXRhbXVpLmNvbTCCAiIwDQYJKoZIhvcNAQEBBQADggIP
ADCCAgoCggIBAMpfEXsDaPmGnYDbejsjQE0xTxIIhW2nIDGSo2AZysNm86O0ScCU
YJpyR8tj2ocHDZF4A1uaZMBEeTqpUw70NDNpwCV8kps9vOPA8fAirIfZlIrex1a6
012acU9UhYI2Pm2vuo5ymZgLovRKVLkKPu6hGa1kzmQVesM2Hq/sLr1Rzr2dMhcH
E6ov8sr0xjEgGoseN9PLAKbLxBiT0DUNQenRupvPUDHd/EUENr3WbUF2S80TKoB8
1Fdf+baPVFzjuIu3+cl/lBHBLYFnL4BAUteXQrOIvN0BrefhZT3ao6nmP+ONcKBs
4dmjrHu8yOnZ6+EQvrXCSuYx3YSJ49pW69ew2DdqNPCCD/pcX8PbHyFEIVn0w7ur
5D0g3HDpiPl20NQLYGiB0gvClDNex1uvGcd4GujYTz5MhKOcMpFaCJxY8RIXmyZC
j+J9ttEg5iFwrFNDlEsvV25LLNxCTNgI+cwD6q6gf+XUrFU/oag2PFlLHF4uxzc3
dGwKq6jjZJSCTtkB4/EHu2BvKYIYH/Ebo1MkoMNAfbJ8TplrMPiOgCY6/bPeihWX
Yxx8mvoR6dyOrkt4YjzDwN1PtGega9VVNJgIMgdfyxTZsU2lBGzT+V1mFBCH21D4
rZe1g6Se2WOE+0AAzCiG0qct+GDLHDdHchOG5KWPclYDLzFvuhzYUG5FAgMBAAEw
DQYJKoZIhvcNAQELBQADggIBAJFHqywFN0uZOZPmatCWZXz/ymhv/5nC/XQVv5PD
KARlUkOIwHW1PmyDENDxN41XdyExM+QXi44t9nnNMrI6aJRHmMwEFYJX/ZDdKpTG
l1eaauT5HdyqeK5OY5/aRXwActNl6ESgG6RtlYQEl89E+zU/DQOk6iufkH0Po5b0
cQiPkalyaI6Y1g4/eyrw/hxwNE3P8wwSzACZv7oCMKjKA0IR8GaJrpctRoC0LIpr
B1Pj1DV+LVyj1B9swJDduwMw+mHRa7oc2Yjd3//fO72jmmKbGnPclOrmQD64fe+C
H8dYasfRnQUljUFB2dnfsBkuLZyqFDAFG3UTH7kBsIdhrRlG6XJxze/s0TbN41hS
X/Q1yRCfOpb45X34BJP3oGBNcNQi7y6RPOHPYG0taKYx8inUAp4yeSDXFRqdXDBo
giMRdTZPL/VNSsguFq9btED3BVK0M9XMJ8No58Jb+/RYocgSw+Mg7TxXWmhPpqJN
H1/YPEZNVA8hrxNZpe07BJBd/mVsgqvDP7oFEXX6imTTKoB3EJY1qqODzX9ou/XF
f62BjH0xv4c4ofbw4pRgKv4a7bDeDt1Vm6nDLg/bK1oa8sjfs40GZ6UhXZ/Tcv+m
1kDERfIGUDU/4GKIr8+1mzI/Rsc6YmRyRFXmzVjU36kGV/Lgcmj8UPruSxsKVDSJ
LpWX
-----END CERTIFICATE-----
