Certificate:
    Data:
        Version: 1 (0x0)
        Serial Number: 143 (0x8f)
    Signature Algorithm: sha256WithRSAEncryption
        Issuer: C=fr, ST=idf, L=paris, O=vitamui, OU=authorities, CN=ca_intermediate_server
        Validity
            Not Before: Dec  6 12:55:12 2021 GMT
            Not After : Dec  5 12:55:12 2024 GMT
        Subject: C=fr, ST=idf, L=paris, O=vitamui, CN=dev.vitamui.com
        Subject Public Key Info:
            Public Key Algorithm: rsaEncryption
                Public-Key: (4096 bit)
                Modulus:
                    00:bc:0d:0e:c2:2e:e5:65:d5:96:8c:1d:63:fd:7b:
                    87:01:1f:0b:46:ed:8a:c9:31:1c:e8:3d:cf:d7:04:
                    30:20:92:45:96:e6:24:5c:3b:67:33:42:46:cb:dd:
                    88:77:36:41:63:e7:a4:a8:b5:e0:e3:2a:c9:93:21:
                    54:f3:f0:a1:61:ce:05:f2:f7:e5:7b:3a:fd:68:21:
                    d3:7c:d5:1c:f1:a2:0d:83:ea:02:7c:6e:fa:53:9b:
                    61:c7:07:3e:4b:21:49:90:55:3d:5b:9d:52:ed:40:
                    47:82:af:82:89:eb:cc:03:56:63:8e:66:45:4c:8c:
                    4f:b3:3f:57:cb:5f:73:a1:df:d6:4b:51:1d:2f:05:
                    8e:5b:b2:c9:87:25:06:9a:d2:a9:92:d6:14:54:a7:
                    2c:6d:07:06:b6:ec:ee:81:b4:30:b4:d2:b3:86:d1:
                    ae:13:92:61:e9:79:f2:50:62:e0:68:1a:c6:e1:9a:
                    dc:42:2c:a7:30:16:a3:73:ad:ad:6b:65:3f:14:79:
                    f9:1a:29:30:cc:41:6c:a0:6f:04:18:ce:ef:36:9c:
                    72:65:43:13:c1:fb:5e:5c:8c:1f:ab:62:e3:b3:77:
                    e8:5c:4b:c1:70:c1:9a:01:53:53:80:ef:14:9d:ab:
                    8a:cb:05:1c:c5:90:71:14:2c:17:36:77:f9:d2:87:
                    cf:6b:54:21:a6:96:24:5b:f8:eb:bf:53:0e:9f:b7:
                    be:06:b2:4f:b0:69:c9:5a:1f:cc:65:7d:fb:bb:60:
                    e2:0e:63:36:7d:67:67:73:e3:8b:4e:71:06:21:da:
                    c8:62:2a:86:46:cb:38:4b:ab:25:32:0b:64:57:7f:
                    a7:41:e4:95:dc:30:13:01:e8:0a:c3:1d:6d:71:3b:
                    4f:61:58:79:1e:58:bd:2a:45:70:07:d6:39:45:5e:
                    ff:3d:ab:b4:16:f6:6c:ab:a8:91:69:b0:f7:69:f5:
                    9b:0e:b1:4c:a7:66:b2:8f:65:e3:82:19:6b:33:8c:
                    7e:13:7b:02:04:ad:71:cd:ed:18:4c:89:f3:ee:0d:
                    b1:7b:f0:96:5d:a6:52:33:9a:e7:be:92:8e:84:2c:
                    ad:a6:79:38:48:59:21:be:ee:c9:1f:d6:42:5d:ad:
                    0e:aa:ad:18:ec:80:30:de:fd:6d:52:d3:6b:d4:0b:
                    b5:07:ba:68:25:d9:2d:02:93:dc:65:8f:42:1b:f0:
                    a5:4b:13:7a:16:2a:e6:50:24:f1:2b:1a:56:47:c5:
                    61:47:57:53:d1:86:30:81:b2:26:f5:92:44:5b:29:
                    fb:7d:e3:e4:bb:6b:41:b1:0c:33:3e:34:8e:16:16:
                    b8:d6:14:1e:34:d2:02:e0:63:63:93:cf:6b:b4:74:
                    40:f7:0f
                Exponent: 65537 (0x10001)
    Signature Algorithm: sha256WithRSAEncryption
         1e:66:71:c5:03:88:3a:a1:90:5a:69:39:69:d8:96:71:08:ea:
         cb:38:21:6a:32:ee:3b:57:06:97:fa:ad:34:57:79:fa:15:6e:
         d4:eb:27:38:cd:a6:11:2e:78:7d:8a:ad:ed:7d:ba:74:88:c5:
         df:40:bb:96:29:b3:83:33:f7:5b:8b:5d:09:e8:59:a6:43:3b:
         12:05:d3:f4:99:e0:06:1c:50:d6:c3:17:05:61:17:99:1e:b0:
         bc:26:ee:05:b0:ed:83:bb:88:8a:c5:a8:49:f0:90:c7:32:54:
         2e:83:67:2f:4b:13:8f:dd:de:02:74:af:ad:c4:13:cc:cc:ea:
         07:0c:f0:fb:41:19:58:b5:ee:c5:8a:93:a3:ba:ad:dc:ec:48:
         ac:25:01:5a:5c:5c:bd:17:57:47:d1:d6:c9:a3:63:3c:21:41:
         42:d3:88:e1:76:ac:52:42:84:95:f0:18:6b:cd:52:50:16:d6:
         e2:08:ba:af:e1:55:4c:a2:9d:13:c4:a1:36:18:7e:44:1b:e1:
         9c:a3:92:95:dd:e2:44:42:ba:db:d5:e4:04:f9:ae:07:dd:24:
         5f:ab:f3:36:d1:82:d2:6e:24:9c:da:84:8f:03:df:74:1f:d1:
         79:fc:f0:3f:34:17:26:9f:05:9b:e8:44:5a:53:09:fe:3b:19:
         d3:6f:ae:e4:39:77:11:5b:8b:2c:86:98:5b:34:96:79:8e:97:
         6e:38:7c:df:0f:d1:b7:1f:cf:30:48:88:03:38:80:20:33:67:
         e7:8f:20:22:17:15:22:3a:59:2d:51:59:b6:bb:4f:c7:b6:25:
         92:8a:ce:9f:9b:84:43:b3:65:fd:a9:73:4b:99:f1:40:ee:a9:
         e2:43:3c:0e:b2:b6:37:17:34:68:f1:3b:47:01:7b:9c:79:c0:
         81:28:56:20:b5:0d:a9:44:cb:cb:73:de:7d:f4:30:c7:57:fc:
         0b:68:d0:bf:45:20:2f:f9:ea:c4:6b:db:82:70:53:87:33:8e:
         83:4e:21:0f:00:6b:5d:9f:f8:ce:51:9c:48:23:ed:6e:2f:79:
         be:b4:93:e1:e0:9e:de:57:81:60:58:f3:08:bd:0f:00:29:ab:
         9a:ac:85:05:e3:33:4e:f8:17:2c:45:f5:2b:3a:80:2c:f1:49:
         e4:2e:d9:6b:9b:c0:26:f0:48:06:c0:2d:e8:75:c0:e2:6b:25:
         b7:17:98:0c:b8:5e:34:bf:69:d7:a8:74:ed:6a:72:7d:b5:48:
         59:6c:07:db:9b:7b:42:a1:c6:c5:a6:76:9b:75:ea:28:1e:f8:
         16:7c:92:8a:1f:4a:7f:0d:71:d4:a8:84:cc:41:e4:4e:d3:c6:
         1b:53:65:de:09:c9:2a:e6
-----BEGIN CERTIFICATE-----
MIIFQDCCAygCAgCPMA0GCSqGSIb3DQEBCwUAMHQxCzAJBgNVBAYTAmZyMQwwCgYD
VQQIDANpZGYxDjAMBgNVBAcMBXBhcmlzMRAwDgYDVQQKDAd2aXRhbXVpMRQwEgYD
VQQLDAthdXRob3JpdGllczEfMB0GA1UEAwwWY2FfaW50ZXJtZWRpYXRlX3NlcnZl
cjAeFw0yMTEyMDYxMjU1MTJaFw0yNDEyMDUxMjU1MTJaMFcxCzAJBgNVBAYTAmZy
MQwwCgYDVQQIDANpZGYxDjAMBgNVBAcMBXBhcmlzMRAwDgYDVQQKDAd2aXRhbXVp
MRgwFgYDVQQDDA9kZXYudml0YW11aS5jb20wggIiMA0GCSqGSIb3DQEBAQUAA4IC
DwAwggIKAoICAQC8DQ7CLuVl1ZaMHWP9e4cBHwtG7YrJMRzoPc/XBDAgkkWW5iRc
O2czQkbL3Yh3NkFj56SoteDjKsmTIVTz8KFhzgXy9+V7Ov1oIdN81Rzxog2D6gJ8
bvpTm2HHBz5LIUmQVT1bnVLtQEeCr4KJ68wDVmOOZkVMjE+zP1fLX3Oh39ZLUR0v
BY5bssmHJQaa0qmS1hRUpyxtBwa27O6BtDC00rOG0a4TkmHpefJQYuBoGsbhmtxC
LKcwFqNzra1rZT8UefkaKTDMQWygbwQYzu82nHJlQxPB+15cjB+rYuOzd+hcS8Fw
wZoBU1OA7xSdq4rLBRzFkHEULBc2d/nSh89rVCGmliRb+Ou/Uw6ft74Gsk+wacla
H8xlffu7YOIOYzZ9Z2dz44tOcQYh2shiKoZGyzhLqyUyC2RXf6dB5JXcMBMB6ArD
HW1xO09hWHkeWL0qRXAH1jlFXv89q7QW9myrqJFpsPdp9ZsOsUynZrKPZeOCGWsz
jH4TewIErXHN7RhMifPuDbF78JZdplIzmue+ko6ELK2meThIWSG+7skf1kJdrQ6q
rRjsgDDe/W1S02vUC7UHumgl2S0Ck9xlj0Ib8KVLE3oWKuZQJPErGlZHxWFHV1PR
hjCBsib1kkRbKft94+S7a0GxDDM+NI4WFrjWFB400gLgY2OTz2u0dED3DwIDAQAB
MA0GCSqGSIb3DQEBCwUAA4ICAQAeZnHFA4g6oZBaaTlp2JZxCOrLOCFqMu47VwaX
+q00V3n6FW7U6yc4zaYRLnh9iq3tfbp0iMXfQLuWKbODM/dbi10J6FmmQzsSBdP0
meAGHFDWwxcFYReZHrC8Ju4FsO2Du4iKxahJ8JDHMlQug2cvSxOP3d4CdK+txBPM
zOoHDPD7QRlYte7FipOjuq3c7EisJQFaXFy9F1dH0dbJo2M8IUFC04jhdqxSQoSV
8BhrzVJQFtbiCLqv4VVMop0TxKE2GH5EG+Gco5KV3eJEQrrb1eQE+a4H3SRfq/M2
0YLSbiSc2oSPA990H9F5/PA/NBcmnwWb6ERaUwn+OxnTb67kOXcRW4sshphbNJZ5
jpduOHzfD9G3H88wSIgDOIAgM2fnjyAiFxUiOlktUVm2u0/HtiWSis6fm4RDs2X9
qXNLmfFA7qniQzwOsrY3FzRo8TtHAXucecCBKFYgtQ2pRMvLc9599DDHV/wLaNC/
RSAv+erEa9uCcFOHM46DTiEPAGtdn/jOUZxII+1uL3m+tJPh4J7eV4FgWPMIvQ8A
KauarIUF4zNO+BcsRfUrOoAs8UnkLtlrm8Am8EgGwC3odcDiayW3F5gMuF40v2nX
qHTtanJ9tUhZbAfbm3tCocbFpnabdeooHvgWfJKKH0p/DXHUqITMQeRO08YbU2Xe
Cckq5g==
-----END CERTIFICATE-----
