Certificate:
    Data:
        Version: 1 (0x0)
        Serial Number: 54 (0x36)
        Signature Algorithm: sha256WithRSAEncryption
        Issuer: C=fr, ST=idf, L=paris, O=vitamui, OU=authorities, CN=ca_intermediate_server
        Validity
            Not Before: Nov 23 16:59:45 2022 GMT
            Not After : Nov 22 16:59:45 2025 GMT
        Subject: C=fr, ST=idf, L=paris, O=vitamui, CN=dev.vitamui.com
        Subject Public Key Info:
            Public Key Algorithm: rsaEncryption
                RSA Public-Key: (4096 bit)
                Modulus:
                    00:ca:53:4e:7d:5e:1c:0f:33:92:c2:2a:ed:2c:5a:
                    3b:a7:0c:6a:fb:38:d6:0e:94:e2:58:08:ac:87:38:
                    6d:5d:38:2f:10:b9:ba:c2:f3:05:4f:47:16:26:ec:
                    51:9a:bf:cd:4c:10:ab:fa:bd:66:a3:99:13:17:6d:
                    69:ac:c8:c7:89:c8:5f:83:0e:72:ea:24:c9:49:c0:
                    2e:07:49:f5:de:38:9e:69:a7:25:ae:27:d5:3d:10:
                    10:db:9f:bb:62:a5:dd:73:4a:fe:47:92:7b:27:fa:
                    c4:b1:03:fa:7f:4b:6c:26:93:91:28:f7:6e:57:f3:
                    eb:07:97:7a:0f:47:07:fc:c5:3c:6c:5c:45:9a:a8:
                    d0:d7:4c:ca:85:05:5d:a4:fb:62:be:eb:93:9d:8a:
                    2e:56:ad:58:b5:a0:48:15:3f:96:f0:9f:cb:cf:6b:
                    e8:7a:fb:c2:23:d6:09:1e:a6:0c:ac:d3:a4:94:bc:
                    8e:4f:c3:a7:7a:d2:8f:09:08:ab:ed:c4:ad:26:27:
                    cc:87:80:06:2d:ad:60:c4:51:27:dd:db:08:c7:74:
                    7b:0d:d6:25:5e:77:72:72:1d:5f:9d:d0:c0:26:a2:
                    e0:01:69:82:ef:d7:b2:01:1a:cc:32:ef:79:b9:52:
                    ed:ce:4c:42:88:98:dc:95:4f:c1:ac:83:11:f3:49:
                    b5:dc:a4:d5:cd:63:a3:70:30:ec:b9:fd:9c:3d:74:
                    56:35:11:24:03:42:a5:dd:d1:1f:e0:b6:6c:59:6a:
                    9f:d1:a3:18:c6:71:e0:19:a3:7b:9c:7a:39:0b:80:
                    03:aa:1b:cd:35:18:7f:c0:2e:d5:41:ec:ff:d2:2f:
                    6c:37:c4:59:16:eb:a5:2a:35:48:b5:0f:45:d6:1e:
                    11:fe:4e:ba:e2:97:cf:7c:e1:f9:0a:d4:e9:ff:d8:
                    10:5f:bd:90:02:59:c3:f5:29:90:4e:86:66:cd:9a:
                    3b:b9:70:a3:c6:e4:32:9f:e8:53:77:36:c3:24:ea:
                    98:6b:c3:07:28:be:db:c4:94:e2:a3:93:76:2b:bd:
                    22:b2:64:02:e7:33:84:11:5f:01:47:7d:e3:7a:29:
                    74:a9:25:07:a2:25:eb:87:b7:d0:e4:f3:80:70:7a:
                    09:03:b3:a7:8b:41:3b:9f:67:d9:57:0a:5b:e8:86:
                    ec:db:52:01:9b:dd:f6:af:03:ef:6d:b5:1b:eb:6b:
                    ba:24:88:d9:bb:94:19:43:e6:8b:68:89:40:da:1c:
                    9f:95:0c:49:22:7a:0e:32:ab:61:26:dc:58:0f:d2:
                    9d:ec:c6:63:af:e1:3d:7c:51:cd:36:7e:70:75:0d:
                    a3:e1:61:aa:b3:d3:97:10:10:b4:41:51:25:6e:61:
                    8b:d3:51
                Exponent: 65537 (0x10001)
    Signature Algorithm: sha256WithRSAEncryption
         21:03:c7:32:ec:27:f1:0b:12:27:0d:8b:ff:29:28:d3:9b:d0:
         c7:2c:e8:d9:03:91:69:27:7a:81:87:20:6d:85:85:8a:c3:dc:
         b7:38:3e:7f:4b:0f:9e:ab:45:60:16:8a:34:65:28:d5:59:be:
         ec:38:72:38:3b:57:27:76:b7:02:04:e9:80:45:2a:5f:81:44:
         30:2b:42:ee:15:b8:df:10:38:47:e5:69:01:20:6f:70:45:df:
         a9:12:0b:75:cd:34:13:7f:88:45:cd:a4:86:d9:48:67:81:67:
         c3:41:07:7e:15:d1:1f:7b:36:f7:49:ae:fe:64:a2:4b:20:0d:
         1b:20:19:78:33:80:ef:1f:31:8f:8c:73:92:0b:94:00:52:4d:
         2d:fb:e0:39:3a:5b:c4:28:4f:2b:f4:00:77:12:37:a6:e6:1e:
         42:7a:2f:cd:59:08:4b:fd:d5:66:3d:fd:79:21:d2:7b:d4:d1:
         04:e7:c9:30:0a:7b:4c:fd:fc:e0:5f:3a:c0:2e:6c:8e:10:da:
         43:ed:f3:dc:4a:d4:5d:e7:bb:4d:28:2a:97:ea:a9:27:1e:6c:
         98:49:2d:cd:9e:f1:e5:58:90:fe:d8:67:67:46:a5:67:48:8a:
         a0:64:be:0b:24:36:9a:ee:7e:57:f1:0b:81:70:67:fc:7f:8e:
         65:f2:b5:17:06:f2:d7:cb:2b:71:d2:2a:d2:a5:a3:26:46:4d:
         80:c2:d2:45:7f:2a:5e:e9:0b:b8:42:b8:da:18:e4:4f:68:1b:
         10:5c:13:0a:e9:47:05:16:3b:78:a2:fb:65:10:f5:bc:4d:07:
         01:1b:a1:a4:c8:5b:45:89:89:48:35:74:18:e5:b1:f8:e0:0b:
         62:3e:e0:f6:2d:cc:c3:47:af:93:71:8f:3b:3d:1f:63:c9:b4:
         8b:eb:dc:e3:b7:55:5f:22:8b:f2:7e:84:0e:4e:37:fe:04:e9:
         fe:d2:e9:bc:2a:af:db:8d:31:71:5d:e0:60:34:70:fd:06:ad:
         91:57:5f:24:a4:8f:53:35:7e:fa:9c:eb:be:3d:2a:40:3e:ab:
         6d:ad:14:d6:12:33:3b:e1:45:2c:87:f2:f6:4c:45:e8:ac:c9:
         54:95:f2:11:e2:0f:12:6a:2d:10:4b:a5:a1:f4:25:4f:3d:07:
         1f:eb:4b:fd:84:59:43:aa:c0:e9:39:cd:e6:58:7c:fc:72:15:
         35:59:7c:a3:dc:1e:73:07:0b:66:b0:26:d9:d8:33:80:2d:b5:
         21:b9:6d:e4:08:21:e3:0d:82:c3:29:4a:a7:27:32:f3:78:d5:
         ef:4e:06:1e:92:e8:c5:c6:20:32:3a:bb:97:72:0f:9e:3a:a4:
         31:c1:50:dd:09:3d:48:54
-----BEGIN CERTIFICATE-----
MIIFPzCCAycCATYwDQYJKoZIhvcNAQELBQAwdDELMAkGA1UEBhMCZnIxDDAKBgNV
BAgMA2lkZjEOMAwGA1UEBwwFcGFyaXMxEDAOBgNVBAoMB3ZpdGFtdWkxFDASBgNV
BAsMC2F1dGhvcml0aWVzMR8wHQYDVQQDDBZjYV9pbnRlcm1lZGlhdGVfc2VydmVy
MB4XDTIyMTEyMzE2NTk0NVoXDTI1MTEyMjE2NTk0NVowVzELMAkGA1UEBhMCZnIx
DDAKBgNVBAgMA2lkZjEOMAwGA1UEBwwFcGFyaXMxEDAOBgNVBAoMB3ZpdGFtdWkx
GDAWBgNVBAMMD2Rldi52aXRhbXVpLmNvbTCCAiIwDQYJKoZIhvcNAQEBBQADggIP
ADCCAgoCggIBAMpTTn1eHA8zksIq7SxaO6cMavs41g6U4lgIrIc4bV04LxC5usLz
BU9HFibsUZq/zUwQq/q9ZqOZExdtaazIx4nIX4MOcuokyUnALgdJ9d44nmmnJa4n
1T0QENufu2Kl3XNK/keSeyf6xLED+n9LbCaTkSj3blfz6weXeg9HB/zFPGxcRZqo
0NdMyoUFXaT7Yr7rk52KLlatWLWgSBU/lvCfy89r6Hr7wiPWCR6mDKzTpJS8jk/D
p3rSjwkIq+3ErSYnzIeABi2tYMRRJ93bCMd0ew3WJV53cnIdX53QwCai4AFpgu/X
sgEazDLveblS7c5MQoiY3JVPwayDEfNJtdyk1c1jo3Aw7Ln9nD10VjURJANCpd3R
H+C2bFlqn9GjGMZx4Bmje5x6OQuAA6obzTUYf8Au1UHs/9IvbDfEWRbrpSo1SLUP
RdYeEf5OuuKXz3zh+QrU6f/YEF+9kAJZw/UpkE6GZs2aO7lwo8bkMp/oU3c2wyTq
mGvDByi+28SU4qOTdiu9IrJkAuczhBFfAUd943opdKklB6Il64e30OTzgHB6CQOz
p4tBO59n2VcKW+iG7NtSAZvd9q8D7221G+truiSI2buUGUPmi2iJQNocn5UMSSJ6
DjKrYSbcWA/SnezGY6/hPXxRzTZ+cHUNo+FhqrPTlxAQtEFRJW5hi9NRAgMBAAEw
DQYJKoZIhvcNAQELBQADggIBACEDxzLsJ/ELEicNi/8pKNOb0Mcs6NkDkWkneoGH
IG2FhYrD3Lc4Pn9LD56rRWAWijRlKNVZvuw4cjg7Vyd2twIE6YBFKl+BRDArQu4V
uN8QOEflaQEgb3BF36kSC3XNNBN/iEXNpIbZSGeBZ8NBB34V0R97NvdJrv5koksg
DRsgGXgzgO8fMY+Mc5ILlABSTS374Dk6W8QoTyv0AHcSN6bmHkJ6L81ZCEv91WY9
/Xkh0nvU0QTnyTAKe0z9/OBfOsAubI4Q2kPt89xK1F3nu00oKpfqqScebJhJLc2e
8eVYkP7YZ2dGpWdIiqBkvgskNpruflfxC4FwZ/x/jmXytRcG8tfLK3HSKtKloyZG
TYDC0kV/Kl7pC7hCuNoY5E9oGxBcEwrpRwUWO3ii+2UQ9bxNBwEboaTIW0WJiUg1
dBjlsfjgC2I+4PYtzMNHr5Nxjzs9H2PJtIvr3OO3VV8ii/J+hA5ON/4E6f7S6bwq
r9uNMXFd4GA0cP0GrZFXXySkj1M1fvqc6749KkA+q22tFNYSMzvhRSyH8vZMReis
yVSV8hHiDxJqLRBLpaH0JU89Bx/rS/2EWUOqwOk5zeZYfPxyFTVZfKPcHnMHC2aw
JtnYM4AttSG5beQIIeMNgsMpSqcnMvN41e9OBh6S6MXGIDI6u5dyD546pDHBUN0J
PUhU
-----END CERTIFICATE-----
