Certificate:
    Data:
        Version: 1 (0x0)
        Serial Number: 7 (0x7)
        Signature Algorithm: sha256WithRSAEncryption
        Issuer: C=fr, ST=idf, L=paris, O=vitamui, OU=authorities, CN=ca_intermediate_server
        Validity
            Not Before: May  5 12:34:59 2020 GMT
            Not After : May  5 12:34:59 2023 GMT
        Subject: C=fr, ST=idf, L=paris, O=vitamui, CN=dev.vitamui.com
        Subject Public Key Info:
            Public Key Algorithm: rsaEncryption
                RSA Public-Key: (4096 bit)
                Modulus:
                    00:e4:b2:cf:9c:d8:7b:17:03:fc:b6:7a:84:47:65:
                    7b:2b:0c:15:97:45:4b:ca:ca:44:3e:0d:dd:8e:b5:
                    e0:90:46:33:0a:65:19:e0:f2:60:31:78:2b:ba:43:
                    4a:00:a3:d5:24:86:32:2a:31:40:12:04:33:22:ab:
                    95:82:28:af:d8:a7:13:f6:75:d4:fb:9c:92:56:e5:
                    75:ba:a5:17:dd:3e:99:fb:56:5d:7c:12:3e:48:89:
                    35:27:fb:ed:0d:13:0b:ee:85:28:9e:43:96:e7:48:
                    18:07:49:34:0b:38:fc:33:3e:c9:a5:bf:4d:6c:90:
                    91:ea:f7:3d:0d:51:e0:66:86:7d:b6:d6:69:e6:86:
                    7a:71:33:4b:01:88:90:de:c0:d6:4a:3b:eb:76:c9:
                    40:91:9c:b1:1d:ed:04:1d:9e:32:00:f0:c7:e4:17:
                    73:22:e1:97:ee:03:63:b3:9c:09:26:d8:46:e6:ba:
                    99:95:43:c8:63:c9:95:de:65:ff:25:c1:c4:e1:9f:
                    45:46:38:28:ec:dd:b5:0f:c2:82:1b:4c:a8:92:02:
                    bf:92:2f:9e:da:65:9f:ad:9f:6c:92:44:d7:16:03:
                    4d:29:7e:45:c6:0e:18:2d:92:df:6c:f8:60:45:cc:
                    19:cc:88:ab:d6:b3:94:89:54:a6:65:1b:da:a5:23:
                    e0:e7:76:8e:cf:20:7e:52:c0:e3:ca:20:81:4a:d2:
                    a4:f1:6f:bc:a7:99:28:1a:c4:07:1c:09:70:69:14:
                    d9:3b:9d:d3:7f:92:37:22:4d:db:60:c5:86:c3:d5:
                    11:a7:9a:b1:4d:c4:d8:b3:0f:7e:6a:d9:58:88:97:
                    12:ab:3a:df:fd:5d:37:f1:56:08:72:31:ce:b6:71:
                    5b:27:f8:b0:d1:a6:3f:2c:26:ce:95:7c:76:93:c3:
                    73:32:ad:39:40:74:f3:80:9a:35:0a:c9:d8:3d:a0:
                    71:64:95:23:33:eb:56:ba:68:3c:17:17:b5:91:18:
                    5c:e5:02:d7:a5:fa:2e:c9:a0:e4:97:c8:71:f9:e0:
                    4e:d8:2b:a4:fa:73:cb:a4:f7:04:f6:f6:88:d2:aa:
                    fc:dc:81:bf:89:27:90:36:17:5e:ab:f1:0f:de:db:
                    14:14:6c:4d:4f:3a:5f:12:a0:31:e4:a3:e4:57:03:
                    d2:ec:3e:28:c2:0b:a8:73:a4:02:51:c6:b5:56:e2:
                    73:c6:89:1c:60:09:a9:bd:71:6a:0d:0c:b2:57:08:
                    e2:f3:e7:22:c8:a3:0b:4e:99:68:e7:69:72:58:8a:
                    ae:be:95:17:d7:62:44:ee:b3:12:6f:76:db:f9:81:
                    44:75:2a:6b:71:03:3d:47:fc:b3:bc:50:48:69:7b:
                    22:e8:0f
                Exponent: 65537 (0x10001)
    Signature Algorithm: sha256WithRSAEncryption
         62:1b:6a:34:e2:00:a9:fa:ad:6c:0b:88:a2:b6:db:9e:f8:e8:
         f1:0e:d9:52:0f:ba:69:5d:66:3d:a5:f6:00:db:0b:6f:62:f4:
         5b:1a:19:aa:98:2e:73:e5:15:8a:b9:ca:57:fb:6a:41:70:71:
         e6:e9:3d:8d:e9:91:f7:37:78:02:04:a2:51:56:ad:f4:48:80:
         1f:70:a8:fc:65:f4:4b:b4:70:55:9a:70:eb:27:5a:0f:0e:28:
         56:86:eb:ae:fd:a5:a4:52:43:05:11:81:5d:41:00:90:77:e2:
         c4:38:da:0d:8a:f9:37:b3:fe:df:47:37:3e:ae:f9:12:2a:1e:
         fa:ca:73:8e:2d:e6:f6:30:56:c7:b1:13:6d:8e:26:bf:2d:2f:
         5b:60:f6:8b:30:32:73:c1:d1:af:a0:46:bc:c8:20:ca:73:6a:
         4c:47:55:ee:fb:64:34:20:c3:9d:d7:7c:8d:42:1f:d9:f2:68:
         cf:be:0b:ea:4c:e6:9f:2e:e7:d1:60:4c:58:cb:f4:04:bb:66:
         79:63:c7:4b:03:fb:12:29:88:17:0c:a3:39:9f:e8:b1:19:ee:
         3b:bf:77:3e:f4:e1:73:3c:e4:18:5a:f5:b1:7e:39:f1:88:a5:
         02:09:8c:8a:f4:53:bd:9e:f1:90:03:c1:fc:aa:21:be:1a:fa:
         07:12:ec:a5:45:2f:45:e7:73:c6:9f:ee:cd:8d:1f:ad:24:0d:
         fc:50:d4:14:60:41:24:53:41:9e:43:11:a1:92:ce:43:db:d0:
         b1:a7:fa:8a:85:a1:45:af:00:6c:14:38:30:32:86:31:ce:67:
         52:45:58:bc:71:5d:89:ef:ee:f9:6b:64:a9:68:ff:5b:8a:ce:
         ac:cf:e8:95:bd:95:1e:a5:0e:58:64:14:57:17:54:06:13:19:
         7d:e8:30:2c:17:91:9c:e3:90:70:03:e6:fc:5d:df:93:a5:97:
         76:b8:eb:5f:26:70:a9:ff:81:55:39:63:ee:11:91:2e:24:18:
         fb:cb:03:05:e6:bd:c9:2c:9d:f4:85:69:af:0c:29:98:8e:00:
         5a:45:41:69:35:87:5d:3e:89:80:8e:6d:87:6b:0e:3c:03:8f:
         8c:83:31:2e:8f:ae:18:98:9d:24:57:fc:e7:7b:d3:83:a7:13:
         e6:8b:8c:66:41:eb:2e:a8:18:ec:ce:cd:14:9d:bb:fd:c5:86:
         46:12:fb:9f:a9:8f:6d:5a:57:a3:70:5e:63:24:2f:99:36:33:
         8d:a7:be:2b:0c:a9:c1:24:e2:29:6b:24:c2:51:1a:f3:7f:30:
         95:b1:89:1e:de:cd:50:12:4a:4c:fb:ed:88:8e:0a:45:37:18:
         49:a3:49:77:b1:37:eb:94
-----BEGIN CERTIFICATE-----
MIIFPzCCAycCAQcwDQYJKoZIhvcNAQELBQAwdDELMAkGA1UEBhMCZnIxDDAKBgNV
BAgMA2lkZjEOMAwGA1UEBwwFcGFyaXMxEDAOBgNVBAoMB3ZpdGFtdWkxFDASBgNV
BAsMC2F1dGhvcml0aWVzMR8wHQYDVQQDDBZjYV9pbnRlcm1lZGlhdGVfc2VydmVy
MB4XDTIwMDUwNTEyMzQ1OVoXDTIzMDUwNTEyMzQ1OVowVzELMAkGA1UEBhMCZnIx
DDAKBgNVBAgMA2lkZjEOMAwGA1UEBwwFcGFyaXMxEDAOBgNVBAoMB3ZpdGFtdWkx
GDAWBgNVBAMMD2Rldi52aXRhbXVpLmNvbTCCAiIwDQYJKoZIhvcNAQEBBQADggIP
ADCCAgoCggIBAOSyz5zYexcD/LZ6hEdleysMFZdFS8rKRD4N3Y614JBGMwplGeDy
YDF4K7pDSgCj1SSGMioxQBIEMyKrlYIor9inE/Z11PucklbldbqlF90+mftWXXwS
PkiJNSf77Q0TC+6FKJ5DludIGAdJNAs4/DM+yaW/TWyQker3PQ1R4GaGfbbWaeaG
enEzSwGIkN7A1ko763bJQJGcsR3tBB2eMgDwx+QXcyLhl+4DY7OcCSbYRua6mZVD
yGPJld5l/yXBxOGfRUY4KOzdtQ/CghtMqJICv5Ivntpln62fbJJE1xYDTSl+RcYO
GC2S32z4YEXMGcyIq9azlIlUpmUb2qUj4Od2js8gflLA48oggUrSpPFvvKeZKBrE
BxwJcGkU2Tud03+SNyJN22DFhsPVEaeasU3E2LMPfmrZWIiXEqs63/1dN/FWCHIx
zrZxWyf4sNGmPywmzpV8dpPDczKtOUB084CaNQrJ2D2gcWSVIzPrVrpoPBcXtZEY
XOUC16X6Lsmg5JfIcfngTtgrpPpzy6T3BPb2iNKq/NyBv4knkDYXXqvxD97bFBRs
TU86XxKgMeSj5FcD0uw+KMILqHOkAlHGtVbic8aJHGAJqb1xag0MslcI4vPnIsij
C06ZaOdpcliKrr6VF9diRO6zEm922/mBRHUqa3EDPUf8s7xQSGl7IugPAgMBAAEw
DQYJKoZIhvcNAQELBQADggIBAGIbajTiAKn6rWwLiKK225746PEO2VIPumldZj2l
9gDbC29i9FsaGaqYLnPlFYq5ylf7akFwcebpPY3pkfc3eAIEolFWrfRIgB9wqPxl
9Eu0cFWacOsnWg8OKFaG6679paRSQwURgV1BAJB34sQ42g2K+Tez/t9HNz6u+RIq
HvrKc44t5vYwVsexE22OJr8tL1tg9oswMnPB0a+gRrzIIMpzakxHVe77ZDQgw53X
fI1CH9nyaM++C+pM5p8u59FgTFjL9AS7Znljx0sD+xIpiBcMozmf6LEZ7ju/dz70
4XM85Bha9bF+OfGIpQIJjIr0U72e8ZADwfyqIb4a+gcS7KVFL0Xnc8af7s2NH60k
DfxQ1BRgQSRTQZ5DEaGSzkPb0LGn+oqFoUWvAGwUODAyhjHOZ1JFWLxxXYnv7vlr
ZKlo/1uKzqzP6JW9lR6lDlhkFFcXVAYTGX3oMCwXkZzjkHAD5vxd35Oll3a4618m
cKn/gVU5Y+4RkS4kGPvLAwXmvcksnfSFaa8MKZiOAFpFQWk1h10+iYCObYdrDjwD
j4yDMS6PrhiYnSRX/Od704OnE+aLjGZB6y6oGOzOzRSdu/3FhkYS+5+pj21aV6Nw
XmMkL5k2M42nvisMqcEk4ilrJMJRGvN/MJWxiR7ezVASSkz77YiOCkU3GEmjSXex
N+uU
-----END CERTIFICATE-----
