Certificate:
    Data:
        Version: 1 (0x0)
        Serial Number: 51 (0x33)
        Signature Algorithm: sha256WithRSAEncryption
        Issuer: C=fr, ST=idf, L=paris, O=vitamui, OU=authorities, CN=ca_intermediate_server
        Validity
            Not Before: Nov 23 16:59:38 2022 GMT
            Not After : Nov 22 16:59:38 2025 GMT
        Subject: C=fr, ST=idf, L=paris, O=vitamui, CN=dev.vitamui.com
        Subject Public Key Info:
            Public Key Algorithm: rsaEncryption
                RSA Public-Key: (4096 bit)
                Modulus:
                    00:db:96:c9:61:bc:6c:6c:28:9b:39:7d:52:18:b2:
                    c1:16:bd:a7:dc:ec:7a:1c:8c:74:79:48:dd:73:a3:
                    82:f0:68:43:4a:e3:16:fe:83:ca:60:24:9c:d8:cf:
                    02:98:13:2b:c2:2f:1f:2f:70:ec:6e:a1:98:7c:9c:
                    69:26:c6:1c:ff:0c:60:48:f7:38:03:cd:2a:c7:78:
                    53:28:76:40:7c:f4:13:d3:9f:68:43:9f:50:be:a2:
                    1a:80:7f:fd:47:3a:46:22:36:16:e3:63:1f:5e:84:
                    4a:91:e3:f7:39:b3:49:b9:41:5b:cd:e4:c4:c8:25:
                    aa:3b:4a:64:a1:5b:7d:c2:9b:1f:f3:1e:0f:d5:01:
                    d4:97:56:e5:0e:41:98:dc:11:ec:f8:66:3c:24:94:
                    8e:86:c0:07:0f:96:f4:5b:cf:fb:37:ff:d3:e5:46:
                    01:ba:d4:99:88:50:e2:11:f1:94:5d:d6:d1:fe:fb:
                    19:e0:05:e2:a1:fe:29:2a:73:9d:b7:e0:2c:ff:a9:
                    61:0c:90:76:ab:6e:e8:95:9b:72:62:05:f2:de:af:
                    01:fa:bd:3d:eb:b2:45:19:9a:38:48:95:e3:ed:b8:
                    ce:33:b9:88:e4:4d:11:52:13:09:b1:8b:ef:cf:a2:
                    5e:ab:45:0b:06:35:e0:26:00:43:56:90:5a:43:f7:
                    1c:e6:30:b3:be:b3:55:34:7c:5c:88:d8:44:e6:d8:
                    d3:78:0a:4c:3c:56:3f:53:3a:d8:0f:d6:67:7f:04:
                    be:9b:6f:05:69:8b:64:8c:a2:f3:ea:3a:1f:f1:61:
                    94:b8:66:ad:cb:66:06:74:8e:b5:12:8f:b9:64:f8:
                    fc:39:82:9c:c0:a5:a2:8e:e1:f5:8f:5e:29:8f:99:
                    10:39:d9:f7:a6:7f:95:cd:2c:76:5b:33:48:40:2a:
                    0d:35:cf:b8:44:d3:3b:e2:df:62:05:9e:8b:25:1b:
                    3a:07:22:0c:dc:35:0a:63:19:86:65:49:e9:9f:f9:
                    cf:c3:74:4d:38:af:11:56:5a:5e:17:6e:73:5a:a4:
                    c0:96:ac:4a:ec:91:c1:6c:97:33:73:d9:a1:64:af:
                    d9:2d:36:87:5c:b6:54:7d:ef:37:3c:38:e3:a7:92:
                    05:8b:36:08:aa:98:a1:6c:0a:d0:33:ec:42:7b:44:
                    ed:db:dd:ad:ac:f1:76:ae:80:8b:a9:5f:df:c9:44:
                    eb:cc:e9:b1:b8:e0:f1:23:9d:9b:2f:f7:90:3e:cc:
                    01:83:4c:3e:f2:10:43:00:26:ab:ba:b2:2c:b2:cf:
                    ae:d6:9a:e7:24:37:b5:59:73:f0:16:dc:c3:db:ae:
                    ca:02:c9:4c:53:15:6e:f5:0c:c2:15:1c:06:3a:63:
                    40:7d:1d
                Exponent: 65537 (0x10001)
    Signature Algorithm: sha256WithRSAEncryption
         6d:8e:4e:bd:21:12:f2:fb:04:a2:4b:6c:32:a3:4b:3c:eb:81:
         7d:fc:46:b7:49:9c:9a:36:30:a6:d9:7d:52:e9:75:58:07:54:
         8b:a0:ed:2e:43:cf:f6:a0:6b:67:37:0c:5c:2c:ce:4f:3f:cd:
         97:84:94:1a:59:9c:dc:06:39:ed:6b:32:7e:f1:6c:ba:69:d2:
         37:f0:91:0a:85:68:21:ee:38:a6:4e:db:4d:96:5e:78:80:8b:
         52:f4:45:e8:55:9c:19:13:e2:58:1c:83:be:76:01:9a:f1:d8:
         b8:b2:b4:3b:77:23:f4:e0:0e:43:68:61:04:ae:46:bc:f3:3e:
         bc:30:45:66:4e:c4:c0:1e:c2:75:a8:fd:3d:33:fe:4c:75:0e:
         21:ed:e4:11:5b:2f:c5:99:b6:97:12:de:9a:ef:bc:e1:3b:ed:
         67:10:0b:90:6b:9f:16:e4:e5:37:f9:a3:d2:e6:7f:1f:50:79:
         3b:b7:f6:c0:c6:50:cd:03:e6:ec:30:c9:12:6e:f1:13:90:60:
         52:bb:53:45:8c:2b:8f:70:6d:7d:b0:84:1d:9f:e5:72:9a:55:
         37:ae:42:8e:f5:3d:11:bb:be:30:69:0b:a8:5d:83:54:db:9e:
         ee:2c:c4:4c:19:9d:20:70:b8:2d:a9:fa:23:c0:57:60:61:f2:
         47:66:b9:0f:32:0f:e8:f9:b0:7c:72:f1:82:ac:b1:79:04:4f:
         1e:a9:4f:79:41:77:3a:79:96:b6:a0:69:c9:32:82:e2:9e:dd:
         97:b6:3c:7f:e2:e2:46:40:6a:9e:e2:fb:fa:7e:d4:7a:6d:3c:
         cf:c6:f2:66:f5:1e:99:4f:ff:1e:3a:3b:aa:ce:46:22:37:58:
         8a:7a:9f:b4:de:aa:ee:ec:4e:ae:8d:7a:df:ab:4d:e1:b0:74:
         30:e7:70:02:3f:70:bc:50:d3:bd:21:30:4a:4f:3c:73:9d:23:
         84:0a:78:e1:85:d4:cf:2a:eb:f4:33:d2:9f:86:03:27:92:e6:
         c0:99:b0:3a:3e:45:de:ea:4d:56:d6:5d:cc:a1:8b:20:5b:61:
         e3:89:b9:6c:12:7a:d6:5e:0b:3a:9a:9d:cb:73:d4:15:dd:15:
         e1:65:0c:f5:ea:57:76:9a:75:dc:ef:9f:1f:af:a2:ea:57:6f:
         f7:e7:35:c4:f3:f6:ad:75:dc:0f:13:4b:5c:fc:67:43:b2:43:
         95:5a:79:5e:c6:fc:42:b2:f3:61:f3:9c:5e:d2:f6:0a:ef:97:
         ce:28:78:ce:77:29:53:46:a3:e4:7b:c2:af:c0:02:c5:6f:29:
         a9:62:4b:bc:f3:d4:1b:95:ea:20:e0:1b:89:49:3c:9d:94:c8:
         e7:f4:0a:f7:bf:4a:ef:7f
-----BEGIN CERTIFICATE-----
MIIFPzCCAycCATMwDQYJKoZIhvcNAQELBQAwdDELMAkGA1UEBhMCZnIxDDAKBgNV
BAgMA2lkZjEOMAwGA1UEBwwFcGFyaXMxEDAOBgNVBAoMB3ZpdGFtdWkxFDASBgNV
BAsMC2F1dGhvcml0aWVzMR8wHQYDVQQDDBZjYV9pbnRlcm1lZGlhdGVfc2VydmVy
MB4XDTIyMTEyMzE2NTkzOFoXDTI1MTEyMjE2NTkzOFowVzELMAkGA1UEBhMCZnIx
DDAKBgNVBAgMA2lkZjEOMAwGA1UEBwwFcGFyaXMxEDAOBgNVBAoMB3ZpdGFtdWkx
GDAWBgNVBAMMD2Rldi52aXRhbXVpLmNvbTCCAiIwDQYJKoZIhvcNAQEBBQADggIP
ADCCAgoCggIBANuWyWG8bGwomzl9UhiywRa9p9zsehyMdHlI3XOjgvBoQ0rjFv6D
ymAknNjPApgTK8IvHy9w7G6hmHycaSbGHP8MYEj3OAPNKsd4Uyh2QHz0E9OfaEOf
UL6iGoB//Uc6RiI2FuNjH16ESpHj9zmzSblBW83kxMglqjtKZKFbfcKbH/MeD9UB
1JdW5Q5BmNwR7PhmPCSUjobABw+W9FvP+zf/0+VGAbrUmYhQ4hHxlF3W0f77GeAF
4qH+KSpznbfgLP+pYQyQdqtu6JWbcmIF8t6vAfq9PeuyRRmaOEiV4+24zjO5iORN
EVITCbGL78+iXqtFCwY14CYAQ1aQWkP3HOYws76zVTR8XIjYRObY03gKTDxWP1M6
2A/WZ38EvptvBWmLZIyi8+o6H/FhlLhmrctmBnSOtRKPuWT4/DmCnMCloo7h9Y9e
KY+ZEDnZ96Z/lc0sdlszSEAqDTXPuETTO+LfYgWeiyUbOgciDNw1CmMZhmVJ6Z/5
z8N0TTivEVZaXhduc1qkwJasSuyRwWyXM3PZoWSv2S02h1y2VH3vNzw446eSBYs2
CKqYoWwK0DPsQntE7dvdrazxdq6Ai6lf38lE68zpsbjg8SOdmy/3kD7MAYNMPvIQ
QwAmq7qyLLLPrtaa5yQ3tVlz8Bbcw9uuygLJTFMVbvUMwhUcBjpjQH0dAgMBAAEw
DQYJKoZIhvcNAQELBQADggIBAG2OTr0hEvL7BKJLbDKjSzzrgX38RrdJnJo2MKbZ
fVLpdVgHVIug7S5Dz/aga2c3DFwszk8/zZeElBpZnNwGOe1rMn7xbLpp0jfwkQqF
aCHuOKZO202WXniAi1L0RehVnBkT4lgcg752AZrx2LiytDt3I/TgDkNoYQSuRrzz
PrwwRWZOxMAewnWo/T0z/kx1DiHt5BFbL8WZtpcS3prvvOE77WcQC5Brnxbk5Tf5
o9Lmfx9QeTu39sDGUM0D5uwwyRJu8ROQYFK7U0WMK49wbX2whB2f5XKaVTeuQo71
PRG7vjBpC6hdg1Tbnu4sxEwZnSBwuC2p+iPAV2Bh8kdmuQ8yD+j5sHxy8YKssXkE
Tx6pT3lBdzp5lragackyguKe3Ze2PH/i4kZAap7i+/p+1HptPM/G8mb1HplP/x46
O6rORiI3WIp6n7Tequ7sTq6Net+rTeGwdDDncAI/cLxQ070hMEpPPHOdI4QKeOGF
1M8q6/Qz0p+GAyeS5sCZsDo+Rd7qTVbWXcyhiyBbYeOJuWwSetZeCzqanctz1BXd
FeFlDPXqV3aaddzvnx+voupXb/fnNcTz9q113A8TS1z8Z0OyQ5VaeV7G/EKy82Hz
nF7S9grvl84oeM53KVNGo+R7wq/AAsVvKaliS7zz1BuV6iDgG4lJPJ2UyOf0Cve/
Su9/
-----END CERTIFICATE-----
