Certificate:
    Data:
        Version: 1 (0x0)
        Serial Number: 146 (0x92)
    Signature Algorithm: sha256WithRSAEncryption
        Issuer: C=fr, ST=idf, L=paris, O=vitamui, OU=authorities, CN=ca_intermediate_server
        Validity
            Not Before: Dec  6 12:55:25 2021 GMT
            Not After : Dec  5 12:55:25 2024 GMT
        Subject: C=fr, ST=idf, L=paris, O=vitamui, CN=dev.vitamui.com
        Subject Public Key Info:
            Public Key Algorithm: rsaEncryption
                Public-Key: (4096 bit)
                Modulus:
                    00:bd:ef:3d:6c:08:08:79:35:ea:48:20:9d:16:9c:
                    08:b4:b1:b6:e8:fd:96:95:31:44:c8:56:d8:af:3b:
                    92:55:85:dd:39:f9:d5:d2:11:99:78:39:3e:8a:d4:
                    97:5a:ac:41:0b:f7:30:c0:96:1a:3a:9e:1a:c7:5c:
                    db:8e:2f:0e:de:37:79:d7:c8:2a:41:c9:94:60:a1:
                    1e:4d:94:7c:d0:d7:29:ed:26:e7:a2:7a:3a:0b:43:
                    2a:a2:8f:c3:ce:9c:e6:84:98:5a:5d:d2:98:1b:31:
                    b3:7a:4f:7a:76:af:a3:54:1a:2d:3d:30:c9:48:0c:
                    d3:7c:40:0a:ee:97:80:ac:4a:93:91:09:90:83:48:
                    0e:86:c1:eb:7a:e0:f0:49:89:21:9b:2e:e2:4d:4e:
                    c7:33:fc:17:75:7d:1a:f3:4a:c3:a0:09:dc:a3:5a:
                    14:5c:82:cc:a2:05:ef:69:28:ef:87:10:54:98:c2:
                    64:d4:23:6a:aa:b0:fa:4a:58:74:0b:39:dc:dd:fb:
                    ce:e8:7d:4e:ff:80:49:75:03:ac:35:87:fd:46:64:
                    71:93:9a:b9:e6:b5:c6:ee:57:ed:71:52:5c:b2:a1:
                    64:1d:7a:0e:b2:66:80:ed:47:ac:61:a0:f4:41:0d:
                    78:65:0a:b9:4d:25:80:a4:3b:dd:98:c7:65:c6:44:
                    3d:45:f6:eb:f7:14:e2:5b:4a:89:8b:18:c6:55:38:
                    39:1f:ca:5c:dd:43:7f:ac:7d:78:99:05:35:13:f3:
                    a3:aa:46:c1:60:2c:b9:63:44:53:88:88:4e:52:36:
                    6f:bb:28:f6:a7:e3:07:d2:30:92:19:92:e4:74:c1:
                    f6:aa:14:44:ad:28:7b:d8:6b:18:cf:71:8e:52:46:
                    4a:b1:76:6b:d4:ca:7e:10:06:02:3a:50:c3:f7:3d:
                    27:89:6a:8c:0d:8c:57:91:41:da:66:fe:da:63:fe:
                    08:81:a6:96:25:7e:6e:b0:90:40:95:c7:00:22:eb:
                    04:95:f9:da:87:90:4b:3f:d5:f2:3b:e7:28:b2:82:
                    48:c5:43:99:e2:9b:b4:d6:51:82:ae:72:c8:d6:2d:
                    4e:56:15:a0:b5:48:12:67:78:bb:5a:3a:99:48:33:
                    9a:7f:21:94:43:8a:23:46:7a:00:d7:bd:ad:bd:38:
                    e6:fc:89:69:ce:2e:d5:b1:ad:94:d4:06:cb:ea:5e:
                    22:61:ce:37:35:fb:31:74:19:36:df:d3:e9:7f:d4:
                    3b:07:56:d5:05:70:16:76:ee:70:1e:2c:f5:8f:e5:
                    c5:01:39:a3:b5:cf:e4:12:d0:54:ea:6e:e3:ca:ca:
                    c3:8c:0b:a5:35:33:27:fc:21:1c:4e:ef:f4:47:8c:
                    47:02:c9
                Exponent: 65537 (0x10001)
    Signature Algorithm: sha256WithRSAEncryption
         3b:b3:f7:5f:a1:a0:f4:5d:4f:9d:31:62:72:1f:0c:f5:79:fc:
         af:03:19:9d:c8:b9:df:09:d8:09:cd:34:be:2f:e1:6d:f3:91:
         b1:66:23:ff:63:16:98:3f:6a:8e:cf:23:06:af:56:73:b8:3f:
         98:20:81:39:de:cc:26:fd:a6:91:06:5e:19:d9:77:0b:5b:6b:
         fb:bf:6d:d9:d3:15:32:39:31:22:ae:8f:51:8c:26:fb:c9:65:
         8b:b8:0a:12:34:7c:15:9c:7f:8a:60:04:35:e7:8f:d5:cf:7b:
         cf:7b:8f:19:6f:1f:c0:5b:bb:a7:a4:51:e0:14:f6:e0:87:fe:
         43:f0:f3:db:8d:51:10:5a:2a:38:17:4d:bd:8f:2e:ed:98:33:
         ac:82:08:6f:ea:d6:9a:a9:52:01:1c:cb:4e:c1:ca:5f:e8:aa:
         5b:99:4e:9e:83:dd:ee:c2:88:36:aa:5a:28:c8:98:d8:99:a0:
         29:16:77:7d:d1:61:75:a9:5f:b8:37:40:ea:32:ed:8e:c9:7e:
         1d:b4:bb:7f:1d:0c:bd:65:a1:d9:ee:14:ba:d1:68:78:09:23:
         39:e8:c4:e9:84:c3:0c:fc:9e:59:28:7c:7d:cc:a4:76:b7:ff:
         e0:77:75:57:39:04:f1:f8:de:0b:d9:95:28:e9:82:db:96:46:
         84:d6:60:97:0c:7e:2e:59:98:c6:71:0e:8e:70:ca:e0:6f:16:
         be:37:50:08:a1:3d:28:4b:39:4b:d2:69:7d:85:b2:bd:d0:cd:
         a0:e7:08:43:57:c2:be:af:1c:8e:75:7e:cb:e1:a0:94:14:01:
         4a:d0:eb:91:28:80:cf:6b:be:a0:07:c6:52:c3:69:49:72:f6:
         e2:7b:be:7e:d8:f0:99:a5:83:f5:d3:75:2e:83:41:b0:80:ed:
         2a:05:1d:45:06:2a:30:43:0b:00:f4:ae:4d:ba:a4:3a:8f:0b:
         e8:fe:7c:00:9e:c9:57:cd:b0:49:a4:49:64:b5:4d:9b:b3:47:
         d2:50:13:1b:ed:57:0b:98:ed:9e:73:e7:89:df:44:38:49:99:
         36:28:39:2f:bc:76:c9:89:c1:d3:78:d6:62:7f:0c:36:9d:2e:
         7a:4e:b1:c5:75:ee:24:f3:9f:f9:72:43:6d:77:3c:e9:8b:95:
         68:eb:e6:e8:99:f5:1b:e9:09:f8:cd:5a:9f:04:e8:ea:c9:c3:
         1d:92:c5:b2:f0:56:e3:5c:7b:1a:95:dd:bc:a6:f8:de:2e:e1:
         ac:e1:12:10:f6:77:60:ff:26:43:d8:32:8f:3f:5f:05:fa:dc:
         ff:9b:af:d4:76:a3:48:8e:de:f3:d9:91:56:97:c2:ce:c6:20:
         39:14:0e:83:39:22:57:d5
-----BEGIN CERTIFICATE-----
MIIFQDCCAygCAgCSMA0GCSqGSIb3DQEBCwUAMHQxCzAJBgNVBAYTAmZyMQwwCgYD
VQQIDANpZGYxDjAMBgNVBAcMBXBhcmlzMRAwDgYDVQQKDAd2aXRhbXVpMRQwEgYD
VQQLDAthdXRob3JpdGllczEfMB0GA1UEAwwWY2FfaW50ZXJtZWRpYXRlX3NlcnZl
cjAeFw0yMTEyMDYxMjU1MjVaFw0yNDEyMDUxMjU1MjVaMFcxCzAJBgNVBAYTAmZy
MQwwCgYDVQQIDANpZGYxDjAMBgNVBAcMBXBhcmlzMRAwDgYDVQQKDAd2aXRhbXVp
MRgwFgYDVQQDDA9kZXYudml0YW11aS5jb20wggIiMA0GCSqGSIb3DQEBAQUAA4IC
DwAwggIKAoICAQC97z1sCAh5NepIIJ0WnAi0sbbo/ZaVMUTIVtivO5JVhd05+dXS
EZl4OT6K1JdarEEL9zDAlho6nhrHXNuOLw7eN3nXyCpByZRgoR5NlHzQ1yntJuei
ejoLQyqij8POnOaEmFpd0pgbMbN6T3p2r6NUGi09MMlIDNN8QArul4CsSpORCZCD
SA6Gwet64PBJiSGbLuJNTscz/Bd1fRrzSsOgCdyjWhRcgsyiBe9pKO+HEFSYwmTU
I2qqsPpKWHQLOdzd+87ofU7/gEl1A6w1h/1GZHGTmrnmtcbuV+1xUlyyoWQdeg6y
ZoDtR6xhoPRBDXhlCrlNJYCkO92Yx2XGRD1F9uv3FOJbSomLGMZVODkfylzdQ3+s
fXiZBTUT86OqRsFgLLljRFOIiE5SNm+7KPan4wfSMJIZkuR0wfaqFEStKHvYaxjP
cY5SRkqxdmvUyn4QBgI6UMP3PSeJaowNjFeRQdpm/tpj/giBppYlfm6wkECVxwAi
6wSV+dqHkEs/1fI75yiygkjFQ5nim7TWUYKucsjWLU5WFaC1SBJneLtaOplIM5p/
IZRDiiNGegDXva29OOb8iWnOLtWxrZTUBsvqXiJhzjc1+zF0GTbf0+l/1DsHVtUF
cBZ27nAeLPWP5cUBOaO1z+QS0FTqbuPKysOMC6U1Myf8IRxO7/RHjEcCyQIDAQAB
MA0GCSqGSIb3DQEBCwUAA4ICAQA7s/dfoaD0XU+dMWJyHwz1efyvAxmdyLnfCdgJ
zTS+L+Ft85GxZiP/YxaYP2qOzyMGr1ZzuD+YIIE53swm/aaRBl4Z2XcLW2v7v23Z
0xUyOTEiro9RjCb7yWWLuAoSNHwVnH+KYAQ154/Vz3vPe48Zbx/AW7unpFHgFPbg
h/5D8PPbjVEQWio4F029jy7tmDOsgghv6taaqVIBHMtOwcpf6KpbmU6eg93uwog2
qlooyJjYmaApFnd90WF1qV+4N0DqMu2OyX4dtLt/HQy9ZaHZ7hS60Wh4CSM56MTp
hMMM/J5ZKHx9zKR2t//gd3VXOQTx+N4L2ZUo6YLblkaE1mCXDH4uWZjGcQ6OcMrg
bxa+N1AIoT0oSzlL0ml9hbK90M2g5whDV8K+rxyOdX7L4aCUFAFK0OuRKIDPa76g
B8ZSw2lJcvbie75+2PCZpYP103Uug0GwgO0qBR1FBiowQwsA9K5NuqQ6jwvo/nwA
nslXzbBJpElktU2bs0fSUBMb7VcLmO2ec+eJ30Q4SZk2KDkvvHbJicHTeNZifww2
nS56TrHFde4k85/5ckNtdzzpi5Vo6+bomfUb6Qn4zVqfBOjqycMdksWy8FbjXHsa
ld28pvjeLuGs4RIQ9ndg/yZD2DKPP18F+tz/m6/UdqNIjt7z2ZFWl8LOxiA5FA6D
OSJX1Q==
-----END CERTIFICATE-----
