Certificate:
    Data:
        Version: 3 (0x2)
        Serial Number:
            0c:cb:fc:c3:a6:3f:21:c5:68:83:e3:fd:5d:2a:ab:1b
        Signature Algorithm: sha256WithRSAEncryption
        Issuer: C=fr, ST=idf, L=paris, O=vitamui, OU=authorities, CN=ca_root_vitamui
        Validity
            Not Before: Jan 14 14:01:52 2020 GMT
            Not After : Jan 13 14:01:52 2023 GMT
        Subject: C=fr, ST=idf, L=paris, O=vitamui, CN=dev.vitamui.com
        Subject Public Key Info:
            Public Key Algorithm: rsaEncryption
                RSA Public-Key: (4096 bit)
                Modulus:
                    00:bf:d0:f7:0c:a8:04:36:ea:6d:c5:b9:00:81:78:
                    6a:ad:7e:1b:36:19:15:db:2d:23:83:92:e3:d0:be:
                    84:89:e8:8f:b0:03:fe:91:e3:6c:3f:b3:ef:79:b2:
                    eb:d5:fc:86:93:62:e1:71:0e:c8:6b:ab:d1:59:6c:
                    2a:e5:71:53:f4:59:0e:70:a4:a6:6f:52:eb:68:29:
                    97:3f:a8:ec:d5:be:2f:dd:71:01:2d:fb:56:00:91:
                    d9:df:3a:e9:cf:f8:c6:26:08:1d:d2:31:ae:23:9a:
                    75:80:3d:f9:a8:26:81:27:94:54:27:7a:2c:cc:e6:
                    a2:55:5f:e7:23:f7:f0:98:cd:e5:c2:5e:e9:51:48:
                    0b:a9:cf:24:de:1d:15:c6:05:c4:e5:d3:55:8d:73:
                    16:26:42:cf:11:e2:76:f4:47:50:cc:5c:dc:16:65:
                    c1:48:fa:ee:1e:bd:32:4f:4d:c5:08:b8:8b:4b:63:
                    cc:7c:83:16:b9:66:dd:dc:f8:e5:23:86:f2:3a:40:
                    7f:9c:40:12:26:9c:d3:7b:7b:13:0c:ec:da:30:96:
                    6e:85:c2:62:ee:47:37:85:0e:bc:21:b5:a2:43:96:
                    29:01:64:9e:eb:a2:9c:ee:4c:19:4a:74:93:f7:12:
                    5c:23:62:53:20:cb:e6:ca:e6:d8:0b:7d:b8:be:7c:
                    76:15:b0:3c:1e:4f:30:ea:eb:a5:dd:4d:5a:fc:78:
                    14:24:99:23:5d:6c:80:a9:41:c0:0a:91:41:8e:a5:
                    67:da:05:9b:7f:95:fd:21:29:39:0f:ef:5b:5d:01:
                    0b:ca:1f:3b:47:07:f7:b5:65:52:be:90:7c:99:d8:
                    0e:bf:b1:79:b1:b8:13:ff:a6:82:a2:5b:e6:e7:21:
                    9b:6b:e9:79:87:4a:d1:98:82:51:fe:03:6b:4f:cc:
                    e8:97:3c:32:9b:36:ff:b5:42:e2:97:92:82:06:2f:
                    0b:fc:38:0b:f0:77:bf:10:bb:e2:c4:a5:8f:8b:d1:
                    eb:ef:7f:3f:fe:e9:f3:a4:f9:35:e4:c7:03:e7:f6:
                    60:29:73:25:c1:e5:a8:83:8e:04:39:2e:5b:34:40:
                    be:e3:6c:6a:c5:8c:b8:a7:33:11:05:30:28:8e:03:
                    d9:ec:3c:91:df:4d:e0:17:15:0e:a3:a7:10:e2:49:
                    58:27:ac:8f:79:e5:5f:3b:4d:c0:12:9a:27:7a:6e:
                    79:3d:24:51:ce:d2:13:02:1f:e1:8b:6f:5d:62:be:
                    c1:de:97:5f:48:b6:ec:9f:f3:5b:4f:49:00:a0:02:
                    bb:0d:19:1e:83:c2:7c:5a:02:93:83:9d:75:bb:ad:
                    c6:d4:30:b4:c0:19:c2:df:dd:3f:35:df:28:b3:8c:
                    fe:57:ef
                Exponent: 65537 (0x10001)
        X509v3 extensions:
            Netscape Comment: 
                Certificat SSL VITAMUI
            X509v3 Subject Key Identifier: 
                CC:2B:B4:A8:CD:9C:E6:1F:A7:D2:7B:11:FE:50:64:65:9C:D5:42:A4
            X509v3 Authority Key Identifier: 
                keyid:0D:42:D1:01:69:B1:6B:65:E1:AF:B4:00:37:89:2E:62:1C:5D:C3:FC
                DirName:/C=fr/ST=idf/L=paris/O=vitamui/OU=authorities/CN=ca_root_vitamui
                serial:0C:CB:FC:C3:A6:3F:21:C5:68:83:E3:FD:5D:2A:AB:16

            X509v3 Issuer Alternative Name: 
                <EMPTY>

            X509v3 Basic Constraints: critical
                CA:FALSE
    Signature Algorithm: sha256WithRSAEncryption
         b2:56:e6:1a:53:1b:0b:72:86:dc:fa:60:bc:98:48:4d:af:25:
         48:9b:af:07:3d:3b:34:9c:10:00:5e:6e:ee:5c:8d:c4:79:72:
         70:f9:a6:ca:a2:79:14:e8:be:70:30:c4:cc:46:be:01:c9:96:
         c1:a4:eb:4b:e8:18:a0:98:2e:6e:ee:08:3c:0f:28:17:b8:67:
         57:05:6f:cb:b4:74:58:08:e4:e6:d6:bd:55:a9:12:8e:55:c4:
         92:67:a5:01:65:e8:93:08:e9:88:84:54:e6:0c:f8:03:18:74:
         e3:da:a2:eb:e9:91:0d:a9:a7:28:4a:ad:b6:f1:8b:dc:87:b8:
         d7:f1:a2:01:12:82:eb:8e:09:fd:36:73:71:1f:e9:98:9d:ee:
         b6:ce:75:80:e1:58:1d:af:9c:8e:2f:2f:05:91:16:a9:26:e7:
         25:a7:e0:55:ad:c4:5e:83:7d:81:c8:36:c7:fa:00:43:e6:29:
         8e:8f:ec:c5:99:b6:65:1c:11:f8:34:0c:ed:77:97:0c:d2:55:
         76:cd:c5:f3:b2:2c:02:f7:2d:c5:48:aa:c5:d0:39:ca:9c:bd:
         81:35:fa:b1:e5:97:9b:98:3f:f9:06:c8:d1:ac:15:04:d2:b3:
         89:01:d8:ef:fa:28:fb:09:ff:a3:1f:04:03:f8:31:6a:f3:d1:
         2a:5f:16:6f:3e:49:49:bd:c3:aa:41:0d:8e:52:ac:92:37:2e:
         1e:90:1c:97:8b:78:f7:61:8b:62:d8:f1:e7:ec:2f:c2:99:50:
         07:b1:d2:90:e3:cc:29:4f:bb:a4:21:6b:b0:8b:55:f3:23:98:
         4f:df:68:40:4c:d4:8c:b8:d7:b9:0d:27:1e:aa:17:68:34:12:
         dc:da:6d:e6:5a:5c:3e:8c:0c:16:04:b8:e2:93:d6:c3:52:da:
         5d:36:11:82:37:1f:2a:45:cf:67:73:b4:75:44:66:d6:d8:ce:
         4c:d6:5b:85:25:db:f0:ee:3d:1d:94:de:dc:1f:ed:1c:18:4c:
         93:ba:0c:86:5a:96:6a:d8:7a:46:64:08:71:fa:fb:17:65:18:
         4c:fb:c4:6d:17:58:68:29:3f:eb:ef:8b:4f:87:7b:8c:3e:ed:
         b1:9a:67:c4:7c:1a:1f:a6:ae:95:ba:40:2a:97:8a:03:63:c6:
         ec:63:cf:d7:41:2c:48:16:5d:3a:5c:4b:93:67:32:de:e2:93:
         9b:13:e9:d8:28:00:be:5a:8b:9b:b1:5c:b2:8a:45:58:91:1a:
         fc:61:a3:67:33:6c:aa:71:13:1d:c1:c1:89:5d:45:78:29:49:
         7e:23:f0:38:17:0b:1c:f7:ab:b9:ce:ef:bb:e4:1a:6e:94:ac:
         da:3b:f0:19:53:c5:ea:6b
-----BEGIN CERTIFICATE-----
MIIGXDCCBESgAwIBAgIQDMv8w6Y/IcVog+P9XSqrGzANBgkqhkiG9w0BAQsFADBt
MQswCQYDVQQGEwJmcjEMMAoGA1UECAwDaWRmMQ4wDAYDVQQHDAVwYXJpczEQMA4G
A1UECgwHdml0YW11aTEUMBIGA1UECwwLYXV0aG9yaXRpZXMxGDAWBgNVBAMMD2Nh
X3Jvb3Rfdml0YW11aTAeFw0yMDAxMTQxNDAxNTJaFw0yMzAxMTMxNDAxNTJaMFcx
CzAJBgNVBAYTAmZyMQwwCgYDVQQIDANpZGYxDjAMBgNVBAcMBXBhcmlzMRAwDgYD
VQQKDAd2aXRhbXVpMRgwFgYDVQQDDA9kZXYudml0YW11aS5jb20wggIiMA0GCSqG
SIb3DQEBAQUAA4ICDwAwggIKAoICAQC/0PcMqAQ26m3FuQCBeGqtfhs2GRXbLSOD
kuPQvoSJ6I+wA/6R42w/s+95suvV/IaTYuFxDshrq9FZbCrlcVP0WQ5wpKZvUuto
KZc/qOzVvi/dcQEt+1YAkdnfOunP+MYmCB3SMa4jmnWAPfmoJoEnlFQneizM5qJV
X+cj9/CYzeXCXulRSAupzyTeHRXGBcTl01WNcxYmQs8R4nb0R1DMXNwWZcFI+u4e
vTJPTcUIuItLY8x8gxa5Zt3c+OUjhvI6QH+cQBImnNN7exMM7Nowlm6FwmLuRzeF
DrwhtaJDlikBZJ7ropzuTBlKdJP3ElwjYlMgy+bK5tgLfbi+fHYVsDweTzDq66Xd
TVr8eBQkmSNdbICpQcAKkUGOpWfaBZt/lf0hKTkP71tdAQvKHztHB/e1ZVK+kHyZ
2A6/sXmxuBP/poKiW+bnIZtr6XmHStGYglH+A2tPzOiXPDKbNv+1QuKXkoIGLwv8
OAvwd78Qu+LEpY+L0evvfz/+6fOk+TXkxwPn9mApcyXB5aiDjgQ5Lls0QL7jbGrF
jLinMxEFMCiOA9nsPJHfTeAXFQ6jpxDiSVgnrI955V87TcASmid6bnk9JFHO0hMC
H+GLb11ivsHel19Ituyf81tPSQCgArsNGR6DwnxaApODnXW7rcbUMLTAGcLf3T81
3yizjP5X7wIDAQABo4IBDDCCAQgwJQYJYIZIAYb4QgENBBgWFkNlcnRpZmljYXQg
U1NMIFZJVEFNVUkwHQYDVR0OBBYEFMwrtKjNnOYfp9J7Ef5QZGWc1UKkMIGmBgNV
HSMEgZ4wgZuAFA1C0QFpsWtl4a+0ADeJLmIcXcP8oXGkbzBtMQswCQYDVQQGEwJm
cjEMMAoGA1UECAwDaWRmMQ4wDAYDVQQHDAVwYXJpczEQMA4GA1UECgwHdml0YW11
aTEUMBIGA1UECwwLYXV0aG9yaXRpZXMxGDAWBgNVBAMMD2NhX3Jvb3Rfdml0YW11
aYIQDMv8w6Y/IcVog+P9XSqrFjAJBgNVHRIEAjAAMAwGA1UdEwEB/wQCMAAwDQYJ
KoZIhvcNAQELBQADggIBALJW5hpTGwtyhtz6YLyYSE2vJUibrwc9OzScEABebu5c
jcR5cnD5psqieRTovnAwxMxGvgHJlsGk60voGKCYLm7uCDwPKBe4Z1cFb8u0dFgI
5ObWvVWpEo5VxJJnpQFl6JMI6YiEVOYM+AMYdOPaouvpkQ2ppyhKrbbxi9yHuNfx
ogESguuOCf02c3Ef6Zid7rbOdYDhWB2vnI4vLwWRFqkm5yWn4FWtxF6DfYHINsf6
AEPmKY6P7MWZtmUcEfg0DO13lwzSVXbNxfOyLAL3LcVIqsXQOcqcvYE1+rHll5uY
P/kGyNGsFQTSs4kB2O/6KPsJ/6MfBAP4MWrz0SpfFm8+SUm9w6pBDY5SrJI3Lh6Q
HJeLePdhi2LY8efsL8KZUAex0pDjzClPu6Qha7CLVfMjmE/faEBM1Iy417kNJx6q
F2g0EtzabeZaXD6MDBYEuOKT1sNS2l02EYI3HypFz2dztHVEZtbYzkzWW4Ul2/Du
PR2U3twf7RwYTJO6DIZalmrYekZkCHH6+xdlGEz7xG0XWGgpP+vvi0+He4w+7bGa
Z8R8Gh+mrpW6QCqXigNjxuxjz9dBLEgWXTpcS5NnMt7ik5sT6dgoAL5ai5uxXLKK
RViRGvxho2czbKpxEx3BwYldRXgpSX4j8DgXCxz3q7nO77vkGm6UrNo78BlTxepr
-----END CERTIFICATE-----
