Certificate:
    Data:
        Version: 3 (0x2)
        Serial Number:
            0c:cb:fc:c3:a6:3f:21:c5:68:83:e3:fd:5d:2a:ab:1d
        Signature Algorithm: sha256WithRSAEncryption
        Issuer: C=fr, ST=idf, L=paris, O=vitamui, OU=authorities, CN=ca_root_vitamui
        Validity
            Not Before: Jan 14 14:01:54 2020 GMT
            Not After : Jan 13 14:01:54 2023 GMT
        Subject: C=fr, ST=idf, L=paris, O=vitamui, CN=*.vitamui.com
        Subject Public Key Info:
            Public Key Algorithm: rsaEncryption
                RSA Public-Key: (4096 bit)
                Modulus:
                    00:b3:98:9d:06:6b:ff:9e:89:45:9a:6a:70:45:5f:
                    85:af:ef:95:d5:f6:dc:92:ef:53:5b:24:c6:15:3e:
                    33:ac:96:13:39:1e:06:ba:66:82:a1:5d:4a:74:b0:
                    c6:bb:28:30:29:5b:a1:9f:3a:08:a4:37:c6:ab:bf:
                    d6:7e:bf:f2:93:a1:e0:d1:66:ec:47:6b:41:1e:c4:
                    f9:f6:56:82:88:63:6d:c0:03:6c:07:63:09:d0:de:
                    56:42:05:2b:0c:8a:95:6f:25:35:bd:2b:63:de:2e:
                    3b:51:44:99:17:c3:3a:9b:82:d4:39:1f:cb:16:1a:
                    a4:1f:be:fa:ca:46:6c:7c:82:a9:80:87:56:ed:6d:
                    f9:01:0a:30:da:d9:71:17:c0:c4:d0:1d:f4:c5:27:
                    0e:a7:f7:a1:9e:41:ec:79:61:c5:98:1e:a1:28:7d:
                    9a:bb:8e:0c:46:16:22:d7:97:61:1a:fb:42:cc:97:
                    a6:7e:51:c2:48:ec:59:ea:9d:b0:bc:fa:25:61:b6:
                    26:1f:40:36:0b:29:f8:6f:d2:2e:37:62:2c:5c:49:
                    85:8d:06:3b:67:41:dd:ef:00:72:78:22:f2:eb:b5:
                    52:40:e2:74:bf:b9:d1:15:d4:21:d0:8d:1b:78:8c:
                    c8:ac:a2:34:16:a1:3a:81:9c:bf:3a:f6:1e:be:75:
                    f5:9e:d1:42:19:1b:a5:cf:bd:32:5b:50:d8:09:34:
                    fb:8a:a8:62:c5:2e:88:1e:6a:05:2f:eb:d0:e7:6a:
                    4b:af:60:11:eb:e0:a7:6b:3e:63:9d:94:c2:99:5c:
                    87:61:ca:b3:15:da:07:94:c9:20:1d:68:5e:26:76:
                    93:fa:72:75:9b:68:a3:70:e4:cb:e1:1a:4c:6d:ba:
                    ec:b5:2a:27:c5:02:cc:2d:96:d3:21:33:79:d3:7d:
                    7e:78:f7:72:97:38:55:a8:45:b3:03:df:7d:90:fe:
                    18:44:f5:db:d7:8a:f6:95:4d:3d:af:16:f1:99:41:
                    a3:2f:18:9b:8c:f6:b8:82:31:0a:af:d2:f2:23:4c:
                    31:0b:15:ca:01:24:3f:b9:1a:15:02:d5:f2:5d:fc:
                    dc:40:97:aa:b5:3b:52:0e:87:7d:ea:ff:34:39:04:
                    66:b9:21:f9:f4:40:50:fe:00:9d:34:95:38:44:18:
                    87:f0:3f:2c:94:fe:eb:b7:1e:e3:9f:45:58:3a:5a:
                    60:99:79:ad:9c:89:f0:a5:22:2c:67:21:91:d5:26:
                    14:61:eb:74:0a:a2:f4:c0:32:8d:1d:ff:f5:65:44:
                    c4:39:5c:78:3a:94:6b:08:13:e2:f4:0a:41:da:73:
                    8e:1a:20:0e:d3:83:fe:98:1e:12:98:d1:5b:a2:0e:
                    62:f4:7f
                Exponent: 65537 (0x10001)
        X509v3 extensions:
            Netscape Comment: 
                Certificat SSL VITAMUI
            X509v3 Subject Key Identifier: 
                5D:52:30:C1:57:56:E1:E0:94:BC:87:24:24:00:C9:FF:1C:27:96:E4
            X509v3 Authority Key Identifier: 
                keyid:0D:42:D1:01:69:B1:6B:65:E1:AF:B4:00:37:89:2E:62:1C:5D:C3:FC
                DirName:/C=fr/ST=idf/L=paris/O=vitamui/OU=authorities/CN=ca_root_vitamui
                serial:0C:CB:FC:C3:A6:3F:21:C5:68:83:E3:FD:5D:2A:AB:16

            X509v3 Issuer Alternative Name: 
                <EMPTY>

            X509v3 Basic Constraints: critical
                CA:FALSE
    Signature Algorithm: sha256WithRSAEncryption
         0f:21:0f:39:8d:37:ef:9c:78:71:2f:85:ee:0f:f0:55:fe:4b:
         7e:93:c1:14:a8:71:b4:9e:35:7f:1e:cc:fb:21:b1:d5:6c:40:
         16:55:73:77:13:89:92:2e:54:24:c5:e1:74:4f:8a:3b:09:9c:
         75:1e:0e:78:97:07:a1:a2:36:83:23:7c:1d:58:43:fd:9c:59:
         32:45:d0:1d:48:87:fd:53:11:92:bc:4e:81:57:6a:6e:34:1b:
         b1:20:8b:89:93:cc:98:7b:63:50:b2:f4:77:dc:dd:4d:d9:00:
         7e:35:60:f4:8d:06:04:7d:44:7f:f2:9a:e5:9c:f6:0d:7f:cf:
         89:8c:11:d5:62:37:dc:9c:0f:22:21:24:b2:70:9c:d6:34:d5:
         c9:17:cc:8d:7a:ef:a7:6f:4a:86:43:b1:18:1e:df:95:88:fc:
         40:4d:9d:b3:b6:43:33:c1:ee:59:c3:d4:85:fd:12:fc:b0:71:
         6e:e6:50:97:d4:e2:82:a2:6f:0f:45:f6:d0:d9:2f:ba:57:fb:
         3e:58:7e:37:39:27:f9:c3:68:f5:d3:02:15:31:40:06:1f:5b:
         18:cc:2c:97:c5:57:44:18:2d:23:65:4e:d0:62:c0:ae:ad:7e:
         83:37:6c:29:6a:6a:97:11:ef:3a:9f:e0:67:57:40:ba:3d:ac:
         7a:28:7f:f9:7f:25:0b:63:83:8b:94:1a:b3:a3:25:ab:f5:25:
         e6:9c:d2:31:d6:bd:5e:4b:94:7f:64:46:e6:3d:89:32:ca:4a:
         cd:9d:d9:5f:bb:51:29:6d:c4:01:cf:b7:64:e2:38:37:13:cd:
         e5:48:3d:c8:47:2c:da:63:a9:22:86:bd:62:bd:56:03:0d:b2:
         15:dc:97:77:f2:40:d4:7b:63:cf:9c:99:35:2c:7c:8b:37:7f:
         74:54:02:5c:b2:d6:d8:c8:fa:35:6f:7d:19:ef:54:3e:cb:b9:
         c2:2f:93:7e:11:05:a5:77:87:3e:0a:49:6b:0a:c5:4e:c3:2b:
         6d:48:62:d9:61:8d:66:7a:3a:09:1f:c1:bf:b3:69:53:42:d8:
         68:bc:19:cc:ef:c8:d5:24:f1:98:ac:fc:27:71:7e:e2:15:b9:
         ec:38:f1:fe:4b:1d:62:e8:2f:eb:dc:05:8a:c6:ff:4c:b4:bc:
         22:9b:8b:aa:ec:9d:ad:cb:f1:f3:f1:cd:c6:68:8f:59:5d:24:
         7b:d0:7f:f9:5f:fd:28:3b:fe:17:7a:4f:74:12:fb:2d:8d:b8:
         bc:28:b7:42:78:8c:ae:7e:30:52:61:c6:9c:48:96:11:e3:97:
         41:f6:25:fa:ed:d7:33:50:6c:e8:52:92:2d:5b:30:96:65:7b:
         71:70:95:2b:82:9c:28:f9
-----BEGIN CERTIFICATE-----
MIIGWjCCBEKgAwIBAgIQDMv8w6Y/IcVog+P9XSqrHTANBgkqhkiG9w0BAQsFADBt
MQswCQYDVQQGEwJmcjEMMAoGA1UECAwDaWRmMQ4wDAYDVQQHDAVwYXJpczEQMA4G
A1UECgwHdml0YW11aTEUMBIGA1UECwwLYXV0aG9yaXRpZXMxGDAWBgNVBAMMD2Nh
X3Jvb3Rfdml0YW11aTAeFw0yMDAxMTQxNDAxNTRaFw0yMzAxMTMxNDAxNTRaMFUx
CzAJBgNVBAYTAmZyMQwwCgYDVQQIDANpZGYxDjAMBgNVBAcMBXBhcmlzMRAwDgYD
VQQKDAd2aXRhbXVpMRYwFAYDVQQDDA0qLnZpdGFtdWkuY29tMIICIjANBgkqhkiG
9w0BAQEFAAOCAg8AMIICCgKCAgEAs5idBmv/nolFmmpwRV+Fr++V1fbcku9TWyTG
FT4zrJYTOR4GumaCoV1KdLDGuygwKVuhnzoIpDfGq7/Wfr/yk6Hg0WbsR2tBHsT5
9laCiGNtwANsB2MJ0N5WQgUrDIqVbyU1vStj3i47UUSZF8M6m4LUOR/LFhqkH776
ykZsfIKpgIdW7W35AQow2tlxF8DE0B30xScOp/ehnkHseWHFmB6hKH2au44MRhYi
15dhGvtCzJemflHCSOxZ6p2wvPolYbYmH0A2Cyn4b9IuN2IsXEmFjQY7Z0Hd7wBy
eCLy67VSQOJ0v7nRFdQh0I0beIzIrKI0FqE6gZy/OvYevnX1ntFCGRulz70yW1DY
CTT7iqhixS6IHmoFL+vQ52pLr2AR6+Cnaz5jnZTCmVyHYcqzFdoHlMkgHWheJnaT
+nJ1m2ijcOTL4RpMbbrstSonxQLMLZbTITN5031+ePdylzhVqEWzA999kP4YRPXb
14r2lU09rxbxmUGjLxibjPa4gjEKr9LyI0wxCxXKASQ/uRoVAtXyXfzcQJeqtTtS
Dod96v80OQRmuSH59EBQ/gCdNJU4RBiH8D8slP7rtx7jn0VYOlpgmXmtnInwpSIs
ZyGR1SYUYet0CqL0wDKNHf/1ZUTEOVx4OpRrCBPi9ApB2nOOGiAO04P+mB4SmNFb
og5i9H8CAwEAAaOCAQwwggEIMCUGCWCGSAGG+EIBDQQYFhZDZXJ0aWZpY2F0IFNT
TCBWSVRBTVVJMB0GA1UdDgQWBBRdUjDBV1bh4JS8hyQkAMn/HCeW5DCBpgYDVR0j
BIGeMIGbgBQNQtEBabFrZeGvtAA3iS5iHF3D/KFxpG8wbTELMAkGA1UEBhMCZnIx
DDAKBgNVBAgMA2lkZjEOMAwGA1UEBwwFcGFyaXMxEDAOBgNVBAoMB3ZpdGFtdWkx
FDASBgNVBAsMC2F1dGhvcml0aWVzMRgwFgYDVQQDDA9jYV9yb290X3ZpdGFtdWmC
EAzL/MOmPyHFaIPj/V0qqxYwCQYDVR0SBAIwADAMBgNVHRMBAf8EAjAAMA0GCSqG
SIb3DQEBCwUAA4ICAQAPIQ85jTfvnHhxL4XuD/BV/kt+k8EUqHG0njV/Hsz7IbHV
bEAWVXN3E4mSLlQkxeF0T4o7CZx1Hg54lwehojaDI3wdWEP9nFkyRdAdSIf9UxGS
vE6BV2puNBuxIIuJk8yYe2NQsvR33N1N2QB+NWD0jQYEfUR/8prlnPYNf8+JjBHV
YjfcnA8iISSycJzWNNXJF8yNeu+nb0qGQ7EYHt+ViPxATZ2ztkMzwe5Zw9SF/RL8
sHFu5lCX1OKCom8PRfbQ2S+6V/s+WH43OSf5w2j10wIVMUAGH1sYzCyXxVdEGC0j
ZU7QYsCurX6DN2wpamqXEe86n+BnV0C6Pax6KH/5fyULY4OLlBqzoyWr9SXmnNIx
1r1eS5R/ZEbmPYkyykrNndlfu1EpbcQBz7dk4jg3E83lSD3IRyzaY6kihr1ivVYD
DbIV3Jd38kDUe2PPnJk1LHyLN390VAJcstbYyPo1b30Z71Q+y7nCL5N+EQWld4c+
CklrCsVOwyttSGLZYY1mejoJH8G/s2lTQthovBnM78jVJPGYrPwncX7iFbnsOPH+
Sx1i6C/r3AWKxv9MtLwim4uq7J2ty/Hz8c3GaI9ZXSR70H/5X/0oO/4Xek90Evst
jbi8KLdCeIyufjBSYcacSJYR45dB9iX67dczUGzoUpItWzCWZXtxcJUrgpwo+Q==
-----END CERTIFICATE-----
