Certificate:
    Data:
        Version: 3 (0x2)
        Serial Number:
            0c:cb:fc:c3:a6:3f:21:c5:68:83:e3:fd:5d:2a:ab:1c
        Signature Algorithm: sha256WithRSAEncryption
        Issuer: C=fr, ST=idf, L=paris, O=vitamui, OU=authorities, CN=ca_root_vitamui
        Validity
            Not Before: Jan 14 14:01:53 2020 GMT
            Not After : Jan 13 14:01:53 2023 GMT
        Subject: C=fr, ST=idf, L=paris, O=vitamui, CN=dev.vitamui.com
        Subject Public Key Info:
            Public Key Algorithm: rsaEncryption
                RSA Public-Key: (4096 bit)
                Modulus:
                    00:d1:ab:51:87:7a:b3:bd:0c:38:84:3f:d8:44:d0:
                    b4:04:bb:67:a8:9d:9d:04:01:47:ed:0e:8f:1d:fb:
                    d3:62:3b:8b:0e:fd:0e:1b:7f:8b:4d:4c:c2:38:ee:
                    7d:b0:0b:40:e7:ac:40:e3:c5:8c:a4:cd:65:c0:c8:
                    23:a6:1c:6b:3d:f1:cd:1e:db:68:2b:49:68:7a:fb:
                    eb:1b:c2:10:6c:ce:dd:d3:17:cc:bf:ac:d9:02:b7:
                    81:0b:20:d5:0b:de:f7:13:25:ed:be:36:d3:dc:16:
                    9f:0a:a6:2b:e2:b5:a6:3c:82:a3:fa:c1:e2:26:c8:
                    1b:42:06:03:9c:49:43:1f:c1:76:9d:c6:91:0f:c7:
                    96:ee:e8:64:31:4e:98:8f:9a:74:46:44:04:9f:13:
                    b5:ae:c2:23:c0:7f:20:e8:28:87:87:d0:ab:73:78:
                    b3:3a:6b:0d:36:66:34:c1:19:2f:75:13:46:11:a9:
                    7b:0d:fb:55:89:14:b2:38:d5:4e:ed:60:bd:a0:78:
                    35:ab:4d:03:5d:06:e4:78:0d:57:2d:8a:02:3b:dd:
                    e0:1c:af:81:40:05:00:bd:da:90:33:5d:7e:ec:96:
                    3d:dc:36:76:d7:be:95:9b:74:f3:c3:e9:71:86:53:
                    5a:33:1e:34:89:e4:8c:da:78:1a:0a:d8:a4:7b:0a:
                    fa:23:90:7d:fc:96:65:d7:72:90:63:33:00:9e:4e:
                    a6:0c:29:5c:fc:19:ab:3b:3d:9a:c8:37:85:7b:ff:
                    31:83:5e:58:71:4a:a1:f0:26:0b:d5:64:be:04:ef:
                    d1:41:8f:43:d6:95:5a:ad:cc:6b:46:fd:d2:c9:1e:
                    20:cc:73:06:e5:55:f7:f3:ad:56:14:2d:90:e7:0a:
                    34:69:68:c5:26:1a:09:bd:3b:02:bf:55:10:e8:78:
                    41:f4:80:7e:e4:9f:86:74:0c:30:e6:2b:4b:24:d6:
                    ab:73:fd:c6:42:4e:a9:34:b5:28:98:59:25:c4:cd:
                    af:ab:5b:da:8c:c9:4c:49:7c:cf:1b:e2:f1:e1:7d:
                    27:75:88:f4:51:38:d5:8f:28:52:d3:4d:51:be:9a:
                    57:cb:37:5e:fb:dc:58:fe:56:38:1e:24:3b:97:15:
                    71:bc:b7:cd:78:49:77:40:9b:12:e9:8f:4e:ed:aa:
                    8f:48:8c:56:47:17:9f:49:b9:e5:f7:81:5b:fd:14:
                    92:c6:a2:a7:97:56:00:f8:43:44:5f:b8:07:ff:f7:
                    bd:4b:39:7a:60:40:21:09:9d:60:28:7f:af:b6:da:
                    57:1c:2d:ab:3f:8c:5b:6e:62:34:9c:cd:07:c2:aa:
                    21:42:f4:e7:c5:61:9d:29:e5:4b:b2:8d:b4:bb:83:
                    ae:87:77
                Exponent: 65537 (0x10001)
        X509v3 extensions:
            Netscape Comment: 
                Certificat SSL VITAMUI
            X509v3 Subject Key Identifier: 
                B7:B8:F7:39:1A:EB:EB:D8:36:E9:8C:85:B7:39:D6:A4:05:02:3F:B6
            X509v3 Authority Key Identifier: 
                keyid:0D:42:D1:01:69:B1:6B:65:E1:AF:B4:00:37:89:2E:62:1C:5D:C3:FC
                DirName:/C=fr/ST=idf/L=paris/O=vitamui/OU=authorities/CN=ca_root_vitamui
                serial:0C:CB:FC:C3:A6:3F:21:C5:68:83:E3:FD:5D:2A:AB:16

            X509v3 Issuer Alternative Name: 
                <EMPTY>

            X509v3 Basic Constraints: critical
                CA:FALSE
    Signature Algorithm: sha256WithRSAEncryption
         6c:66:14:ba:15:41:f8:8c:02:e7:60:b1:65:eb:45:e3:8d:a3:
         21:63:29:42:45:0c:4d:50:e1:85:6f:95:c5:47:24:a0:44:82:
         07:e1:30:86:4a:18:d5:63:85:7f:f1:3a:fb:9e:94:93:78:de:
         33:31:87:72:f3:ae:3f:01:e5:0f:e6:f4:7c:ca:ff:47:a5:e6:
         b9:39:99:00:a0:00:0d:e9:2a:32:30:e7:84:46:75:36:7b:7d:
         12:41:f1:b8:3b:ea:88:fe:bc:0a:ed:db:95:80:d3:15:f8:25:
         58:ad:c6:f4:6c:2b:02:7e:31:ec:5a:98:d2:f2:52:ae:43:0a:
         1c:8c:21:52:08:7c:c5:a9:55:d4:3a:5a:ae:b5:be:36:28:9e:
         59:d0:79:71:a4:e2:bc:c0:ee:21:7f:d7:a0:24:5e:38:d9:38:
         35:ba:02:41:b0:16:86:76:67:fb:04:6f:95:44:8c:88:06:ad:
         be:fb:95:33:ba:0f:a9:8f:13:17:55:0d:08:f2:a4:ce:ca:0e:
         0d:be:7d:fc:7e:01:69:93:48:d6:68:b4:a9:ae:3c:01:0c:74:
         a9:91:7b:45:80:03:22:6b:96:e3:9c:9f:65:1c:71:5b:25:32:
         8d:46:97:34:3c:e4:d7:42:6d:6a:5d:cb:f4:23:9c:c3:6a:48:
         fa:ea:7b:e4:43:56:9b:a0:9c:0e:2a:81:83:f2:d0:d1:ca:39:
         df:c6:a6:14:81:18:ca:5a:23:75:60:ae:cc:93:35:0b:46:9b:
         ee:a4:c6:5b:ba:11:23:64:72:fd:62:18:1a:04:5a:cf:e3:91:
         5a:5b:bb:1e:d6:f8:d1:f5:3c:0c:de:52:09:2b:35:84:dc:2c:
         f3:1b:72:48:94:d2:0b:89:57:65:c7:48:c6:8e:c8:fc:5c:e0:
         dd:4f:69:de:2c:f3:1d:32:db:d5:47:3a:bf:60:21:a2:50:ce:
         9e:bd:18:95:52:4e:f7:f6:4b:41:fb:69:90:0f:64:d4:8a:7f:
         4e:cf:ed:87:c8:62:97:5b:6f:12:59:dd:02:a1:21:7a:10:44:
         1a:68:09:0b:f4:90:93:fd:ce:91:61:73:41:08:1c:62:43:ba:
         e2:44:d3:f2:8a:f7:aa:b8:cc:cb:01:a7:97:e5:a4:c0:84:fb:
         64:ab:0b:40:e8:47:29:12:02:2d:ea:3a:73:ec:ea:12:2c:d3:
         86:67:c2:cc:2b:4e:78:33:98:38:fc:c8:5d:35:ea:ab:4f:f6:
         60:34:e1:8e:c6:57:ba:92:6d:01:69:9c:f8:69:96:5e:2b:f4:
         f9:48:17:8c:d5:b4:3f:24:95:02:4a:98:24:6b:c8:3e:41:df:
         51:cd:62:a5:ee:94:84:b5
-----BEGIN CERTIFICATE-----
MIIGXDCCBESgAwIBAgIQDMv8w6Y/IcVog+P9XSqrHDANBgkqhkiG9w0BAQsFADBt
MQswCQYDVQQGEwJmcjEMMAoGA1UECAwDaWRmMQ4wDAYDVQQHDAVwYXJpczEQMA4G
A1UECgwHdml0YW11aTEUMBIGA1UECwwLYXV0aG9yaXRpZXMxGDAWBgNVBAMMD2Nh
X3Jvb3Rfdml0YW11aTAeFw0yMDAxMTQxNDAxNTNaFw0yMzAxMTMxNDAxNTNaMFcx
CzAJBgNVBAYTAmZyMQwwCgYDVQQIDANpZGYxDjAMBgNVBAcMBXBhcmlzMRAwDgYD
VQQKDAd2aXRhbXVpMRgwFgYDVQQDDA9kZXYudml0YW11aS5jb20wggIiMA0GCSqG
SIb3DQEBAQUAA4ICDwAwggIKAoICAQDRq1GHerO9DDiEP9hE0LQEu2eonZ0EAUft
Do8d+9NiO4sO/Q4bf4tNTMI47n2wC0DnrEDjxYykzWXAyCOmHGs98c0e22grSWh6
++sbwhBszt3TF8y/rNkCt4ELINUL3vcTJe2+NtPcFp8KpivitaY8gqP6weImyBtC
BgOcSUMfwXadxpEPx5bu6GQxTpiPmnRGRASfE7WuwiPAfyDoKIeH0KtzeLM6aw02
ZjTBGS91E0YRqXsN+1WJFLI41U7tYL2geDWrTQNdBuR4DVctigI73eAcr4FABQC9
2pAzXX7slj3cNnbXvpWbdPPD6XGGU1ozHjSJ5IzaeBoK2KR7CvojkH38lmXXcpBj
MwCeTqYMKVz8Gas7PZrIN4V7/zGDXlhxSqHwJgvVZL4E79FBj0PWlVqtzGtG/dLJ
HiDMcwblVffzrVYULZDnCjRpaMUmGgm9OwK/VRDoeEH0gH7kn4Z0DDDmK0sk1qtz
/cZCTqk0tSiYWSXEza+rW9qMyUxJfM8b4vHhfSd1iPRRONWPKFLTTVG+mlfLN177
3Fj+VjgeJDuXFXG8t814SXdAmxLpj07tqo9IjFZHF59JueX3gVv9FJLGoqeXVgD4
Q0RfuAf/971LOXpgQCEJnWAof6+22lccLas/jFtuYjSczQfCqiFC9OfFYZ0p5Uuy
jbS7g66HdwIDAQABo4IBDDCCAQgwJQYJYIZIAYb4QgENBBgWFkNlcnRpZmljYXQg
U1NMIFZJVEFNVUkwHQYDVR0OBBYEFLe49zka6+vYNumMhbc51qQFAj+2MIGmBgNV
HSMEgZ4wgZuAFA1C0QFpsWtl4a+0ADeJLmIcXcP8oXGkbzBtMQswCQYDVQQGEwJm
cjEMMAoGA1UECAwDaWRmMQ4wDAYDVQQHDAVwYXJpczEQMA4GA1UECgwHdml0YW11
aTEUMBIGA1UECwwLYXV0aG9yaXRpZXMxGDAWBgNVBAMMD2NhX3Jvb3Rfdml0YW11
aYIQDMv8w6Y/IcVog+P9XSqrFjAJBgNVHRIEAjAAMAwGA1UdEwEB/wQCMAAwDQYJ
KoZIhvcNAQELBQADggIBAGxmFLoVQfiMAudgsWXrReONoyFjKUJFDE1Q4YVvlcVH
JKBEggfhMIZKGNVjhX/xOvuelJN43jMxh3Lzrj8B5Q/m9HzK/0el5rk5mQCgAA3p
KjIw54RGdTZ7fRJB8bg76oj+vArt25WA0xX4JVitxvRsKwJ+MexamNLyUq5DChyM
IVIIfMWpVdQ6Wq61vjYonlnQeXGk4rzA7iF/16AkXjjZODW6AkGwFoZ2Z/sEb5VE
jIgGrb77lTO6D6mPExdVDQjypM7KDg2+ffx+AWmTSNZotKmuPAEMdKmRe0WAAyJr
luOcn2UccVslMo1GlzQ85NdCbWpdy/QjnMNqSPrqe+RDVpugnA4qgYPy0NHKOd/G
phSBGMpaI3VgrsyTNQtGm+6kxlu6ESNkcv1iGBoEWs/jkVpbux7W+NH1PAzeUgkr
NYTcLPMbckiU0guJV2XHSMaOyPxc4N1Pad4s8x0y29VHOr9gIaJQzp69GJVSTvf2
S0H7aZAPZNSKf07P7YfIYpdbbxJZ3QKhIXoQRBpoCQv0kJP9zpFhc0EIHGJDuuJE
0/KK96q4zMsBp5flpMCE+2SrC0DoRykSAi3qOnPs6hIs04ZnwswrTngzmDj8yF01
6qtP9mA04Y7GV7qSbQFpnPhpll4r9PlIF4zVtD8klQJKmCRryD5B31HNYqXulIS1
-----END CERTIFICATE-----
