Certificate:
    Data:
        Version: 3 (0x2)
        Serial Number:
            0c:cb:fc:c3:a6:3f:21:c5:68:83:e3:fd:5d:2a:ab:19
        Signature Algorithm: sha256WithRSAEncryption
        Issuer: C=fr, ST=idf, L=paris, O=vitamui, OU=authorities, CN=ca_root_vitamui
        Validity
            Not Before: Jan 14 14:01:50 2020 GMT
            Not After : Jan 13 14:01:50 2023 GMT
        Subject: C=fr, ST=idf, L=paris, O=vitamui, CN=dev.vitamui.com
        Subject Public Key Info:
            Public Key Algorithm: rsaEncryption
                RSA Public-Key: (4096 bit)
                Modulus:
                    00:a7:58:a0:fc:43:37:f3:0a:76:65:5e:54:43:7a:
                    4f:e7:da:1d:77:09:fb:7a:dd:9e:ef:ff:37:fb:93:
                    71:e3:a2:8b:6d:98:bc:4b:aa:eb:30:50:ca:86:b3:
                    ef:ff:e7:65:5b:2d:89:52:fc:5c:53:31:43:d4:4d:
                    5e:d6:2c:04:bb:f1:15:db:d5:9b:45:8e:fe:a2:ca:
                    1e:0d:52:d1:7c:37:15:75:3e:59:c2:0b:c6:be:8f:
                    e1:32:19:9f:65:b7:b6:f7:d8:c0:3c:f2:c3:6a:a9:
                    30:24:3a:f4:02:b6:1a:66:1c:8e:48:90:09:7b:8d:
                    85:be:b7:22:8c:43:c9:0b:6d:2b:46:7a:e6:f1:3c:
                    6e:44:6c:f8:a2:36:da:f1:3e:7a:73:a3:f4:6e:58:
                    90:cc:ad:db:ef:cf:2f:3a:51:92:77:05:05:51:a1:
                    1e:eb:82:6e:54:0d:f8:83:c5:c5:05:be:e5:3c:7f:
                    ec:68:6c:0c:8f:9a:70:d4:79:41:8e:42:a1:1c:ae:
                    d6:24:ac:e0:4c:4e:44:37:8b:73:0b:ce:38:34:5c:
                    dc:66:e0:82:2b:89:84:e0:91:e9:19:ca:1b:a4:30:
                    94:e1:17:cb:4b:5f:5e:1d:8c:67:53:52:5d:5f:b1:
                    4e:67:95:b6:b2:29:f0:93:be:2a:cb:94:43:9e:88:
                    d9:26:a5:7b:2b:13:59:c3:85:cd:1a:75:ae:bb:29:
                    54:cb:74:a3:96:d3:e3:51:6e:48:ff:8a:7b:cf:9d:
                    29:a9:0d:07:8e:b0:df:66:8f:42:51:aa:19:7c:d8:
                    e6:22:c3:72:92:c0:cc:61:bf:21:32:5f:ed:a5:cb:
                    32:ca:51:4a:c9:a8:d4:a8:69:24:10:bd:8c:ac:9d:
                    f0:db:ca:85:a5:c5:31:eb:b1:ee:ff:43:ea:6a:a9:
                    21:89:5b:f1:89:e5:7f:01:8f:77:e0:51:a3:3d:20:
                    49:e1:f1:8b:2a:9e:b0:ca:5a:2e:fb:f4:31:c4:27:
                    ce:27:ff:e5:df:35:20:80:df:05:e8:d7:d1:14:a0:
                    30:f8:ef:b6:91:80:32:62:3d:a4:8e:9f:47:cc:b1:
                    c4:9a:30:26:68:ff:80:b8:ee:20:04:03:45:85:18:
                    74:a9:f3:8c:6f:a0:cd:ec:ed:e2:0c:d5:d7:10:ec:
                    9d:99:e4:bd:54:eb:58:77:d9:ac:59:be:11:44:95:
                    0f:18:b0:88:13:81:d5:fb:b5:43:32:3b:3b:45:14:
                    c1:2f:04:30:fc:ee:d4:dd:73:2f:02:82:af:75:54:
                    9f:2f:e6:bd:2f:90:12:9d:63:7c:88:5e:b1:b3:44:
                    fb:ed:23:8c:f1:a8:02:1c:5f:84:59:f9:a5:e1:eb:
                    b5:0a:07
                Exponent: 65537 (0x10001)
        X509v3 extensions:
            Netscape Comment: 
                Certificat SSL VITAMUI
            X509v3 Subject Key Identifier: 
                15:FD:BF:F2:48:51:99:32:97:EA:52:E6:76:2C:7D:57:02:5A:4A:24
            X509v3 Authority Key Identifier: 
                keyid:0D:42:D1:01:69:B1:6B:65:E1:AF:B4:00:37:89:2E:62:1C:5D:C3:FC
                DirName:/C=fr/ST=idf/L=paris/O=vitamui/OU=authorities/CN=ca_root_vitamui
                serial:0C:CB:FC:C3:A6:3F:21:C5:68:83:E3:FD:5D:2A:AB:16

            X509v3 Issuer Alternative Name: 
                <EMPTY>

            X509v3 Basic Constraints: critical
                CA:FALSE
    Signature Algorithm: sha256WithRSAEncryption
         5e:86:80:17:65:37:e5:63:ba:ae:1d:93:1b:0b:d2:5f:d1:48:
         ca:a6:a1:44:93:06:aa:6b:ed:77:52:2e:d2:38:ec:c2:dd:59:
         fc:ff:68:2f:13:a8:ee:ba:83:d7:6a:81:f8:ee:e5:ad:2f:3c:
         af:ac:52:28:bf:5d:fc:ae:94:44:33:a3:f9:0b:87:e8:44:39:
         db:cf:d8:9a:d7:54:4f:ad:38:84:f9:1d:02:6e:68:9c:98:dd:
         10:5c:2f:aa:f6:8d:22:90:93:c2:3e:d4:3f:8e:69:f1:a0:5b:
         45:83:18:cf:65:e6:06:cd:d3:15:65:91:11:fc:6f:72:69:3a:
         b0:d7:6b:f5:b3:5b:35:14:b2:c9:fa:57:2f:f7:71:3e:ab:21:
         88:92:da:2d:4d:9c:e7:3f:f2:2f:b4:7b:a9:0f:46:7d:75:dd:
         c7:0a:c7:50:f6:fc:53:8a:3c:69:aa:33:b8:e5:b6:f7:7b:aa:
         7d:52:7c:b3:e9:42:4f:86:0c:24:0a:a0:ca:cc:8b:84:c7:de:
         62:0d:91:19:67:54:b3:e7:e9:cb:9e:9f:27:50:f0:a8:46:50:
         68:7f:4a:12:a8:e4:dd:fc:c3:07:bc:ab:58:b9:a5:fb:28:92:
         5e:81:aa:63:88:4a:95:bc:29:01:cb:ea:a0:80:7b:3c:a3:6c:
         57:57:9e:58:30:fd:05:af:43:af:4f:d1:da:7f:b0:95:87:32:
         5d:99:a6:78:5e:64:bd:29:0f:19:01:59:36:3f:8f:bc:d0:12:
         65:28:1b:89:0e:4e:f5:9d:7f:9e:0a:1e:16:3d:54:c9:ae:66:
         89:01:5e:4b:10:b3:37:4e:70:fd:4a:7d:3f:12:91:9e:1b:f7:
         27:c9:fe:44:b7:73:73:40:91:50:ce:af:74:eb:ba:b5:a6:0b:
         de:5b:05:e2:1e:80:32:f6:46:b3:a2:cf:88:39:25:eb:f1:a0:
         81:4e:72:54:6b:79:a0:92:25:9b:9b:60:b9:63:29:41:e4:1e:
         cb:52:4e:8a:e3:d1:a6:55:b2:3c:be:5d:f3:fb:83:12:fa:60:
         41:de:10:a1:83:0a:51:de:c5:8f:46:60:60:15:29:2d:30:1d:
         fc:ab:35:ce:a1:9c:a8:93:fd:22:47:11:c2:97:7a:01:41:9b:
         fa:11:d4:53:9e:d5:0a:64:9c:c3:70:d8:f8:18:f9:c9:8d:ee:
         48:18:cf:29:3f:6f:45:ed:86:4d:5b:2a:c3:11:df:47:ae:36:
         56:88:74:49:50:98:a9:3b:1b:44:4a:0b:89:43:38:63:09:8c:
         89:98:b4:f4:52:bc:e8:6c:c2:ab:3f:ec:f8:04:fc:91:7f:79:
         96:cf:54:63:8d:bc:9e:9c
-----BEGIN CERTIFICATE-----
MIIGXDCCBESgAwIBAgIQDMv8w6Y/IcVog+P9XSqrGTANBgkqhkiG9w0BAQsFADBt
MQswCQYDVQQGEwJmcjEMMAoGA1UECAwDaWRmMQ4wDAYDVQQHDAVwYXJpczEQMA4G
A1UECgwHdml0YW11aTEUMBIGA1UECwwLYXV0aG9yaXRpZXMxGDAWBgNVBAMMD2Nh
X3Jvb3Rfdml0YW11aTAeFw0yMDAxMTQxNDAxNTBaFw0yMzAxMTMxNDAxNTBaMFcx
CzAJBgNVBAYTAmZyMQwwCgYDVQQIDANpZGYxDjAMBgNVBAcMBXBhcmlzMRAwDgYD
VQQKDAd2aXRhbXVpMRgwFgYDVQQDDA9kZXYudml0YW11aS5jb20wggIiMA0GCSqG
SIb3DQEBAQUAA4ICDwAwggIKAoICAQCnWKD8QzfzCnZlXlRDek/n2h13Cft63Z7v
/zf7k3HjoottmLxLquswUMqGs+//52VbLYlS/FxTMUPUTV7WLAS78RXb1ZtFjv6i
yh4NUtF8NxV1PlnCC8a+j+EyGZ9lt7b32MA88sNqqTAkOvQCthpmHI5IkAl7jYW+
tyKMQ8kLbStGeubxPG5EbPiiNtrxPnpzo/RuWJDMrdvvzy86UZJ3BQVRoR7rgm5U
DfiDxcUFvuU8f+xobAyPmnDUeUGOQqEcrtYkrOBMTkQ3i3MLzjg0XNxm4IIriYTg
kekZyhukMJThF8tLX14djGdTUl1fsU5nlbayKfCTvirLlEOeiNkmpXsrE1nDhc0a
da67KVTLdKOW0+NRbkj/invPnSmpDQeOsN9mj0JRqhl82OYiw3KSwMxhvyEyX+2l
yzLKUUrJqNSoaSQQvYysnfDbyoWlxTHrse7/Q+pqqSGJW/GJ5X8Bj3fgUaM9IEnh
8YsqnrDKWi779DHEJ84n/+XfNSCA3wXo19EUoDD477aRgDJiPaSOn0fMscSaMCZo
/4C47iAEA0WFGHSp84xvoM3s7eIM1dcQ7J2Z5L1U61h32axZvhFElQ8YsIgTgdX7
tUMyOztFFMEvBDD87tTdcy8Cgq91VJ8v5r0vkBKdY3yIXrGzRPvtI4zxqAIcX4RZ
+aXh67UKBwIDAQABo4IBDDCCAQgwJQYJYIZIAYb4QgENBBgWFkNlcnRpZmljYXQg
U1NMIFZJVEFNVUkwHQYDVR0OBBYEFBX9v/JIUZkyl+pS5nYsfVcCWkokMIGmBgNV
HSMEgZ4wgZuAFA1C0QFpsWtl4a+0ADeJLmIcXcP8oXGkbzBtMQswCQYDVQQGEwJm
cjEMMAoGA1UECAwDaWRmMQ4wDAYDVQQHDAVwYXJpczEQMA4GA1UECgwHdml0YW11
aTEUMBIGA1UECwwLYXV0aG9yaXRpZXMxGDAWBgNVBAMMD2NhX3Jvb3Rfdml0YW11
aYIQDMv8w6Y/IcVog+P9XSqrFjAJBgNVHRIEAjAAMAwGA1UdEwEB/wQCMAAwDQYJ
KoZIhvcNAQELBQADggIBAF6GgBdlN+Vjuq4dkxsL0l/RSMqmoUSTBqpr7XdSLtI4
7MLdWfz/aC8TqO66g9dqgfju5a0vPK+sUii/XfyulEQzo/kLh+hEOdvP2JrXVE+t
OIT5HQJuaJyY3RBcL6r2jSKQk8I+1D+OafGgW0WDGM9l5gbN0xVlkRH8b3JpOrDX
a/WzWzUUssn6Vy/3cT6rIYiS2i1NnOc/8i+0e6kPRn113ccKx1D2/FOKPGmqM7jl
tvd7qn1SfLPpQk+GDCQKoMrMi4TH3mINkRlnVLPn6cuenydQ8KhGUGh/ShKo5N38
wwe8q1i5pfsokl6BqmOISpW8KQHL6qCAezyjbFdXnlgw/QWvQ69P0dp/sJWHMl2Z
pnheZL0pDxkBWTY/j7zQEmUoG4kOTvWdf54KHhY9VMmuZokBXksQszdOcP1KfT8S
kZ4b9yfJ/kS3c3NAkVDOr3TrurWmC95bBeIegDL2RrOiz4g5JevxoIFOclRreaCS
JZubYLljKUHkHstSTorj0aZVsjy+XfP7gxL6YEHeEKGDClHexY9GYGAVKS0wHfyr
Nc6hnKiT/SJHEcKXegFBm/oR1FOe1QpknMNw2PgY+cmN7kgYzyk/b0Xthk1bKsMR
30euNlaIdElQmKk7G0RKC4lDOGMJjImYtPRSvOhswqs/7PgE/JF/eZbPVGONvJ6c
-----END CERTIFICATE-----
