Certificate:
    Data:
        Version: 3 (0x2)
        Serial Number:
            0c:cb:fc:c3:a6:3f:21:c5:68:83:e3:fd:5d:2a:ab:18
        Signature Algorithm: sha256WithRSAEncryption
        Issuer: C=fr, ST=idf, L=paris, O=vitamui, OU=authorities, CN=ca_root_vitamui
        Validity
            Not Before: Jan 14 14:01:49 2020 GMT
            Not After : Jan 13 14:01:49 2023 GMT
        Subject: C=fr, ST=idf, L=paris, O=vitamui, CN=dev.vitamui.com
        Subject Public Key Info:
            Public Key Algorithm: rsaEncryption
                RSA Public-Key: (4096 bit)
                Modulus:
                    00:ad:c3:c5:60:0f:10:d9:d0:99:5d:23:10:c7:78:
                    bb:cf:1f:5f:3c:f5:42:ba:63:e6:c3:a9:64:9c:d6:
                    4f:f7:33:e1:fe:95:60:0f:0c:e2:4c:6a:81:e2:e2:
                    8b:0e:1d:d5:11:8c:af:f4:64:3b:42:bc:4d:01:da:
                    12:71:4d:b3:63:3a:55:b8:c6:58:8a:5b:28:21:52:
                    16:f7:ef:7a:9b:78:7b:38:95:55:1e:4a:30:f7:6b:
                    d0:2b:53:b6:13:1e:b1:f1:9c:bf:56:f0:2d:db:6c:
                    eb:38:df:e3:22:13:f3:ea:64:49:9b:62:5e:90:85:
                    2a:83:06:8c:8e:67:61:36:ed:d4:6c:51:15:8b:bd:
                    5f:d5:3c:37:63:33:64:44:0f:72:ea:1c:13:15:03:
                    db:34:b1:ea:c1:ab:15:1a:56:1c:12:7b:8f:53:d6:
                    26:5d:d7:56:26:e8:5d:4e:62:88:40:3f:3b:bc:56:
                    a1:3b:18:1b:dc:c3:6d:0f:71:37:ce:d0:cc:cd:8b:
                    23:a8:99:d0:35:5d:21:04:ce:78:a4:88:ac:bd:b4:
                    b3:f6:c1:f7:0f:f2:09:8b:3f:98:24:78:2d:7e:7c:
                    ae:c1:c9:7f:ea:f5:05:68:62:58:99:9c:05:c3:d1:
                    0c:97:14:5c:41:b2:95:3c:22:80:65:20:75:b2:3f:
                    9e:05:a5:17:58:82:99:1e:82:8c:2d:ca:7e:ee:72:
                    9d:11:28:b6:f5:81:8d:bd:6c:3b:52:88:a6:1c:19:
                    d2:16:cf:64:e3:1f:c7:e4:78:db:ff:96:15:e6:54:
                    08:85:f5:34:12:80:3d:86:8a:b7:f6:5f:c9:29:43:
                    85:d7:8b:09:6d:f5:3f:46:37:81:0d:fc:70:22:c9:
                    e4:9c:c3:a3:c6:26:65:28:dd:0b:8b:b9:75:7e:02:
                    b4:f9:1f:1d:f7:b0:77:60:a2:c4:f0:e8:42:64:d4:
                    c1:d5:41:1b:b0:02:ba:b2:96:60:8f:ae:4a:50:5e:
                    0a:90:f8:87:8c:b6:04:78:f0:27:e7:d3:3f:62:6c:
                    d2:87:04:b7:8d:55:5e:55:cb:4c:3c:76:d6:63:3d:
                    f4:fd:56:07:e5:5d:f4:42:f9:dd:1c:25:e1:d1:51:
                    41:6e:e1:76:3a:d0:c1:55:a8:ff:ba:06:b8:8d:2c:
                    fd:1c:88:55:74:d5:93:82:9e:bf:90:34:a8:29:4b:
                    ae:55:ce:2a:f9:02:d7:8f:ed:72:94:d8:2f:4b:19:
                    64:26:d6:b4:fd:c8:8e:84:70:87:5b:65:72:a1:1f:
                    25:43:f2:77:7d:27:02:bb:21:99:dd:0a:ed:1e:d2:
                    3e:94:9f:de:8c:72:30:e0:49:df:0f:2c:d3:74:9b:
                    15:e2:33
                Exponent: 65537 (0x10001)
        X509v3 extensions:
            Netscape Comment: 
                Certificat SSL VITAMUI
            X509v3 Subject Key Identifier: 
                DE:B3:04:E0:DB:30:98:2B:CA:2D:40:2D:CF:E9:DB:4A:94:00:B0:CD
            X509v3 Authority Key Identifier: 
                keyid:0D:42:D1:01:69:B1:6B:65:E1:AF:B4:00:37:89:2E:62:1C:5D:C3:FC
                DirName:/C=fr/ST=idf/L=paris/O=vitamui/OU=authorities/CN=ca_root_vitamui
                serial:0C:CB:FC:C3:A6:3F:21:C5:68:83:E3:FD:5D:2A:AB:16

            X509v3 Issuer Alternative Name: 
                <EMPTY>

            X509v3 Basic Constraints: critical
                CA:FALSE
    Signature Algorithm: sha256WithRSAEncryption
         a8:47:fe:6f:4f:47:03:45:f5:fc:35:97:d6:91:da:75:b1:d1:
         77:9d:aa:7b:60:bb:97:a0:8d:e7:6e:b5:b2:92:20:e6:c6:f7:
         2c:b6:2a:7f:c3:c9:4f:fb:f7:b3:c6:89:40:56:9d:09:9f:86:
         89:f0:e5:43:78:0c:38:4e:56:77:bd:f0:4e:3a:5e:48:7e:75:
         e2:83:f3:77:87:34:42:80:cc:63:5c:4c:ba:c1:15:4b:94:6a:
         64:3f:f2:cb:78:5d:e6:d2:2d:10:c4:34:a6:d2:50:db:3c:d9:
         77:a9:b6:eb:58:c8:8e:b0:ad:5e:95:68:4b:4d:01:9e:52:43:
         ae:0b:60:b3:c5:54:95:f0:f0:0c:47:be:d7:3c:2a:b4:20:28:
         14:b8:e9:40:19:25:cf:ef:e7:32:26:c1:3f:60:54:a7:c2:fd:
         17:17:69:a5:32:0b:68:30:0c:9a:84:0f:87:12:bc:76:d1:99:
         ee:a2:ba:d1:e6:d2:d6:2e:b8:c1:66:88:bb:12:f1:ed:16:65:
         4d:6d:09:0c:02:a8:f7:69:15:7d:68:df:8a:3b:d0:fd:18:02:
         e7:9b:6c:5c:ff:d4:59:15:2b:7c:a2:42:22:b5:b5:70:05:3b:
         22:b4:42:c7:9f:01:4e:39:c3:ff:99:c8:8a:e2:97:50:aa:17:
         ff:f2:10:7a:57:8a:78:07:a8:f4:eb:4e:33:7d:6b:f9:1a:64:
         f5:75:11:0c:b4:36:5f:d2:63:2c:78:2f:08:6c:95:16:6a:2a:
         f5:d8:2f:26:55:8a:cb:80:53:5d:47:73:e0:c1:ba:d9:f8:70:
         bf:7b:6c:99:74:82:dd:4a:5c:25:59:85:d5:c6:ac:28:56:7c:
         23:8c:63:90:35:b4:7a:dd:a6:97:3c:28:9d:77:09:3e:a1:57:
         7d:0d:5b:fc:68:ca:dc:05:e3:43:90:ab:96:71:68:da:06:99:
         27:73:87:18:27:4e:8a:24:9d:c1:2d:5e:68:d3:38:de:92:81:
         d3:20:43:d8:6c:1f:c6:47:80:32:7f:d1:f7:7a:b1:95:46:34:
         20:25:94:16:fb:57:fb:54:60:6f:0c:e6:cb:d7:43:2c:ef:82:
         77:3a:f9:b1:29:90:ec:1c:14:00:08:3c:72:92:f9:c7:99:37:
         1a:14:1d:d4:b8:bf:65:92:21:74:df:d5:cd:3d:50:54:3f:ad:
         b2:44:43:3b:8c:5b:eb:8d:39:77:78:45:49:a1:05:2f:3e:3c:
         3c:d5:3b:49:93:23:bb:35:55:ff:52:4a:6b:48:51:2e:37:6a:
         61:30:4a:2f:59:03:42:90:af:d1:d0:67:8b:ff:48:de:4e:90:
         38:15:33:b0:fe:a5:17:08
-----BEGIN CERTIFICATE-----
MIIGXDCCBESgAwIBAgIQDMv8w6Y/IcVog+P9XSqrGDANBgkqhkiG9w0BAQsFADBt
MQswCQYDVQQGEwJmcjEMMAoGA1UECAwDaWRmMQ4wDAYDVQQHDAVwYXJpczEQMA4G
A1UECgwHdml0YW11aTEUMBIGA1UECwwLYXV0aG9yaXRpZXMxGDAWBgNVBAMMD2Nh
X3Jvb3Rfdml0YW11aTAeFw0yMDAxMTQxNDAxNDlaFw0yMzAxMTMxNDAxNDlaMFcx
CzAJBgNVBAYTAmZyMQwwCgYDVQQIDANpZGYxDjAMBgNVBAcMBXBhcmlzMRAwDgYD
VQQKDAd2aXRhbXVpMRgwFgYDVQQDDA9kZXYudml0YW11aS5jb20wggIiMA0GCSqG
SIb3DQEBAQUAA4ICDwAwggIKAoICAQCtw8VgDxDZ0JldIxDHeLvPH1889UK6Y+bD
qWSc1k/3M+H+lWAPDOJMaoHi4osOHdURjK/0ZDtCvE0B2hJxTbNjOlW4xliKWygh
Uhb373qbeHs4lVUeSjD3a9ArU7YTHrHxnL9W8C3bbOs43+MiE/PqZEmbYl6QhSqD
BoyOZ2E27dRsURWLvV/VPDdjM2RED3LqHBMVA9s0serBqxUaVhwSe49T1iZd11Ym
6F1OYohAPzu8VqE7GBvcw20PcTfO0MzNiyOomdA1XSEEznikiKy9tLP2wfcP8gmL
P5gkeC1+fK7ByX/q9QVoYliZnAXD0QyXFFxBspU8IoBlIHWyP54FpRdYgpkegowt
yn7ucp0RKLb1gY29bDtSiKYcGdIWz2TjH8fkeNv/lhXmVAiF9TQSgD2Girf2X8kp
Q4XXiwlt9T9GN4EN/HAiyeScw6PGJmUo3QuLuXV+ArT5Hx33sHdgosTw6EJk1MHV
QRuwArqylmCPrkpQXgqQ+IeMtgR48Cfn0z9ibNKHBLeNVV5Vy0w8dtZjPfT9Vgfl
XfRC+d0cJeHRUUFu4XY60MFVqP+6BriNLP0ciFV01ZOCnr+QNKgpS65Vzir5AteP
7XKU2C9LGWQm1rT9yI6EcIdbZXKhHyVD8nd9JwK7IZndCu0e0j6Un96McjDgSd8P
LNN0mxXiMwIDAQABo4IBDDCCAQgwJQYJYIZIAYb4QgENBBgWFkNlcnRpZmljYXQg
U1NMIFZJVEFNVUkwHQYDVR0OBBYEFN6zBODbMJgryi1ALc/p20qUALDNMIGmBgNV
HSMEgZ4wgZuAFA1C0QFpsWtl4a+0ADeJLmIcXcP8oXGkbzBtMQswCQYDVQQGEwJm
cjEMMAoGA1UECAwDaWRmMQ4wDAYDVQQHDAVwYXJpczEQMA4GA1UECgwHdml0YW11
aTEUMBIGA1UECwwLYXV0aG9yaXRpZXMxGDAWBgNVBAMMD2NhX3Jvb3Rfdml0YW11
aYIQDMv8w6Y/IcVog+P9XSqrFjAJBgNVHRIEAjAAMAwGA1UdEwEB/wQCMAAwDQYJ
KoZIhvcNAQELBQADggIBAKhH/m9PRwNF9fw1l9aR2nWx0Xedqntgu5egjedutbKS
IObG9yy2Kn/DyU/797PGiUBWnQmfhonw5UN4DDhOVne98E46Xkh+deKD83eHNEKA
zGNcTLrBFUuUamQ/8st4XebSLRDENKbSUNs82XeptutYyI6wrV6VaEtNAZ5SQ64L
YLPFVJXw8AxHvtc8KrQgKBS46UAZJc/v5zImwT9gVKfC/RcXaaUyC2gwDJqED4cS
vHbRme6iutHm0tYuuMFmiLsS8e0WZU1tCQwCqPdpFX1o34o70P0YAuebbFz/1FkV
K3yiQiK1tXAFOyK0QsefAU45w/+ZyIril1CqF//yEHpXingHqPTrTjN9a/kaZPV1
EQy0Nl/SYyx4LwhslRZqKvXYLyZVisuAU11Hc+DButn4cL97bJl0gt1KXCVZhdXG
rChWfCOMY5A1tHrdppc8KJ13CT6hV30NW/xoytwF40OQq5ZxaNoGmSdzhxgnTook
ncEtXmjTON6SgdMgQ9hsH8ZHgDJ/0fd6sZVGNCAllBb7V/tUYG8M5svXQyzvgnc6
+bEpkOwcFAAIPHKS+ceZNxoUHdS4v2WSIXTf1c09UFQ/rbJEQzuMW+uNOXd4RUmh
BS8+PDzVO0mTI7s1Vf9SSmtIUS43amEwSi9ZA0KQr9HQZ4v/SN5OkDgVM7D+pRcI
-----END CERTIFICATE-----
