Certificate:
    Data:
        Version: 3 (0x2)
        Serial Number:
            0c:cb:fc:c3:a6:3f:21:c5:68:83:e3:fd:5d:2a:ab:23
        Signature Algorithm: sha256WithRSAEncryption
        Issuer: C=fr, ST=idf, L=paris, O=vitamui, OU=authorities, CN=ca_root_vitamui
        Validity
            Not Before: Feb  3 13:30:41 2020 GMT
            Not After : Feb  2 13:30:41 2023 GMT
        Subject: C=fr, ST=idf, L=paris, O=vitamui, CN=dev-identity.vitamui.com
        Subject Public Key Info:
            Public Key Algorithm: rsaEncryption
                RSA Public-Key: (4096 bit)
                Modulus:
                    00:a9:7f:a4:ed:8d:83:46:8b:fe:18:24:8c:c4:d9:
                    07:80:15:51:d1:e5:ea:ca:50:4c:ac:fc:a0:2a:b0:
                    be:dd:a9:1b:ed:44:6d:98:01:4e:cd:3a:52:7c:94:
                    ba:5e:59:55:6b:ab:af:15:ab:c7:3c:15:e7:8a:c0:
                    dd:45:3b:a3:d3:fc:7a:c3:b4:9a:94:91:4e:31:6d:
                    83:f1:55:64:d6:4c:1e:39:cd:87:e5:f4:96:a3:af:
                    6f:78:c5:82:7c:2d:45:02:e8:86:5e:f1:47:f9:11:
                    7d:45:8f:cb:e8:6c:09:dc:3c:07:0e:a7:9f:42:e3:
                    4c:00:19:5e:78:a6:40:3c:b7:d2:ab:79:f9:e9:2d:
                    f3:47:7e:86:a7:6a:4c:3d:88:b0:9c:07:b5:c2:be:
                    29:76:a3:99:c0:0b:bc:48:fe:72:c1:30:24:2c:45:
                    85:64:dc:68:69:f1:05:d0:31:e6:ac:b6:83:b7:a3:
                    40:72:0c:e9:f0:05:72:f2:ea:25:8f:ae:d2:40:bb:
                    ab:c6:4b:70:11:63:15:89:89:7f:5b:88:94:96:c2:
                    e4:5b:53:a8:71:c4:b7:00:62:9a:b0:a1:fe:74:1e:
                    b4:ca:9d:fd:79:90:4c:ca:83:2b:8f:51:46:d0:6c:
                    e4:50:18:da:4d:0e:9b:fe:d0:ab:f6:77:c3:71:a3:
                    72:c9:77:60:6d:71:c2:f5:27:5d:25:a7:77:14:b1:
                    28:ab:67:e0:70:fd:31:48:c8:d9:eb:2d:7e:c2:8a:
                    ef:2b:dc:10:a5:66:35:90:f3:32:34:37:a4:c7:c5:
                    13:ad:d0:7e:a7:97:96:0d:33:5f:2d:88:ed:f7:a7:
                    29:0e:03:c8:d1:c4:72:d8:94:6c:08:24:93:30:7f:
                    f9:f5:7c:ef:66:05:cd:14:51:55:8d:c5:65:a2:cf:
                    02:d5:eb:3c:4b:45:d2:5e:32:78:1a:07:b5:65:8d:
                    b6:95:49:fa:45:e3:61:b5:c3:db:bf:28:54:b2:b3:
                    ad:8e:d6:a0:48:60:9c:11:53:0d:25:7b:88:e1:2a:
                    e6:c4:9c:0c:ac:db:f2:1f:af:e9:6c:9d:2a:cb:86:
                    7f:0d:84:8d:9b:5f:5d:d3:54:97:4d:de:ed:7c:e3:
                    5f:1a:a1:93:76:16:f7:ca:70:b1:46:e5:1b:1d:ec:
                    85:e6:4d:54:c4:ca:50:39:1a:a3:02:03:ff:c0:8b:
                    e4:e6:eb:cc:01:b1:54:e5:b6:eb:97:4a:09:55:ac:
                    5d:e0:47:d4:29:7f:55:bd:05:af:9d:9f:a7:03:2a:
                    0b:e9:0f:67:bb:a8:72:ea:0c:37:8f:83:7c:d6:a5:
                    5f:b1:83:a8:70:d9:d1:2c:de:7d:8e:fb:06:d2:63:
                    7b:6f:23
                Exponent: 65537 (0x10001)
        X509v3 extensions:
            Netscape Comment: 
                Certificat SSL VITAMUI
            X509v3 Subject Key Identifier: 
                28:60:A6:A7:83:C5:08:96:32:38:0F:B7:3B:32:3B:11:AC:16:3D:61
            X509v3 Authority Key Identifier: 
                keyid:0D:42:D1:01:69:B1:6B:65:E1:AF:B4:00:37:89:2E:62:1C:5D:C3:FC
                DirName:/C=fr/ST=idf/L=paris/O=vitamui/OU=authorities/CN=ca_root_vitamui
                serial:0C:CB:FC:C3:A6:3F:21:C5:68:83:E3:FD:5D:2A:AB:16

            X509v3 Issuer Alternative Name: 
                <EMPTY>

            X509v3 Basic Constraints: critical
                CA:FALSE
    Signature Algorithm: sha256WithRSAEncryption
         30:c3:3d:e4:0d:db:f4:00:08:9c:bf:51:f6:d5:29:14:ee:96:
         b7:b1:99:04:51:af:da:22:f3:89:44:3d:35:7f:cd:9f:66:95:
         db:d3:5e:a9:f6:6e:8a:6e:07:a3:f1:2e:6a:22:75:ed:d8:dd:
         0f:a4:69:6b:46:20:4c:b0:52:23:25:2e:6d:c9:9a:9d:09:71:
         3c:ea:79:8c:f0:c6:23:49:38:8c:d6:8e:d7:19:0b:97:50:b6:
         b2:ac:40:6b:fb:cc:98:74:87:59:09:4a:7f:95:82:7d:27:1f:
         b0:66:6a:9f:64:1b:07:c1:84:06:97:36:3b:bf:f4:79:ed:69:
         22:2b:75:2d:17:c6:18:cc:6e:de:45:1c:1b:69:41:81:49:b0:
         04:16:6d:ef:96:55:ae:a9:f6:4c:a1:29:35:df:c5:cb:ba:94:
         c6:da:d1:bb:41:7a:59:51:05:c6:25:09:ff:07:36:93:52:bf:
         a2:35:e3:b9:5f:74:6b:7b:3b:67:b5:65:6f:a3:dc:b7:1c:48:
         8b:ed:7b:f6:05:2e:18:55:e0:f7:c3:a0:fc:98:a8:49:3b:2d:
         db:f8:05:71:d4:98:92:b1:4e:7a:cf:d4:8e:31:2d:d0:40:0f:
         56:d8:a7:51:59:d5:aa:91:92:a4:dd:66:19:70:f3:3e:91:de:
         b3:28:23:7b:81:22:00:ab:00:65:20:11:6d:b1:7b:7e:e3:1c:
         c0:13:7a:7d:20:68:e3:f6:4e:51:4b:45:83:b3:51:46:62:e6:
         ea:fc:d2:64:8e:f3:9d:25:64:47:34:45:06:a1:92:06:21:fc:
         fa:ef:3d:77:87:bf:01:13:ed:e0:0a:8a:43:9d:ff:39:a5:18:
         41:1f:67:51:12:29:5d:47:ea:02:b0:53:5b:c9:ab:d6:31:c8:
         20:c5:fe:59:7c:c6:0d:c4:04:bd:7e:c9:0d:b4:f9:4c:f7:e5:
         a8:ca:72:31:6f:fe:50:5b:ed:7c:56:f0:d9:64:c5:f2:f0:ce:
         a2:be:07:84:1c:10:cf:8c:76:e4:47:e5:67:f9:99:1f:2f:4b:
         61:60:0e:51:ae:da:b3:1c:98:d7:6d:16:71:19:9b:37:4f:83:
         16:72:20:d2:5d:30:e8:54:39:af:a5:91:db:74:0a:8c:30:b0:
         bc:79:25:77:90:5a:ee:ad:f3:8f:a9:90:6f:55:85:db:b2:b9:
         97:36:e2:9a:ea:cb:a2:b0:9c:15:25:7b:bc:6a:ff:81:fd:44:
         41:87:7c:9d:8e:0f:ac:70:20:73:ea:cf:68:36:a9:56:c5:c3:
         11:2f:76:6b:f9:87:45:58:a1:99:48:d5:e5:78:e0:78:65:5b:
         d6:f9:27:c3:85:0c:bc:29
-----BEGIN CERTIFICATE-----
MIIGZTCCBE2gAwIBAgIQDMv8w6Y/IcVog+P9XSqrIzANBgkqhkiG9w0BAQsFADBt
MQswCQYDVQQGEwJmcjEMMAoGA1UECAwDaWRmMQ4wDAYDVQQHDAVwYXJpczEQMA4G
A1UECgwHdml0YW11aTEUMBIGA1UECwwLYXV0aG9yaXRpZXMxGDAWBgNVBAMMD2Nh
X3Jvb3Rfdml0YW11aTAeFw0yMDAyMDMxMzMwNDFaFw0yMzAyMDIxMzMwNDFaMGAx
CzAJBgNVBAYTAmZyMQwwCgYDVQQIDANpZGYxDjAMBgNVBAcMBXBhcmlzMRAwDgYD
VQQKDAd2aXRhbXVpMSEwHwYDVQQDDBhkZXYtaWRlbnRpdHkudml0YW11aS5jb20w
ggIiMA0GCSqGSIb3DQEBAQUAA4ICDwAwggIKAoICAQCpf6TtjYNGi/4YJIzE2QeA
FVHR5erKUEys/KAqsL7dqRvtRG2YAU7NOlJ8lLpeWVVrq68Vq8c8FeeKwN1FO6PT
/HrDtJqUkU4xbYPxVWTWTB45zYfl9Jajr294xYJ8LUUC6IZe8Uf5EX1Fj8vobAnc
PAcOp59C40wAGV54pkA8t9KrefnpLfNHfoanakw9iLCcB7XCvil2o5nAC7xI/nLB
MCQsRYVk3Ghp8QXQMeastoO3o0ByDOnwBXLy6iWPrtJAu6vGS3ARYxWJiX9biJSW
wuRbU6hxxLcAYpqwof50HrTKnf15kEzKgyuPUUbQbORQGNpNDpv+0Kv2d8Nxo3LJ
d2BtccL1J10lp3cUsSirZ+Bw/TFIyNnrLX7Ciu8r3BClZjWQ8zI0N6THxROt0H6n
l5YNM18tiO33pykOA8jRxHLYlGwIJJMwf/n1fO9mBc0UUVWNxWWizwLV6zxLRdJe
MngaB7VljbaVSfpF42G1w9u/KFSys62O1qBIYJwRUw0le4jhKubEnAys2/Ifr+ls
nSrLhn8NhI2bX13TVJdN3u18418aoZN2FvfKcLFG5Rsd7IXmTVTEylA5GqMCA//A
i+Tm68wBsVTltuuXSglVrF3gR9Qpf1W9Ba+dn6cDKgvpD2e7qHLqDDePg3zWpV+x
g6hw2dEs3n2O+wbSY3tvIwIDAQABo4IBDDCCAQgwJQYJYIZIAYb4QgENBBgWFkNl
cnRpZmljYXQgU1NMIFZJVEFNVUkwHQYDVR0OBBYEFChgpqeDxQiWMjgPtzsyOxGs
Fj1hMIGmBgNVHSMEgZ4wgZuAFA1C0QFpsWtl4a+0ADeJLmIcXcP8oXGkbzBtMQsw
CQYDVQQGEwJmcjEMMAoGA1UECAwDaWRmMQ4wDAYDVQQHDAVwYXJpczEQMA4GA1UE
CgwHdml0YW11aTEUMBIGA1UECwwLYXV0aG9yaXRpZXMxGDAWBgNVBAMMD2NhX3Jv
b3Rfdml0YW11aYIQDMv8w6Y/IcVog+P9XSqrFjAJBgNVHRIEAjAAMAwGA1UdEwEB
/wQCMAAwDQYJKoZIhvcNAQELBQADggIBADDDPeQN2/QACJy/UfbVKRTulrexmQRR
r9oi84lEPTV/zZ9mldvTXqn2bopuB6PxLmoide3Y3Q+kaWtGIEywUiMlLm3Jmp0J
cTzqeYzwxiNJOIzWjtcZC5dQtrKsQGv7zJh0h1kJSn+Vgn0nH7Bmap9kGwfBhAaX
Nju/9HntaSIrdS0XxhjMbt5FHBtpQYFJsAQWbe+WVa6p9kyhKTXfxcu6lMba0btB
ellRBcYlCf8HNpNSv6I147lfdGt7O2e1ZW+j3LccSIvte/YFLhhV4PfDoPyYqEk7
Ldv4BXHUmJKxTnrP1I4xLdBAD1bYp1FZ1aqRkqTdZhlw8z6R3rMoI3uBIgCrAGUg
EW2xe37jHMATen0gaOP2TlFLRYOzUUZi5ur80mSO850lZEc0RQahkgYh/PrvPXeH
vwET7eAKikOd/zmlGEEfZ1ESKV1H6gKwU1vJq9YxyCDF/ll8xg3EBL1+yQ20+Uz3
5ajKcjFv/lBb7XxW8NlkxfLwzqK+B4QcEM+MduRH5Wf5mR8vS2FgDlGu2rMcmNdt
FnEZmzdPgxZyINJdMOhUOa+lkdt0CowwsLx5JXeQWu6t84+pkG9VhduyuZc24prq
y6KwnBUle7xq/4H9REGHfJ2OD6xwIHPqz2g2qVbFwxEvdmv5h0VYoZlI1eV44Hhl
W9b5J8OFDLwp
-----END CERTIFICATE-----
