Certificate:
    Data:
        Version: 3 (0x2)
        Serial Number: 317 (0x13d)
    Signature Algorithm: sha256WithRSAEncryption
        Issuer: C=fr, ST=idf, L=paris, O=vitam, OU=authorities, CN=ca_root_client-external
        Validity
            Not Before: Nov 22 08:53:34 2019 GMT
            Not After : Nov 19 08:53:34 2029 GMT
        Subject: C=fr, ST=idf, L=paris, O=vitam, OU=authorities, CN=ca_intermediate_client-external
        Subject Public Key Info:
            Public Key Algorithm: rsaEncryption
                Public-Key: (4096 bit)
                Modulus:
                    00:b9:ef:51:df:db:81:7b:15:d1:63:3a:1a:70:3b:
                    ba:89:a2:be:9b:b6:4e:fc:07:17:be:50:c3:ea:fa:
                    23:2e:a3:90:63:95:75:ad:61:46:7b:60:02:cd:cd:
                    91:e3:9d:db:4f:bd:89:25:4b:9f:31:96:bc:62:41:
                    67:4c:60:43:0a:0b:fd:fc:ac:e2:ee:ac:e8:a5:df:
                    b9:4d:13:a4:bb:18:8b:96:3f:87:b6:9a:6d:7b:d4:
                    4b:cb:24:50:ac:36:04:d5:31:70:08:0b:52:c3:44:
                    24:5e:c5:cc:50:37:38:d2:e1:85:16:8e:1f:5c:3b:
                    33:a8:52:ed:a6:8a:25:0a:3f:2a:3f:23:39:34:db:
                    b2:be:41:32:38:bc:72:b3:13:e9:86:13:cd:cb:70:
                    cf:09:6e:41:49:8c:66:66:a1:81:cc:6b:45:0b:5b:
                    f8:75:0a:a3:db:28:f4:a2:b5:ce:c9:13:5d:26:3d:
                    da:e8:e2:05:37:83:d4:30:89:76:21:9a:2a:51:e5:
                    8b:c5:2c:f3:2f:fb:00:a5:d0:df:c7:6e:1c:36:4f:
                    91:48:1c:de:72:e0:90:6f:49:4b:c4:c6:b4:88:6a:
                    dc:f3:26:1b:71:99:90:e1:9f:a0:15:71:88:00:84:
                    04:03:8b:50:01:62:b1:bc:be:19:f4:46:c6:40:52:
                    ab:c8:7d:49:68:76:8d:41:96:ec:49:1e:9d:6a:b2:
                    37:40:2e:b0:ec:72:d0:86:78:e9:d2:4c:9a:cd:fe:
                    08:c6:de:21:3a:e5:e4:43:b0:4f:12:32:95:35:8b:
                    bc:37:3e:a4:6d:48:bf:c6:e6:f8:96:33:7c:f4:2d:
                    43:62:15:c4:57:d1:83:1e:e0:50:e4:bd:d2:7b:12:
                    46:70:88:41:64:b9:e5:59:2f:28:67:91:b6:a9:20:
                    61:ce:7f:70:25:77:72:a9:3c:1c:d4:7d:af:27:dc:
                    b7:b8:27:bb:c4:fe:3a:d5:43:2a:0c:10:69:f5:b3:
                    d2:b4:d5:89:bb:0e:b2:74:0d:16:0c:c5:2e:70:3e:
                    52:57:cb:40:70:30:1c:e2:62:62:7a:27:45:bb:a5:
                    b6:e6:98:38:fe:00:16:93:1c:ce:c0:53:e6:b3:bd:
                    c3:28:c7:68:72:88:50:fe:30:67:ac:5c:fb:85:9a:
                    f1:93:8d:04:87:d2:54:e9:f1:53:f9:75:a2:b6:7c:
                    35:95:82:fd:73:03:36:04:da:fa:3f:28:86:34:45:
                    c9:af:d9:f5:d4:95:57:64:1e:db:15:c3:d0:48:da:
                    a9:ff:2b:33:d9:5e:15:c5:92:1f:e8:bb:7a:91:19:
                    5d:fa:29:be:60:82:9d:40:f4:32:be:8f:30:0f:f0:
                    9a:68:0d
                Exponent: 65537 (0x10001)
        X509v3 extensions:
            Netscape Comment:
                CA Intermediate
            X509v3 Subject Key Identifier:
                9A:37:E4:3B:FA:CC:DC:98:92:D2:32:52:10:DD:FE:2E:6F:0E:43:19
            X509v3 Authority Key Identifier:
                keyid:39:AA:BE:2A:D4:52:32:9F:C9:B9:F5:E0:1E:0E:7C:ED:2A:F5:5E:17
                DirName:/C=fr/ST=idf/L=paris/O=vitam/OU=authorities/CN=ca_root_client-external
                serial:01:3C

            X509v3 Basic Constraints: critical
                CA:TRUE, pathlen:0
            X509v3 Issuer Alternative Name:
                <EMPTY>

            X509v3 Key Usage:
                Certificate Sign, CRL Sign
            Netscape Cert Type:
                SSL CA
    Signature Algorithm: sha256WithRSAEncryption
         a9:6e:68:cb:7b:76:81:8c:d1:f4:46:1b:e0:73:cb:d0:77:dd:
         b6:61:5c:1d:de:83:e6:e4:30:32:25:d9:9d:a3:c7:3b:84:70:
         33:84:e9:30:76:88:31:0f:09:f5:9b:74:1a:a2:16:2f:af:d5:
         cb:97:23:9e:c9:29:99:6d:a6:4e:6f:b0:57:ce:83:0e:87:4b:
         54:ee:fa:1f:8f:47:07:18:84:05:c5:64:f4:ac:8b:11:48:3e:
         30:2b:cd:ae:bd:bb:59:ee:98:6e:09:66:f7:ca:16:1b:d8:f8:
         92:19:9b:61:a3:92:49:64:f9:50:c9:f7:9a:e9:1b:cd:cf:26:
         43:d0:f1:db:63:b2:33:a5:04:b0:de:97:e5:3c:5c:2d:00:48:
         81:0b:6e:67:f3:b7:a5:7f:10:63:aa:c5:e6:8d:b8:be:26:2b:
         8d:7b:a9:67:a0:b9:54:2a:41:19:2e:f3:52:7e:c2:a2:11:29:
         31:64:a7:de:eb:96:ee:7e:3f:d2:8b:a6:1a:f8:17:cb:6d:94:
         d1:48:16:dd:15:ad:73:af:21:52:e1:89:29:a4:4b:ac:78:b4:
         83:c7:5c:68:05:df:69:c0:5e:8c:ac:21:e7:4e:32:e3:b7:ff:
         dd:39:1c:e8:bd:d3:9c:8d:55:36:a8:ae:1a:e4:ed:8c:24:a0:
         7a:04:31:01:b4:ac:91:d2:fc:a7:70:84:ed:ab:9a:a9:c0:f4:
         5a:37:46:a5:41:69:98:7f:d3:26:3b:df:eb:a6:97:04:a1:f1:
         d3:ea:28:57:de:cf:13:b0:8d:31:4a:39:50:1d:92:9a:8b:74:
         2d:8c:b2:97:a6:84:dc:46:89:2d:8b:72:ae:90:d6:c3:5d:87:
         52:45:96:fc:a6:2b:c2:0f:f9:2f:be:b1:e8:b3:86:48:24:b9:
         fe:39:7d:ad:7a:fe:6b:8c:ad:c7:f8:0e:39:f1:ca:83:45:03:
         3a:2c:6f:7b:c0:d1:57:04:49:d0:dd:62:a3:5f:75:fb:8f:c1:
         b6:05:f7:12:e1:59:f5:a1:05:40:d8:fc:26:96:d1:2c:b2:9c:
         ae:76:d5:44:da:a7:53:74:da:e8:40:a0:68:69:f2:a0:30:8f:
         21:8f:66:32:f7:f9:a8:8d:08:69:b3:d0:7f:94:d5:73:f3:ed:
         7a:df:83:2b:fa:35:aa:3e:32:14:b6:90:ce:1d:b6:e9:b8:fa:
         fc:f3:8d:fd:9a:48:25:ab:7c:4e:bb:bc:0f:5e:5e:ff:47:9d:
         08:e3:ce:e6:51:da:e8:1e:14:fa:bf:8c:33:40:7f:3f:6d:31:
         2b:9e:ec:5e:50:07:f7:c2:62:1d:6f:3c:71:9f:84:8d:da:26:
         16:4d:23:bf:1c:c3:e1:a5
-----BEGIN CERTIFICATE-----
MIIGjzCCBHegAwIBAgICAT0wDQYJKoZIhvcNAQELBQAwczELMAkGA1UEBhMCZnIx
DDAKBgNVBAgMA2lkZjEOMAwGA1UEBwwFcGFyaXMxDjAMBgNVBAoMBXZpdGFtMRQw
EgYDVQQLDAthdXRob3JpdGllczEgMB4GA1UEAwwXY2Ffcm9vdF9jbGllbnQtZXh0
ZXJuYWwwHhcNMTkxMTIyMDg1MzM0WhcNMjkxMTE5MDg1MzM0WjB7MQswCQYDVQQG
EwJmcjEMMAoGA1UECAwDaWRmMQ4wDAYDVQQHDAVwYXJpczEOMAwGA1UECgwFdml0
YW0xFDASBgNVBAsMC2F1dGhvcml0aWVzMSgwJgYDVQQDDB9jYV9pbnRlcm1lZGlh
dGVfY2xpZW50LWV4dGVybmFsMIICIjANBgkqhkiG9w0BAQEFAAOCAg8AMIICCgKC
AgEAue9R39uBexXRYzoacDu6iaK+m7ZO/AcXvlDD6vojLqOQY5V1rWFGe2ACzc2R
453bT72JJUufMZa8YkFnTGBDCgv9/Kzi7qzopd+5TROkuxiLlj+Htppte9RLyyRQ
rDYE1TFwCAtSw0QkXsXMUDc40uGFFo4fXDszqFLtpoolCj8qPyM5NNuyvkEyOLxy
sxPphhPNy3DPCW5BSYxmZqGBzGtFC1v4dQqj2yj0orXOyRNdJj3a6OIFN4PUMIl2
IZoqUeWLxSzzL/sApdDfx24cNk+RSBzecuCQb0lLxMa0iGrc8yYbcZmQ4Z+gFXGI
AIQEA4tQAWKxvL4Z9EbGQFKryH1JaHaNQZbsSR6darI3QC6w7HLQhnjp0kyazf4I
xt4hOuXkQ7BPEjKVNYu8Nz6kbUi/xub4ljN89C1DYhXEV9GDHuBQ5L3SexJGcIhB
ZLnlWS8oZ5G2qSBhzn9wJXdyqTwc1H2vJ9y3uCe7xP461UMqDBBp9bPStNWJuw6y
dA0WDMUucD5SV8tAcDAc4mJieidFu6W25pg4/gAWkxzOwFPms73DKMdocohQ/jBn
rFz7hZrxk40Eh9JU6fFT+XWitnw1lYL9cwM2BNr6PyiGNEXJr9n11JVXZB7bFcPQ
SNqp/ysz2V4VxZIf6Lt6kRld+im+YIKdQPQyvo8wD/CaaA0CAwEAAaOCASMwggEf
MB4GCWCGSAGG+EIBDQQRFg9DQSBJbnRlcm1lZGlhdGUwHQYDVR0OBBYEFJo35Dv6
zNyYktIyUhDd/i5vDkMZMIGeBgNVHSMEgZYwgZOAFDmqvirUUjKfybn14B4OfO0q
9V4XoXekdTBzMQswCQYDVQQGEwJmcjEMMAoGA1UECAwDaWRmMQ4wDAYDVQQHDAVw
YXJpczEOMAwGA1UECgwFdml0YW0xFDASBgNVBAsMC2F1dGhvcml0aWVzMSAwHgYD
VQQDDBdjYV9yb290X2NsaWVudC1leHRlcm5hbIICATwwEgYDVR0TAQH/BAgwBgEB
/wIBADAJBgNVHRIEAjAAMAsGA1UdDwQEAwIBBjARBglghkgBhvhCAQEEBAMCAgQw
DQYJKoZIhvcNAQELBQADggIBAKluaMt7doGM0fRGG+Bzy9B33bZhXB3eg+bkMDIl
2Z2jxzuEcDOE6TB2iDEPCfWbdBqiFi+v1cuXI57JKZltpk5vsFfOgw6HS1Tu+h+P
RwcYhAXFZPSsixFIPjArza69u1numG4JZvfKFhvY+JIZm2Gjkklk+VDJ95rpG83P
JkPQ8dtjsjOlBLDel+U8XC0ASIELbmfzt6V/EGOqxeaNuL4mK417qWeguVQqQRku
81J+wqIRKTFkp97rlu5+P9KLphr4F8ttlNFIFt0VrXOvIVLhiSmkS6x4tIPHXGgF
32nAXoysIedOMuO3/905HOi905yNVTaorhrk7YwkoHoEMQG0rJHS/KdwhO2rmqnA
9Fo3RqVBaZh/0yY73+umlwSh8dPqKFfezxOwjTFKOVAdkpqLdC2MspemhNxGiS2L
cq6Q1sNdh1JFlvymK8IP+S++seizhkgkuf45fa16/muMrcf4DjnxyoNFAzosb3vA
0VcESdDdYqNfdfuPwbYF9xLhWfWhBUDY/CaW0SyynK521UTap1N02uhAoGhp8qAw
jyGPZjL3+aiNCGmz0H+U1XPz7Xrfgyv6Nao+MhS2kM4dtum4+vzzjf2aSCWrfE67
vA9eXv9HnQjjzuZR2ugeFPq/jDNAfz9tMSue7F5QB/fCYh1vPHGfhI3aJhZNI78c
w+Gl
-----END CERTIFICATE-----
