Certificate:
    Data:
        Version: 3 (0x2)
        Serial Number: 316 (0x13c)
    Signature Algorithm: sha256WithRSAEncryption
        Issuer: C=fr, ST=idf, L=paris, O=vitam, OU=authorities, CN=ca_root_client-external
        Validity
            Not Before: Nov 22 08:53:33 2019 GMT
            Not After : Nov 19 08:53:33 2029 GMT
        Subject: C=fr, ST=idf, L=paris, O=vitam, OU=authorities, CN=ca_root_client-external
        Subject Public Key Info:
            Public Key Algorithm: rsaEncryption
                Public-Key: (4096 bit)
                Modulus:
                    00:d5:80:14:a1:6e:01:98:ee:c3:9b:38:b4:09:8c:
                    eb:d9:9f:4f:19:6c:b1:6c:31:85:d1:c5:fd:e9:41:
                    b4:97:5f:d6:0c:b0:8e:98:42:63:bb:5e:ef:23:11:
                    a7:5b:b8:9e:26:7f:c5:e8:ef:05:52:f2:78:b6:80:
                    a1:cf:58:5c:ec:f6:e9:0a:d6:ef:68:87:15:24:45:
                    94:1d:03:40:e2:77:94:4f:f2:5c:28:52:8f:0e:ba:
                    c2:ad:2c:a6:d1:c5:b2:ff:b1:48:26:87:fe:68:8a:
                    96:68:70:a5:f0:d5:8b:94:c8:56:87:4d:64:4f:9b:
                    50:01:98:81:46:bc:10:81:c2:83:62:ef:27:2e:55:
                    aa:22:d9:4c:c7:eb:63:ca:00:2c:88:2b:6d:26:c7:
                    04:aa:e5:86:f2:33:12:19:4c:be:f4:a6:02:d6:c4:
                    06:9d:a7:0e:29:5c:83:29:c5:44:75:60:e7:87:ab:
                    61:06:52:e4:f3:a4:5b:9d:96:26:1a:47:e7:b2:7e:
                    d7:41:9e:39:9d:21:08:76:60:0a:35:3b:04:21:4d:
                    4d:47:6d:42:04:d7:b9:97:13:b0:27:e2:53:70:7e:
                    19:54:b2:3c:94:24:d4:21:8b:ce:8d:5e:04:a5:e8:
                    d5:c9:0d:c8:57:38:87:eb:a5:ab:19:2d:6f:78:ca:
                    77:10:bc:6a:48:75:48:84:a2:77:c9:4b:34:a9:fc:
                    5d:fb:34:3f:e9:34:91:33:05:f2:60:de:ec:cc:b1:
                    4f:32:e2:3c:33:e7:b9:57:da:4f:7b:ee:ee:21:bf:
                    87:de:db:ef:94:90:84:59:a5:19:45:e8:47:e4:b0:
                    1b:ab:0f:48:ff:5a:50:e4:e4:0c:d3:f5:1f:33:1e:
                    e1:ff:95:b5:cd:9b:19:85:57:06:a2:a3:99:91:49:
                    9c:c3:00:aa:fc:16:c0:1c:67:91:22:e0:f6:e6:e8:
                    a0:10:dc:7b:cd:9c:07:88:70:b8:dd:2b:23:e0:92:
                    45:bf:1a:95:4e:fa:85:80:ce:f8:e1:40:83:85:59:
                    9a:ae:f5:bd:74:03:ed:d9:e3:8a:4f:c8:ea:57:00:
                    87:f2:49:6b:ed:36:06:1d:8f:9a:ce:6a:65:82:9c:
                    13:da:30:e1:4a:94:61:4a:2c:88:57:db:3d:f7:61:
                    43:df:c6:37:29:b9:c3:90:74:13:0b:8b:4a:8f:fe:
                    59:32:98:d2:46:07:77:4c:a1:9c:23:d7:6d:b7:c1:
                    58:ee:47:8b:ff:9a:ff:6e:5a:b6:fb:8c:76:6d:72:
                    73:d8:62:5c:e2:a8:30:c4:98:e9:9f:e8:25:39:31:
                    39:b3:a5:2e:45:5e:e3:86:f3:94:b5:a5:cd:fe:6b:
                    39:26:7b
                Exponent: 65537 (0x10001)
        X509v3 extensions:
            Netscape Comment:
                CA Root
            X509v3 Subject Key Identifier:
                39:AA:BE:2A:D4:52:32:9F:C9:B9:F5:E0:1E:0E:7C:ED:2A:F5:5E:17
            X509v3 Authority Key Identifier:
                keyid:39:AA:BE:2A:D4:52:32:9F:C9:B9:F5:E0:1E:0E:7C:ED:2A:F5:5E:17

            X509v3 Basic Constraints: critical
                CA:TRUE, pathlen:1
            X509v3 Key Usage:
                Certificate Sign, CRL Sign
            Netscape Cert Type:
                SSL CA
    Signature Algorithm: sha256WithRSAEncryption
         08:0f:f4:8f:c3:c9:df:c1:70:b9:e9:23:ba:1d:58:cf:48:e7:
         5a:e3:18:d3:1e:a9:14:ee:21:a7:33:e2:23:6e:cd:8f:8a:5e:
         e0:23:62:81:8d:0d:cc:31:dc:11:75:67:a7:13:41:e6:4d:61:
         53:f1:30:41:a5:f8:de:14:d0:fd:16:ba:45:71:4a:7e:00:62:
         c0:1d:9c:79:f1:57:f0:11:7c:b4:0d:4d:10:3b:b6:84:b4:0c:
         8e:e0:0e:04:88:b3:11:b2:7b:0b:88:b3:5f:44:c8:14:15:70:
         75:6a:a2:ab:df:cd:0a:24:44:83:98:30:a5:d6:0e:98:17:67:
         a4:30:8f:83:f7:53:ef:b3:4d:26:49:ea:25:ad:fc:10:54:8b:
         1d:02:0b:c9:d2:90:9e:d1:d0:0a:4c:d4:bd:8a:d3:4f:41:d9:
         c7:4a:bf:90:5b:e9:90:14:a6:34:42:c7:6f:3c:b5:92:cb:a7:
         f3:65:49:16:46:48:02:c1:f4:3a:5f:0d:5e:ed:1b:b8:7b:19:
         f5:47:48:0d:8c:5f:9b:12:2f:59:4b:db:db:6c:27:44:e5:d0:
         d4:bf:2b:0f:96:6b:a5:0f:df:05:bf:9f:16:8c:cc:2c:0c:25:
         e2:cb:7e:31:27:6c:44:b9:69:2a:6d:8e:fd:1f:1b:5d:fc:d7:
         4e:ab:c8:a7:76:15:3b:61:ca:20:c4:5b:0c:5f:4e:b5:81:91:
         a2:db:d0:a5:f6:79:89:7f:4a:63:48:8a:bd:a0:e8:44:fa:45:
         10:ae:27:7b:f3:58:10:70:98:e9:ef:43:b0:3e:18:0d:00:9e:
         5e:bf:da:83:fe:0b:3e:01:49:37:17:d9:f1:27:5d:ad:98:3a:
         7c:6b:e3:25:ef:74:b3:bd:6e:7e:59:f1:21:38:6c:98:97:05:
         50:b4:52:d7:f4:10:d7:88:19:f2:c8:0c:9b:b8:60:08:ce:f9:
         63:24:95:0d:7f:40:97:e6:59:ce:b3:1b:24:88:50:83:27:fe:
         92:fc:32:13:42:a1:7f:38:7c:96:82:a2:29:90:07:46:14:04:
         ee:51:64:ae:bd:d7:46:ff:5b:03:66:9d:1a:1e:17:1f:94:e9:
         5a:a2:40:71:7e:07:85:8e:a0:db:f7:85:87:51:d4:74:f2:67:
         b1:b5:60:c7:e6:09:69:4d:ac:6a:4f:19:37:fc:9a:9a:5c:d7:
         95:ad:12:60:b3:3e:69:5e:59:d6:ff:7d:7c:e8:71:70:54:a5:
         38:c3:41:e8:c1:0d:b6:07:b6:8b:4b:11:33:f5:2c:bb:e9:cf:
         49:8e:54:06:01:06:dc:37:fa:65:84:75:d1:98:2d:b7:4f:37:
         68:42:cf:aa:89:da:b3:91
-----BEGIN CERTIFICATE-----
MIIF8jCCA9qgAwIBAgICATwwDQYJKoZIhvcNAQELBQAwczELMAkGA1UEBhMCZnIx
DDAKBgNVBAgMA2lkZjEOMAwGA1UEBwwFcGFyaXMxDjAMBgNVBAoMBXZpdGFtMRQw
EgYDVQQLDAthdXRob3JpdGllczEgMB4GA1UEAwwXY2Ffcm9vdF9jbGllbnQtZXh0
ZXJuYWwwHhcNMTkxMTIyMDg1MzMzWhcNMjkxMTE5MDg1MzMzWjBzMQswCQYDVQQG
EwJmcjEMMAoGA1UECAwDaWRmMQ4wDAYDVQQHDAVwYXJpczEOMAwGA1UECgwFdml0
YW0xFDASBgNVBAsMC2F1dGhvcml0aWVzMSAwHgYDVQQDDBdjYV9yb290X2NsaWVu
dC1leHRlcm5hbDCCAiIwDQYJKoZIhvcNAQEBBQADggIPADCCAgoCggIBANWAFKFu
AZjuw5s4tAmM69mfTxlssWwxhdHF/elBtJdf1gywjphCY7te7yMRp1u4niZ/xejv
BVLyeLaAoc9YXOz26QrW72iHFSRFlB0DQOJ3lE/yXChSjw66wq0sptHFsv+xSCaH
/miKlmhwpfDVi5TIVodNZE+bUAGYgUa8EIHCg2LvJy5VqiLZTMfrY8oALIgrbSbH
BKrlhvIzEhlMvvSmAtbEBp2nDilcgynFRHVg54erYQZS5POkW52WJhpH57J+10Ge
OZ0hCHZgCjU7BCFNTUdtQgTXuZcTsCfiU3B+GVSyPJQk1CGLzo1eBKXo1ckNyFc4
h+ulqxktb3jKdxC8akh1SISid8lLNKn8Xfs0P+k0kTMF8mDe7MyxTzLiPDPnuVfa
T3vu7iG/h97b75SQhFmlGUXoR+SwG6sPSP9aUOTkDNP1HzMe4f+Vtc2bGYVXBqKj
mZFJnMMAqvwWwBxnkSLg9ubooBDce82cB4hwuN0rI+CSRb8alU76hYDO+OFAg4VZ
mq71vXQD7dnjik/I6lcAh/JJa+02Bh2Pms5qZYKcE9ow4UqUYUosiFfbPfdhQ9/G
Nym5w5B0EwuLSo/+WTKY0kYHd0yhnCPXbbfBWO5Hi/+a/25atvuMdm1yc9hiXOKo
MMSY6Z/oJTkxObOlLkVe44bzlLWlzf5rOSZ7AgMBAAGjgY8wgYwwFgYJYIZIAYb4
QgENBAkWB0NBIFJvb3QwHQYDVR0OBBYEFDmqvirUUjKfybn14B4OfO0q9V4XMB8G
A1UdIwQYMBaAFDmqvirUUjKfybn14B4OfO0q9V4XMBIGA1UdEwEB/wQIMAYBAf8C
AQEwCwYDVR0PBAQDAgEGMBEGCWCGSAGG+EIBAQQEAwICBDANBgkqhkiG9w0BAQsF
AAOCAgEACA/0j8PJ38Fwuekjuh1Yz0jnWuMY0x6pFO4hpzPiI27Nj4pe4CNigY0N
zDHcEXVnpxNB5k1hU/EwQaX43hTQ/Ra6RXFKfgBiwB2cefFX8BF8tA1NEDu2hLQM
juAOBIizEbJ7C4izX0TIFBVwdWqiq9/NCiREg5gwpdYOmBdnpDCPg/dT77NNJknq
Ja38EFSLHQILydKQntHQCkzUvYrTT0HZx0q/kFvpkBSmNELHbzy1ksun82VJFkZI
AsH0Ol8NXu0buHsZ9UdIDYxfmxIvWUvb22wnROXQ1L8rD5ZrpQ/fBb+fFozMLAwl
4st+MSdsRLlpKm2O/R8bXfzXTqvIp3YVO2HKIMRbDF9OtYGRotvQpfZ5iX9KY0iK
vaDoRPpFEK4ne/NYEHCY6e9DsD4YDQCeXr/ag/4LPgFJNxfZ8SddrZg6fGvjJe90
s71uflnxIThsmJcFULRS1/QQ14gZ8sgMm7hgCM75YySVDX9Al+ZZzrMbJIhQgyf+
kvwyE0Khfzh8loKiKZAHRhQE7lFkrr3XRv9bA2adGh4XH5TpWqJAcX4HhY6g2/eF
h1HUdPJnsbVgx+YJaU2sak8ZN/yamlzXla0SYLM+aV5Z1v99fOhxcFSlOMNB6MEN
tge2i0sRM/Usu+nPSY5UBgEG3Df6ZYR10Zgtt083aELPqonas5E=
-----END CERTIFICATE-----
