Certificate:
    Data:
        Version: 3 (0x2)
        Serial Number: 335 (0x14f)
    Signature Algorithm: sha256WithRSAEncryption
        Issuer: C=fr, ST=idf, L=paris, O=vitam, OU=authorities, CN=ca_intermediate_client-iam
        Validity
            Not Before: Dec 19 12:46:12 2019 GMT
            Not After : Dec 18 12:46:12 2022 GMT
        Subject: C=fr, ST=idf, L=paris, O=vitam, CN=reverse
        Subject Public Key Info:
            Public Key Algorithm: rsaEncryption
                Public-Key: (4096 bit)
                Modulus:
                    00:c9:70:c6:04:1f:c9:6f:6a:15:07:a0:09:a0:1b:
                    a4:84:05:58:d6:f1:a2:87:af:c0:88:b0:29:48:3c:
                    4f:b1:d1:fc:20:44:72:99:26:56:13:58:da:fe:8d:
                    71:d9:2c:75:d2:ee:56:81:4e:12:12:51:86:86:f0:
                    1e:35:6a:5d:44:f7:b6:a0:33:39:14:4b:2f:38:b5:
                    72:27:2f:17:96:86:3b:05:8e:e9:ac:15:6b:3e:ed:
                    c7:ad:fb:a3:b1:4c:dd:25:50:21:eb:47:20:3f:6b:
                    e6:df:5d:5c:98:56:0d:ac:8f:be:b1:58:a5:c9:6d:
                    a3:75:71:92:7e:5c:b2:2c:54:3f:7e:46:38:76:4a:
                    df:16:55:56:e8:e3:53:fa:05:56:de:96:b0:82:67:
                    19:b4:b1:b4:20:37:bc:93:e7:e5:95:3c:20:4f:ce:
                    44:97:5f:0b:0d:b4:28:96:90:de:72:d3:66:3a:53:
                    36:9a:24:0d:0d:eb:34:6c:fa:96:59:16:a6:57:c0:
                    81:26:c6:15:65:b5:76:53:28:a3:dd:0a:d6:36:9d:
                    b1:09:24:c2:81:f2:0d:d6:33:b8:d8:f7:de:ff:df:
                    09:69:02:ef:64:97:d1:e4:6e:fc:16:ab:a2:3f:79:
                    a8:4c:5f:2b:43:ba:1e:c9:36:db:80:0a:6f:51:ab:
                    d4:22:ae:c1:ed:89:e8:ef:0b:5e:ef:1d:07:6b:ac:
                    47:6e:44:88:2f:a5:34:ef:93:7a:2a:6a:05:50:0d:
                    d7:d2:8c:2a:19:77:fb:90:7b:84:40:9c:10:d7:31:
                    f2:c4:ab:6f:3e:46:1b:0d:06:db:19:52:5f:85:e0:
                    fb:ac:34:0c:4a:9a:0c:49:07:42:25:91:b9:22:56:
                    5e:7e:7f:8f:df:e5:85:a4:b9:32:d6:6b:22:e7:83:
                    9f:38:4a:59:26:3b:22:32:1e:ea:86:a6:2a:df:21:
                    5c:e5:bc:89:ab:84:12:e4:3d:f7:33:2b:59:41:1b:
                    05:24:ef:57:50:d5:4f:3f:00:cf:dd:e1:ec:99:90:
                    08:77:11:00:09:1d:a1:f5:88:97:32:14:18:8d:5e:
                    b2:77:fd:97:f2:25:53:4a:5a:bb:97:f1:5b:5f:22:
                    bf:a4:99:69:b6:74:4a:26:54:35:a2:f2:4e:cd:fa:
                    19:e7:e7:ec:d7:5e:1d:2d:c0:fa:7e:66:d8:ea:bb:
                    3a:5f:b8:56:84:38:54:54:4d:5c:5b:f8:f2:dc:f9:
                    be:b9:26:86:40:dd:14:57:9e:30:f8:2d:28:d7:30:
                    b5:1f:9c:a3:a9:04:8b:90:c3:31:f2:42:bd:1c:3e:
                    60:9c:a2:db:85:5d:06:05:77:b6:ba:a8:62:7f:9d:
                    53:cd:c9
                Exponent: 65537 (0x10001)
        X509v3 extensions:
            Netscape Comment:
                Certificat Client SSL
            X509v3 Subject Key Identifier:
                E1:AA:EA:97:14:33:BC:ED:79:6B:4B:A4:F1:A5:19:CB:DB:8A:49:46
            X509v3 Authority Key Identifier:
                keyid:7B:18:08:2E:95:8A:91:4C:77:F3:8C:25:18:0E:F3:91:60:4A:7B:D7
                DirName:/C=fr/ST=idf/L=paris/O=vitam/OU=authorities/CN=ca_root_client-iam
                serial:01:4D

            X509v3 Issuer Alternative Name:
                <EMPTY>

            X509v3 Basic Constraints: critical
                CA:FALSE
            X509v3 Key Usage:
                Digital Signature
            Netscape Cert Type:
                SSL Client
            X509v3 Extended Key Usage:
                TLS Web Client Authentication
    Signature Algorithm: sha256WithRSAEncryption
         37:8b:66:eb:32:ed:40:7a:5d:21:59:f6:11:47:91:7f:c9:fd:
         d3:ce:8a:2f:42:ad:f9:ac:3e:2d:d5:f8:8e:80:54:0c:32:f3:
         42:b1:ec:e2:9f:9e:27:52:17:86:66:94:3f:a6:3f:ed:c8:08:
         b5:de:b7:5a:d9:ec:eb:b5:25:c9:95:24:4b:88:4e:36:44:3c:
         55:bc:5f:fe:56:74:31:e9:3f:c7:6b:1e:32:e5:63:aa:b6:94:
         78:c7:dc:d0:27:a3:e6:d5:d4:db:ef:2a:48:b6:fe:e6:93:d3:
         d7:8e:38:fc:c7:b7:c2:fb:c9:83:0e:47:2a:84:9a:35:a6:07:
         73:f1:ad:3f:5f:22:2f:09:19:9b:d3:74:55:4d:ec:bd:f0:e5:
         2b:fe:2b:71:58:f7:aa:a4:a6:7c:bf:b7:24:ce:ea:96:86:51:
         8e:f5:e0:c2:0b:0f:bc:58:97:78:ab:d2:12:27:c5:cf:20:f7:
         34:2b:0c:08:38:22:86:81:18:7e:56:e8:d3:bc:22:ff:32:18:
         70:10:b6:35:b7:42:55:59:71:41:e3:bc:cc:0f:f9:22:64:4c:
         93:de:c8:86:88:84:fb:6d:01:8c:8d:2e:87:d2:7b:0d:75:b9:
         c3:1e:9f:aa:77:23:10:31:be:98:d2:fc:15:4c:ba:07:05:01:
         a4:3f:a4:b1:14:16:76:a0:c8:c4:c9:17:5f:74:c1:84:4b:76:
         89:26:d7:b1:29:b5:49:98:5a:17:b4:db:4b:f8:09:3e:26:7a:
         01:9d:59:3b:77:1e:bb:27:49:18:f2:8e:ce:63:8c:5e:8b:e9:
         79:93:bc:91:61:25:38:a0:c4:d1:c7:cc:2b:bf:73:6b:c3:15:
         fe:df:ee:0a:2d:d1:07:ee:2f:4e:8a:11:d4:44:a1:26:4a:5a:
         f6:cf:c8:fe:9c:fc:e3:c3:f2:79:8b:8b:39:10:d5:b4:20:dc:
         05:77:4c:37:e8:56:9a:0a:98:b7:ca:c7:b8:73:ce:b8:4b:12:
         e1:09:ab:18:47:59:8b:fd:2c:28:aa:ab:ef:c8:5d:c3:75:b1:
         d5:35:ed:ca:c4:35:7c:77:9d:d0:e2:93:56:7f:79:4c:c5:d8:
         4b:c6:70:0e:f1:4c:86:b6:65:ef:fb:a2:27:6e:83:1e:40:08:
         95:a3:14:af:4a:fb:c8:de:88:de:3d:d8:53:83:98:5b:d2:ba:
         79:22:47:b6:11:38:99:6c:d8:99:4d:49:9e:07:0f:f6:ff:87:
         d0:1c:f2:a3:9e:4d:81:6b:d3:8e:f5:d6:08:c2:44:c0:68:6c:
         32:09:1c:32:cb:aa:52:7c:b9:36:de:aa:53:63:b1:f6:54:4a:
         d4:42:71:8b:9c:ee:74:4e
-----BEGIN CERTIFICATE-----
MIIGdDCCBFygAwIBAgICAU8wDQYJKoZIhvcNAQELBQAwdjELMAkGA1UEBhMCZnIx
DDAKBgNVBAgMA2lkZjEOMAwGA1UEBwwFcGFyaXMxDjAMBgNVBAoMBXZpdGFtMRQw
EgYDVQQLDAthdXRob3JpdGllczEjMCEGA1UEAwwaY2FfaW50ZXJtZWRpYXRlX2Ns
aWVudC1pYW0wHhcNMTkxMjE5MTI0NjEyWhcNMjIxMjE4MTI0NjEyWjBNMQswCQYD
VQQGEwJmcjEMMAoGA1UECAwDaWRmMQ4wDAYDVQQHDAVwYXJpczEOMAwGA1UECgwF
dml0YW0xEDAOBgNVBAMMB3JldmVyc2UwggIiMA0GCSqGSIb3DQEBAQUAA4ICDwAw
ggIKAoICAQDJcMYEH8lvahUHoAmgG6SEBVjW8aKHr8CIsClIPE+x0fwgRHKZJlYT
WNr+jXHZLHXS7laBThISUYaG8B41al1E97agMzkUSy84tXInLxeWhjsFjumsFWs+
7cet+6OxTN0lUCHrRyA/a+bfXVyYVg2sj76xWKXJbaN1cZJ+XLIsVD9+Rjh2St8W
VVbo41P6BVbelrCCZxm0sbQgN7yT5+WVPCBPzkSXXwsNtCiWkN5y02Y6UzaaJA0N
6zRs+pZZFqZXwIEmxhVltXZTKKPdCtY2nbEJJMKB8g3WM7jY997/3wlpAu9kl9Hk
bvwWq6I/eahMXytDuh7JNtuACm9Rq9QirsHtiejvC17vHQdrrEduRIgvpTTvk3oq
agVQDdfSjCoZd/uQe4RAnBDXMfLEq28+RhsNBtsZUl+F4PusNAxKmgxJB0Ilkbki
Vl5+f4/f5YWkuTLWayLng584SlkmOyIyHuqGpirfIVzlvImrhBLkPfczK1lBGwUk
71dQ1U8/AM/d4eyZkAh3EQAJHaH1iJcyFBiNXrJ3/ZfyJVNKWruX8VtfIr+kmWm2
dEomVDWi8k7N+hnn5+zXXh0twPp+ZtjquzpfuFaEOFRUTVxb+PLc+b65JoZA3RRX
njD4LSjXMLUfnKOpBIuQwzHyQr0cPmCcotuFXQYFd7a6qGJ/nVPNyQIDAQABo4IB
MzCCAS8wJAYJYIZIAYb4QgENBBcWFUNlcnRpZmljYXQgQ2xpZW50IFNTTDAdBgNV
HQ4EFgQU4arqlxQzvO15a0uk8aUZy9uKSUYwgZkGA1UdIwSBkTCBjoAUexgILpWK
kUx384wlGA7zkWBKe9ehcqRwMG4xCzAJBgNVBAYTAmZyMQwwCgYDVQQIDANpZGYx
DjAMBgNVBAcMBXBhcmlzMQ4wDAYDVQQKDAV2aXRhbTEUMBIGA1UECwwLYXV0aG9y
aXRpZXMxGzAZBgNVBAMMEmNhX3Jvb3RfY2xpZW50LWlhbYICAU0wCQYDVR0SBAIw
ADAMBgNVHRMBAf8EAjAAMAsGA1UdDwQEAwIHgDARBglghkgBhvhCAQEEBAMCB4Aw
EwYDVR0lBAwwCgYIKwYBBQUHAwIwDQYJKoZIhvcNAQELBQADggIBADeLZusy7UB6
XSFZ9hFHkX/J/dPOii9CrfmsPi3V+I6AVAwy80Kx7OKfnidSF4ZmlD+mP+3ICLXe
t1rZ7Ou1JcmVJEuITjZEPFW8X/5WdDHpP8drHjLlY6q2lHjH3NAno+bV1NvvKki2
/uaT09eOOPzHt8L7yYMORyqEmjWmB3PxrT9fIi8JGZvTdFVN7L3w5Sv+K3FY96qk
pny/tyTO6paGUY714MILD7xYl3ir0hInxc8g9zQrDAg4IoaBGH5W6NO8Iv8yGHAQ
tjW3QlVZcUHjvMwP+SJkTJPeyIaIhPttAYyNLofSew11ucMen6p3IxAxvpjS/BVM
ugcFAaQ/pLEUFnagyMTJF190wYRLdokm17EptUmYWhe020v4CT4megGdWTt3Hrsn
SRjyjs5jjF6L6XmTvJFhJTigxNHHzCu/c2vDFf7f7got0QfuL06KEdREoSZKWvbP
yP6c/OPD8nmLizkQ1bQg3AV3TDfoVpoKmLfKx7hzzrhLEuEJqxhHWYv9LCiqq+/I
XcN1sdU17crENXx3ndDik1Z/eUzF2EvGcA7xTIa2Ze/7oidugx5ACJWjFK9K+8je
iN492FODmFvSunkiR7YROJls2JlNSZ4HD/b/h9Ac8qOeTYFr04711gjCRMBobDIJ
HDLLqlJ8uTbeqlNjsfZUStRCcYuc7nRO
-----END CERTIFICATE-----
