Certificate:
    Data:
        Version: 3 (0x2)
        Serial Number: 339 (0x153)
    Signature Algorithm: sha256WithRSAEncryption
        Issuer: C=fr, ST=idf, L=paris, O=vitam, OU=authorities, CN=ca_intermediate_client-iam
        Validity
            Not Before: May 29 15:37:58 2020 GMT
            Not After : May 29 15:37:58 2023 GMT
        Subject: C=fr, ST=idf, L=paris, O=vitam, CN=reverse
        Subject Public Key Info:
            Public Key Algorithm: rsaEncryption
                Public-Key: (4096 bit)
                Modulus:
                    00:9d:f5:bd:f6:b5:2d:71:0f:90:eb:4e:a3:c1:d6:
                    2b:ec:49:bd:a0:ad:40:bf:de:90:27:ca:c9:ae:68:
                    9b:46:e6:d8:76:01:7c:3b:12:4d:fb:12:75:b5:21:
                    67:89:40:39:d0:d1:a5:62:5a:db:04:c8:e1:ee:37:
                    d9:17:70:88:c7:f3:f0:2e:40:ff:44:0d:9e:49:36:
                    d0:5e:4c:3a:a4:8e:32:75:3e:24:bb:6f:8f:22:46:
                    c0:f7:28:a8:25:e0:e9:e1:ab:9d:f3:49:7d:96:3d:
                    2e:66:1a:3e:a2:23:33:9f:7d:ae:3a:56:a9:20:58:
                    43:be:ee:49:cf:58:95:ed:0b:d6:16:24:95:46:7f:
                    2f:a0:6f:ed:10:95:1f:7f:de:a2:e6:39:53:93:09:
                    ed:3c:15:68:16:19:c1:ca:43:6d:b7:29:35:f0:4d:
                    1b:36:5c:0f:b1:92:30:9f:2c:e8:a6:d4:2d:35:15:
                    80:8f:d2:bc:65:74:6c:a0:ff:f7:d3:82:66:b0:01:
                    c4:2a:cc:91:8f:ea:ee:79:55:89:28:44:01:b5:d2:
                    35:4b:42:b2:fd:c6:29:ad:2b:b8:c6:94:cb:c3:33:
                    30:79:1e:ab:cf:04:c3:a3:8a:98:e5:a5:6f:ab:f5:
                    5c:ee:25:26:5e:57:81:e9:e2:fd:b3:9e:99:85:d4:
                    6f:7f:82:98:fb:25:ec:bc:66:2e:75:d9:ca:ab:5a:
                    06:5b:bf:57:81:8c:bc:71:87:6a:1b:0d:5e:3b:29:
                    6c:fc:62:0a:70:34:3b:e5:86:62:40:bf:88:f5:1d:
                    7c:1e:db:0f:db:9c:73:cf:97:4b:08:c8:92:23:64:
                    9d:a6:1a:1f:48:29:75:7a:28:39:7f:c1:60:00:4e:
                    63:b0:5a:d3:56:be:eb:30:30:6f:41:08:d5:b8:31:
                    63:48:b3:7e:66:91:b4:51:be:51:63:d0:3a:66:6c:
                    85:bc:c3:26:d6:80:89:f3:0f:f6:da:6b:5e:01:d8:
                    d4:74:54:5d:02:4b:25:cf:9c:37:d7:65:d6:bc:5d:
                    0e:72:9d:fa:85:7b:df:13:b4:2a:81:c5:a5:b1:b4:
                    df:9b:b9:d6:41:c7:0a:be:8c:96:22:2f:1b:ea:35:
                    cf:0b:27:94:9c:2d:03:b4:2d:d0:d1:45:2f:50:5f:
                    aa:34:9a:e6:25:44:35:e9:26:59:6a:77:d8:78:05:
                    9c:00:cc:e1:5c:1b:8e:22:ba:d0:1c:05:79:de:23:
                    d7:a2:5d:59:a8:04:7f:47:34:8c:f4:69:3d:1c:d8:
                    ed:1f:31:b3:6a:50:cc:9d:2d:f0:f3:9d:eb:49:ee:
                    81:e7:fe:55:21:cd:b7:b0:29:85:1e:96:39:e9:2d:
                    da:e7:01
                Exponent: 65537 (0x10001)
        X509v3 extensions:
            Netscape Comment: 
                Certificat Client SSL
            X509v3 Subject Key Identifier: 
                25:D7:31:48:85:22:19:F9:D0:5A:AA:BF:25:EA:4F:67:3B:10:44:F2
            X509v3 Authority Key Identifier: 
                keyid:7B:18:08:2E:95:8A:91:4C:77:F3:8C:25:18:0E:F3:91:60:4A:7B:D7
                DirName:/C=fr/ST=idf/L=paris/O=vitam/OU=authorities/CN=ca_root_client-iam
                serial:01:4D

            X509v3 Issuer Alternative Name: 
                <EMPTY>

            X509v3 Basic Constraints: critical
                CA:FALSE
            X509v3 Key Usage: 
                Digital Signature
            Netscape Cert Type: 
                SSL Client
            X509v3 Extended Key Usage: 
                TLS Web Client Authentication
    Signature Algorithm: sha256WithRSAEncryption
         71:ef:fd:83:8f:9d:bf:d1:6f:04:94:84:0b:30:bf:55:f2:72:
         b4:38:af:fa:58:b0:85:ba:24:cc:6a:fb:ca:5d:b8:62:12:54:
         ae:33:bf:72:f2:3e:f4:ad:6e:60:7f:44:6a:71:d8:e9:b6:27:
         5b:b9:dc:fa:7a:2c:e6:46:e6:ef:32:7b:26:dd:d9:cc:3c:27:
         3a:c9:a5:82:76:b7:c4:4d:00:44:95:bc:5f:a4:63:c1:f7:54:
         c0:a7:27:bb:2f:fc:96:61:97:5c:a4:f3:4a:27:90:fc:2e:12:
         61:99:58:1a:92:2c:c6:43:c5:6d:81:04:16:bc:1f:42:29:2b:
         40:da:c3:ab:72:71:18:c2:60:b3:5c:5a:60:42:4d:93:55:b5:
         fb:1e:a1:e1:15:ec:77:6e:fa:40:22:28:71:76:16:cb:41:25:
         ae:87:d0:ea:b1:a7:e6:a0:90:cf:95:e9:8d:1f:96:2a:2c:37:
         6e:7a:a5:dd:91:b4:ad:87:b0:b7:70:47:7a:d5:86:3a:d7:ed:
         21:d7:0a:1f:5f:fc:e0:e2:b5:59:84:54:01:f9:f4:ee:c5:f7:
         ec:f5:05:84:50:ee:f5:e2:e1:98:25:2f:74:3e:cd:90:e8:49:
         50:48:9e:90:16:2d:ac:90:6e:8a:9e:be:3f:0f:7f:f5:c5:e1:
         f0:24:73:c6:39:7e:53:7d:04:e6:9a:e5:ca:48:5e:d9:38:9d:
         c0:76:96:9b:c8:ad:94:6a:0d:3e:72:58:9c:cb:a7:f0:83:18:
         d5:b6:df:52:70:e1:e3:03:2e:79:8a:f4:76:67:c1:7d:fc:ff:
         d0:0b:1f:69:b9:99:fc:11:0d:2c:83:15:49:4e:8b:0c:43:a2:
         b2:72:5f:a1:9c:d1:04:91:95:c9:68:30:23:44:e6:1a:dd:94:
         68:66:be:d0:c3:81:16:97:92:1d:9f:da:c3:81:2d:6d:3f:72:
         6e:47:3c:dc:b7:e3:c9:48:ab:f9:97:05:2f:99:13:7a:e1:24:
         11:fd:62:29:37:eb:93:f7:86:a9:15:56:59:16:4b:db:52:03:
         b4:d4:ce:e3:5b:30:fa:db:89:c7:b6:b3:db:19:54:c2:90:fc:
         d1:b1:d0:e5:04:e1:af:3d:44:9b:7f:5f:a1:0f:ca:f2:0a:ab:
         94:dc:56:e8:89:f1:6c:ec:44:2e:06:3f:30:6a:e0:d5:dd:c0:
         f5:b6:3d:16:5f:ea:76:41:13:67:ea:ed:12:4a:6e:1b:57:6e:
         a3:b4:e7:68:05:e0:07:37:83:d0:26:71:8b:bb:d2:06:aa:d1:
         ce:0a:92:9f:14:6c:da:1b:63:f8:6f:f7:3d:98:e6:de:92:9e:
         9b:1a:d6:72:ad:19:ac:96
-----BEGIN CERTIFICATE-----
MIIGdDCCBFygAwIBAgICAVMwDQYJKoZIhvcNAQELBQAwdjELMAkGA1UEBhMCZnIx
DDAKBgNVBAgMA2lkZjEOMAwGA1UEBwwFcGFyaXMxDjAMBgNVBAoMBXZpdGFtMRQw
EgYDVQQLDAthdXRob3JpdGllczEjMCEGA1UEAwwaY2FfaW50ZXJtZWRpYXRlX2Ns
aWVudC1pYW0wHhcNMjAwNTI5MTUzNzU4WhcNMjMwNTI5MTUzNzU4WjBNMQswCQYD
VQQGEwJmcjEMMAoGA1UECAwDaWRmMQ4wDAYDVQQHDAVwYXJpczEOMAwGA1UECgwF
dml0YW0xEDAOBgNVBAMMB3JldmVyc2UwggIiMA0GCSqGSIb3DQEBAQUAA4ICDwAw
ggIKAoICAQCd9b32tS1xD5DrTqPB1ivsSb2grUC/3pAnysmuaJtG5th2AXw7Ek37
EnW1IWeJQDnQ0aViWtsEyOHuN9kXcIjH8/AuQP9EDZ5JNtBeTDqkjjJ1PiS7b48i
RsD3KKgl4Onhq53zSX2WPS5mGj6iIzOffa46VqkgWEO+7knPWJXtC9YWJJVGfy+g
b+0QlR9/3qLmOVOTCe08FWgWGcHKQ223KTXwTRs2XA+xkjCfLOim1C01FYCP0rxl
dGyg//fTgmawAcQqzJGP6u55VYkoRAG10jVLQrL9ximtK7jGlMvDMzB5HqvPBMOj
ipjlpW+r9VzuJSZeV4Hp4v2znpmF1G9/gpj7Jey8Zi512cqrWgZbv1eBjLxxh2ob
DV47KWz8YgpwNDvlhmJAv4j1HXwe2w/bnHPPl0sIyJIjZJ2mGh9IKXV6KDl/wWAA
TmOwWtNWvuswMG9BCNW4MWNIs35mkbRRvlFj0DpmbIW8wybWgInzD/baa14B2NR0
VF0CSyXPnDfXZda8XQ5ynfqFe98TtCqBxaWxtN+budZBxwq+jJYiLxvqNc8LJ5Sc
LQO0LdDRRS9QX6o0muYlRDXpJllqd9h4BZwAzOFcG44iutAcBXneI9eiXVmoBH9H
NIz0aT0c2O0fMbNqUMydLfDznetJ7oHn/lUhzbewKYUeljnpLdrnAQIDAQABo4IB
MzCCAS8wJAYJYIZIAYb4QgENBBcWFUNlcnRpZmljYXQgQ2xpZW50IFNTTDAdBgNV
HQ4EFgQUJdcxSIUiGfnQWqq/JepPZzsQRPIwgZkGA1UdIwSBkTCBjoAUexgILpWK
kUx384wlGA7zkWBKe9ehcqRwMG4xCzAJBgNVBAYTAmZyMQwwCgYDVQQIDANpZGYx
DjAMBgNVBAcMBXBhcmlzMQ4wDAYDVQQKDAV2aXRhbTEUMBIGA1UECwwLYXV0aG9y
aXRpZXMxGzAZBgNVBAMMEmNhX3Jvb3RfY2xpZW50LWlhbYICAU0wCQYDVR0SBAIw
ADAMBgNVHRMBAf8EAjAAMAsGA1UdDwQEAwIHgDARBglghkgBhvhCAQEEBAMCB4Aw
EwYDVR0lBAwwCgYIKwYBBQUHAwIwDQYJKoZIhvcNAQELBQADggIBAHHv/YOPnb/R
bwSUhAswv1XycrQ4r/pYsIW6JMxq+8pduGISVK4zv3LyPvStbmB/RGpx2Om2J1u5
3Pp6LOZG5u8yeybd2cw8JzrJpYJ2t8RNAESVvF+kY8H3VMCnJ7sv/JZhl1yk80on
kPwuEmGZWBqSLMZDxW2BBBa8H0IpK0Daw6tycRjCYLNcWmBCTZNVtfseoeEV7Hdu
+kAiKHF2FstBJa6H0Oqxp+agkM+V6Y0fliosN256pd2RtK2HsLdwR3rVhjrX7SHX
Ch9f/ODitVmEVAH59O7F9+z1BYRQ7vXi4ZglL3Q+zZDoSVBInpAWLayQboqevj8P
f/XF4fAkc8Y5flN9BOaa5cpIXtk4ncB2lpvIrZRqDT5yWJzLp/CDGNW231Jw4eMD
LnmK9HZnwX38/9ALH2m5mfwRDSyDFUlOiwxDorJyX6Gc0QSRlcloMCNE5hrdlGhm
vtDDgRaXkh2f2sOBLW0/cm5HPNy348lIq/mXBS+ZE3rhJBH9Yik365P3hqkVVlkW
S9tSA7TUzuNbMPrbice2s9sZVMKQ/NGx0OUE4a89RJt/X6EPyvIKq5TcVuiJ8Wzs
RC4GPzBq4NXdwPW2PRZf6nZBE2fq7RJKbhtXbqO052gF4Ac3g9AmcYu70gaq0c4K
kp8UbNobY/hv9z2Y5t6Snpsa1nKtGayW
-----END CERTIFICATE-----
