Certificate:
    Data:
        Version: 1 (0x0)
        Serial Number: 6 (0x6)
        Signature Algorithm: sha256WithRSAEncryption
        Issuer: C=fr, ST=idf, L=paris, O=vitamui, OU=authorities, CN=ca_intermediate_server
        Validity
            Not Before: Apr 21 08:37:16 2020 GMT
            Not After : Apr 21 08:37:16 2023 GMT
        Subject: C=fr, ST=idf, L=paris, O=vitamui, CN=cas-server.service.consul
        Subject Public Key Info:
            Public Key Algorithm: rsaEncryption
                RSA Public-Key: (4096 bit)
                Modulus:
                    00:b0:ce:ac:82:32:03:a3:7e:92:98:79:a9:a1:13:
                    80:d8:86:2c:47:9b:66:bf:20:81:f3:f5:42:e4:06:
                    49:67:34:91:7c:13:1a:5e:af:d3:58:d1:50:16:35:
                    77:2c:a3:f4:62:7a:69:9a:e9:35:28:cb:ea:e7:3a:
                    56:08:97:19:bf:98:35:1b:47:1c:03:c5:ff:27:1c:
                    9c:f7:01:d7:f5:26:b9:da:8a:2d:4b:92:71:7c:11:
                    6d:76:5d:49:cf:af:6f:2f:e9:a3:6c:58:56:f8:ab:
                    fa:1b:0d:23:e2:74:37:a4:70:96:41:fc:94:de:bc:
                    59:35:d3:01:93:40:d9:84:ec:a4:d0:fb:06:31:50:
                    d6:f4:9e:50:34:83:97:9f:4b:a8:f0:7d:3e:8c:c6:
                    0d:64:03:22:6e:87:d1:7c:b7:75:65:8d:84:97:6c:
                    4b:4d:7a:fd:6f:d8:c9:0f:41:85:93:51:ed:57:4e:
                    a7:51:e1:f2:ed:e5:83:92:b6:b9:2c:1c:43:06:df:
                    70:db:bd:40:aa:3e:bb:6f:c6:7e:b5:b4:fd:be:50:
                    87:aa:a6:36:29:16:65:23:3f:10:d5:17:b3:95:24:
                    49:6f:a4:60:df:b7:6c:28:ae:12:ba:48:7d:b6:57:
                    d0:4f:18:76:e9:53:ee:c3:bb:62:20:69:c5:3b:53:
                    f0:dc:1f:e9:b1:65:5a:7e:76:9a:19:c0:85:bc:21:
                    30:8e:16:e8:d2:d1:e4:81:ce:73:f5:97:48:7f:89:
                    83:f7:5d:63:3e:db:8c:83:13:e9:87:d3:01:a5:08:
                    f7:44:92:9a:79:94:c8:ce:93:3c:1f:0b:e8:8c:db:
                    b2:e3:9f:82:26:ae:af:fd:c5:08:6a:bf:bd:c9:24:
                    7f:ff:c2:25:fb:56:6b:c6:39:a0:b3:67:a5:e0:3f:
                    13:c0:60:3c:2a:c1:49:03:1e:56:8d:aa:7d:1a:97:
                    73:92:09:29:49:99:b9:f1:a9:ea:66:71:a9:ee:4c:
                    fe:e6:15:69:be:56:d0:e3:ff:32:1d:b7:ab:ae:17:
                    54:46:28:69:f5:91:43:f2:09:7e:d2:00:b3:72:a4:
                    d3:8d:5e:b9:4d:bd:dc:55:9d:88:15:ad:bd:b1:1b:
                    9e:0b:60:ac:db:6b:a9:b8:06:11:f4:ca:82:d6:e5:
                    21:ba:2f:6a:2e:57:1a:27:01:80:5f:a3:a4:90:f5:
                    11:55:1c:d5:2f:e7:f1:5d:e5:4e:d8:cd:96:cd:91:
                    23:44:bd:fc:4f:fe:72:cb:65:bd:37:51:12:7f:3a:
                    3a:4c:27:97:98:51:ea:a6:3c:dd:9f:27:b7:ba:7e:
                    25:36:54:22:62:cd:5f:5e:da:6f:28:15:62:23:f9:
                    02:c8:47
                Exponent: 65537 (0x10001)
    Signature Algorithm: sha256WithRSAEncryption
         bb:b8:2c:45:d3:51:31:94:35:a8:af:8e:ed:bc:72:5b:b1:7d:
         92:ca:c2:0d:3c:45:fc:fd:70:9a:46:b6:53:33:ab:3b:16:d8:
         c9:80:f9:e3:34:e3:2d:48:81:f4:dd:5a:1c:28:1a:76:b7:55:
         40:10:39:db:94:c0:e9:e0:c3:4d:e8:b3:70:e8:42:50:46:ae:
         63:71:0a:37:0e:0a:18:04:ab:d5:55:7f:e5:4b:6b:57:4f:59:
         23:3e:45:a7:f7:27:9d:5b:a6:b8:31:c5:bb:3a:7c:64:c2:61:
         de:60:09:dc:9c:31:e7:dc:29:40:68:e0:83:e5:6c:3a:43:3d:
         a9:ea:97:6c:b1:4e:08:2f:f1:3e:fd:16:ab:70:e3:0a:ad:7c:
         2d:1b:a6:87:55:02:ed:80:18:7e:3c:16:e9:e5:4b:03:18:11:
         ed:92:79:87:db:08:a5:1a:8e:62:bd:67:dd:3d:ef:65:2f:49:
         ad:be:88:2e:ee:45:e0:86:fe:f1:6e:48:74:08:bb:ce:c1:b7:
         7c:2b:17:d7:0b:a8:34:a5:5b:05:23:fb:1c:e4:e0:9e:ca:4f:
         f3:69:4b:64:8d:8c:b5:2f:3a:b2:9f:c1:90:f8:24:93:34:fd:
         c9:75:8d:6a:07:72:02:f0:e3:92:47:25:14:e6:fd:71:d3:fc:
         f5:7f:e4:0e:08:08:f4:ec:ae:89:3f:c5:a7:50:38:59:55:2f:
         4c:b6:b0:a5:7c:21:bc:e7:bc:c5:7f:0e:88:51:00:6e:8f:e5:
         53:c2:cb:27:7f:72:b9:2d:70:7e:fa:94:74:7e:0c:22:ce:32:
         71:55:f6:c3:b3:0b:9f:1d:0d:ac:92:1f:2c:aa:f8:69:10:58:
         1c:f3:2e:10:2b:6e:cb:7b:90:2f:be:3a:7e:e2:b6:8c:08:ac:
         98:e9:8c:f2:6e:6e:8f:76:92:e4:ae:b3:65:52:f1:75:ae:80:
         09:a4:7d:b7:70:27:a8:f3:f2:dc:a3:db:5f:e6:2e:fb:68:9d:
         62:b0:89:1f:e8:53:a8:34:d8:7e:35:dc:5f:75:a8:c6:07:02:
         f8:b9:51:ae:c9:70:08:f4:a1:2d:bc:91:c3:86:47:db:0f:bd:
         d3:2c:af:f3:16:2b:0f:24:90:f4:f1:1d:5d:21:b8:de:7c:7d:
         0d:9f:1f:0a:05:79:96:54:80:f5:e4:d1:08:f1:ca:7e:c0:ea:
         01:d6:c0:bd:b2:a2:d2:a7:ae:fa:5b:a5:ab:ea:a6:f9:3a:c9:
         85:ac:3a:cd:32:97:78:77:ba:d3:c3:35:a6:20:ba:6d:d3:f6:
         e7:54:53:9b:aa:9a:f2:b3:f1:b9:65:61:78:0f:38:63:b6:5d:
         54:ba:f7:db:ea:43:d2:9e
-----BEGIN CERTIFICATE-----
MIIFSTCCAzECAQYwDQYJKoZIhvcNAQELBQAwdDELMAkGA1UEBhMCZnIxDDAKBgNV
BAgMA2lkZjEOMAwGA1UEBwwFcGFyaXMxEDAOBgNVBAoMB3ZpdGFtdWkxFDASBgNV
BAsMC2F1dGhvcml0aWVzMR8wHQYDVQQDDBZjYV9pbnRlcm1lZGlhdGVfc2VydmVy
MB4XDTIwMDQyMTA4MzcxNloXDTIzMDQyMTA4MzcxNlowYTELMAkGA1UEBhMCZnIx
DDAKBgNVBAgMA2lkZjEOMAwGA1UEBwwFcGFyaXMxEDAOBgNVBAoMB3ZpdGFtdWkx
IjAgBgNVBAMMGWNhcy1zZXJ2ZXIuc2VydmljZS5jb25zdWwwggIiMA0GCSqGSIb3
DQEBAQUAA4ICDwAwggIKAoICAQCwzqyCMgOjfpKYeamhE4DYhixHm2a/IIHz9ULk
BklnNJF8Exper9NY0VAWNXcso/Riemma6TUoy+rnOlYIlxm/mDUbRxwDxf8nHJz3
Adf1Jrnaii1LknF8EW12XUnPr28v6aNsWFb4q/obDSPidDekcJZB/JTevFk10wGT
QNmE7KTQ+wYxUNb0nlA0g5efS6jwfT6Mxg1kAyJuh9F8t3VljYSXbEtNev1v2MkP
QYWTUe1XTqdR4fLt5YOStrksHEMG33DbvUCqPrtvxn61tP2+UIeqpjYpFmUjPxDV
F7OVJElvpGDft2worhK6SH22V9BPGHbpU+7Du2IgacU7U/DcH+mxZVp+dpoZwIW8
ITCOFujS0eSBznP1l0h/iYP3XWM+24yDE+mH0wGlCPdEkpp5lMjOkzwfC+iM27Lj
n4Imrq/9xQhqv73JJH//wiX7VmvGOaCzZ6XgPxPAYDwqwUkDHlaNqn0al3OSCSlJ
mbnxqepmcanuTP7mFWm+VtDj/zIdt6uuF1RGKGn1kUPyCX7SALNypNONXrlNvdxV
nYgVrb2xG54LYKzba6m4BhH0yoLW5SG6L2ouVxonAYBfo6SQ9RFVHNUv5/Fd5U7Y
zZbNkSNEvfxP/nLLZb03URJ/OjpMJ5eYUeqmPN2fJ7e6fiU2VCJizV9e2m8oFWIj
+QLIRwIDAQABMA0GCSqGSIb3DQEBCwUAA4ICAQC7uCxF01ExlDWor47tvHJbsX2S
ysINPEX8/XCaRrZTM6s7FtjJgPnjNOMtSIH03VocKBp2t1VAEDnblMDp4MNN6LNw
6EJQRq5jcQo3DgoYBKvVVX/lS2tXT1kjPkWn9yedW6a4McW7OnxkwmHeYAncnDHn
3ClAaOCD5Ww6Qz2p6pdssU4IL/E+/RarcOMKrXwtG6aHVQLtgBh+PBbp5UsDGBHt
knmH2wilGo5ivWfdPe9lL0mtvogu7kXghv7xbkh0CLvOwbd8KxfXC6g0pVsFI/sc
5OCeyk/zaUtkjYy1Lzqyn8GQ+CSTNP3JdY1qB3IC8OOSRyUU5v1x0/z1f+QOCAj0
7K6JP8WnUDhZVS9MtrClfCG857zFfw6IUQBuj+VTwssnf3K5LXB++pR0fgwizjJx
VfbDswufHQ2skh8sqvhpEFgc8y4QK27Le5Avvjp+4raMCKyY6Yzybm6PdpLkrrNl
UvF1roAJpH23cCeo8/Lco9tf5i77aJ1isIkf6FOoNNh+NdxfdajGBwL4uVGuyXAI
9KEtvJHDhkfbD73TLK/zFisPJJD08R1dIbjefH0Nnx8KBXmWVID15NEI8cp+wOoB
1sC9sqLSp676W6Wr6qb5OsmFrDrNMpd4d7rTwzWmILpt0/bnVFObqprys/G5ZWF4
Dzhjtl1Uuvfb6kPSng==
-----END CERTIFICATE-----
