Certificate:
    Data:
        Version: 1 (0x0)
        Serial Number: 14 (0xe)
        Signature Algorithm: sha256WithRSAEncryption
        Issuer: C=fr, ST=idf, L=paris, O=vitamui, OU=authorities, CN=ca_intermediate_server
        Validity
            Not Before: May  5 11:44:07 2020 GMT
            Not After : May  5 11:44:07 2023 GMT
        Subject: C=fr, ST=idf, L=paris, O=vitamui, CN=cas-server.service.consul
        Subject Public Key Info:
            Public Key Algorithm: rsaEncryption
                RSA Public-Key: (4096 bit)
                Modulus:
                    00:c0:f3:05:65:2b:d9:ec:d9:63:17:b8:b9:27:13:
                    bc:3a:a0:16:53:34:9d:05:17:55:37:32:df:7a:01:
                    60:08:07:30:d1:5c:67:81:0c:b0:4d:6e:c0:76:34:
                    9f:cc:95:f7:38:5d:72:16:de:25:2d:58:9b:dc:ad:
                    c7:75:21:76:a0:c0:cf:8a:42:f1:b7:27:f2:ec:bc:
                    5b:83:2b:bf:6a:63:b6:e8:13:ea:d8:f4:a5:1e:60:
                    99:23:42:6b:c1:af:97:b3:9f:95:fe:c5:7e:d2:0d:
                    4d:40:5f:9a:8e:e7:65:2b:87:cb:22:25:42:85:ab:
                    21:70:7f:7c:5e:72:10:37:93:be:9f:e7:76:6a:cc:
                    d7:84:07:5b:b6:fa:86:4b:06:55:38:cc:61:47:d5:
                    84:1e:36:1a:2c:ad:31:fd:db:97:89:b2:af:f6:e0:
                    78:de:3f:ba:e0:fc:92:66:31:81:66:db:1c:3c:d0:
                    d0:76:59:f8:b2:34:cc:da:31:58:0c:58:ac:31:87:
                    4e:de:40:ab:10:d6:b6:89:5a:61:1e:ab:a5:7e:ea:
                    78:16:b5:77:3e:75:3b:46:76:8f:9b:87:1c:22:02:
                    bd:26:93:75:1f:35:f4:cf:73:9c:e6:d8:46:cb:ab:
                    7b:30:9c:7c:49:36:1b:e5:ba:51:96:73:20:d9:2b:
                    87:83:e1:a3:64:ab:87:d7:b0:6b:b6:1f:dc:9c:ed:
                    47:92:93:1d:24:c3:52:87:52:7a:0d:98:60:28:23:
                    9d:9a:ed:e9:71:31:39:aa:28:29:f6:41:2a:03:89:
                    d8:71:12:b4:63:9f:8d:83:fe:06:77:27:ce:3d:51:
                    7a:88:03:69:f9:34:69:97:6f:e8:2a:7d:95:a5:56:
                    21:23:44:e6:e1:b7:aa:82:35:47:9b:b2:fd:c9:05:
                    f7:24:06:94:e6:ab:bd:af:1e:7e:17:fb:35:c3:3c:
                    41:4f:fa:ac:ad:b7:38:9d:c8:4e:d7:05:22:55:d0:
                    f9:1d:3a:86:ab:73:4d:46:df:ea:f5:a6:f0:e3:23:
                    45:73:f9:1c:18:dc:d9:5a:98:dd:26:11:a2:77:ff:
                    16:15:dc:09:b3:b3:6a:e0:f4:83:66:bc:85:ed:7a:
                    c7:63:95:14:5a:a4:b3:97:97:ed:2e:30:0d:41:3f:
                    37:da:de:5b:c1:12:78:08:4b:7e:76:09:ff:ba:43:
                    d5:98:49:2e:2b:60:ef:82:ad:f4:c2:19:a6:7b:e7:
                    6c:d3:cc:13:96:44:d0:ae:c1:09:53:8e:e4:44:e4:
                    2b:3a:27:ca:53:e1:61:1e:d4:17:6a:ef:ff:d2:33:
                    f6:66:d0:7b:4b:c8:b6:c5:7c:29:0c:95:12:e1:40:
                    91:be:03
                Exponent: 65537 (0x10001)
    Signature Algorithm: sha256WithRSAEncryption
         99:db:48:67:ab:ca:4d:65:dd:46:5e:41:5f:c0:4e:89:65:17:
         f4:80:97:36:cb:ec:30:32:2e:af:1b:18:44:fa:81:6a:25:6d:
         29:b9:16:d9:e5:df:88:c7:50:71:e6:36:5b:2b:bc:a1:50:b2:
         dd:93:d7:36:a5:d4:4f:fe:a9:6e:b6:f9:c7:09:64:8e:86:f2:
         54:19:0d:53:b8:f5:44:1a:a1:b3:3b:23:81:51:02:b9:68:f9:
         e4:61:cb:98:17:64:0e:da:02:c7:f1:81:9c:1c:3d:74:2f:16:
         22:26:44:d5:93:3a:96:da:3c:02:02:d2:13:b4:57:68:8a:4c:
         ae:71:9a:66:8c:14:c2:68:7b:b7:43:15:af:d2:46:f8:65:0a:
         5a:57:63:bf:10:4b:52:2b:c3:59:6a:6e:f0:56:a1:70:fd:96:
         0a:03:58:61:f2:b4:7d:f3:6b:f6:95:6b:26:cc:fa:79:c5:aa:
         f7:8f:e6:1f:64:df:30:f1:42:0e:c8:4c:c6:73:af:0b:f7:b2:
         45:c5:4f:57:7d:50:68:80:22:f2:03:c0:41:fa:28:c7:30:6c:
         d6:dd:71:af:a2:75:2d:f4:7c:a6:c8:e1:50:f8:e5:6a:e0:e2:
         86:10:cc:32:04:eb:c2:0a:a8:b1:1d:59:04:09:81:2c:97:48:
         22:c3:6e:55:a4:5c:50:4e:d4:98:e4:c2:7c:12:15:40:fa:3d:
         1d:40:26:42:0f:b9:78:4f:a5:54:73:84:51:3c:55:70:cf:87:
         34:b3:19:37:63:96:77:f7:71:f4:c1:8c:59:f8:c1:57:f3:a0:
         b4:8f:cc:ed:98:f1:fb:a9:03:16:ec:36:e1:81:4e:85:1a:3f:
         44:a3:dd:dd:1e:4e:0c:3e:71:ac:35:31:f9:05:a3:95:ff:76:
         a2:36:d1:2d:71:ce:f6:3e:60:04:60:a7:cb:21:d1:fd:d0:6f:
         45:f2:af:29:33:b0:14:0c:c3:ca:3c:a2:5d:f4:48:0c:96:04:
         62:f4:22:f7:6d:4e:cb:cd:fe:13:c6:e3:9b:a4:a0:bc:61:bd:
         95:04:b0:f7:64:61:6c:ba:ab:66:d1:2a:f8:64:cc:50:53:15:
         1f:1c:e2:41:09:a0:34:7f:9f:7b:c7:58:4f:fb:a3:de:d3:86:
         94:4a:a9:f3:a1:7c:60:8a:9e:73:27:23:13:c0:6c:e2:06:32:
         c8:59:58:08:eb:ae:26:04:22:26:06:7c:d3:4e:36:ca:0c:8f:
         c7:4a:05:ec:29:dd:96:54:37:b1:d2:1e:80:b7:99:9f:ca:05:
         91:26:d2:7c:f8:c8:85:73:ac:25:a9:7e:dd:58:84:5b:57:d7:
         55:e1:a4:f8:19:5b:a2:cf
-----BEGIN CERTIFICATE-----
MIIFSTCCAzECAQ4wDQYJKoZIhvcNAQELBQAwdDELMAkGA1UEBhMCZnIxDDAKBgNV
BAgMA2lkZjEOMAwGA1UEBwwFcGFyaXMxEDAOBgNVBAoMB3ZpdGFtdWkxFDASBgNV
BAsMC2F1dGhvcml0aWVzMR8wHQYDVQQDDBZjYV9pbnRlcm1lZGlhdGVfc2VydmVy
MB4XDTIwMDUwNTExNDQwN1oXDTIzMDUwNTExNDQwN1owYTELMAkGA1UEBhMCZnIx
DDAKBgNVBAgMA2lkZjEOMAwGA1UEBwwFcGFyaXMxEDAOBgNVBAoMB3ZpdGFtdWkx
IjAgBgNVBAMMGWNhcy1zZXJ2ZXIuc2VydmljZS5jb25zdWwwggIiMA0GCSqGSIb3
DQEBAQUAA4ICDwAwggIKAoICAQDA8wVlK9ns2WMXuLknE7w6oBZTNJ0FF1U3Mt96
AWAIBzDRXGeBDLBNbsB2NJ/Mlfc4XXIW3iUtWJvcrcd1IXagwM+KQvG3J/LsvFuD
K79qY7boE+rY9KUeYJkjQmvBr5ezn5X+xX7SDU1AX5qO52Urh8siJUKFqyFwf3xe
chA3k76f53ZqzNeEB1u2+oZLBlU4zGFH1YQeNhosrTH925eJsq/24HjeP7rg/JJm
MYFm2xw80NB2WfiyNMzaMVgMWKwxh07eQKsQ1raJWmEeq6V+6ngWtXc+dTtGdo+b
hxwiAr0mk3UfNfTPc5zm2EbLq3swnHxJNhvlulGWcyDZK4eD4aNkq4fXsGu2H9yc
7UeSkx0kw1KHUnoNmGAoI52a7elxMTmqKCn2QSoDidhxErRjn42D/gZ3J849UXqI
A2n5NGmXb+gqfZWlViEjRObht6qCNUebsv3JBfckBpTmq72vHn4X+zXDPEFP+qyt
tzidyE7XBSJV0PkdOoarc01G3+r1pvDjI0Vz+RwY3NlamN0mEaJ3/xYV3Amzs2rg
9INmvIXtesdjlRRapLOXl+0uMA1BPzfa3lvBEngIS352Cf+6Q9WYSS4rYO+CrfTC
GaZ752zTzBOWRNCuwQlTjuRE5Cs6J8pT4WEe1Bdq7//SM/Zm0HtLyLbFfCkMlRLh
QJG+AwIDAQABMA0GCSqGSIb3DQEBCwUAA4ICAQCZ20hnq8pNZd1GXkFfwE6JZRf0
gJc2y+wwMi6vGxhE+oFqJW0puRbZ5d+Ix1Bx5jZbK7yhULLdk9c2pdRP/qlutvnH
CWSOhvJUGQ1TuPVEGqGzOyOBUQK5aPnkYcuYF2QO2gLH8YGcHD10LxYiJkTVkzqW
2jwCAtITtFdoikyucZpmjBTCaHu3QxWv0kb4ZQpaV2O/EEtSK8NZam7wVqFw/ZYK
A1hh8rR982v2lWsmzPp5xar3j+YfZN8w8UIOyEzGc68L97JFxU9XfVBogCLyA8BB
+ijHMGzW3XGvonUt9HymyOFQ+OVq4OKGEMwyBOvCCqixHVkECYEsl0giw25VpFxQ
TtSY5MJ8EhVA+j0dQCZCD7l4T6VUc4RRPFVwz4c0sxk3Y5Z393H0wYxZ+MFX86C0
j8ztmPH7qQMW7DbhgU6FGj9Eo93dHk4MPnGsNTH5BaOV/3aiNtEtcc72PmAEYKfL
IdH90G9F8q8pM7AUDMPKPKJd9EgMlgRi9CL3bU7Lzf4TxuObpKC8Yb2VBLD3ZGFs
uqtm0Sr4ZMxQUxUfHOJBCaA0f597x1hP+6Pe04aUSqnzoXxgip5zJyMTwGziBjLI
WVgI664mBCImBnzTTjbKDI/HSgXsKd2WVDex0h6At5mfygWRJtJ8+MiFc6wlqX7d
WIRbV9dV4aT4GVuizw==
-----END CERTIFICATE-----
