Certificate:
    Data:
        Version: 1 (0x0)
        Serial Number: 5 (0x5)
        Signature Algorithm: sha256WithRSAEncryption
        Issuer: C=fr, ST=idf, L=paris, O=vitamui, OU=authorities, CN=ca_intermediate_server
        Validity
            Not Before: Apr 21 08:37:07 2020 GMT
            Not After : Apr 21 08:37:07 2023 GMT
        Subject: C=fr, ST=idf, L=paris, O=vitamui, CN=iam-external.service.consul
        Subject Public Key Info:
            Public Key Algorithm: rsaEncryption
                RSA Public-Key: (4096 bit)
                Modulus:
                    00:dd:0c:86:24:8e:46:83:b1:d9:96:a9:1b:4d:87:
                    3f:99:9c:c3:41:52:21:4b:45:e0:62:a2:9e:b2:c0:
                    c7:d7:2f:31:77:a4:e0:d0:3b:57:fb:90:c5:17:cf:
                    5c:b3:25:07:2f:46:e1:6a:ba:d1:27:4a:f9:b4:7b:
                    9a:2f:e4:a3:17:e1:dc:11:9f:e1:2d:0a:10:60:62:
                    e4:34:1a:90:56:fa:ff:33:39:79:2e:2c:9f:6b:66:
                    d1:9c:d5:21:0a:fd:b6:08:8b:ed:0d:55:f0:5e:69:
                    65:d4:d9:34:ff:f7:5c:2b:44:59:91:bb:62:93:31:
                    01:62:6c:b6:89:76:dd:30:f9:8b:d9:3e:d1:71:2a:
                    f3:20:4c:0c:e9:64:40:44:d1:b5:b3:48:16:00:3f:
                    e5:5c:1e:72:f3:e6:fa:14:1e:23:fe:19:8d:2d:89:
                    27:e3:aa:8d:5b:19:a7:93:93:fc:2b:80:6d:79:d2:
                    9d:7e:6b:7e:da:7f:08:ee:c4:41:1d:45:78:f1:3c:
                    68:67:c3:90:76:79:48:0a:97:99:ef:f5:bc:3a:03:
                    0f:fe:3c:82:b9:ee:24:14:59:88:c7:52:cf:b9:bd:
                    41:c5:98:4b:5c:03:17:d1:16:f0:3c:59:c6:b1:4f:
                    8e:45:10:28:55:9e:bf:1c:c5:dd:68:69:3c:33:36:
                    c1:8a:b4:34:41:4e:17:07:c9:28:7d:cf:4b:47:06:
                    60:59:64:15:57:d2:2c:f9:97:71:a7:e9:bf:7e:22:
                    2d:0b:55:09:ef:a3:51:c7:c2:01:f0:01:82:8e:a6:
                    7c:c9:79:fc:be:57:64:8e:6c:31:ff:60:eb:d1:f7:
                    5c:ac:1c:1c:58:74:82:0e:00:29:d6:6d:c2:18:d3:
                    de:b2:35:3e:85:78:3f:a7:17:70:14:8d:43:13:53:
                    87:94:bc:7d:ad:a3:c4:ee:39:fb:de:31:3c:64:a9:
                    01:9b:ee:5d:5f:dd:f2:f5:e2:97:d5:03:35:3b:03:
                    5c:10:de:28:05:3c:b7:54:0e:6a:46:ea:a2:2a:eb:
                    e2:9d:ea:4a:7a:20:ee:49:a6:e5:d3:0c:3c:f4:82:
                    39:4f:c9:78:72:7a:f2:77:02:a0:6b:a9:b2:a1:c8:
                    5b:4d:0a:ed:83:f1:77:02:2a:e7:65:ea:3f:61:18:
                    ad:6e:cd:e7:6f:a4:de:f2:83:f9:76:c0:bd:c8:91:
                    73:38:d5:e2:40:68:40:f6:fd:39:c2:2b:c6:80:71:
                    29:6a:56:fc:6b:bf:7e:a0:26:7c:ca:5d:07:c7:94:
                    7b:0a:0d:1c:45:ca:89:6b:f5:7b:ab:7f:b5:15:3d:
                    70:f5:9e:e0:c3:9b:b3:76:b9:c0:62:23:80:31:a3:
                    e5:35:71
                Exponent: 65537 (0x10001)
    Signature Algorithm: sha256WithRSAEncryption
         43:fd:d8:ad:63:5a:7e:dc:cc:d8:f0:f1:25:c2:c6:17:2c:11:
         b6:c0:bd:f2:a6:6c:f3:b5:15:a6:35:5e:66:1e:36:93:43:dd:
         ae:7f:3d:c3:23:0b:d1:b6:8f:b9:61:dd:7f:bb:30:3e:35:cf:
         56:6f:f5:79:75:cc:5f:d1:6f:5d:73:5a:ef:78:4c:3a:09:95:
         4f:9c:7a:cc:b3:49:f2:f3:0c:fd:83:be:27:cc:5f:57:9b:0d:
         85:9d:40:20:4c:98:3e:dd:89:4a:43:5f:42:59:b1:03:95:30:
         ae:ca:63:52:0c:cd:e7:eb:94:bb:3c:58:1e:94:0d:f8:54:6c:
         6e:78:5e:04:d5:1a:4f:1b:0c:d6:cb:3c:a8:e6:54:03:0b:be:
         69:ec:e2:99:ec:d9:85:77:20:bd:4f:f9:17:68:28:ff:24:b5:
         1b:91:31:89:8c:c2:39:d8:65:96:e4:6d:7b:38:e5:5c:f7:33:
         4f:c6:27:5e:05:5c:8d:16:14:53:1b:a2:7e:df:74:6f:a8:de:
         ef:6f:ba:15:93:11:58:46:20:83:d9:70:2a:9b:8a:87:18:53:
         ae:cb:2a:11:59:a3:d5:3e:19:72:ec:46:22:d9:f3:4e:30:a4:
         60:bd:05:d7:ff:b2:b2:f7:29:fa:c5:34:79:b5:a1:b6:47:96:
         6f:fa:aa:a3:30:45:77:01:f6:d3:cd:7d:5f:c3:80:59:c1:9d:
         f6:1c:2e:70:54:b3:83:e4:d7:6c:25:9b:84:df:96:82:5c:5d:
         0d:04:5f:98:66:6b:a3:89:c7:94:2c:43:4a:6e:a1:14:68:8c:
         5c:33:1d:f7:ef:6f:92:1d:25:96:c9:3f:d2:87:1e:40:b5:d0:
         ef:7c:a6:d3:65:1b:eb:30:3e:0a:c1:a2:9f:6e:5e:0f:5b:eb:
         71:0d:e7:60:a9:61:91:a8:0d:bb:07:6d:66:fa:8a:6a:99:e4:
         af:44:6b:8a:6e:2a:56:06:d7:0f:f3:6b:6a:af:62:d2:dd:3f:
         dd:f2:72:d9:10:6c:0a:f8:4a:f9:6d:39:08:ed:ab:d7:81:13:
         2c:a6:50:d1:0c:33:46:7c:9a:7a:ea:0d:e2:c3:94:fc:5b:a2:
         c2:49:7c:7a:c7:e5:af:e3:77:22:da:b7:83:4c:e7:3d:81:80:
         7e:bb:40:fe:cb:e0:7c:69:64:e9:17:b7:f2:10:f1:c7:79:a5:
         53:6d:e5:ef:29:85:39:c4:86:42:90:73:c0:c2:47:8c:06:c3:
         84:8b:53:88:aa:39:3a:3b:23:77:c5:e2:c4:53:31:29:5c:53:
         23:b1:69:0e:63:9b:86:8d:2c:b2:e7:8a:e0:d6:50:06:74:16:
         25:a3:03:42:89:fb:de:c2
-----BEGIN CERTIFICATE-----
MIIFSzCCAzMCAQUwDQYJKoZIhvcNAQELBQAwdDELMAkGA1UEBhMCZnIxDDAKBgNV
BAgMA2lkZjEOMAwGA1UEBwwFcGFyaXMxEDAOBgNVBAoMB3ZpdGFtdWkxFDASBgNV
BAsMC2F1dGhvcml0aWVzMR8wHQYDVQQDDBZjYV9pbnRlcm1lZGlhdGVfc2VydmVy
MB4XDTIwMDQyMTA4MzcwN1oXDTIzMDQyMTA4MzcwN1owYzELMAkGA1UEBhMCZnIx
DDAKBgNVBAgMA2lkZjEOMAwGA1UEBwwFcGFyaXMxEDAOBgNVBAoMB3ZpdGFtdWkx
JDAiBgNVBAMMG2lhbS1leHRlcm5hbC5zZXJ2aWNlLmNvbnN1bDCCAiIwDQYJKoZI
hvcNAQEBBQADggIPADCCAgoCggIBAN0MhiSORoOx2ZapG02HP5mcw0FSIUtF4GKi
nrLAx9cvMXek4NA7V/uQxRfPXLMlBy9G4Wq60SdK+bR7mi/koxfh3BGf4S0KEGBi
5DQakFb6/zM5eS4sn2tm0ZzVIQr9tgiL7Q1V8F5pZdTZNP/3XCtEWZG7YpMxAWJs
tol23TD5i9k+0XEq8yBMDOlkQETRtbNIFgA/5VwecvPm+hQeI/4ZjS2JJ+OqjVsZ
p5OT/CuAbXnSnX5rftp/CO7EQR1FePE8aGfDkHZ5SAqXme/1vDoDD/48grnuJBRZ
iMdSz7m9QcWYS1wDF9EW8DxZxrFPjkUQKFWevxzF3WhpPDM2wYq0NEFOFwfJKH3P
S0cGYFlkFVfSLPmXcafpv34iLQtVCe+jUcfCAfABgo6mfMl5/L5XZI5sMf9g69H3
XKwcHFh0gg4AKdZtwhjT3rI1PoV4P6cXcBSNQxNTh5S8fa2jxO45+94xPGSpAZvu
XV/d8vXil9UDNTsDXBDeKAU8t1QOakbqoirr4p3qSnog7kmm5dMMPPSCOU/JeHJ6
8ncCoGupsqHIW00K7YPxdwIq52XqP2EYrW7N52+k3vKD+XbAvciRczjV4kBoQPb9
OcIrxoBxKWpW/Gu/fqAmfMpdB8eUewoNHEXKiWv1e6t/tRU9cPWe4MObs3a5wGIj
gDGj5TVxAgMBAAEwDQYJKoZIhvcNAQELBQADggIBAEP92K1jWn7czNjw8SXCxhcs
EbbAvfKmbPO1FaY1XmYeNpND3a5/PcMjC9G2j7lh3X+7MD41z1Zv9Xl1zF/Rb11z
Wu94TDoJlU+cesyzSfLzDP2DvifMX1ebDYWdQCBMmD7diUpDX0JZsQOVMK7KY1IM
zefrlLs8WB6UDfhUbG54XgTVGk8bDNbLPKjmVAMLvmns4pns2YV3IL1P+RdoKP8k
tRuRMYmMwjnYZZbkbXs45Vz3M0/GJ14FXI0WFFMbon7fdG+o3u9vuhWTEVhGIIPZ
cCqbiocYU67LKhFZo9U+GXLsRiLZ804wpGC9Bdf/srL3KfrFNHm1obZHlm/6qqMw
RXcB9tPNfV/DgFnBnfYcLnBUs4Pk12wlm4TfloJcXQ0EX5hma6OJx5QsQ0puoRRo
jFwzHffvb5IdJZbJP9KHHkC10O98ptNlG+swPgrBop9uXg9b63EN52CpYZGoDbsH
bWb6imqZ5K9Ea4puKlYG1w/za2qvYtLdP93yctkQbAr4SvltOQjtq9eBEyymUNEM
M0Z8mnrqDeLDlPxbosJJfHrH5a/jdyLat4NM5z2BgH67QP7L4HxpZOkXt/IQ8cd5
pVNt5e8phTnEhkKQc8DCR4wGw4SLU4iqOTo7I3fF4sRTMSlcUyOxaQ5jm4aNLLLn
iuDWUAZ0FiWjA0KJ+97C
-----END CERTIFICATE-----
