Certificate:
    Data:
        Version: 1 (0x0)
        Serial Number: 13 (0xd)
        Signature Algorithm: sha256WithRSAEncryption
        Issuer: C=fr, ST=idf, L=paris, O=vitamui, OU=authorities, CN=ca_intermediate_server
        Validity
            Not Before: May  5 11:44:03 2020 GMT
            Not After : May  5 11:44:03 2023 GMT
        Subject: C=fr, ST=idf, L=paris, O=vitamui, CN=iam-external.service.consul
        Subject Public Key Info:
            Public Key Algorithm: rsaEncryption
                RSA Public-Key: (4096 bit)
                Modulus:
                    00:a4:f1:99:a2:61:8f:77:e1:05:54:52:36:03:7f:
                    14:92:bc:15:a4:c0:d7:bf:1b:aa:cf:ab:85:f7:6b:
                    55:84:6f:1d:65:ba:c0:da:81:e1:60:15:af:35:f8:
                    61:6a:48:32:5b:d5:53:37:9f:28:88:36:24:84:e4:
                    10:93:8f:c1:58:0e:75:7c:09:7e:09:9d:6c:41:f4:
                    55:61:25:e7:cd:88:8e:c8:8b:a4:c7:42:4b:7e:dc:
                    5f:6f:81:ee:6f:b0:44:66:3a:5b:29:76:b9:82:dd:
                    a0:88:a0:08:8c:37:1f:e5:26:e2:68:00:3c:89:68:
                    60:56:e8:06:8e:65:3e:b4:72:a0:da:59:5e:a8:f6:
                    14:ff:1a:42:71:68:11:ce:35:2b:36:ec:7c:1a:53:
                    b8:6d:4d:0f:e2:97:38:bf:4d:a0:f2:03:26:4f:94:
                    7d:28:a2:86:dd:36:f7:32:66:6a:a9:9d:5b:e9:a6:
                    5b:4e:0e:0a:6f:77:7f:7d:36:e9:5b:7e:24:f9:0a:
                    c3:d1:41:6d:fb:1c:e1:1b:f4:32:50:8b:64:ba:03:
                    6e:37:8d:84:7c:64:82:f6:8b:ec:0f:1e:c7:8d:01:
                    17:a6:b8:8d:f4:1e:d0:60:9f:c7:ba:20:1a:db:a9:
                    83:a5:61:77:aa:1b:ad:a8:15:a6:d1:29:be:de:20:
                    96:14:14:e0:a2:b8:3e:b4:a6:8e:9f:21:2f:89:4a:
                    a0:bb:30:f3:4b:7a:84:0b:c2:60:5e:19:c0:a9:7f:
                    fc:4d:c8:ad:7c:74:d4:9c:4a:3e:20:d9:45:6b:ea:
                    0e:98:eb:7b:a9:df:ac:d8:fe:f6:cb:fe:8b:21:39:
                    72:af:43:db:82:25:bb:21:0d:7d:6e:8e:c8:80:82:
                    cd:66:27:00:36:43:ee:3c:f3:05:42:9b:c5:a3:23:
                    b7:a9:61:e3:4f:44:06:5a:1c:ec:04:0d:80:a0:63:
                    5a:4e:72:07:f8:6b:71:64:75:2e:1b:0c:a1:07:59:
                    4b:46:cc:8c:76:30:81:09:15:49:cf:9e:1e:d0:48:
                    54:4d:2f:9d:f6:94:24:11:a7:ce:ca:69:21:34:a1:
                    bb:9a:a2:dd:bc:8d:c4:5b:d2:dd:76:d3:57:b0:cb:
                    fe:a6:ab:cf:bb:44:b9:52:af:36:04:63:f2:8e:5d:
                    dd:e4:79:91:a0:f7:43:c9:cb:43:85:63:3e:28:fa:
                    9b:86:d5:ae:e7:6a:8a:4f:cc:2c:7a:e1:31:77:93:
                    fb:87:04:a1:a6:a7:c2:db:d3:d4:d4:64:05:89:28:
                    e4:6e:3b:86:37:f8:a9:2f:50:13:ad:47:ab:e4:63:
                    7d:df:4b:59:d3:15:41:d0:a5:67:46:df:91:3f:28:
                    34:0e:85
                Exponent: 65537 (0x10001)
    Signature Algorithm: sha256WithRSAEncryption
         11:f0:94:09:98:78:f1:82:75:0f:4c:c6:ac:68:b0:da:0f:1c:
         d7:70:a3:83:a4:ea:cd:e2:39:1a:d2:81:eb:42:8c:a9:73:23:
         7b:68:46:3f:36:70:50:bb:4d:fb:2e:7f:c5:f1:5b:b4:6a:76:
         ad:c6:67:a0:f5:f0:da:39:2a:a6:a5:bc:aa:ad:e8:36:f3:48:
         49:0b:f8:a2:e3:13:3e:c1:c1:0e:72:54:7c:0f:a8:ba:42:31:
         f2:a4:e8:1a:fd:82:5a:94:14:54:3c:6e:fe:9e:19:92:a6:43:
         86:7f:3d:42:6d:17:5f:88:f4:1b:ee:17:dc:3b:d3:00:79:bf:
         c7:56:c1:e3:cf:6f:bc:27:92:32:ac:48:4e:67:bd:66:f6:77:
         f6:5b:b8:22:58:ca:54:c3:72:51:47:f7:b1:f3:d8:08:c8:c5:
         21:a1:0b:f0:68:3f:7c:11:e5:f7:ce:27:48:0c:ee:e3:2b:51:
         cb:bd:30:34:21:54:94:07:b1:8a:57:aa:40:0d:28:b3:42:39:
         5d:dc:98:e0:ee:89:c2:8d:ef:29:72:a6:f6:d9:50:8b:b6:39:
         a0:96:0e:72:38:f1:76:7f:78:ad:ed:d2:97:ac:81:e5:ad:b8:
         11:7a:fd:77:71:fe:a7:8b:34:5e:36:c8:8d:bc:6d:f7:20:33:
         0e:c0:0a:0f:b0:90:ea:8e:29:cb:d5:f6:2c:c7:01:a1:76:54:
         cd:bf:5a:ec:80:f3:5a:5d:20:e5:2d:98:e0:67:33:1b:5f:a4:
         2f:f8:fa:94:1f:75:5d:ba:84:8c:a9:8d:40:8d:bd:22:6e:11:
         64:c0:5d:00:0a:4d:39:3f:a6:f5:39:19:bb:66:1a:0f:b8:93:
         76:b3:83:a2:e8:3e:11:16:5f:0f:78:12:4c:9a:1a:e2:f0:a5:
         ae:de:1f:9d:e6:55:20:13:39:88:e3:cd:6c:3a:ca:75:4c:40:
         ee:98:48:c1:c3:b3:36:61:04:f6:89:7e:05:a6:f0:be:ac:35:
         0c:3d:5b:58:d4:39:c5:ad:89:82:61:dc:02:f4:e9:54:2d:60:
         81:c1:dd:db:66:3c:46:13:eb:55:98:fc:55:3a:25:a0:03:13:
         65:6c:c3:aa:7c:92:55:48:d2:6b:69:b4:9d:f6:e8:b0:01:7e:
         64:d0:4d:db:85:f0:bd:c2:b4:82:34:af:50:80:2d:f6:1d:ad:
         fe:12:30:35:e4:22:3a:60:a6:9f:6d:25:2a:fe:85:9c:60:d3:
         74:d5:94:c7:d8:19:3d:bf:49:75:6a:f2:1c:dd:07:bb:2a:d9:
         de:74:e4:03:bd:6e:96:a8:51:bf:8e:ea:47:be:95:8a:d4:c5:
         39:9a:aa:f7:36:be:b4:74
-----BEGIN CERTIFICATE-----
MIIFSzCCAzMCAQ0wDQYJKoZIhvcNAQELBQAwdDELMAkGA1UEBhMCZnIxDDAKBgNV
BAgMA2lkZjEOMAwGA1UEBwwFcGFyaXMxEDAOBgNVBAoMB3ZpdGFtdWkxFDASBgNV
BAsMC2F1dGhvcml0aWVzMR8wHQYDVQQDDBZjYV9pbnRlcm1lZGlhdGVfc2VydmVy
MB4XDTIwMDUwNTExNDQwM1oXDTIzMDUwNTExNDQwM1owYzELMAkGA1UEBhMCZnIx
DDAKBgNVBAgMA2lkZjEOMAwGA1UEBwwFcGFyaXMxEDAOBgNVBAoMB3ZpdGFtdWkx
JDAiBgNVBAMMG2lhbS1leHRlcm5hbC5zZXJ2aWNlLmNvbnN1bDCCAiIwDQYJKoZI
hvcNAQEBBQADggIPADCCAgoCggIBAKTxmaJhj3fhBVRSNgN/FJK8FaTA178bqs+r
hfdrVYRvHWW6wNqB4WAVrzX4YWpIMlvVUzefKIg2JITkEJOPwVgOdXwJfgmdbEH0
VWEl582IjsiLpMdCS37cX2+B7m+wRGY6Wyl2uYLdoIigCIw3H+Um4mgAPIloYFbo
Bo5lPrRyoNpZXqj2FP8aQnFoEc41KzbsfBpTuG1ND+KXOL9NoPIDJk+UfSiiht02
9zJmaqmdW+mmW04OCm93f3026Vt+JPkKw9FBbfsc4Rv0MlCLZLoDbjeNhHxkgvaL
7A8ex40BF6a4jfQe0GCfx7ogGtupg6Vhd6obragVptEpvt4glhQU4KK4PrSmjp8h
L4lKoLsw80t6hAvCYF4ZwKl//E3IrXx01JxKPiDZRWvqDpjre6nfrNj+9sv+iyE5
cq9D24IluyENfW6OyICCzWYnADZD7jzzBUKbxaMjt6lh409EBloc7AQNgKBjWk5y
B/hrcWR1LhsMoQdZS0bMjHYwgQkVSc+eHtBIVE0vnfaUJBGnzsppITShu5qi3byN
xFvS3XbTV7DL/qarz7tEuVKvNgRj8o5d3eR5kaD3Q8nLQ4VjPij6m4bVrudqik/M
LHrhMXeT+4cEoaanwtvT1NRkBYko5G47hjf4qS9QE61Hq+Rjfd9LWdMVQdClZ0bf
kT8oNA6FAgMBAAEwDQYJKoZIhvcNAQELBQADggIBABHwlAmYePGCdQ9MxqxosNoP
HNdwo4Ok6s3iORrSgetCjKlzI3toRj82cFC7Tfsuf8XxW7Rqdq3GZ6D18No5Kqal
vKqt6DbzSEkL+KLjEz7BwQ5yVHwPqLpCMfKk6Br9glqUFFQ8bv6eGZKmQ4Z/PUJt
F1+I9BvuF9w70wB5v8dWwePPb7wnkjKsSE5nvWb2d/ZbuCJYylTDclFH97Hz2AjI
xSGhC/BoP3wR5ffOJ0gM7uMrUcu9MDQhVJQHsYpXqkANKLNCOV3cmODuicKN7yly
pvbZUIu2OaCWDnI48XZ/eK3t0pesgeWtuBF6/Xdx/qeLNF42yI28bfcgMw7ACg+w
kOqOKcvV9izHAaF2VM2/WuyA81pdIOUtmOBnMxtfpC/4+pQfdV26hIypjUCNvSJu
EWTAXQAKTTk/pvU5GbtmGg+4k3azg6LoPhEWXw94EkyaGuLwpa7eH53mVSATOYjj
zWw6ynVMQO6YSMHDszZhBPaJfgWm8L6sNQw9W1jUOcWtiYJh3AL06VQtYIHB3dtm
PEYT61WY/FU6JaADE2Vsw6p8klVI0mtptJ326LABfmTQTduF8L3CtII0r1CALfYd
rf4SMDXkIjpgpp9tJSr+hZxg03TVlMfYGT2/SXVq8hzdB7sq2d505AO9bpaoUb+O
6ke+lYrUxTmaqvc2vrR0
-----END CERTIFICATE-----
