Certificate:
    Data:
        Version: 1 (0x0)
        Serial Number: 4 (0x4)
        Signature Algorithm: sha256WithRSAEncryption
        Issuer: C=fr, ST=idf, L=paris, O=vitamui, OU=authorities, CN=ca_intermediate_server
        Validity
            Not Before: Apr 21 08:37:01 2020 GMT
            Not After : Apr 21 08:37:01 2023 GMT
        Subject: C=fr, ST=idf, L=paris, O=vitamui, CN=iam-internal.service.consul
        Subject Public Key Info:
            Public Key Algorithm: rsaEncryption
                RSA Public-Key: (4096 bit)
                Modulus:
                    00:d4:38:5d:93:69:90:3f:b6:49:1b:c7:0d:5c:5a:
                    db:e0:25:19:1c:53:74:2f:e3:98:da:22:74:83:4b:
                    fe:9b:37:0f:2b:d1:ed:44:e2:0c:2e:f5:c4:d7:4b:
                    73:3d:a5:62:6a:1b:b2:52:5a:29:1f:3f:74:a8:4a:
                    ff:29:ac:ec:2f:a5:08:ce:74:24:17:0a:b8:68:ec:
                    92:db:d5:ea:86:f1:dd:df:c9:f9:06:1e:fc:84:9d:
                    86:02:59:43:d1:65:e6:5a:7d:af:27:75:2e:38:f2:
                    2d:95:f6:02:59:1a:29:f4:29:20:20:21:71:00:27:
                    c2:19:ec:b5:5a:25:25:d4:4a:5f:f3:5e:2f:33:e6:
                    ba:37:f8:fe:62:5a:a9:84:3a:c0:4f:60:64:78:24:
                    7f:3a:8a:7e:e9:10:12:4f:1e:e2:e2:73:1c:e4:96:
                    ad:71:27:b5:d4:53:c4:94:f8:af:f9:e6:18:2a:e6:
                    43:6a:15:7d:79:c5:90:25:71:96:7e:82:48:46:c0:
                    4b:6e:f8:36:34:2b:c0:d8:40:2d:aa:45:04:bc:c7:
                    43:8e:b4:3a:83:3c:47:97:ee:00:b9:9a:76:0f:97:
                    53:6d:01:ed:b6:fe:58:79:36:9f:aa:02:34:ed:25:
                    9c:f2:e1:8d:03:67:79:80:21:0c:73:cf:64:85:6b:
                    0c:03:66:09:f0:f5:45:63:55:76:e8:ac:6e:ca:a2:
                    ab:36:b6:d6:b6:2b:9d:12:b9:45:f2:e7:6d:f4:22:
                    b0:21:8a:57:1a:01:f1:22:b7:99:1b:b2:02:4a:de:
                    9b:23:ab:c7:ac:cd:71:c1:4d:cc:31:87:31:fb:58:
                    f8:62:fb:ad:96:ab:70:ae:07:8d:d6:64:cf:61:60:
                    5f:76:d7:72:42:2c:15:c4:25:98:9a:6a:76:23:69:
                    ff:df:11:50:5b:e8:66:8c:c7:3c:2d:cc:d9:42:e7:
                    f9:ca:70:f0:43:91:c8:21:78:6d:d4:05:38:d2:b4:
                    80:3a:9c:37:bd:4f:cf:d4:94:0a:f6:55:bb:b8:03:
                    b2:10:84:33:79:fe:99:5b:96:1d:a1:ba:34:3c:a8:
                    de:0e:4a:b8:28:32:7c:c2:2b:7b:15:8d:83:8c:72:
                    ea:42:04:b2:97:d1:7b:a7:ae:90:e7:eb:2f:36:64:
                    a4:66:aa:3c:9f:77:16:6f:b7:36:13:a4:f7:7c:72:
                    14:11:06:1b:c7:53:a7:aa:b1:91:2f:fe:ce:15:5c:
                    de:2c:d4:e9:62:8d:4f:67:d6:86:ca:d2:b5:2d:20:
                    62:a7:fb:30:e2:59:37:21:d1:f3:c4:aa:20:17:db:
                    e2:c2:02:d7:8e:b1:07:65:e6:a6:a2:dc:71:23:63:
                    66:a4:03
                Exponent: 65537 (0x10001)
    Signature Algorithm: sha256WithRSAEncryption
         82:d0:ea:d1:66:16:e6:e7:15:c8:54:8d:bc:ac:24:6b:39:ac:
         98:84:d4:64:37:99:69:d8:ab:a3:e2:77:fa:5b:70:09:c7:42:
         c2:55:79:0d:ca:52:c2:60:06:4f:09:4f:ca:1f:2c:d1:cd:b5:
         bc:c4:0e:22:fe:61:3b:70:4e:6d:79:ea:ea:c5:a8:11:b6:c8:
         8d:e5:5d:4e:33:35:a6:64:5c:12:af:59:a9:0a:97:09:29:d5:
         b3:d7:a7:c9:c5:48:b3:6f:79:24:3b:5b:9a:d4:05:90:a6:df:
         6a:17:b2:67:9f:98:70:ea:2c:b8:cb:07:a9:da:b4:c3:17:8a:
         a6:36:98:83:05:bc:e0:f8:41:37:13:74:a9:79:fc:7c:7f:11:
         f2:ca:1f:4f:7b:30:cd:87:34:63:7d:d6:5a:e4:9a:f6:3f:8c:
         d9:ac:ef:90:6b:e1:ce:90:db:46:09:1f:aa:01:d7:32:a1:1d:
         43:93:95:7c:5d:20:25:49:05:36:94:51:8e:7d:07:1e:98:38:
         56:c2:2b:39:06:79:6f:37:d9:7e:db:45:1d:28:82:0c:38:fd:
         c6:09:f3:3a:5e:ba:d5:65:50:c7:05:58:92:35:fc:56:52:49:
         42:9b:5d:0c:e9:1f:11:24:9e:c4:89:21:66:64:f1:e7:ee:54:
         2a:fb:a4:6b:9e:33:de:09:77:85:3f:08:a0:13:c9:f0:57:22:
         45:8d:58:9d:1f:93:8d:7e:29:56:fd:e3:01:75:12:79:20:c5:
         54:36:11:cc:2b:74:58:46:b2:17:7e:b5:dc:a1:68:6c:04:09:
         c3:a1:c5:ac:8f:31:e3:54:f8:f1:17:33:11:58:2c:c2:38:73:
         12:7f:b4:16:29:b8:9b:e1:d7:89:1b:df:d6:2a:22:22:60:a9:
         54:8d:5f:10:ec:0a:2c:7e:e6:af:2a:19:26:be:52:de:2a:10:
         32:67:cb:22:e3:22:ba:01:33:6e:a4:4f:37:62:f4:c1:45:91:
         94:b6:1c:81:e8:4c:2c:00:53:a3:4b:29:db:c1:6c:1c:0a:0f:
         ee:23:b0:de:05:db:86:36:2b:48:0e:a1:31:ea:0a:94:f9:7e:
         a7:98:e4:01:02:0e:08:12:0f:3c:15:f4:8b:4d:ac:fc:25:d5:
         c3:8c:d0:8f:d7:c5:f7:77:91:a6:2a:75:71:e1:ad:a7:8e:c2:
         2b:ec:d5:ae:c8:eb:2b:15:6c:ff:67:ce:bf:fe:03:6f:af:b7:
         d2:75:22:ed:56:95:97:89:d7:cf:42:94:19:cd:1b:b4:06:e6:
         cc:1c:7d:33:7c:fd:6e:38:f1:31:c6:67:5e:e1:61:ab:3f:46:
         53:39:06:1c:30:d0:32:35
-----BEGIN CERTIFICATE-----
MIIFSzCCAzMCAQQwDQYJKoZIhvcNAQELBQAwdDELMAkGA1UEBhMCZnIxDDAKBgNV
BAgMA2lkZjEOMAwGA1UEBwwFcGFyaXMxEDAOBgNVBAoMB3ZpdGFtdWkxFDASBgNV
BAsMC2F1dGhvcml0aWVzMR8wHQYDVQQDDBZjYV9pbnRlcm1lZGlhdGVfc2VydmVy
MB4XDTIwMDQyMTA4MzcwMVoXDTIzMDQyMTA4MzcwMVowYzELMAkGA1UEBhMCZnIx
DDAKBgNVBAgMA2lkZjEOMAwGA1UEBwwFcGFyaXMxEDAOBgNVBAoMB3ZpdGFtdWkx
JDAiBgNVBAMMG2lhbS1pbnRlcm5hbC5zZXJ2aWNlLmNvbnN1bDCCAiIwDQYJKoZI
hvcNAQEBBQADggIPADCCAgoCggIBANQ4XZNpkD+2SRvHDVxa2+AlGRxTdC/jmNoi
dINL/ps3DyvR7UTiDC71xNdLcz2lYmobslJaKR8/dKhK/yms7C+lCM50JBcKuGjs
ktvV6obx3d/J+QYe/ISdhgJZQ9Fl5lp9ryd1LjjyLZX2AlkaKfQpICAhcQAnwhns
tVolJdRKX/NeLzPmujf4/mJaqYQ6wE9gZHgkfzqKfukQEk8e4uJzHOSWrXEntdRT
xJT4r/nmGCrmQ2oVfXnFkCVxln6CSEbAS274NjQrwNhALapFBLzHQ460OoM8R5fu
ALmadg+XU20B7bb+WHk2n6oCNO0lnPLhjQNneYAhDHPPZIVrDANmCfD1RWNVduis
bsqiqza21rYrnRK5RfLnbfQisCGKVxoB8SK3mRuyAkremyOrx6zNccFNzDGHMftY
+GL7rZarcK4HjdZkz2FgX3bXckIsFcQlmJpqdiNp/98RUFvoZozHPC3M2ULn+cpw
8EORyCF4bdQFONK0gDqcN71Pz9SUCvZVu7gDshCEM3n+mVuWHaG6NDyo3g5KuCgy
fMIrexWNg4xy6kIEspfRe6eukOfrLzZkpGaqPJ93Fm+3NhOk93xyFBEGG8dTp6qx
kS/+zhVc3izU6WKNT2fWhsrStS0gYqf7MOJZNyHR88SqIBfb4sIC146xB2XmpqLc
cSNjZqQDAgMBAAEwDQYJKoZIhvcNAQELBQADggIBAILQ6tFmFubnFchUjbysJGs5
rJiE1GQ3mWnYq6Pid/pbcAnHQsJVeQ3KUsJgBk8JT8ofLNHNtbzEDiL+YTtwTm15
6urFqBG2yI3lXU4zNaZkXBKvWakKlwkp1bPXp8nFSLNveSQ7W5rUBZCm32oXsmef
mHDqLLjLB6natMMXiqY2mIMFvOD4QTcTdKl5/Hx/EfLKH097MM2HNGN91lrkmvY/
jNms75Br4c6Q20YJH6oB1zKhHUOTlXxdICVJBTaUUY59Bx6YOFbCKzkGeW832X7b
RR0oggw4/cYJ8zpeutVlUMcFWJI1/FZSSUKbXQzpHxEknsSJIWZk8efuVCr7pGue
M94Jd4U/CKATyfBXIkWNWJ0fk41+KVb94wF1EnkgxVQ2EcwrdFhGshd+tdyhaGwE
CcOhxayPMeNU+PEXMxFYLMI4cxJ/tBYpuJvh14kb39YqIiJgqVSNXxDsCix+5q8q
GSa+Ut4qEDJnyyLjIroBM26kTzdi9MFFkZS2HIHoTCwAU6NLKdvBbBwKD+4jsN4F
24Y2K0gOoTHqCpT5fqeY5AECDggSDzwV9ItNrPwl1cOM0I/Xxfd3kaYqdXHhraeO
wivs1a7I6ysVbP9nzr/+A2+vt9J1Iu1WlZeJ189ClBnNG7QG5swcfTN8/W448THG
Z17hYas/RlM5Bhww0DI1
-----END CERTIFICATE-----
