Certificate:
    Data:
        Version: 1 (0x0)
        Serial Number: 10 (0xa)
        Signature Algorithm: sha256WithRSAEncryption
        Issuer: C=fr, ST=idf, L=paris, O=vitamui, OU=authorities, CN=ca_intermediate_server
        Validity
            Not Before: Apr 21 08:37:53 2020 GMT
            Not After : Apr 21 08:37:53 2023 GMT
        Subject: C=fr, ST=idf, L=paris, O=vitamui, CN=reverse.service.consul
        Subject Public Key Info:
            Public Key Algorithm: rsaEncryption
                RSA Public-Key: (4096 bit)
                Modulus:
                    00:ba:2c:8d:4e:d8:66:e2:d4:cd:ab:90:31:9b:a4:
                    6f:e8:51:b2:68:85:ed:2e:ed:dd:bf:d8:1b:66:f0:
                    b5:76:a9:40:26:65:55:b7:44:81:99:f2:b2:a6:1a:
                    c8:ba:80:36:f8:79:66:9b:a3:b6:0c:c2:a3:42:4f:
                    f2:22:b4:42:64:65:7f:51:85:d9:8d:ac:6a:d0:37:
                    10:a6:30:44:4e:b3:73:c6:82:6e:80:0d:31:6d:e5:
                    ed:cd:75:5b:4d:68:f7:18:3b:14:6f:76:5e:7f:0e:
                    fd:ac:fb:99:1d:b0:b7:ee:6a:8e:8f:9f:f8:26:67:
                    44:13:89:0f:e7:3c:30:e5:9c:5f:0b:a1:7c:44:b9:
                    bb:58:05:ce:11:fc:b0:fd:da:4d:4d:1f:df:28:05:
                    7a:ad:39:f5:54:cb:25:eb:a4:4a:ae:94:5d:a1:c4:
                    a3:46:ae:9c:0d:6c:f7:a9:19:38:a9:c8:af:1b:1d:
                    69:a3:08:a8:13:88:1b:7f:da:a8:5f:e7:e1:5a:88:
                    f8:50:8c:de:d2:05:d8:a6:49:1c:d2:c6:5a:e8:4e:
                    f4:25:61:85:2d:f9:a0:2d:e6:e1:32:87:8a:2f:a9:
                    cb:94:6a:fa:94:87:bf:db:ec:55:42:d3:91:df:4d:
                    49:44:3d:5f:a8:8d:cf:e3:27:6f:67:48:b0:87:70:
                    f5:1b:7f:5b:8a:47:d5:1a:3b:dc:95:74:61:44:3f:
                    d4:14:76:37:55:20:f2:81:90:c5:c8:3e:70:0a:73:
                    09:ef:06:2b:85:aa:b3:bd:56:63:88:1b:8a:90:a4:
                    aa:11:9f:37:e1:b7:2e:28:48:71:a7:01:53:69:28:
                    66:f3:2f:e6:48:a6:e3:25:b9:80:3c:b4:9a:30:d7:
                    ac:43:8f:36:2d:98:af:fe:bb:d3:e8:51:25:21:ca:
                    9f:57:df:07:6f:f7:7d:09:14:af:a0:ad:ce:91:ea:
                    69:cd:f4:a8:69:84:f5:94:04:78:cf:0f:06:ef:15:
                    bc:ad:d2:b5:64:4f:3c:ad:e6:f4:69:72:2f:a7:73:
                    ea:4a:9a:25:be:72:9a:46:90:ee:e7:c5:31:bc:e3:
                    bb:82:80:82:4f:62:5c:72:2c:31:ac:ac:ac:65:67:
                    47:b6:e7:ff:b5:ef:67:3b:5f:1a:e9:60:c5:d0:b0:
                    27:3f:43:9a:04:c5:2b:a3:86:71:ee:be:2e:e5:d3:
                    57:08:1f:b1:33:b2:9e:d0:b0:3d:8d:8a:a3:f8:3d:
                    9b:e8:ca:2a:a8:38:f4:f0:dd:c5:6f:e7:1a:0a:03:
                    79:52:84:33:fd:79:71:c0:b2:da:42:e8:d0:d0:87:
                    db:76:68:91:b2:95:74:2b:61:e6:93:36:74:8a:18:
                    13:00:ad
                Exponent: 65537 (0x10001)
    Signature Algorithm: sha256WithRSAEncryption
         23:1a:21:fd:b0:d1:6b:df:78:89:04:40:3f:08:69:df:5a:e1:
         24:23:7e:b2:37:e1:fb:3e:ae:cc:2a:a5:86:0c:fd:64:5c:1e:
         70:8a:a9:72:7b:fc:c1:f3:b5:6b:7d:ea:01:c3:8f:15:dc:c3:
         30:5c:59:ab:e6:80:3e:5c:b0:03:59:f0:5d:c6:2b:64:ff:58:
         55:fb:62:13:3b:4d:f8:de:ca:cd:52:cb:5c:9e:52:53:db:ef:
         d9:14:80:19:65:56:0d:81:21:f8:31:2d:20:01:97:36:da:b9:
         df:90:48:be:00:62:7e:0d:92:f2:ce:3d:4f:83:0b:ec:1d:3c:
         67:9d:cc:fc:8b:ec:95:e7:90:d5:22:12:27:06:71:19:4b:f1:
         5b:68:21:13:18:7a:ff:78:05:1a:50:9e:a5:24:73:01:2e:35:
         34:da:d9:21:c7:00:44:7b:22:fd:f9:d6:b2:5f:aa:21:5d:92:
         97:01:3a:b8:b1:48:b5:49:99:23:c6:b0:1b:81:d9:9b:d6:14:
         25:ab:ef:78:13:5a:fc:7a:6b:0c:14:ef:14:f2:63:92:30:c2:
         02:ca:2b:f6:24:de:8e:af:4c:51:95:3c:48:f7:f9:da:35:a5:
         18:8f:60:38:9d:f7:74:22:13:88:c8:88:06:5c:89:9d:ea:5a:
         5d:8b:6b:27:98:fe:ce:cf:d1:ec:9a:ad:bd:b9:47:46:3f:7f:
         74:34:01:d9:ea:da:70:e0:eb:f4:59:06:77:2c:a2:a9:a3:2a:
         71:59:84:52:2b:91:9a:8d:f4:dc:c6:ae:3b:f9:93:75:7b:08:
         e0:b2:e8:4c:b4:a2:b8:dd:24:26:b0:89:f8:ea:5b:5c:f4:da:
         f7:ec:5d:83:de:c6:aa:ef:cd:b8:db:7f:88:6b:fb:81:c0:10:
         0e:77:28:7f:32:d3:9f:b5:af:74:d6:3d:64:e2:1a:83:d5:60:
         50:e0:96:22:a3:49:c3:b5:e7:47:26:0e:bd:78:11:4c:0e:e8:
         e1:5e:dc:71:88:24:97:4a:3e:ab:53:13:d2:6f:d6:af:5d:a7:
         96:1c:3d:85:99:4b:1d:16:5e:59:71:51:7f:0b:22:62:38:a8:
         b9:7a:4a:a4:ed:d3:42:0b:31:96:ff:7c:55:ee:81:77:45:04:
         cb:36:85:d0:52:18:3a:70:ec:fa:5b:11:57:7c:c4:bb:c3:6e:
         7f:1c:6c:86:dd:f2:ae:3e:42:40:b1:a8:aa:ce:07:8a:b6:c4:
         e9:3f:33:a9:e6:57:1b:16:a4:39:17:1d:d5:52:a2:6f:72:db:
         9f:a5:cb:41:d4:51:2b:29:64:89:f3:4b:d9:36:7e:1c:42:04:
         e8:d2:16:c3:92:ce:c9:5b
-----BEGIN CERTIFICATE-----
MIIFRjCCAy4CAQowDQYJKoZIhvcNAQELBQAwdDELMAkGA1UEBhMCZnIxDDAKBgNV
BAgMA2lkZjEOMAwGA1UEBwwFcGFyaXMxEDAOBgNVBAoMB3ZpdGFtdWkxFDASBgNV
BAsMC2F1dGhvcml0aWVzMR8wHQYDVQQDDBZjYV9pbnRlcm1lZGlhdGVfc2VydmVy
MB4XDTIwMDQyMTA4Mzc1M1oXDTIzMDQyMTA4Mzc1M1owXjELMAkGA1UEBhMCZnIx
DDAKBgNVBAgMA2lkZjEOMAwGA1UEBwwFcGFyaXMxEDAOBgNVBAoMB3ZpdGFtdWkx
HzAdBgNVBAMMFnJldmVyc2Uuc2VydmljZS5jb25zdWwwggIiMA0GCSqGSIb3DQEB
AQUAA4ICDwAwggIKAoICAQC6LI1O2Gbi1M2rkDGbpG/oUbJohe0u7d2/2Btm8LV2
qUAmZVW3RIGZ8rKmGsi6gDb4eWabo7YMwqNCT/IitEJkZX9RhdmNrGrQNxCmMERO
s3PGgm6ADTFt5e3NdVtNaPcYOxRvdl5/Dv2s+5kdsLfuao6Pn/gmZ0QTiQ/nPDDl
nF8LoXxEubtYBc4R/LD92k1NH98oBXqtOfVUyyXrpEqulF2hxKNGrpwNbPepGTip
yK8bHWmjCKgTiBt/2qhf5+FaiPhQjN7SBdimSRzSxlroTvQlYYUt+aAt5uEyh4ov
qcuUavqUh7/b7FVC05HfTUlEPV+ojc/jJ29nSLCHcPUbf1uKR9UaO9yVdGFEP9QU
djdVIPKBkMXIPnAKcwnvBiuFqrO9VmOIG4qQpKoRnzfhty4oSHGnAVNpKGbzL+ZI
puMluYA8tJow16xDjzYtmK/+u9PoUSUhyp9X3wdv930JFK+grc6R6mnN9KhphPWU
BHjPDwbvFbyt0rVkTzyt5vRpci+nc+pKmiW+cppGkO7nxTG847uCgIJPYlxyLDGs
rKxlZ0e25/+172c7XxrpYMXQsCc/Q5oExSujhnHuvi7l01cIH7Ezsp7QsD2NiqP4
PZvoyiqoOPTw3cVv5xoKA3lShDP9eXHAstpC6NDQh9t2aJGylXQrYeaTNnSKGBMA
rQIDAQABMA0GCSqGSIb3DQEBCwUAA4ICAQAjGiH9sNFr33iJBEA/CGnfWuEkI36y
N+H7Pq7MKqWGDP1kXB5wiqlye/zB87VrfeoBw48V3MMwXFmr5oA+XLADWfBdxitk
/1hV+2ITO0343srNUstcnlJT2+/ZFIAZZVYNgSH4MS0gAZc22rnfkEi+AGJ+DZLy
zj1PgwvsHTxnncz8i+yV55DVIhInBnEZS/FbaCETGHr/eAUaUJ6lJHMBLjU02tkh
xwBEeyL9+dayX6ohXZKXATq4sUi1SZkjxrAbgdmb1hQlq+94E1r8emsMFO8U8mOS
MMICyiv2JN6Or0xRlTxI9/naNaUYj2A4nfd0IhOIyIgGXImd6lpdi2snmP7Oz9Hs
mq29uUdGP390NAHZ6tpw4Ov0WQZ3LKKpoypxWYRSK5GajfTcxq47+ZN1ewjgsuhM
tKK43SQmsIn46ltc9Nr37F2D3saq782423+Ia/uBwBAOdyh/MtOfta901j1k4hqD
1WBQ4JYio0nDtedHJg69eBFMDujhXtxxiCSXSj6rUxPSb9avXaeWHD2FmUsdFl5Z
cVF/CyJiOKi5ekqk7dNCCzGW/3xV7oF3RQTLNoXQUhg6cOz6WxFXfMS7w25/HGyG
3fKuPkJAsaiqzgeKtsTpPzOp5lcbFqQ5Fx3VUqJvctufpctB1FErKWSJ80vZNn4c
QgTo0hbDks7JWw==
-----END CERTIFICATE-----
