Certificate:
    Data:
        Version: 1 (0x0)
        Serial Number: 18 (0x12)
        Signature Algorithm: sha256WithRSAEncryption
        Issuer: C=fr, ST=idf, L=paris, O=vitamui, OU=authorities, CN=ca_intermediate_server
        Validity
            Not Before: May  5 11:44:22 2020 GMT
            Not After : May  5 11:44:22 2023 GMT
        Subject: C=fr, ST=idf, L=paris, O=vitamui, CN=reverse.service.consul
        Subject Public Key Info:
            Public Key Algorithm: rsaEncryption
                RSA Public-Key: (4096 bit)
                Modulus:
                    00:ab:41:f7:80:55:b6:5a:33:61:e1:f1:78:71:44:
                    4c:7c:54:a4:a4:66:89:60:74:02:40:1c:7e:a7:22:
                    ca:93:a1:ee:ee:ef:12:90:02:d7:c1:a7:08:83:e6:
                    7c:8e:24:9f:cc:7b:02:83:9d:4d:94:2e:c0:34:f1:
                    59:db:61:5d:e1:58:29:d1:7b:50:09:2f:14:7b:f5:
                    3d:9f:9a:bd:7b:5b:57:b7:d9:0e:61:7f:88:fb:b5:
                    74:b3:56:2e:4b:cd:55:46:0c:40:74:63:1e:37:4d:
                    46:67:cc:0d:45:e0:05:fd:1c:8a:ea:0c:a5:a4:48:
                    0b:74:be:29:7a:21:19:f3:50:5f:04:66:8c:b2:d6:
                    79:e0:62:48:34:9a:33:31:3b:a6:19:10:f6:c0:67:
                    cf:b3:dd:dd:e8:44:a6:83:b1:1b:5b:61:f5:65:62:
                    e3:d6:ba:91:1e:3d:a7:cd:dc:91:f3:b0:aa:05:89:
                    2e:55:f7:b4:fe:8e:41:6b:19:c2:94:a3:ff:2d:7d:
                    d1:40:f1:bf:51:42:f8:d7:1c:c3:b9:1f:a1:58:fc:
                    bf:fb:19:6b:6c:23:ef:08:43:43:b1:f8:a8:16:77:
                    be:39:b0:25:e1:3e:49:e7:1c:cc:20:4a:f3:09:a2:
                    ae:fe:cf:95:b3:16:d1:a5:52:16:02:ff:c1:8e:96:
                    cf:dc:af:e5:cd:96:59:87:74:17:2d:04:c5:dc:35:
                    12:fc:ce:e1:4c:7a:93:3c:9e:a0:73:74:c3:c7:30:
                    4c:7d:39:e9:31:07:39:97:af:7b:76:36:22:64:c5:
                    c0:e8:25:8f:48:67:a1:10:27:33:93:10:bb:fc:7d:
                    13:4c:12:38:04:88:26:6c:c2:a7:9b:a6:34:2b:d5:
                    9c:fb:5c:53:21:8d:40:6b:08:00:cf:da:00:c3:7d:
                    57:a6:62:ef:fd:f6:5d:cc:a7:2e:54:4e:59:ad:d7:
                    ae:9a:64:1e:52:16:76:ac:12:47:57:6c:3a:f5:3a:
                    e5:90:e3:79:4b:09:bf:06:31:8e:ef:03:6b:25:7f:
                    e8:fc:51:91:fb:4e:71:6f:8a:60:48:0c:a0:f2:ae:
                    ef:c4:0b:eb:0b:8d:ac:45:be:03:39:83:31:9e:e3:
                    5c:af:a8:36:12:65:de:82:29:cb:cd:52:4e:2e:31:
                    96:c3:4c:b0:a8:32:0a:62:cc:a9:00:b3:f3:42:3b:
                    18:9c:63:f0:c0:26:3b:dd:be:08:fe:55:de:ec:42:
                    30:44:6a:20:58:48:43:ac:a1:38:97:02:e3:b1:fd:
                    7b:e6:2d:53:e8:74:94:79:50:68:83:ba:b4:90:36:
                    27:47:02:c0:01:44:e2:1e:a5:c6:f3:24:e6:83:51:
                    3f:e4:df
                Exponent: 65537 (0x10001)
    Signature Algorithm: sha256WithRSAEncryption
         7f:4f:ad:2e:24:70:74:77:34:cd:b8:0c:12:bf:e2:ab:20:0b:
         63:b6:1b:82:28:d2:1d:a6:8a:b3:0d:11:4b:e0:7d:46:cf:dc:
         b4:d4:ba:9c:f2:a8:32:1c:d0:fb:11:6e:a5:46:39:91:c5:d4:
         b9:ae:17:f4:58:22:62:71:eb:e8:16:bc:e3:1a:16:6e:e9:ec:
         85:85:1f:18:72:ca:27:32:fc:6c:27:07:0c:46:c0:83:36:63:
         5c:74:1c:f2:e2:63:cb:ac:02:ac:16:67:6d:55:b5:4b:9c:e1:
         07:27:ae:f4:01:79:f8:74:51:72:61:f8:0f:c2:1d:0b:7e:6a:
         5e:9f:4f:d2:80:81:b9:3f:eb:af:c1:c2:55:2e:72:94:7f:f0:
         64:ae:a3:95:be:6a:98:ea:64:f1:b4:28:80:54:4b:c1:0e:9b:
         ae:ea:f9:ae:86:e7:d6:ff:7c:d6:03:21:52:2e:98:87:4e:6b:
         93:83:dd:96:7a:e6:8d:0a:b2:96:52:cb:30:73:9a:39:fa:26:
         23:12:e2:ec:e5:a6:9e:96:ac:06:69:e2:db:3f:30:5a:18:09:
         3e:d3:73:e9:c6:c2:14:e8:4f:0a:e6:59:63:17:40:23:f4:94:
         81:cd:7c:19:50:43:6b:c1:87:21:20:39:6a:f1:5b:23:c5:e3:
         df:4e:21:2c:ce:90:13:42:7e:03:14:3f:16:33:80:13:63:7d:
         75:03:27:22:77:6d:35:8f:24:a3:b4:af:6a:29:53:1e:b5:da:
         82:58:0d:16:43:2d:d6:03:8a:13:bb:4d:45:bb:05:9b:36:b7:
         e8:c0:95:60:fb:6f:6d:56:c7:6c:36:84:4d:63:1b:90:df:ca:
         36:47:ab:96:3d:89:e7:40:b3:30:86:89:7b:0d:c7:f4:29:23:
         f0:32:f3:29:f9:16:10:72:50:00:99:ac:9c:21:7d:30:49:60:
         b7:ef:dd:a8:8e:f8:6e:be:ed:99:7e:da:a1:69:70:2f:b1:83:
         d3:f0:e4:5f:59:04:44:cf:3f:3d:22:24:b0:49:11:99:21:9f:
         4b:f1:81:d0:a2:4b:a8:94:7a:ab:1d:06:69:db:2c:88:7f:9d:
         91:dd:67:0c:8a:36:27:54:5e:7a:64:6c:e3:ee:c9:61:81:75:
         41:39:32:b8:c1:bb:32:cd:89:d8:41:92:9d:19:8a:f6:8e:21:
         6e:1e:2c:c8:37:a9:a8:e5:13:fb:cf:b5:1e:37:5a:7a:02:72:
         7a:bb:cd:b2:38:0f:28:3b:ad:b5:a7:dc:d6:af:a7:f4:32:21:
         78:04:68:17:7a:2f:b1:89:bd:f9:fd:59:7b:98:3b:63:ae:6e:
         76:d7:b7:08:9e:fa:3b:b2
-----BEGIN CERTIFICATE-----
MIIFRjCCAy4CARIwDQYJKoZIhvcNAQELBQAwdDELMAkGA1UEBhMCZnIxDDAKBgNV
BAgMA2lkZjEOMAwGA1UEBwwFcGFyaXMxEDAOBgNVBAoMB3ZpdGFtdWkxFDASBgNV
BAsMC2F1dGhvcml0aWVzMR8wHQYDVQQDDBZjYV9pbnRlcm1lZGlhdGVfc2VydmVy
MB4XDTIwMDUwNTExNDQyMloXDTIzMDUwNTExNDQyMlowXjELMAkGA1UEBhMCZnIx
DDAKBgNVBAgMA2lkZjEOMAwGA1UEBwwFcGFyaXMxEDAOBgNVBAoMB3ZpdGFtdWkx
HzAdBgNVBAMMFnJldmVyc2Uuc2VydmljZS5jb25zdWwwggIiMA0GCSqGSIb3DQEB
AQUAA4ICDwAwggIKAoICAQCrQfeAVbZaM2Hh8XhxREx8VKSkZolgdAJAHH6nIsqT
oe7u7xKQAtfBpwiD5nyOJJ/MewKDnU2ULsA08VnbYV3hWCnRe1AJLxR79T2fmr17
W1e32Q5hf4j7tXSzVi5LzVVGDEB0Yx43TUZnzA1F4AX9HIrqDKWkSAt0vil6IRnz
UF8EZoyy1nngYkg0mjMxO6YZEPbAZ8+z3d3oRKaDsRtbYfVlYuPWupEePafN3JHz
sKoFiS5V97T+jkFrGcKUo/8tfdFA8b9RQvjXHMO5H6FY/L/7GWtsI+8IQ0Ox+KgW
d745sCXhPknnHMwgSvMJoq7+z5WzFtGlUhYC/8GOls/cr+XNllmHdBctBMXcNRL8
zuFMepM8nqBzdMPHMEx9OekxBzmXr3t2NiJkxcDoJY9IZ6EQJzOTELv8fRNMEjgE
iCZswqebpjQr1Zz7XFMhjUBrCADP2gDDfVemYu/99l3Mpy5UTlmt166aZB5SFnas
EkdXbDr1OuWQ43lLCb8GMY7vA2slf+j8UZH7TnFvimBIDKDyru/EC+sLjaxFvgM5
gzGe41yvqDYSZd6CKcvNUk4uMZbDTLCoMgpizKkAs/NCOxicY/DAJjvdvgj+Vd7s
QjBEaiBYSEOsoTiXAuOx/XvmLVPodJR5UGiDurSQNidHAsABROIepcbzJOaDUT/k
3wIDAQABMA0GCSqGSIb3DQEBCwUAA4ICAQB/T60uJHB0dzTNuAwSv+KrIAtjthuC
KNIdpoqzDRFL4H1Gz9y01Lqc8qgyHND7EW6lRjmRxdS5rhf0WCJicevoFrzjGhZu
6eyFhR8YcsonMvxsJwcMRsCDNmNcdBzy4mPLrAKsFmdtVbVLnOEHJ670AXn4dFFy
YfgPwh0Lfmpen0/SgIG5P+uvwcJVLnKUf/BkrqOVvmqY6mTxtCiAVEvBDpuu6vmu
hufW/3zWAyFSLpiHTmuTg92WeuaNCrKWUsswc5o5+iYjEuLs5aaelqwGaeLbPzBa
GAk+03PpxsIU6E8K5lljF0Aj9JSBzXwZUENrwYchIDlq8VsjxePfTiEszpATQn4D
FD8WM4ATY311Aycid201jySjtK9qKVMetdqCWA0WQy3WA4oTu01FuwWbNrfowJVg
+29tVsdsNoRNYxuQ38o2R6uWPYnnQLMwhol7Dcf0KSPwMvMp+RYQclAAmaycIX0w
SWC3792ojvhuvu2ZftqhaXAvsYPT8ORfWQREzz89IiSwSRGZIZ9L8YHQokuolHqr
HQZp2yyIf52R3WcMijYnVF56ZGzj7slhgXVBOTK4wbsyzYnYQZKdGYr2jiFuHizI
N6mo5RP7z7UeN1p6AnJ6u82yOA8oO621p9zWr6f0MiF4BGgXei+xib35/Vl7mDtj
rm5217cInvo7sg==
-----END CERTIFICATE-----
