Certificate:
    Data:
        Version: 1 (0x0)
        Serial Number: 11 (0xb)
        Signature Algorithm: sha256WithRSAEncryption
        Issuer: C=fr, ST=idf, L=paris, O=vitamui, OU=authorities, CN=ca_intermediate_server
        Validity
            Not Before: May  5 11:43:56 2020 GMT
            Not After : May  5 11:43:56 2023 GMT
        Subject: C=fr, ST=idf, L=paris, O=vitamui, CN=security-internal.service.consul
        Subject Public Key Info:
            Public Key Algorithm: rsaEncryption
                RSA Public-Key: (4096 bit)
                Modulus:
                    00:d9:fd:3c:87:d1:20:55:57:2b:cc:55:2c:f3:dc:
                    9d:3a:cd:8f:3b:02:3f:fe:e1:f0:7a:35:63:6c:e6:
                    6a:79:cb:10:34:a5:bf:ca:2e:50:6d:44:68:de:63:
                    fb:76:d3:a7:e5:38:2f:03:d7:14:ca:d1:d3:05:de:
                    8c:83:65:54:c8:2d:71:e6:99:b1:ef:a0:95:32:92:
                    75:84:7b:4c:ab:16:b9:3e:04:10:7e:51:38:e8:70:
                    9a:2b:46:cf:ed:17:2b:2b:4d:c8:af:85:87:84:08:
                    a8:9f:9f:89:f4:0b:64:38:5c:34:f0:39:d0:9c:bf:
                    bc:c3:b6:d5:45:4b:7e:76:54:2f:03:3f:29:1b:a3:
                    5c:ce:3f:ca:c8:c0:22:10:e7:a0:f8:f5:00:92:be:
                    bc:48:b5:44:6a:2b:f4:55:8b:59:a1:32:16:69:79:
                    2b:92:ba:bf:2a:a1:30:16:ed:06:db:42:9d:c3:6c:
                    a1:43:62:09:00:fb:f0:be:39:3b:e2:51:a8:fe:ac:
                    a4:04:a7:21:43:e6:9c:52:73:4e:fc:b1:85:21:72:
                    b4:16:cc:d5:93:90:6b:e3:dc:0d:3c:09:a2:44:76:
                    8c:01:4a:a7:8b:3e:a8:cf:d5:f5:31:40:1e:d3:e1:
                    ff:7b:e5:50:57:6a:ca:8f:51:0d:ad:f9:4b:53:ef:
                    78:a9:89:c3:74:2d:fb:df:ba:f0:bd:c2:04:33:56:
                    96:13:a1:bb:0a:49:b5:fb:30:fa:0b:79:6a:82:5f:
                    9f:6d:b7:92:18:fc:6a:b1:ab:86:3e:3e:a5:73:84:
                    3d:74:ce:54:7f:7d:02:d7:36:dd:aa:fd:b7:96:a5:
                    c2:a2:b3:52:04:f8:e7:e5:8e:5d:03:41:ed:a6:46:
                    de:7d:7a:65:fa:a1:50:68:06:e7:31:18:40:fb:3b:
                    01:c4:1e:29:9c:04:0a:0c:d4:bb:8e:b3:e1:d7:63:
                    cc:77:c0:aa:bf:4e:72:87:a5:d4:74:71:cd:3a:2e:
                    e5:f3:e3:cb:6a:a9:89:41:ee:59:23:ba:82:c6:69:
                    1c:f6:26:3c:8d:cc:c1:0e:ce:7f:79:cd:15:f3:2d:
                    eb:9c:f0:b6:eb:7b:2c:f8:5b:ea:22:bd:5f:1f:b8:
                    b1:31:54:4e:2e:f5:48:29:19:46:9a:56:d0:82:fd:
                    e3:d6:0d:43:87:45:13:32:40:b9:a5:b9:b1:85:cc:
                    5b:21:f8:32:37:53:2d:bf:5f:7a:39:48:b7:15:25:
                    89:df:2d:6a:12:58:2b:aa:df:c6:bd:51:36:b8:e5:
                    e1:c1:02:19:60:36:e0:e5:25:7c:ac:d9:08:17:de:
                    71:81:85:03:42:59:f0:df:6a:4b:11:28:87:3c:85:
                    b1:90:97
                Exponent: 65537 (0x10001)
    Signature Algorithm: sha256WithRSAEncryption
         93:14:5e:82:09:25:9a:ea:77:54:b0:11:77:b0:fd:02:9a:a6:
         82:eb:e3:6b:3c:30:08:a3:ef:68:8b:f8:01:96:5c:5a:cb:ed:
         e0:3a:c8:61:5c:b5:c4:72:5d:dd:fa:e3:db:9c:6d:b2:c0:de:
         9c:e6:f4:f7:95:94:3c:e8:24:ed:36:2e:f9:31:66:6b:fd:bc:
         31:42:81:3c:52:07:15:c5:57:08:7f:95:ed:52:38:8e:f6:26:
         f6:49:eb:36:45:a1:6b:01:83:71:82:c7:d8:1a:60:15:36:9e:
         60:29:97:8b:bd:e2:21:55:27:4f:6d:b6:57:86:6b:a0:34:a5:
         4d:4c:55:da:a7:81:96:a9:62:31:66:21:71:6b:09:21:55:2d:
         72:69:98:e2:71:3f:47:1c:cf:4d:82:c8:5b:d2:b9:0d:f0:89:
         f0:f7:66:f0:e5:c7:91:61:25:75:63:7f:9c:57:70:3b:bf:3b:
         f7:ab:3f:aa:95:7f:b6:82:46:67:b6:41:f8:38:6e:69:d3:6c:
         5f:dd:f2:d0:e5:ae:f3:cb:35:96:2c:99:dd:98:8e:fc:af:1b:
         27:49:99:d0:11:58:19:0f:15:ae:32:36:8c:38:ea:6f:92:a0:
         a8:18:c5:e9:9a:69:53:b9:b7:60:a9:54:b2:8e:95:63:d1:f5:
         c2:3a:4c:19:b8:a2:eb:c8:88:11:3e:0a:50:8a:27:a5:32:00:
         6d:e7:ef:c0:84:13:23:bd:60:bc:8b:3e:ed:04:ea:20:3e:05:
         36:86:60:ba:0b:01:c2:23:3b:a4:00:7d:dd:ae:5b:b9:e9:17:
         33:95:2a:ef:56:00:08:4f:16:9f:5d:0a:a5:3f:95:87:0a:5b:
         7f:d6:13:46:96:f2:42:7b:7d:cd:fd:e5:88:00:c2:bd:04:19:
         8b:49:47:1e:8b:7d:0d:9e:25:22:f0:2e:dd:78:aa:29:db:1a:
         0b:3d:32:40:6b:1c:b2:5b:51:e2:e2:22:0a:0c:56:47:94:0e:
         17:f3:68:af:ef:70:71:17:bc:ad:9b:04:44:29:5a:15:f0:f8:
         88:82:34:1f:49:ae:cd:fb:e3:5d:39:62:76:c1:1d:38:37:2a:
         85:67:2f:0c:16:0c:53:75:a1:1f:ea:50:7c:53:22:95:ff:b6:
         50:90:4a:b1:9c:37:b0:78:cb:c5:61:f0:38:55:0c:8a:29:ee:
         64:c1:c7:65:ec:ac:90:00:9d:51:8f:61:34:6b:0a:29:14:ce:
         7b:02:9c:83:a4:d5:82:5c:c5:04:73:b5:a6:79:da:21:4f:22:
         9a:b6:ab:5e:f4:5b:ba:c9:98:e6:3d:a3:5a:43:1b:9b:1e:2c:
         5c:11:d9:05:a9:5c:f8:33
-----BEGIN CERTIFICATE-----
MIIFUDCCAzgCAQswDQYJKoZIhvcNAQELBQAwdDELMAkGA1UEBhMCZnIxDDAKBgNV
BAgMA2lkZjEOMAwGA1UEBwwFcGFyaXMxEDAOBgNVBAoMB3ZpdGFtdWkxFDASBgNV
BAsMC2F1dGhvcml0aWVzMR8wHQYDVQQDDBZjYV9pbnRlcm1lZGlhdGVfc2VydmVy
MB4XDTIwMDUwNTExNDM1NloXDTIzMDUwNTExNDM1NlowaDELMAkGA1UEBhMCZnIx
DDAKBgNVBAgMA2lkZjEOMAwGA1UEBwwFcGFyaXMxEDAOBgNVBAoMB3ZpdGFtdWkx
KTAnBgNVBAMMIHNlY3VyaXR5LWludGVybmFsLnNlcnZpY2UuY29uc3VsMIICIjAN
BgkqhkiG9w0BAQEFAAOCAg8AMIICCgKCAgEA2f08h9EgVVcrzFUs89ydOs2POwI/
/uHwejVjbOZqecsQNKW/yi5QbURo3mP7dtOn5TgvA9cUytHTBd6Mg2VUyC1x5pmx
76CVMpJ1hHtMqxa5PgQQflE46HCaK0bP7RcrK03Ir4WHhAion5+J9AtkOFw08DnQ
nL+8w7bVRUt+dlQvAz8pG6Nczj/KyMAiEOeg+PUAkr68SLVEaiv0VYtZoTIWaXkr
krq/KqEwFu0G20Kdw2yhQ2IJAPvwvjk74lGo/qykBKchQ+acUnNO/LGFIXK0FszV
k5Br49wNPAmiRHaMAUqniz6oz9X1MUAe0+H/e+VQV2rKj1ENrflLU+94qYnDdC37
37rwvcIEM1aWE6G7Ckm1+zD6C3lqgl+fbbeSGPxqsauGPj6lc4Q9dM5Uf30C1zbd
qv23lqXCorNSBPjn5Y5dA0HtpkbefXpl+qFQaAbnMRhA+zsBxB4pnAQKDNS7jrPh
12PMd8Cqv05yh6XUdHHNOi7l8+PLaqmJQe5ZI7qCxmkc9iY8jczBDs5/ec0V8y3r
nPC263ss+FvqIr1fH7ixMVROLvVIKRlGmlbQgv3j1g1Dh0UTMkC5pbmxhcxbIfgy
N1Mtv196OUi3FSWJ3y1qElgrqt/GvVE2uOXhwQIZYDbg5SV8rNkIF95xgYUDQlnw
32pLESiHPIWxkJcCAwEAATANBgkqhkiG9w0BAQsFAAOCAgEAkxReggklmup3VLAR
d7D9ApqmguvjazwwCKPvaIv4AZZcWsvt4DrIYVy1xHJd3frj25xtssDenOb095WU
POgk7TYu+TFma/28MUKBPFIHFcVXCH+V7VI4jvYm9knrNkWhawGDcYLH2BpgFTae
YCmXi73iIVUnT222V4ZroDSlTUxV2qeBlqliMWYhcWsJIVUtcmmY4nE/RxzPTYLI
W9K5DfCJ8Pdm8OXHkWEldWN/nFdwO78796s/qpV/toJGZ7ZB+DhuadNsX93y0OWu
88s1liyZ3ZiO/K8bJ0mZ0BFYGQ8VrjI2jDjqb5KgqBjF6ZppU7m3YKlUso6VY9H1
wjpMGbii68iIET4KUIonpTIAbefvwIQTI71gvIs+7QTqID4FNoZgugsBwiM7pAB9
3a5buekXM5Uq71YACE8Wn10KpT+Vhwpbf9YTRpbyQnt9zf3liADCvQQZi0lHHot9
DZ4lIvAu3XiqKdsaCz0yQGscsltR4uIiCgxWR5QOF/Nor+9wcRe8rZsERClaFfD4
iII0H0muzfvjXTlidsEdODcqhWcvDBYMU3WhH+pQfFMilf+2UJBKsZw3sHjLxWHw
OFUMiinuZMHHZeyskACdUY9hNGsKKRTOewKcg6TVglzFBHO1pnnaIU8imrarXvRb
usmY5j2jWkMbmx4sXBHZBalc+DM=
-----END CERTIFICATE-----
