Certificate:
    Data:
        Version: 1 (0x0)
        Serial Number: 3 (0x3)
        Signature Algorithm: sha256WithRSAEncryption
        Issuer: C=fr, ST=idf, L=paris, O=vitamui, OU=authorities, CN=ca_intermediate_server
        Validity
            Not Before: Apr 21 08:36:55 2020 GMT
            Not After : Apr 21 08:36:55 2023 GMT
        Subject: C=fr, ST=idf, L=paris, O=vitamui, CN=security-internal.service.consul
        Subject Public Key Info:
            Public Key Algorithm: rsaEncryption
                RSA Public-Key: (4096 bit)
                Modulus:
                    00:bb:2d:f6:61:29:ba:bd:a9:3d:86:65:f4:63:b5:
                    1c:02:c7:8c:d9:55:55:98:e1:07:19:ca:6f:0c:ea:
                    24:29:c8:24:8c:c5:38:a3:6c:19:42:51:07:23:90:
                    2c:83:27:35:66:7f:41:fe:c8:a9:14:8b:5e:54:ed:
                    2c:87:04:95:4a:9b:ae:1c:a8:c4:b8:3d:da:2d:38:
                    32:ff:a2:93:47:16:eb:80:7c:76:c4:d4:3e:68:e5:
                    da:fd:86:1b:95:37:0c:22:c7:f8:66:f4:22:c7:1d:
                    1e:7a:6f:e2:c9:d5:90:af:1d:88:eb:7e:c8:10:81:
                    ee:6c:02:bb:cb:d3:c8:aa:99:5a:91:ce:cd:48:42:
                    a0:24:46:fd:28:64:ff:ac:72:1e:50:66:4a:a7:a9:
                    b9:c2:b2:1c:39:cf:9a:93:28:b0:9d:c2:ab:8d:6d:
                    1c:80:03:0a:8d:e0:46:fb:90:35:b4:9b:b1:89:9a:
                    99:4a:65:a0:ce:a9:26:08:98:cb:31:af:40:2b:73:
                    85:17:52:a6:f5:b2:76:72:b2:d1:5b:2b:2e:df:53:
                    15:7b:8a:0b:56:2e:57:25:31:42:8f:cc:35:52:0a:
                    40:ce:50:19:1a:3b:d2:88:3b:20:1d:96:64:0f:6e:
                    b6:f5:ac:35:92:9c:64:91:e9:d1:3c:1c:f9:a8:93:
                    db:e3:cd:46:39:39:18:be:12:30:01:47:8a:c6:f0:
                    2d:51:46:04:7e:95:66:43:9f:8f:3c:58:f8:30:b3:
                    de:f1:77:a9:cc:31:33:f5:d9:33:87:ca:c5:e0:cc:
                    b9:13:4d:66:a7:4d:be:20:68:a6:00:c4:ef:8a:c4:
                    65:cd:15:9e:60:4a:31:b5:f2:86:48:0f:e3:af:29:
                    5f:d8:69:40:57:a0:13:b4:3b:54:bc:f1:af:34:b8:
                    87:0a:fa:d4:10:ae:e6:fd:00:49:20:0b:79:b3:df:
                    27:a1:b4:62:ec:57:52:96:6d:53:29:cf:72:93:c4:
                    c5:90:5e:f1:d6:7e:71:28:1e:4c:2b:ad:c7:ee:e5:
                    15:44:2f:e6:19:32:54:d1:81:85:ca:7d:35:d2:04:
                    06:b8:3a:a4:98:86:a8:e9:e5:9e:9f:38:ca:1a:3a:
                    82:be:a1:4b:fd:5e:9a:e7:55:01:4a:1b:24:a9:a1:
                    2c:ac:f2:07:cf:bd:61:ab:96:f4:6d:9b:4e:28:a5:
                    36:9c:e9:4d:73:8c:6b:3c:55:2d:36:18:30:ec:33:
                    9f:0c:0b:d9:af:9e:cb:68:a7:49:11:2d:b5:55:87:
                    04:76:20:c2:41:66:e5:b9:9a:2c:d4:60:11:a6:f3:
                    1f:b3:e1:86:bd:a2:b0:0e:23:ff:57:a5:4a:8b:d2:
                    4c:3c:eb
                Exponent: 65537 (0x10001)
    Signature Algorithm: sha256WithRSAEncryption
         83:ff:45:fb:61:20:36:d8:22:99:f0:99:5b:db:c5:53:1e:91:
         96:45:44:55:5e:13:f6:87:93:b3:d2:9e:b4:b9:9d:e4:e5:af:
         13:37:b2:66:86:f4:2a:b3:5b:84:07:d0:5a:fd:39:55:fe:53:
         21:3d:8b:cb:95:87:dc:f7:df:84:ae:f5:3e:1c:90:30:cd:09:
         a7:79:37:13:07:54:94:96:27:d7:cc:d9:9e:5a:3f:32:f5:78:
         83:38:15:62:dd:82:7b:15:36:b1:90:f6:75:bc:5f:15:58:ff:
         01:0f:29:5d:38:1b:85:25:34:13:61:36:9c:8f:84:1f:58:35:
         fc:2c:ab:b0:7b:6f:fb:09:92:06:35:e4:aa:94:a6:ef:b7:67:
         e2:d9:3f:ac:7a:0c:66:6c:fe:52:18:01:5a:ca:73:dd:1a:c4:
         95:fd:0b:ad:31:0a:eb:d4:5b:1c:12:0f:48:8b:f4:ef:8c:82:
         0f:4d:7d:49:27:d5:2c:2d:1e:04:19:0f:e2:a0:d1:77:cf:06:
         8d:34:87:28:0b:df:30:cf:6a:b8:a2:de:0f:93:f6:95:96:7b:
         99:21:79:41:e9:e8:00:ca:04:da:11:e9:9d:c0:3b:58:1b:5a:
         d7:0c:c2:51:7b:9f:3b:18:2b:d3:f1:b2:83:ed:3e:1c:ca:5e:
         96:df:3e:e6:0f:d2:0a:8c:31:d3:a8:00:4d:68:a9:7c:87:08:
         c2:50:62:ed:94:a6:fb:8e:8e:53:e4:22:06:f4:8d:cf:77:16:
         40:b3:32:43:d4:37:34:42:dd:50:24:1b:82:eb:8c:a3:06:0d:
         f3:b5:6f:0a:8d:8b:bd:fa:8d:92:af:00:ae:96:31:9f:ec:e5:
         4b:81:11:41:70:04:e8:de:d2:ba:d5:37:ea:a2:0d:c9:50:f5:
         59:42:28:d3:10:11:03:10:dc:d1:c9:5a:dd:96:dc:da:20:a5:
         0d:f3:24:e7:d5:6b:d1:63:88:0d:4b:92:55:eb:be:46:22:9d:
         be:af:0a:4e:2f:d6:4a:d6:de:10:7b:9c:3a:47:4e:13:63:66:
         92:94:47:65:b3:4a:fa:e6:b2:98:d3:52:16:83:3b:e7:f9:8e:
         a6:cf:1d:42:8f:9b:c6:9a:86:0d:2e:37:4c:90:09:c5:e8:a6:
         5b:34:21:fa:52:cc:d8:69:f1:26:84:fe:ba:a1:27:42:2e:da:
         72:88:a9:df:11:65:ab:26:35:cf:9d:3d:26:25:6f:1d:67:9c:
         90:ff:75:c5:3c:d7:04:46:f8:51:42:ab:65:c6:9a:77:4c:94:
         4a:3a:f7:f4:12:6e:c0:a3:6f:32:e9:b1:46:38:ba:87:1c:b1:
         2d:74:c4:e9:e2:3b:be:a6
-----BEGIN CERTIFICATE-----
MIIFUDCCAzgCAQMwDQYJKoZIhvcNAQELBQAwdDELMAkGA1UEBhMCZnIxDDAKBgNV
BAgMA2lkZjEOMAwGA1UEBwwFcGFyaXMxEDAOBgNVBAoMB3ZpdGFtdWkxFDASBgNV
BAsMC2F1dGhvcml0aWVzMR8wHQYDVQQDDBZjYV9pbnRlcm1lZGlhdGVfc2VydmVy
MB4XDTIwMDQyMTA4MzY1NVoXDTIzMDQyMTA4MzY1NVowaDELMAkGA1UEBhMCZnIx
DDAKBgNVBAgMA2lkZjEOMAwGA1UEBwwFcGFyaXMxEDAOBgNVBAoMB3ZpdGFtdWkx
KTAnBgNVBAMMIHNlY3VyaXR5LWludGVybmFsLnNlcnZpY2UuY29uc3VsMIICIjAN
BgkqhkiG9w0BAQEFAAOCAg8AMIICCgKCAgEAuy32YSm6vak9hmX0Y7UcAseM2VVV
mOEHGcpvDOokKcgkjMU4o2wZQlEHI5Asgyc1Zn9B/sipFIteVO0shwSVSpuuHKjE
uD3aLTgy/6KTRxbrgHx2xNQ+aOXa/YYblTcMIsf4ZvQixx0eem/iydWQrx2I637I
EIHubAK7y9PIqplakc7NSEKgJEb9KGT/rHIeUGZKp6m5wrIcOc+akyiwncKrjW0c
gAMKjeBG+5A1tJuxiZqZSmWgzqkmCJjLMa9AK3OFF1Km9bJ2crLRWysu31MVe4oL
Vi5XJTFCj8w1UgpAzlAZGjvSiDsgHZZkD2629aw1kpxkkenRPBz5qJPb481GOTkY
vhIwAUeKxvAtUUYEfpVmQ5+PPFj4MLPe8XepzDEz9dkzh8rF4My5E01mp02+IGim
AMTvisRlzRWeYEoxtfKGSA/jrylf2GlAV6ATtDtUvPGvNLiHCvrUEK7m/QBJIAt5
s98nobRi7FdSlm1TKc9yk8TFkF7x1n5xKB5MK63H7uUVRC/mGTJU0YGFyn010gQG
uDqkmIao6eWenzjKGjqCvqFL/V6a51UBShskqaEsrPIHz71hq5b0bZtOKKU2nOlN
c4xrPFUtNhgw7DOfDAvZr57LaKdJES21VYcEdiDCQWbluZos1GARpvMfs+GGvaKw
DiP/V6VKi9JMPOsCAwEAATANBgkqhkiG9w0BAQsFAAOCAgEAg/9F+2EgNtgimfCZ
W9vFUx6RlkVEVV4T9oeTs9KetLmd5OWvEzeyZob0KrNbhAfQWv05Vf5TIT2Ly5WH
3PffhK71PhyQMM0Jp3k3EwdUlJYn18zZnlo/MvV4gzgVYt2CexU2sZD2dbxfFVj/
AQ8pXTgbhSU0E2E2nI+EH1g1/CyrsHtv+wmSBjXkqpSm77dn4tk/rHoMZmz+UhgB
Wspz3RrElf0LrTEK69RbHBIPSIv074yCD019SSfVLC0eBBkP4qDRd88GjTSHKAvf
MM9quKLeD5P2lZZ7mSF5QenoAMoE2hHpncA7WBta1wzCUXufOxgr0/Gyg+0+HMpe
lt8+5g/SCowx06gATWipfIcIwlBi7ZSm+46OU+QiBvSNz3cWQLMyQ9Q3NELdUCQb
guuMowYN87VvCo2LvfqNkq8ArpYxn+zlS4ERQXAE6N7SutU36qINyVD1WUIo0xAR
AxDc0cla3Zbc2iClDfMk59Vr0WOIDUuSVeu+RiKdvq8KTi/WStbeEHucOkdOE2Nm
kpRHZbNK+uaymNNSFoM75/mOps8dQo+bxpqGDS43TJAJxeimWzQh+lLM2GnxJoT+
uqEnQi7acoip3xFlqyY1z509JiVvHWeckP91xTzXBEb4UUKrZcaad0yUSjr39BJu
wKNvMumxRji6hxyxLXTE6eI7vqY=
-----END CERTIFICATE-----
