Certificate:
    Data:
        Version: 1 (0x0)
        Serial Number: 16 (0x10)
        Signature Algorithm: sha256WithRSAEncryption
        Issuer: C=fr, ST=idf, L=paris, O=vitamui, OU=authorities, CN=ca_intermediate_server
        Validity
            Not Before: May  5 11:44:14 2020 GMT
            Not After : May  5 11:44:14 2023 GMT
        Subject: C=fr, ST=idf, L=paris, O=vitamui, CN=ui-identity.service.consul
        Subject Public Key Info:
            Public Key Algorithm: rsaEncryption
                RSA Public-Key: (4096 bit)
                Modulus:
                    00:c4:ea:89:0a:96:8e:d4:ac:99:37:9a:80:16:7a:
                    37:2c:06:e2:7e:60:ef:33:b5:aa:0b:ce:0a:76:7a:
                    a0:ff:59:6f:bd:e5:bf:57:78:8d:6c:ae:1d:58:c9:
                    2b:e0:ac:a6:0c:be:9c:0a:40:5c:46:3e:66:cd:73:
                    fc:cd:64:e8:a9:7c:d7:a2:f9:1b:83:b3:7b:0e:bc:
                    63:86:0f:6a:48:f7:53:f5:47:78:72:73:55:93:72:
                    44:57:1f:0c:d8:5a:cc:03:f1:9e:a6:8f:1e:e7:75:
                    9d:f4:aa:0c:ee:84:06:84:64:5a:39:48:29:36:18:
                    7e:88:54:85:84:2f:61:32:40:3f:a9:65:de:17:13:
                    1a:f3:63:29:b8:fd:b9:9b:f9:64:15:8d:8c:fb:aa:
                    d0:f4:19:ca:93:ea:92:1f:5a:ea:51:cf:dc:bd:4b:
                    c0:59:76:7c:9a:76:24:f1:f6:3d:6f:f2:49:9d:a5:
                    b7:24:ff:ba:6a:ee:08:3b:7b:3d:62:78:25:7a:b7:
                    be:5d:42:5b:ca:c4:96:97:fa:78:de:a9:88:4b:54:
                    29:b3:6d:a2:08:12:57:2a:c4:77:a5:a1:d8:fd:c4:
                    37:5f:17:f7:cc:a9:88:ea:02:6e:f1:c4:e8:62:56:
                    cd:f9:50:09:b5:70:41:a0:4a:db:07:7c:38:35:5a:
                    cc:62:01:40:af:57:05:7c:93:ca:bb:8a:59:be:10:
                    cb:54:8e:37:e9:1a:7e:aa:95:29:6d:32:35:cc:c5:
                    28:c8:1c:bd:87:00:0f:33:f8:74:2b:98:68:44:c1:
                    3a:1c:98:dc:1c:a9:72:6e:1e:7b:78:55:59:bb:8f:
                    56:16:8b:d0:a5:e4:0f:c2:f0:d2:8a:c5:c5:64:a9:
                    c6:2d:1a:94:44:ba:e8:da:10:33:da:18:27:a3:26:
                    2a:94:ee:c8:19:48:8e:b4:45:b0:40:c6:6c:86:85:
                    63:18:4e:f0:df:2e:a1:37:42:a5:2d:7c:f4:f6:cb:
                    d7:46:4f:2a:dc:fe:7d:57:b7:b9:8b:6b:d4:e6:32:
                    c2:6b:c0:f0:ca:00:c5:44:6e:4a:b9:f2:29:1e:75:
                    fe:c3:2a:9b:8b:8a:c0:e7:1b:12:2a:47:41:2b:09:
                    bd:bc:3c:e1:f2:26:b0:ea:94:9e:fa:a3:2d:de:18:
                    e4:b0:87:ea:7d:a7:f1:96:44:b8:d7:6f:3f:78:58:
                    4f:0c:92:b6:fc:93:d1:fd:9d:52:ac:13:bc:01:c4:
                    17:02:49:bc:e3:e4:24:43:9c:8f:9c:e7:d1:a5:84:
                    8c:43:cb:63:56:bb:5e:f5:e8:20:f5:e1:60:82:f9:
                    6b:cc:0d:68:78:ff:df:2c:ef:13:4c:2a:1b:a9:3d:
                    05:21:5d
                Exponent: 65537 (0x10001)
    Signature Algorithm: sha256WithRSAEncryption
         44:16:f8:53:72:62:94:b9:71:d0:5e:4e:53:5a:dc:ef:85:37:
         3b:13:cc:94:cc:25:5d:65:bd:44:03:0e:dd:a9:e3:9c:c7:87:
         6a:a3:28:85:a3:d0:70:fc:40:ee:2b:7d:35:79:f6:eb:92:b7:
         88:81:e6:04:9a:84:5b:eb:e9:7e:98:14:af:5f:19:98:3a:60:
         fb:23:1b:1d:6c:e7:99:15:f6:16:65:0c:fa:e5:6c:85:91:b1:
         f1:3d:52:18:5b:62:92:34:f5:7d:46:18:31:3d:1c:64:3c:2a:
         2b:33:e2:e5:f0:47:1f:01:60:a8:88:a9:a8:47:f1:67:a1:14:
         41:76:1a:92:7d:dd:8c:bc:78:88:de:0d:0f:34:62:d6:ed:b4:
         46:10:a4:35:bf:d5:0e:78:90:57:21:bf:23:4a:95:ed:3b:92:
         2a:6a:c4:a7:17:f8:85:e8:4e:f1:66:0b:48:93:36:da:f5:a7:
         70:19:eb:b1:26:d9:c7:06:45:2d:b3:61:e3:35:7e:2a:2e:41:
         bb:f4:e2:bf:da:cb:90:93:15:32:c1:72:47:70:2b:2b:95:04:
         f3:d1:34:50:fe:27:99:a1:ef:9b:1f:10:6c:44:52:6f:9e:02:
         ea:1f:6d:b9:30:fa:82:37:8d:41:92:c5:8d:05:17:b7:2a:a6:
         bd:87:a4:42:e4:ef:9c:50:8e:e6:6a:4c:c3:b5:6e:f1:0f:08:
         c4:95:c9:1f:a6:2f:d9:02:61:ef:d1:5d:05:cd:44:41:bf:88:
         6b:90:65:9f:4c:58:ed:74:dc:69:cc:3d:72:ab:64:09:3c:25:
         c7:60:a0:35:a5:ed:9c:0a:f6:40:c2:ef:0d:4f:ca:79:19:e8:
         48:e9:14:18:67:7a:f9:aa:fc:a0:ae:00:72:ee:4b:46:54:c7:
         90:e0:26:72:e9:a5:91:0f:91:b1:66:29:58:31:27:c3:7b:2a:
         4a:a2:67:7c:58:5a:aa:2a:d9:3d:ca:6d:e6:1f:ac:2e:ec:b4:
         9d:3e:60:29:29:f5:cc:19:79:5c:c1:b7:13:0f:22:57:56:1b:
         06:77:5b:75:30:6a:46:08:52:63:ab:da:a9:a9:2c:8e:62:81:
         fe:e9:ae:e2:7a:9f:a1:63:e3:e4:1e:60:4e:83:f9:46:ec:7e:
         f9:bd:b1:0f:76:a3:30:a2:ad:7e:a8:51:a2:9c:a5:38:87:2d:
         6d:08:9c:83:92:38:29:46:c5:55:e9:2b:19:56:c8:94:35:9c:
         0b:6f:36:1c:95:a0:6a:61:8c:84:8a:a7:b5:88:e3:fb:79:1d:
         99:02:76:78:78:03:61:49:32:21:b9:2b:62:09:45:7b:1b:c8:
         97:14:77:c6:41:0b:ef:82
-----BEGIN CERTIFICATE-----
MIIFSjCCAzICARAwDQYJKoZIhvcNAQELBQAwdDELMAkGA1UEBhMCZnIxDDAKBgNV
BAgMA2lkZjEOMAwGA1UEBwwFcGFyaXMxEDAOBgNVBAoMB3ZpdGFtdWkxFDASBgNV
BAsMC2F1dGhvcml0aWVzMR8wHQYDVQQDDBZjYV9pbnRlcm1lZGlhdGVfc2VydmVy
MB4XDTIwMDUwNTExNDQxNFoXDTIzMDUwNTExNDQxNFowYjELMAkGA1UEBhMCZnIx
DDAKBgNVBAgMA2lkZjEOMAwGA1UEBwwFcGFyaXMxEDAOBgNVBAoMB3ZpdGFtdWkx
IzAhBgNVBAMMGnVpLWlkZW50aXR5LnNlcnZpY2UuY29uc3VsMIICIjANBgkqhkiG
9w0BAQEFAAOCAg8AMIICCgKCAgEAxOqJCpaO1KyZN5qAFno3LAbifmDvM7WqC84K
dnqg/1lvveW/V3iNbK4dWMkr4KymDL6cCkBcRj5mzXP8zWToqXzXovkbg7N7Drxj
hg9qSPdT9Ud4cnNVk3JEVx8M2FrMA/Gepo8e53Wd9KoM7oQGhGRaOUgpNhh+iFSF
hC9hMkA/qWXeFxMa82MpuP25m/lkFY2M+6rQ9BnKk+qSH1rqUc/cvUvAWXZ8mnYk
8fY9b/JJnaW3JP+6au4IO3s9Ynglere+XUJbysSWl/p43qmIS1Qps22iCBJXKsR3
paHY/cQ3Xxf3zKmI6gJu8cToYlbN+VAJtXBBoErbB3w4NVrMYgFAr1cFfJPKu4pZ
vhDLVI436Rp+qpUpbTI1zMUoyBy9hwAPM/h0K5hoRME6HJjcHKlybh57eFVZu49W
FovQpeQPwvDSisXFZKnGLRqURLro2hAz2hgnoyYqlO7IGUiOtEWwQMZshoVjGE7w
3y6hN0KlLXz09svXRk8q3P59V7e5i2vU5jLCa8DwygDFRG5KufIpHnX+wyqbi4rA
5xsSKkdBKwm9vDzh8iaw6pSe+qMt3hjksIfqfafxlkS4128/eFhPDJK2/JPR/Z1S
rBO8AcQXAkm84+QkQ5yPnOfRpYSMQ8tjVrte9egg9eFggvlrzA1oeP/fLO8TTCob
qT0FIV0CAwEAATANBgkqhkiG9w0BAQsFAAOCAgEARBb4U3JilLlx0F5OU1rc74U3
OxPMlMwlXWW9RAMO3anjnMeHaqMohaPQcPxA7it9NXn265K3iIHmBJqEW+vpfpgU
r18ZmDpg+yMbHWznmRX2FmUM+uVshZGx8T1SGFtikjT1fUYYMT0cZDwqKzPi5fBH
HwFgqIipqEfxZ6EUQXYakn3djLx4iN4NDzRi1u20RhCkNb/VDniQVyG/I0qV7TuS
KmrEpxf4hehO8WYLSJM22vWncBnrsSbZxwZFLbNh4zV+Ki5Bu/Tiv9rLkJMVMsFy
R3ArK5UE89E0UP4nmaHvmx8QbERSb54C6h9tuTD6gjeNQZLFjQUXtyqmvYekQuTv
nFCO5mpMw7Vu8Q8IxJXJH6Yv2QJh79FdBc1EQb+Ia5Bln0xY7XTcacw9cqtkCTwl
x2CgNaXtnAr2QMLvDU/KeRnoSOkUGGd6+ar8oK4Acu5LRlTHkOAmcumlkQ+RsWYp
WDEnw3sqSqJnfFhaqirZPcpt5h+sLuy0nT5gKSn1zBl5XMG3Ew8iV1YbBndbdTBq
RghSY6vaqaksjmKB/umu4nqfoWPj5B5gToP5Rux++b2xD3ajMKKtfqhRopylOIct
bQicg5I4KUbFVekrGVbIlDWcC282HJWgamGMhIqntYjj+3kdmQJ2eHgDYUkyIbkr
YglFexvIlxR3xkEL74I=
-----END CERTIFICATE-----
