Certificate:
    Data:
        Version: 1 (0x0)
        Serial Number: 9 (0x9)
        Signature Algorithm: sha256WithRSAEncryption
        Issuer: C=fr, ST=idf, L=paris, O=vitamui, OU=authorities, CN=ca_intermediate_server
        Validity
            Not Before: Apr 21 08:37:44 2020 GMT
            Not After : Apr 21 08:37:44 2023 GMT
        Subject: C=fr, ST=idf, L=paris, O=vitamui, CN=ui-identity-admin.service.consul
        Subject Public Key Info:
            Public Key Algorithm: rsaEncryption
                RSA Public-Key: (4096 bit)
                Modulus:
                    00:a8:d4:8d:1d:78:3f:8b:0a:0d:a8:f1:1a:b1:ed:
                    f9:d9:0c:bb:b6:d7:db:d7:dc:47:e0:6f:6b:93:46:
                    9b:a0:61:c8:0b:80:82:df:47:1d:b8:3b:03:65:29:
                    37:f8:aa:cf:ab:59:a8:b7:43:32:91:3e:88:35:5d:
                    90:d3:de:76:0f:2f:5f:e1:d4:27:34:29:96:6d:cd:
                    24:37:05:04:91:86:d1:f1:59:c9:4c:15:c6:d2:ac:
                    c8:87:60:77:9e:42:b3:49:d4:9d:e1:23:71:ed:7d:
                    1f:23:97:63:56:62:71:48:a3:04:5c:49:06:c1:95:
                    83:5a:e6:ca:34:42:c0:96:04:54:b0:98:99:71:35:
                    e4:93:98:6f:b6:84:c0:92:d8:33:7e:52:ad:6d:4f:
                    0c:4f:31:20:a7:9c:05:48:f2:41:97:88:6d:99:29:
                    b8:35:f3:c2:cd:d6:8e:84:15:92:f1:a6:95:53:af:
                    31:9f:c7:c1:12:9c:c1:a8:1e:2b:ba:2f:54:30:8f:
                    c0:93:13:05:96:98:48:89:8d:c1:fd:31:49:7a:b1:
                    94:59:2d:2a:9d:3b:45:9c:39:8d:8d:ef:5c:5e:ca:
                    ea:15:b2:c7:85:45:98:75:9d:a0:82:ab:2e:0a:9a:
                    fc:bf:80:20:73:e7:32:29:91:33:91:4e:cb:03:3a:
                    5c:d7:78:d4:e4:29:d5:a3:6f:45:e8:57:10:a6:73:
                    d2:9c:66:1e:ab:d9:ab:88:99:a9:7c:9a:7d:cf:c3:
                    24:cd:83:da:08:c9:3a:a6:9c:72:74:33:29:47:d8:
                    5e:25:7e:41:4c:0c:cc:3d:cb:62:4b:84:82:9f:79:
                    72:34:10:f3:7e:eb:84:39:8f:85:5d:e7:b7:78:e3:
                    1a:62:49:9f:2c:19:98:4f:51:cb:d3:93:9a:b9:3d:
                    47:c2:2b:5f:1f:fc:f4:50:9e:31:c1:fb:0b:14:7f:
                    35:f8:32:62:55:88:7e:88:32:cb:91:8d:29:10:75:
                    e9:54:30:4d:d5:36:0d:bd:b3:3c:ff:82:63:d0:5e:
                    6e:89:6b:9a:3a:c1:63:17:bb:8e:4f:a7:1d:b0:e8:
                    ee:4a:6c:e8:d2:20:55:dd:f9:7f:20:ec:0a:78:a3:
                    a1:11:4e:f0:96:fd:b1:45:01:d1:66:24:9a:3c:4c:
                    48:ed:10:a3:de:89:23:61:2b:e2:9b:74:1b:f6:5f:
                    ca:14:2a:73:7b:71:3a:5c:08:16:bc:f5:2d:2e:7f:
                    f4:c3:de:08:36:1f:3b:76:24:5f:94:25:f2:57:35:
                    5f:9e:99:43:20:72:8a:76:4a:df:d1:d2:fa:1d:9f:
                    40:85:39:20:c3:d3:af:8e:14:cc:4f:7d:ae:a8:74:
                    e8:b0:c7
                Exponent: 65537 (0x10001)
    Signature Algorithm: sha256WithRSAEncryption
         33:cb:42:91:18:74:3a:0a:09:89:7a:df:9f:4c:a7:b5:af:6d:
         3a:7f:b1:67:d8:22:22:69:0f:a1:de:59:e0:f5:83:5c:06:67:
         2d:1a:bc:e8:f0:cd:0c:90:44:d1:41:e1:6b:ab:06:73:e2:79:
         6a:2d:06:05:30:b1:23:d8:dd:51:1e:26:da:14:e7:91:6c:e2:
         95:0b:8a:a0:3c:36:b7:69:61:d9:7a:2d:a2:6a:ed:ec:71:a1:
         5e:27:65:17:0f:14:57:f9:39:7b:03:15:7a:42:ec:2a:12:8c:
         f5:05:3e:3f:5a:b4:98:b9:d3:6b:8f:e9:8d:d5:fb:13:32:9c:
         df:83:47:60:f6:1f:2a:50:2f:69:2a:43:3f:68:bb:52:7e:99:
         cd:b4:42:eb:2c:a4:cf:01:af:e2:5d:b6:ed:8f:e7:c9:0c:4d:
         a4:25:e2:58:9c:9d:d6:5c:35:ca:86:54:a4:b1:de:1d:5f:cf:
         a4:17:36:c6:b5:6f:1f:6e:85:a3:01:c7:99:d7:c2:6f:6e:f0:
         0d:0e:5f:09:7a:f4:5f:06:c5:b9:f4:70:92:2e:c6:ef:25:08:
         31:8f:59:21:0b:e9:e2:34:ea:a7:e6:a7:b7:7b:92:14:f6:30:
         7f:2c:15:92:10:ba:dc:5d:f5:ba:92:f9:67:c8:59:48:32:08:
         d2:53:f2:1b:69:61:8f:6a:5c:dc:93:3f:f0:f8:92:b3:41:5a:
         b3:bb:ca:dc:ce:ed:00:79:3c:79:95:60:1f:f3:ee:3b:13:9e:
         08:06:57:70:52:f1:9c:bd:a8:2a:78:d7:59:0f:a4:45:ff:28:
         b0:1d:48:1d:91:5a:ad:09:f2:21:c4:94:85:6e:60:df:3e:01:
         d1:75:e8:ae:db:46:b8:d6:e8:f9:53:88:ed:b4:bc:0d:20:20:
         45:89:50:34:41:be:73:3c:41:f3:0e:2b:36:23:bc:e4:58:30:
         60:58:2f:8d:37:8f:43:64:62:11:0b:a7:ad:6a:19:1d:0a:b8:
         84:39:2a:ab:8b:50:2c:9e:ad:e3:23:c7:73:89:ee:be:63:78:
         fb:4e:07:a9:16:49:8c:f6:1a:72:05:01:d6:7c:6e:a9:63:5f:
         63:d6:43:7d:3c:da:a8:64:7f:03:86:26:b2:92:c4:0c:8b:4d:
         97:e5:c2:d2:0f:ec:66:4c:8f:8e:81:f8:9d:07:c7:6c:82:86:
         be:36:bd:db:f9:5a:67:a9:35:ea:66:c6:04:e2:a5:18:99:69:
         05:00:14:df:9e:57:51:3d:c3:f8:3e:7f:9e:fb:59:37:9d:44:
         68:43:c2:b3:ed:0f:4c:cc:e4:ea:33:40:af:14:33:73:1c:08:
         b0:48:da:cb:c7:8e:aa:dc
-----BEGIN CERTIFICATE-----
MIIFUDCCAzgCAQkwDQYJKoZIhvcNAQELBQAwdDELMAkGA1UEBhMCZnIxDDAKBgNV
BAgMA2lkZjEOMAwGA1UEBwwFcGFyaXMxEDAOBgNVBAoMB3ZpdGFtdWkxFDASBgNV
BAsMC2F1dGhvcml0aWVzMR8wHQYDVQQDDBZjYV9pbnRlcm1lZGlhdGVfc2VydmVy
MB4XDTIwMDQyMTA4Mzc0NFoXDTIzMDQyMTA4Mzc0NFowaDELMAkGA1UEBhMCZnIx
DDAKBgNVBAgMA2lkZjEOMAwGA1UEBwwFcGFyaXMxEDAOBgNVBAoMB3ZpdGFtdWkx
KTAnBgNVBAMMIHVpLWlkZW50aXR5LWFkbWluLnNlcnZpY2UuY29uc3VsMIICIjAN
BgkqhkiG9w0BAQEFAAOCAg8AMIICCgKCAgEAqNSNHXg/iwoNqPEase352Qy7ttfb
19xH4G9rk0aboGHIC4CC30cduDsDZSk3+KrPq1mot0MykT6INV2Q0952Dy9f4dQn
NCmWbc0kNwUEkYbR8VnJTBXG0qzIh2B3nkKzSdSd4SNx7X0fI5djVmJxSKMEXEkG
wZWDWubKNELAlgRUsJiZcTXkk5hvtoTAktgzflKtbU8MTzEgp5wFSPJBl4htmSm4
NfPCzdaOhBWS8aaVU68xn8fBEpzBqB4rui9UMI/AkxMFlphIiY3B/TFJerGUWS0q
nTtFnDmNje9cXsrqFbLHhUWYdZ2ggqsuCpr8v4Agc+cyKZEzkU7LAzpc13jU5CnV
o29F6FcQpnPSnGYeq9mriJmpfJp9z8MkzYPaCMk6ppxydDMpR9heJX5BTAzMPcti
S4SCn3lyNBDzfuuEOY+FXee3eOMaYkmfLBmYT1HL05OauT1HwitfH/z0UJ4xwfsL
FH81+DJiVYh+iDLLkY0pEHXpVDBN1TYNvbM8/4Jj0F5uiWuaOsFjF7uOT6cdsOju
Smzo0iBV3fl/IOwKeKOhEU7wlv2xRQHRZiSaPExI7RCj3okjYSvim3Qb9l/KFCpz
e3E6XAgWvPUtLn/0w94INh87diRflCXyVzVfnplDIHKKdkrf0dL6HZ9AhTkgw9Ov
jhTMT32uqHTosMcCAwEAATANBgkqhkiG9w0BAQsFAAOCAgEAM8tCkRh0OgoJiXrf
n0ynta9tOn+xZ9giImkPod5Z4PWDXAZnLRq86PDNDJBE0UHha6sGc+J5ai0GBTCx
I9jdUR4m2hTnkWzilQuKoDw2t2lh2Xotomrt7HGhXidlFw8UV/k5ewMVekLsKhKM
9QU+P1q0mLnTa4/pjdX7EzKc34NHYPYfKlAvaSpDP2i7Un6ZzbRC6yykzwGv4l22
7Y/nyQxNpCXiWJyd1lw1yoZUpLHeHV/PpBc2xrVvH26FowHHmdfCb27wDQ5fCXr0
XwbFufRwki7G7yUIMY9ZIQvp4jTqp+ant3uSFPYwfywVkhC63F31upL5Z8hZSDII
0lPyG2lhj2pc3JM/8PiSs0Fas7vK3M7tAHk8eZVgH/PuOxOeCAZXcFLxnL2oKnjX
WQ+kRf8osB1IHZFarQnyIcSUhW5g3z4B0XXorttGuNbo+VOI7bS8DSAgRYlQNEG+
czxB8w4rNiO85FgwYFgvjTePQ2RiEQunrWoZHQq4hDkqq4tQLJ6t4yPHc4nuvmN4
+04HqRZJjPYacgUB1nxuqWNfY9ZDfTzaqGR/A4YmspLEDItNl+XC0g/sZkyPjoH4
nQfHbIKGvja92/laZ6k16mbGBOKlGJlpBQAU355XUT3D+D5/nvtZN51EaEPCs+0P
TMzk6jNArxQzcxwIsEjay8eOqtw=
-----END CERTIFICATE-----
