Certificate:
    Data:
        Version: 1 (0x0)
        Serial Number: 17 (0x11)
        Signature Algorithm: sha256WithRSAEncryption
        Issuer: C=fr, ST=idf, L=paris, O=vitamui, OU=authorities, CN=ca_intermediate_server
        Validity
            Not Before: May  5 11:44:18 2020 GMT
            Not After : May  5 11:44:18 2023 GMT
        Subject: C=fr, ST=idf, L=paris, O=vitamui, CN=ui-identity-admin.service.consul
        Subject Public Key Info:
            Public Key Algorithm: rsaEncryption
                RSA Public-Key: (4096 bit)
                Modulus:
                    00:aa:04:bb:20:dd:cb:26:5e:eb:e5:51:5e:10:d2:
                    ff:ec:56:71:fa:52:c8:14:f8:82:e7:02:5d:5c:a0:
                    2b:57:19:db:71:bb:f7:b4:02:73:11:e3:31:64:db:
                    8f:6c:29:e9:04:61:e7:6f:e3:da:8c:88:26:af:6d:
                    dc:7a:22:b0:b4:51:be:60:98:9a:e9:d2:c3:48:13:
                    00:aa:f1:6a:60:be:ec:5b:46:ee:51:b1:65:c2:11:
                    7c:38:ba:40:bf:62:40:25:1a:59:c1:6c:a2:79:f2:
                    52:30:54:9e:9b:0f:63:17:01:22:6b:e8:c1:3f:ca:
                    a7:52:89:a7:86:f3:69:3c:47:17:a9:1c:cf:2e:95:
                    a1:56:4f:9f:2e:84:01:94:c1:16:81:da:e1:4a:01:
                    d4:e9:c0:63:ec:93:23:84:ce:bd:15:5c:17:7c:f8:
                    ed:a4:cf:e9:00:ce:3e:7d:3b:44:b3:c2:27:1d:e4:
                    7c:05:00:ac:6a:de:f0:48:f8:63:30:fc:23:0d:81:
                    26:4c:37:16:fd:e6:14:ef:b0:ce:03:7e:6e:b1:06:
                    c0:10:74:8a:20:56:39:4d:fd:dd:19:8c:1f:95:05:
                    8c:99:79:c6:c6:f0:53:cb:02:e3:20:00:d0:fd:c9:
                    2d:af:c1:ab:40:3e:c2:d6:69:16:29:6f:3f:72:c8:
                    9c:0f:d7:16:c5:78:ff:36:ba:04:2e:a4:e5:e6:55:
                    5e:b8:95:db:78:81:ec:47:0a:ae:29:c5:bc:fe:ef:
                    0a:17:93:59:d6:a0:33:e8:4d:f5:98:15:2f:1e:d9:
                    22:1d:ba:48:8c:83:10:c2:dc:20:df:95:74:6c:de:
                    07:95:3c:aa:29:18:46:58:89:91:97:49:3e:d1:82:
                    9e:04:05:ef:3e:28:cf:61:c9:29:83:b7:89:0d:9e:
                    2a:21:0d:0d:ef:16:0a:6b:79:a3:41:8c:fd:f6:2f:
                    64:46:58:80:03:ad:e6:a2:7b:2b:f1:58:59:ef:62:
                    f6:82:52:8f:68:03:1c:5a:32:83:93:84:9f:f5:99:
                    eb:f9:60:91:ec:6a:8c:38:c8:51:6c:75:cc:27:5f:
                    f0:a9:8f:8e:16:5c:9a:4e:b2:d1:db:c8:20:3e:99:
                    67:4c:f0:2c:11:a4:8a:b6:40:6f:e0:7e:0f:a3:db:
                    2e:ca:68:a3:4a:80:13:5b:26:45:cb:18:7a:31:4d:
                    ae:7b:7d:3c:4a:71:84:ec:b2:a8:75:f3:90:2f:db:
                    9a:a2:8f:e6:32:d9:0f:ae:b2:7f:40:cd:16:4c:b0:
                    f6:a3:9c:5f:05:51:f7:cc:45:62:ee:99:aa:fa:e3:
                    d2:10:c5:58:e7:a1:6c:d8:47:3e:69:62:1f:ce:e3:
                    2f:60:33
                Exponent: 65537 (0x10001)
    Signature Algorithm: sha256WithRSAEncryption
         b6:84:b7:3c:6c:36:0d:5a:fe:db:ef:2a:48:9c:ec:0e:de:f4:
         fa:9f:60:50:99:22:85:54:37:da:9a:bd:85:7f:f1:cb:fc:c3:
         d4:6f:ca:f4:5f:e4:cf:e4:e5:01:22:6e:86:5b:72:41:8b:b2:
         8d:a2:bd:7a:7b:e4:81:24:11:52:f8:39:50:f7:0e:80:b9:fa:
         f3:1a:24:97:5b:f2:d8:cb:62:7f:a4:88:62:24:5b:de:99:79:
         ac:89:f4:91:8a:50:65:54:df:66:68:31:b2:2d:bc:b6:1b:0a:
         ee:dc:f4:53:29:92:87:ee:e8:18:14:23:24:07:ad:e1:58:6d:
         1d:78:08:45:22:75:ce:c4:d7:e1:5f:ea:85:22:0b:91:89:db:
         28:b9:b2:78:cf:12:75:a1:2c:15:c3:a3:8f:6d:92:03:67:80:
         51:79:73:bb:73:f5:5d:8a:f4:a0:f2:ed:8d:2b:68:24:6f:06:
         4f:9e:2b:fc:97:da:00:00:e4:18:2b:e8:0e:d7:7b:72:15:20:
         1f:21:53:a2:a4:fb:35:76:f9:18:ec:7a:15:ab:95:26:59:01:
         93:af:3a:df:9b:44:8b:db:55:18:b0:06:de:ff:73:8f:14:0b:
         31:28:e4:32:cc:1d:3c:0e:f0:49:5f:69:4c:f9:80:79:66:87:
         ff:0d:82:4b:08:70:9f:e6:ed:08:6d:b2:5f:c6:ad:52:b0:20:
         d5:f6:bd:5f:cd:00:b1:6c:9e:bd:38:61:b8:42:af:1f:82:b8:
         60:5d:f4:d9:12:c0:4d:7d:0f:bf:76:8e:89:14:31:b8:bd:1b:
         53:5d:b3:2e:73:cf:17:82:4e:d1:cd:5b:e0:97:bc:fe:e6:03:
         e4:41:05:74:3d:ed:d4:02:d2:e2:ad:70:6e:54:0f:ff:7c:07:
         bf:f1:2c:2e:ba:e5:14:7d:00:63:d8:f4:21:d9:2a:3f:36:bd:
         24:d9:63:ba:f6:8f:4b:89:1a:2d:fd:c0:ef:40:23:e1:b5:77:
         be:9d:7c:7c:63:29:cf:e6:ea:3b:39:a5:b1:ac:57:c4:23:ad:
         34:cb:0c:9c:5a:16:bc:f7:b3:47:dd:33:b6:5d:3e:d3:f8:c8:
         be:ab:4b:89:ad:ee:b3:64:d3:28:27:0a:2c:76:3a:3b:ed:d0:
         cc:81:57:3b:fb:c4:ef:37:87:d8:d2:4b:b4:80:9e:e2:05:aa:
         d8:66:8e:8b:20:e7:4c:b6:53:19:3d:4a:cc:07:25:23:15:a6:
         68:b1:f4:70:15:bc:3e:1b:77:dc:cb:27:0c:e5:fd:02:ec:ea:
         2e:29:4d:ec:6d:23:0c:2a:14:04:25:86:b1:4c:4b:f5:f6:f1:
         5c:b1:d5:cd:e7:8e:78:b7
-----BEGIN CERTIFICATE-----
MIIFUDCCAzgCAREwDQYJKoZIhvcNAQELBQAwdDELMAkGA1UEBhMCZnIxDDAKBgNV
BAgMA2lkZjEOMAwGA1UEBwwFcGFyaXMxEDAOBgNVBAoMB3ZpdGFtdWkxFDASBgNV
BAsMC2F1dGhvcml0aWVzMR8wHQYDVQQDDBZjYV9pbnRlcm1lZGlhdGVfc2VydmVy
MB4XDTIwMDUwNTExNDQxOFoXDTIzMDUwNTExNDQxOFowaDELMAkGA1UEBhMCZnIx
DDAKBgNVBAgMA2lkZjEOMAwGA1UEBwwFcGFyaXMxEDAOBgNVBAoMB3ZpdGFtdWkx
KTAnBgNVBAMMIHVpLWlkZW50aXR5LWFkbWluLnNlcnZpY2UuY29uc3VsMIICIjAN
BgkqhkiG9w0BAQEFAAOCAg8AMIICCgKCAgEAqgS7IN3LJl7r5VFeENL/7FZx+lLI
FPiC5wJdXKArVxnbcbv3tAJzEeMxZNuPbCnpBGHnb+PajIgmr23ceiKwtFG+YJia
6dLDSBMAqvFqYL7sW0buUbFlwhF8OLpAv2JAJRpZwWyiefJSMFSemw9jFwEia+jB
P8qnUomnhvNpPEcXqRzPLpWhVk+fLoQBlMEWgdrhSgHU6cBj7JMjhM69FVwXfPjt
pM/pAM4+fTtEs8InHeR8BQCsat7wSPhjMPwjDYEmTDcW/eYU77DOA35usQbAEHSK
IFY5Tf3dGYwflQWMmXnGxvBTywLjIADQ/cktr8GrQD7C1mkWKW8/csicD9cWxXj/
NroELqTl5lVeuJXbeIHsRwquKcW8/u8KF5NZ1qAz6E31mBUvHtkiHbpIjIMQwtwg
35V0bN4HlTyqKRhGWImRl0k+0YKeBAXvPijPYckpg7eJDZ4qIQ0N7xYKa3mjQYz9
9i9kRliAA63monsr8VhZ72L2glKPaAMcWjKDk4Sf9Znr+WCR7GqMOMhRbHXMJ1/w
qY+OFlyaTrLR28ggPplnTPAsEaSKtkBv4H4Po9suymijSoATWyZFyxh6MU2ue308
SnGE7LKodfOQL9uaoo/mMtkPrrJ/QM0WTLD2o5xfBVH3zEVi7pmq+uPSEMVY56Fs
2Ec+aWIfzuMvYDMCAwEAATANBgkqhkiG9w0BAQsFAAOCAgEAtoS3PGw2DVr+2+8q
SJzsDt70+p9gUJkihVQ32pq9hX/xy/zD1G/K9F/kz+TlASJuhltyQYuyjaK9envk
gSQRUvg5UPcOgLn68xokl1vy2Mtif6SIYiRb3pl5rIn0kYpQZVTfZmgxsi28thsK
7tz0UymSh+7oGBQjJAet4VhtHXgIRSJ1zsTX4V/qhSILkYnbKLmyeM8SdaEsFcOj
j22SA2eAUXlzu3P1XYr0oPLtjStoJG8GT54r/JfaAADkGCvoDtd7chUgHyFToqT7
NXb5GOx6FauVJlkBk68635tEi9tVGLAG3v9zjxQLMSjkMswdPA7wSV9pTPmAeWaH
/w2CSwhwn+btCG2yX8atUrAg1fa9X80AsWyevThhuEKvH4K4YF302RLATX0Pv3aO
iRQxuL0bU12zLnPPF4JO0c1b4Je8/uYD5EEFdD3t1ALS4q1wblQP/3wHv/EsLrrl
FH0AY9j0IdkqPza9JNljuvaPS4kaLf3A70Aj4bV3vp18fGMpz+bqOzmlsaxXxCOt
NMsMnFoWvPezR90ztl0+0/jIvqtLia3us2TTKCcKLHY6O+3QzIFXO/vE7zeH2NJL
tICe4gWq2GaOiyDnTLZTGT1KzAclIxWmaLH0cBW8Pht33MsnDOX9AuzqLilN7G0j
DCoUBCWGsUxL9fbxXLHVzeeOeLc=
-----END CERTIFICATE-----
