Certificate:
    Data:
        Version: 1 (0x0)
        Serial Number: 15 (0xf)
        Signature Algorithm: sha256WithRSAEncryption
        Issuer: C=fr, ST=idf, L=paris, O=vitamui, OU=authorities, CN=ca_intermediate_server
        Validity
            Not Before: May  5 11:44:10 2020 GMT
            Not After : May  5 11:44:10 2023 GMT
        Subject: C=fr, ST=idf, L=paris, O=vitamui, CN=ui-portal.service.consul
        Subject Public Key Info:
            Public Key Algorithm: rsaEncryption
                RSA Public-Key: (4096 bit)
                Modulus:
                    00:ab:92:1a:03:a3:a4:a6:64:81:7a:d6:7c:41:51:
                    dd:6e:a1:2e:b5:1a:0c:68:4e:fa:17:fd:6d:81:58:
                    5a:82:27:25:13:4b:dc:e2:82:81:7c:b6:bb:66:86:
                    60:74:ec:87:23:56:d6:ee:69:d5:01:ad:f6:b9:3f:
                    e7:c5:7f:5e:24:05:de:c7:2e:b8:3e:af:fd:8f:d8:
                    bc:19:12:22:44:f2:bc:3e:1f:21:47:e6:ad:70:88:
                    4f:79:b1:2c:eb:e2:24:a9:50:c0:db:c7:9e:0d:d7:
                    75:77:f6:d3:5c:9b:26:49:64:ca:5e:ab:9d:f8:1c:
                    08:7d:00:ac:18:18:71:ed:f0:48:1b:ce:66:30:c9:
                    d4:52:83:18:55:63:ae:dd:d3:0c:b0:8a:d1:6d:fe:
                    ec:f3:c2:2d:74:b7:c5:76:5c:78:01:7b:5e:49:d7:
                    af:6e:20:85:5d:11:b4:71:66:4c:09:93:b5:39:08:
                    b0:50:1a:59:72:ea:b6:be:34:db:9c:04:f9:74:73:
                    3b:29:d8:c1:7e:d7:c4:5c:6e:21:9c:80:14:2f:39:
                    5d:ae:fa:8d:b5:97:7f:d3:da:07:7f:1b:87:db:d9:
                    06:57:1c:3f:c4:12:ba:7c:2a:a4:0c:a4:b0:a7:c1:
                    4e:e9:78:8b:40:b9:62:5f:25:09:72:1f:ac:f7:cb:
                    5c:b6:28:6e:f1:4a:c7:46:4d:2c:7a:36:ad:29:36:
                    8b:f8:45:ef:01:c3:a4:1f:b8:ea:24:13:7c:ec:3f:
                    6c:25:95:77:a0:a4:ec:93:f6:6d:a5:8c:31:7f:2b:
                    a0:13:a8:8d:1c:51:43:cd:fc:6b:81:29:1f:00:f1:
                    b4:85:3d:f6:03:3e:51:6e:22:d3:26:5b:d0:06:aa:
                    6b:d1:bf:81:5f:28:ee:d7:29:c4:db:f4:46:c5:5a:
                    c4:2f:f8:8d:f0:a9:49:12:86:61:a1:58:42:33:ba:
                    49:d0:4d:41:04:45:86:51:18:8f:e6:4e:1e:fa:53:
                    ac:a7:6f:fe:58:bc:35:9f:59:04:6f:fc:c2:fe:10:
                    7d:67:f8:5a:ae:b0:30:ca:91:46:0b:90:22:a0:65:
                    7a:4f:05:53:bf:1e:b1:a1:30:6f:33:aa:64:2d:e9:
                    2c:0b:8a:e9:1a:0e:59:be:f2:fe:cd:5a:18:eb:81:
                    3d:83:ed:31:0b:54:c2:b4:5f:ba:e6:b4:37:01:ce:
                    c6:e4:b8:15:86:48:f5:99:46:14:2e:58:be:42:12:
                    20:1f:2f:a8:ea:09:46:07:e8:0e:1f:cb:20:a1:1f:
                    dd:29:cb:a9:7f:af:48:d5:c0:64:d6:2a:cb:5d:d7:
                    4f:17:26:c4:ef:3f:92:c5:3a:4e:ac:17:e0:de:5f:
                    48:ad:6d
                Exponent: 65537 (0x10001)
    Signature Algorithm: sha256WithRSAEncryption
         3a:17:7a:ec:8f:a1:4e:7b:db:ac:46:72:e9:67:9c:c8:71:9a:
         9d:e2:27:74:c9:d2:0b:08:91:98:80:24:7f:8e:fd:f5:50:ad:
         8b:50:74:79:13:dc:c8:af:e8:13:2d:ff:e7:bd:ff:c6:4f:da:
         c5:f4:da:0b:8f:97:66:89:a1:36:87:e7:69:da:ad:09:f6:8b:
         ff:8e:58:0f:3f:ee:65:96:5f:4f:64:c9:f0:3c:f6:c2:a2:53:
         f7:32:6e:89:d1:a5:b8:f9:04:50:4a:74:b3:05:47:d3:ec:43:
         0d:c4:86:cd:13:21:14:70:80:d2:27:5c:a2:2b:6a:d5:be:c7:
         86:aa:a6:ca:fd:82:72:6e:65:2b:d0:1f:ba:7a:d7:a6:bf:c0:
         64:35:67:8a:e5:92:60:ae:ba:d3:a4:ad:02:59:00:ff:5d:15:
         a5:80:c7:2f:3e:0f:68:23:7a:40:07:be:a4:05:b8:49:8f:16:
         2a:a2:41:91:3b:91:a0:10:17:df:59:e6:7c:7c:c1:5b:f3:bc:
         0a:50:9f:ab:70:70:0e:7d:61:25:73:d3:d1:c3:ad:3f:0f:0c:
         8b:43:73:dd:40:20:66:00:d7:74:2e:48:da:21:84:9d:02:4d:
         c5:e5:56:0b:89:02:06:7b:ef:06:69:72:89:d8:de:b5:2b:f9:
         f7:07:fc:f1:91:d7:9c:0b:f1:77:d8:4f:11:ca:8b:b0:61:27:
         0d:26:f2:34:8c:c1:75:7f:cf:84:8b:5a:c9:2e:ce:c9:7e:e4:
         e5:1e:5c:35:6a:62:d4:d1:c3:be:3c:ae:9e:f7:66:db:50:a4:
         c8:42:d6:4f:ff:fa:60:e9:23:60:7f:2b:52:25:97:a7:cb:c0:
         2a:d3:c2:71:8d:16:5e:07:ec:49:8f:12:c9:f2:81:8a:6c:34:
         85:9e:ec:ff:4f:80:3f:0c:eb:a2:10:c9:7d:29:cc:5f:9e:7b:
         d4:e9:f7:25:27:e1:8a:df:e0:34:a6:5b:fc:f2:b0:2b:4c:40:
         56:7f:fa:94:dc:90:3f:c6:97:7b:0a:f2:27:83:55:8c:a0:d3:
         a0:5c:11:a6:7a:2b:7e:68:88:1a:4c:2b:60:d9:19:5c:42:ba:
         5d:06:cb:10:00:76:d9:15:f5:7a:87:37:a2:87:0f:a8:49:d9:
         ba:05:a8:85:91:e3:8a:b9:32:03:de:b8:ce:f8:d8:84:7d:3c:
         32:c9:42:95:a2:24:6a:ee:1b:89:a7:91:d3:e7:7b:9d:96:92:
         60:13:89:5e:9c:2d:7c:7a:fc:30:49:d8:13:c1:d6:05:69:8d:
         69:ab:3f:23:64:64:0b:b9:da:73:59:a2:85:b5:23:f7:66:73:
         d7:d7:49:43:14:1d:a1:f5
-----BEGIN CERTIFICATE-----
MIIFSDCCAzACAQ8wDQYJKoZIhvcNAQELBQAwdDELMAkGA1UEBhMCZnIxDDAKBgNV
BAgMA2lkZjEOMAwGA1UEBwwFcGFyaXMxEDAOBgNVBAoMB3ZpdGFtdWkxFDASBgNV
BAsMC2F1dGhvcml0aWVzMR8wHQYDVQQDDBZjYV9pbnRlcm1lZGlhdGVfc2VydmVy
MB4XDTIwMDUwNTExNDQxMFoXDTIzMDUwNTExNDQxMFowYDELMAkGA1UEBhMCZnIx
DDAKBgNVBAgMA2lkZjEOMAwGA1UEBwwFcGFyaXMxEDAOBgNVBAoMB3ZpdGFtdWkx
ITAfBgNVBAMMGHVpLXBvcnRhbC5zZXJ2aWNlLmNvbnN1bDCCAiIwDQYJKoZIhvcN
AQEBBQADggIPADCCAgoCggIBAKuSGgOjpKZkgXrWfEFR3W6hLrUaDGhO+hf9bYFY
WoInJRNL3OKCgXy2u2aGYHTshyNW1u5p1QGt9rk/58V/XiQF3scuuD6v/Y/YvBkS
IkTyvD4fIUfmrXCIT3mxLOviJKlQwNvHng3XdXf201ybJklkyl6rnfgcCH0ArBgY
ce3wSBvOZjDJ1FKDGFVjrt3TDLCK0W3+7PPCLXS3xXZceAF7XknXr24ghV0RtHFm
TAmTtTkIsFAaWXLqtr4025wE+XRzOynYwX7XxFxuIZyAFC85Xa76jbWXf9PaB38b
h9vZBlccP8QSunwqpAyksKfBTul4i0C5Yl8lCXIfrPfLXLYobvFKx0ZNLHo2rSk2
i/hF7wHDpB+46iQTfOw/bCWVd6Ck7JP2baWMMX8roBOojRxRQ838a4EpHwDxtIU9
9gM+UW4i0yZb0Aaqa9G/gV8o7tcpxNv0RsVaxC/4jfCpSRKGYaFYQjO6SdBNQQRF
hlEYj+ZOHvpTrKdv/li8NZ9ZBG/8wv4QfWf4Wq6wMMqRRguQIqBlek8FU78esaEw
bzOqZC3pLAuK6RoOWb7y/s1aGOuBPYPtMQtUwrRfuua0NwHOxuS4FYZI9ZlGFC5Y
vkISIB8vqOoJRgfoDh/LIKEf3SnLqX+vSNXAZNYqy13XTxcmxO8/ksU6TqwX4N5f
SK1tAgMBAAEwDQYJKoZIhvcNAQELBQADggIBADoXeuyPoU5726xGculnnMhxmp3i
J3TJ0gsIkZiAJH+O/fVQrYtQdHkT3Miv6BMt/+e9/8ZP2sX02guPl2aJoTaH52na
rQn2i/+OWA8/7mWWX09kyfA89sKiU/cybonRpbj5BFBKdLMFR9PsQw3Ehs0TIRRw
gNInXKIratW+x4aqpsr9gnJuZSvQH7p616a/wGQ1Z4rlkmCuutOkrQJZAP9dFaWA
xy8+D2gjekAHvqQFuEmPFiqiQZE7kaAQF99Z5nx8wVvzvApQn6twcA59YSVz09HD
rT8PDItDc91AIGYA13QuSNohhJ0CTcXlVguJAgZ77wZpconY3rUr+fcH/PGR15wL
8XfYTxHKi7BhJw0m8jSMwXV/z4SLWskuzsl+5OUeXDVqYtTRw748rp73ZttQpMhC
1k//+mDpI2B/K1Ill6fLwCrTwnGNFl4H7EmPEsnygYpsNIWe7P9PgD8M66IQyX0p
zF+ee9Tp9yUn4Yrf4DSmW/zysCtMQFZ/+pTckD/Gl3sK8ieDVYyg06BcEaZ6K35o
iBpMK2DZGVxCul0GyxAAdtkV9XqHN6KHD6hJ2boFqIWR44q5MgPeuM742IR9PDLJ
QpWiJGruG4mnkdPne52WkmATiV6cLXx6/DBJ2BPB1gVpjWmrPyNkZAu52nNZooW1
I/dmc9fXSUMUHaH1
-----END CERTIFICATE-----
