Certificate:
    Data:
        Version: 3 (0x2)
        Serial Number:
            0c:cb:fc:c3:a6:3f:21:c5:68:83:e3:fd:5d:2a:ab:21
        Signature Algorithm: sha256WithRSAEncryption
        Issuer: C=fr, ST=idf, L=paris, O=vitamui, OU=authorities, CN=ca_root_vitamui
        Validity
            Not Before: Feb  3 13:20:45 2020 GMT
            Not After : Feb  2 13:20:45 2023 GMT
        Subject: C=fr, ST=idf, L=paris, O=vitamui, CN=dev-referential.vitamui.com
        Subject Public Key Info:
            Public Key Algorithm: rsaEncryption
                RSA Public-Key: (4096 bit)
                Modulus:
                    00:ba:2e:a5:02:dd:6a:2b:02:20:24:f2:2a:e3:3c:
                    58:50:fb:28:31:ab:02:6b:81:f0:b7:12:b6:15:46:
                    f3:a0:b1:5c:7f:3f:7b:5b:a7:f2:ed:db:c3:39:c3:
                    c3:2d:f1:89:e3:9f:c7:57:8c:3b:59:e9:54:12:f2:
                    37:de:a3:a5:c6:2d:28:52:c3:f9:45:c5:1c:55:4f:
                    31:6f:67:a4:bf:0f:eb:68:59:71:52:0a:c5:9f:de:
                    07:74:eb:f3:90:47:85:8e:16:ec:22:21:04:73:b0:
                    39:03:1a:35:86:ea:ca:96:f6:d4:f5:e3:79:b9:88:
                    f4:50:25:18:01:01:31:46:29:fc:41:db:30:9e:31:
                    73:ee:dc:73:0f:37:9e:4a:a6:58:b0:c1:f0:ec:54:
                    7e:b3:ce:d0:ac:6c:06:dc:7a:09:db:0c:f6:fb:cd:
                    6a:f9:ea:c9:c6:9e:f4:92:a5:6c:d8:87:a2:a4:3b:
                    84:bb:3a:77:6d:fe:c4:31:19:a0:96:c0:ce:a0:20:
                    17:c5:c0:26:5a:1b:db:c4:0b:11:3b:f7:73:52:27:
                    42:fc:a2:e9:7a:d4:3d:0f:6c:e2:1e:4f:9f:22:06:
                    cd:aa:6a:eb:85:50:7a:a9:15:3f:99:6b:9f:eb:63:
                    f4:25:88:23:6c:bc:61:b2:cd:33:47:d2:6b:82:63:
                    83:44:5a:62:5d:f2:f4:60:f3:0f:aa:4e:f8:c0:03:
                    3b:50:80:50:76:8a:27:1e:f6:66:0f:f5:f2:93:89:
                    fb:07:4d:ba:d9:bd:2d:4d:55:a3:39:b0:3c:55:a9:
                    65:a4:e1:50:95:92:a5:81:49:56:f7:5c:b0:92:93:
                    25:ce:59:57:b3:6d:9e:69:c6:dd:f8:14:3e:52:2d:
                    24:8b:0d:9d:4c:4e:a5:ff:f1:d8:49:6b:f2:43:95:
                    4a:3f:fd:ba:68:73:09:45:5d:48:eb:dd:da:5d:5b:
                    db:89:94:c8:cd:59:d4:2a:8d:c3:d6:2e:9a:af:50:
                    6f:cb:7d:1a:9c:1e:71:ae:51:19:8c:c9:8b:d3:03:
                    ac:64:8e:5e:1e:ad:96:6f:8f:cf:48:92:0c:11:18:
                    a7:a6:02:96:ee:b8:e6:a4:a0:bd:e9:f7:23:cb:51:
                    0b:e0:c2:0c:01:66:73:fe:53:7f:db:a0:89:8f:b3:
                    c3:3f:c2:d0:eb:cc:d4:4d:f3:d1:47:37:3d:43:df:
                    e3:01:48:27:3e:48:c3:8f:74:42:58:d8:4f:13:6f:
                    23:59:e9:40:ee:a5:44:d7:f8:78:6a:9a:8b:63:9b:
                    24:de:cf:fc:d1:c6:61:43:98:a7:f3:cc:f7:7c:da:
                    5f:6e:24:8c:77:2b:63:ea:92:4d:16:f7:a2:48:a1:
                    5a:11:cd
                Exponent: 65537 (0x10001)
        X509v3 extensions:
            Netscape Comment: 
                Certificat SSL VITAMUI
            X509v3 Subject Key Identifier: 
                56:C7:85:9F:5F:B2:E1:F0:B6:18:8A:25:84:2D:73:9D:CE:6B:ED:82
            X509v3 Authority Key Identifier: 
                keyid:0D:42:D1:01:69:B1:6B:65:E1:AF:B4:00:37:89:2E:62:1C:5D:C3:FC
                DirName:/C=fr/ST=idf/L=paris/O=vitamui/OU=authorities/CN=ca_root_vitamui
                serial:0C:CB:FC:C3:A6:3F:21:C5:68:83:E3:FD:5D:2A:AB:16

            X509v3 Issuer Alternative Name: 
                <EMPTY>

            X509v3 Basic Constraints: critical
                CA:FALSE
    Signature Algorithm: sha256WithRSAEncryption
         5b:17:0e:9d:ec:79:f5:99:b1:ff:03:bc:05:f7:35:88:34:da:
         11:8d:89:e6:75:eb:fb:4a:71:18:9b:7f:51:e6:56:8e:ed:f5:
         31:4d:50:32:c4:94:c5:cc:2b:e3:0a:e5:f1:55:f7:ff:48:a0:
         c6:a9:2f:46:67:e3:4e:24:63:2d:66:00:4a:34:67:5e:b4:a2:
         06:b5:e3:6a:96:de:23:11:c5:1b:42:5a:19:d1:ef:ce:f0:2f:
         3c:c2:e6:38:33:3c:04:bf:5d:3b:20:6d:aa:b7:bb:18:2b:8e:
         17:17:51:15:99:1e:95:66:a6:dc:ba:34:43:51:a5:1c:da:4a:
         32:81:b0:35:cc:6d:cd:eb:2d:1d:8a:9c:4a:b3:02:c3:3e:6f:
         66:41:7b:aa:77:a5:55:4e:c8:6d:b7:cc:cb:0b:0c:b2:7b:e1:
         59:f4:a8:2f:32:c8:fe:42:e6:e4:4c:0b:30:3f:e6:8a:5c:f2:
         d6:9c:77:b2:8c:17:ff:99:a6:bd:f6:cb:c1:01:62:13:a5:e6:
         86:d0:0a:d3:bb:e9:94:f9:4f:25:59:78:59:55:0f:41:7b:e8:
         0c:77:46:54:16:d6:17:df:f8:9a:db:21:74:a0:6f:08:3d:e5:
         38:23:62:08:74:2f:26:a2:03:d7:ce:36:ae:f0:2a:a2:82:6d:
         aa:a8:8a:e3:dc:3e:c3:a1:0c:b8:0b:6a:17:69:41:9e:60:01:
         3c:25:f1:0d:67:31:30:ab:75:7e:61:f2:a7:29:ef:fe:a2:f6:
         7c:19:65:8e:4e:e3:23:1d:d6:a4:99:0c:7d:c8:52:2d:97:54:
         db:82:72:d8:a8:4a:11:03:a9:69:92:36:11:a8:ef:de:d0:f5:
         0b:41:1d:bb:11:da:3f:4c:4c:11:ef:f8:5c:fb:51:29:10:da:
         7b:96:fe:55:64:f4:ed:5e:d7:cc:36:cd:d9:d8:ec:aa:01:19:
         7f:b9:22:6a:3b:63:83:a3:a0:c9:06:d4:57:95:99:21:d0:58:
         ce:38:77:00:b6:f7:62:3d:18:d8:09:1d:67:5f:51:6e:ed:16:
         24:dd:3f:89:8e:b6:b1:4c:9f:10:6a:d0:0f:3e:77:04:f9:94:
         c4:d4:cd:c4:2e:a8:97:2d:1c:22:82:86:c1:51:cd:7f:d5:7f:
         ec:d0:cc:46:43:83:a8:9c:6e:c0:6e:13:6e:09:1c:7b:7f:fa:
         71:d1:3f:5b:69:88:cb:08:57:0d:ba:4c:a4:01:2d:68:0f:95:
         6a:bc:4d:a4:c4:2d:47:ab:86:f1:6f:64:cb:0f:85:88:0e:d9:
         50:c7:4c:20:8e:cd:75:76:8c:35:51:6f:5f:d1:b9:ed:0e:e1:
         6a:51:50:b8:9d:52:8d:28
-----BEGIN CERTIFICATE-----
MIIGaDCCBFCgAwIBAgIQDMv8w6Y/IcVog+P9XSqrITANBgkqhkiG9w0BAQsFADBt
MQswCQYDVQQGEwJmcjEMMAoGA1UECAwDaWRmMQ4wDAYDVQQHDAVwYXJpczEQMA4G
A1UECgwHdml0YW11aTEUMBIGA1UECwwLYXV0aG9yaXRpZXMxGDAWBgNVBAMMD2Nh
X3Jvb3Rfdml0YW11aTAeFw0yMDAyMDMxMzIwNDVaFw0yMzAyMDIxMzIwNDVaMGMx
CzAJBgNVBAYTAmZyMQwwCgYDVQQIDANpZGYxDjAMBgNVBAcMBXBhcmlzMRAwDgYD
VQQKDAd2aXRhbXVpMSQwIgYDVQQDDBtkZXYtcmVmZXJlbnRpYWwudml0YW11aS5j
b20wggIiMA0GCSqGSIb3DQEBAQUAA4ICDwAwggIKAoICAQC6LqUC3WorAiAk8irj
PFhQ+ygxqwJrgfC3ErYVRvOgsVx/P3tbp/Lt28M5w8Mt8Ynjn8dXjDtZ6VQS8jfe
o6XGLShSw/lFxRxVTzFvZ6S/D+toWXFSCsWf3gd06/OQR4WOFuwiIQRzsDkDGjWG
6sqW9tT143m5iPRQJRgBATFGKfxB2zCeMXPu3HMPN55KpliwwfDsVH6zztCsbAbc
egnbDPb7zWr56snGnvSSpWzYh6KkO4S7Ondt/sQxGaCWwM6gIBfFwCZaG9vECxE7
93NSJ0L8oul61D0PbOIeT58iBs2qauuFUHqpFT+Za5/rY/QliCNsvGGyzTNH0muC
Y4NEWmJd8vRg8w+qTvjAAztQgFB2iice9mYP9fKTifsHTbrZvS1NVaM5sDxVqWWk
4VCVkqWBSVb3XLCSkyXOWVezbZ5pxt34FD5SLSSLDZ1MTqX/8dhJa/JDlUo//bpo
cwlFXUjr3dpdW9uJlMjNWdQqjcPWLpqvUG/LfRqcHnGuURmMyYvTA6xkjl4erZZv
j89IkgwRGKemApbuuOakoL3p9yPLUQvgwgwBZnP+U3/boImPs8M/wtDrzNRN89FH
Nz1D3+MBSCc+SMOPdEJY2E8TbyNZ6UDupUTX+HhqmotjmyTez/zRxmFDmKfzzPd8
2l9uJIx3K2Pqkk0W96JIoVoRzQIDAQABo4IBDDCCAQgwJQYJYIZIAYb4QgENBBgW
FkNlcnRpZmljYXQgU1NMIFZJVEFNVUkwHQYDVR0OBBYEFFbHhZ9fsuHwthiKJYQt
c53Oa+2CMIGmBgNVHSMEgZ4wgZuAFA1C0QFpsWtl4a+0ADeJLmIcXcP8oXGkbzBt
MQswCQYDVQQGEwJmcjEMMAoGA1UECAwDaWRmMQ4wDAYDVQQHDAVwYXJpczEQMA4G
A1UECgwHdml0YW11aTEUMBIGA1UECwwLYXV0aG9yaXRpZXMxGDAWBgNVBAMMD2Nh
X3Jvb3Rfdml0YW11aYIQDMv8w6Y/IcVog+P9XSqrFjAJBgNVHRIEAjAAMAwGA1Ud
EwEB/wQCMAAwDQYJKoZIhvcNAQELBQADggIBAFsXDp3sefWZsf8DvAX3NYg02hGN
ieZ16/tKcRibf1HmVo7t9TFNUDLElMXMK+MK5fFV9/9IoMapL0Zn404kYy1mAEo0
Z160oga142qW3iMRxRtCWhnR787wLzzC5jgzPAS/XTsgbaq3uxgrjhcXURWZHpVm
pty6NENRpRzaSjKBsDXMbc3rLR2KnEqzAsM+b2ZBe6p3pVVOyG23zMsLDLJ74Vn0
qC8yyP5C5uRMCzA/5opc8tacd7KMF/+Zpr32y8EBYhOl5obQCtO76ZT5TyVZeFlV
D0F76Ax3RlQW1hff+JrbIXSgbwg95TgjYgh0LyaiA9fONq7wKqKCbaqoiuPcPsOh
DLgLahdpQZ5gATwl8Q1nMTCrdX5h8qcp7/6i9nwZZY5O4yMd1qSZDH3IUi2XVNuC
ctioShEDqWmSNhGo797Q9QtBHbsR2j9MTBHv+Fz7USkQ2nuW/lVk9O1e18w2zdnY
7KoBGX+5Imo7Y4OjoMkG1FeVmSHQWM44dwC292I9GNgJHWdfUW7tFiTdP4mOtrFM
nxBq0A8+dwT5lMTUzcQuqJctHCKChsFRzX/Vf+zQzEZDg6icbsBuE24JHHt/+nHR
P1tpiMsIVw26TKQBLWgPlWq8TaTELUerhvFvZMsPhYgO2VDHTCCOzXV2jDVRb1/R
ue0O4WpRULidUo0o
-----END CERTIFICATE-----
