Certificate:
    Data:
        Version: 3 (0x2)
        Serial Number: 2 (0x2)
        Signature Algorithm: sha256WithRSAEncryption
        Issuer: C=fr, ST=idf, L=paris, O=vitamui, OU=authorities, CN=ca_root_server
        Validity
            Not Before: May  5 09:13:40 2020 GMT
            Not After : May  3 09:13:40 2030 GMT
        Subject: C=fr, ST=idf, L=paris, O=vitamui, OU=authorities, CN=ca_intermediate_server
        Subject Public Key Info:
            Public Key Algorithm: rsaEncryption
                RSA Public-Key: (4096 bit)
                Modulus:
                    00:cc:59:39:ae:1f:dc:0c:63:0c:cf:23:53:2f:b6:
                    07:88:58:52:6f:f9:0a:e1:2d:b8:d2:e4:ef:3d:1e:
                    1b:ca:be:36:80:e2:f4:08:c7:9a:37:2e:00:c2:46:
                    bd:8d:77:64:b3:3f:52:c6:fd:2d:2e:d1:d3:37:52:
                    82:93:fa:7c:91:1f:70:11:23:e9:28:86:4e:2b:2b:
                    b2:db:c2:5a:48:e0:32:17:13:80:7e:f7:0c:1e:f8:
                    0b:fb:69:aa:fe:7e:05:f9:d4:77:3f:b0:c2:fb:22:
                    f3:0b:fc:c4:c3:f5:ce:2a:0c:08:af:46:fb:0e:43:
                    e3:07:bd:42:10:d9:4f:d0:9f:65:1a:2d:f4:59:6b:
                    0e:ec:b0:dd:08:c1:11:a0:aa:53:f1:84:56:57:54:
                    6d:8b:2d:74:99:99:21:92:5f:a3:4f:57:22:09:4d:
                    61:96:20:f5:24:3d:98:c1:d6:d9:aa:ed:81:d9:f7:
                    99:50:d4:ad:e5:45:7b:d9:fb:cb:55:c8:5c:90:af:
                    1e:9d:8e:71:1a:ce:d6:6a:7c:6f:9e:d8:08:dc:e6:
                    58:1c:c2:ed:55:58:6f:a0:0e:7d:a3:5b:16:20:28:
                    1c:9f:9f:10:63:ca:0d:b1:6d:42:ec:05:76:3c:32:
                    a5:ad:02:da:c5:87:a3:8c:c3:0d:c0:13:fd:df:5d:
                    72:a4:9b:88:73:6f:17:b2:45:8c:a4:93:7b:1b:46:
                    a6:74:07:bf:28:51:fd:cd:20:d4:c5:6c:9a:50:09:
                    0a:c9:93:84:e9:d4:fd:d2:d7:b7:12:72:5a:3e:0d:
                    fd:5f:e9:64:a5:39:de:96:ec:64:a9:d9:57:f0:31:
                    35:1f:ea:c9:f8:48:da:2e:74:d8:9d:48:24:1c:af:
                    37:9e:2a:f3:76:f2:1f:ee:89:9e:a3:81:e9:ef:c3:
                    5d:d1:cf:b1:15:3d:16:4f:62:9d:da:7a:2f:39:d0:
                    2b:0c:02:19:4e:d8:2e:cc:1d:1c:b2:31:68:ca:0d:
                    6a:8d:71:44:18:06:82:cd:03:b2:a4:4b:89:6d:db:
                    96:87:d1:c6:35:0b:f3:e1:3b:a9:18:ba:ca:91:e4:
                    40:04:b0:43:0f:7d:1e:58:3f:53:3c:1b:ea:b4:ec:
                    64:72:34:c0:56:6d:15:3a:07:95:93:15:85:f0:d3:
                    6b:37:43:d4:ac:d3:a8:61:84:d2:9e:0e:66:93:8e:
                    7f:96:96:f2:e6:40:a8:d9:3b:a7:bc:53:c8:bb:eb:
                    0f:b5:34:ba:4c:0f:81:06:a5:54:fe:ad:1f:48:76:
                    7a:a4:28:1b:42:6b:48:29:a5:bb:12:d1:c6:50:49:
                    28:ea:96:f0:68:1b:d0:f3:e8:d4:1a:39:c6:f7:a5:
                    ff:dd:99
                Exponent: 65537 (0x10001)
        X509v3 extensions:
            Netscape Comment: 
                CA Intermediate
            X509v3 Subject Key Identifier: 
                E8:D5:71:89:7A:D5:65:64:EC:77:74:B4:D3:93:32:E4:DA:FF:04:7E
            X509v3 Authority Key Identifier: 
                keyid:57:A4:F9:F5:76:E1:14:88:0A:AB:3A:64:87:DA:A3:41:16:1C:59:DE
                DirName:/C=fr/ST=idf/L=paris/O=vitamui/OU=authorities/CN=ca_root_server
                serial:01

            X509v3 Basic Constraints: critical
                CA:TRUE, pathlen:0
            X509v3 Issuer Alternative Name: 
                <EMPTY>

            X509v3 Key Usage: 
                Certificate Sign, CRL Sign
            Netscape Cert Type: 
                SSL CA
    Signature Algorithm: sha256WithRSAEncryption
         29:55:c7:ca:ea:75:6e:e3:e0:d0:bf:7b:2b:bf:74:63:c1:a1:
         ce:1a:c7:76:c9:bb:8a:ce:ad:74:d4:03:8b:b7:b3:68:26:83:
         e9:35:40:84:d2:41:fc:44:96:90:19:16:97:c2:7a:7f:37:68:
         0d:46:6f:ea:0d:17:31:ac:83:d2:ae:3d:cd:a1:ab:22:34:71:
         f6:8d:60:7c:24:66:a7:75:99:19:47:eb:ec:03:8f:7a:e8:01:
         f9:df:70:93:b5:6e:57:e0:06:1f:ea:c4:cd:21:02:e9:14:39:
         42:31:8c:3d:0d:29:da:e4:d8:64:43:c8:5b:54:3d:e0:3c:c7:
         94:ea:1e:7d:ac:b0:21:2d:b5:74:77:64:56:8f:07:e3:47:68:
         b2:62:f7:58:53:5d:b7:0f:70:59:93:c7:fc:8a:aa:a1:8e:a8:
         8f:6b:c0:a5:ab:7a:25:1f:2b:45:28:9e:49:a8:51:b3:26:63:
         e9:dd:75:c6:1c:84:d5:45:1a:e8:21:a3:3d:79:ed:05:e1:84:
         39:28:c8:68:4c:02:18:45:e3:9b:5b:41:d1:ad:8a:4f:70:51:
         ed:a2:13:cc:fd:9e:b9:81:0e:c0:a1:bf:f5:d1:fb:e7:28:2c:
         99:9e:3d:a6:4e:ce:90:d0:0a:da:26:71:ab:27:c0:f6:c4:fe:
         0c:bd:2c:36:6e:66:00:dc:1d:7d:26:46:4c:16:eb:4f:ad:6c:
         c7:42:9f:b0:e1:1d:9f:49:a4:03:80:ea:ad:5c:87:b7:59:62:
         27:49:f5:d1:a4:c5:cf:50:2c:7e:75:bf:46:9a:3d:3a:79:63:
         d4:7c:97:91:a5:b0:78:8b:f3:4a:36:91:d6:85:35:2b:10:77:
         90:36:7e:6c:a9:5f:84:78:51:99:44:60:46:91:78:48:7b:bb:
         42:07:c8:97:3b:e5:66:fc:7c:d4:86:22:8c:f5:c3:b2:a4:78:
         74:ae:59:b6:09:09:69:24:f0:c9:00:dd:82:35:25:72:ac:65:
         2c:4f:ba:7e:0c:13:25:41:d1:66:cd:5b:70:29:7c:6a:ea:3b:
         66:f1:19:fb:a9:bb:35:2d:07:d5:61:8d:b3:c3:01:96:cc:b0:
         f8:5b:ae:ba:a6:af:9a:ca:be:39:4d:9c:b3:7c:ce:2e:b2:86:
         eb:a1:e3:fb:4f:77:49:e0:bc:e8:e2:83:a3:0d:57:80:d8:4e:
         d5:29:1b:77:f8:b1:18:05:9f:37:1a:c1:ca:8d:c9:9e:9f:38:
         99:8a:db:59:9e:ae:ce:15:66:ae:5b:0c:6f:0d:52:92:80:95:
         c5:03:2f:47:94:66:29:1f:71:63:ac:89:ae:7f:5c:03:35:4e:
         36:44:95:d5:17:8e:3c:3b
-----BEGIN CERTIFICATE-----
MIIGeDCCBGCgAwIBAgIBAjANBgkqhkiG9w0BAQsFADBsMQswCQYDVQQGEwJmcjEM
MAoGA1UECAwDaWRmMQ4wDAYDVQQHDAVwYXJpczEQMA4GA1UECgwHdml0YW11aTEU
MBIGA1UECwwLYXV0aG9yaXRpZXMxFzAVBgNVBAMMDmNhX3Jvb3Rfc2VydmVyMB4X
DTIwMDUwNTA5MTM0MFoXDTMwMDUwMzA5MTM0MFowdDELMAkGA1UEBhMCZnIxDDAK
BgNVBAgMA2lkZjEOMAwGA1UEBwwFcGFyaXMxEDAOBgNVBAoMB3ZpdGFtdWkxFDAS
BgNVBAsMC2F1dGhvcml0aWVzMR8wHQYDVQQDDBZjYV9pbnRlcm1lZGlhdGVfc2Vy
dmVyMIICIjANBgkqhkiG9w0BAQEFAAOCAg8AMIICCgKCAgEAzFk5rh/cDGMMzyNT
L7YHiFhSb/kK4S240uTvPR4byr42gOL0CMeaNy4Awka9jXdksz9Sxv0tLtHTN1KC
k/p8kR9wESPpKIZOKyuy28JaSOAyFxOAfvcMHvgL+2mq/n4F+dR3P7DC+yLzC/zE
w/XOKgwIr0b7DkPjB71CENlP0J9lGi30WWsO7LDdCMERoKpT8YRWV1Rtiy10mZkh
kl+jT1ciCU1hliD1JD2YwdbZqu2B2feZUNSt5UV72fvLVchckK8enY5xGs7Wanxv
ntgI3OZYHMLtVVhvoA59o1sWICgcn58QY8oNsW1C7AV2PDKlrQLaxYejjMMNwBP9
311ypJuIc28XskWMpJN7G0amdAe/KFH9zSDUxWyaUAkKyZOE6dT90te3EnJaPg39
X+lkpTneluxkqdlX8DE1H+rJ+EjaLnTYnUgkHK83nirzdvIf7omeo4Hp78Nd0c+x
FT0WT2Kd2novOdArDAIZTtguzB0csjFoyg1qjXFEGAaCzQOypEuJbduWh9HGNQvz
4TupGLrKkeRABLBDD30eWD9TPBvqtOxkcjTAVm0VOgeVkxWF8NNrN0PUrNOoYYTS
ng5mk45/lpby5kCo2TunvFPIu+sPtTS6TA+BBqVU/q0fSHZ6pCgbQmtIKaW7EtHG
UEko6pbwaBvQ8+jUGjnG96X/3ZkCAwEAAaOCARswggEXMB4GCWCGSAGG+EIBDQQR
Fg9DQSBJbnRlcm1lZGlhdGUwHQYDVR0OBBYEFOjVcYl61WVk7Hd0tNOTMuTa/wR+
MIGWBgNVHSMEgY4wgYuAFFek+fV24RSICqs6ZIfao0EWHFneoXCkbjBsMQswCQYD
VQQGEwJmcjEMMAoGA1UECAwDaWRmMQ4wDAYDVQQHDAVwYXJpczEQMA4GA1UECgwH
dml0YW11aTEUMBIGA1UECwwLYXV0aG9yaXRpZXMxFzAVBgNVBAMMDmNhX3Jvb3Rf
c2VydmVyggEBMBIGA1UdEwEB/wQIMAYBAf8CAQAwCQYDVR0SBAIwADALBgNVHQ8E
BAMCAQYwEQYJYIZIAYb4QgEBBAQDAgIEMA0GCSqGSIb3DQEBCwUAA4ICAQApVcfK
6nVu4+DQv3srv3RjwaHOGsd2ybuKzq101AOLt7NoJoPpNUCE0kH8RJaQGRaXwnp/
N2gNRm/qDRcxrIPSrj3NoasiNHH2jWB8JGandZkZR+vsA4966AH533CTtW5X4AYf
6sTNIQLpFDlCMYw9DSna5NhkQ8hbVD3gPMeU6h59rLAhLbV0d2RWjwfjR2iyYvdY
U123D3BZk8f8iqqhjqiPa8Clq3olHytFKJ5JqFGzJmPp3XXGHITVRRroIaM9ee0F
4YQ5KMhoTAIYReObW0HRrYpPcFHtohPM/Z65gQ7Aob/10fvnKCyZnj2mTs6Q0Ara
JnGrJ8D2xP4MvSw2bmYA3B19JkZMFutPrWzHQp+w4R2fSaQDgOqtXIe3WWInSfXR
pMXPUCx+db9Gmj06eWPUfJeRpbB4i/NKNpHWhTUrEHeQNn5sqV+EeFGZRGBGkXhI
e7tCB8iXO+Vm/HzUhiKM9cOypHh0rlm2CQlpJPDJAN2CNSVyrGUsT7p+DBMlQdFm
zVtwKXxq6jtm8Rn7qbs1LQfVYY2zwwGWzLD4W666pq+ayr45TZyzfM4usobroeP7
T3dJ4Lzo4oOjDVeA2E7VKRt3+LEYBZ83GsHKjcmenziZittZnq7OFWauWwxvDVKS
gJXFAy9HlGYpH3FjrImuf1wDNU42RJXVF448Ow==
-----END CERTIFICATE-----
