Certificate:
    Data:
        Version: 3 (0x2)
        Serial Number:
            0c:cb:fc:c3:a6:3f:21:c5:68:83:e3:fd:5d:2a:ab:16
        Signature Algorithm: sha256WithRSAEncryption
        Issuer: C=fr, ST=idf, L=paris, O=vitamui, OU=authorities, CN=ca_root_vitamui
        Validity
            Not Before: Jan 14 14:01:44 2020 GMT
            Not After : Jan 11 14:01:44 2030 GMT
        Subject: C=fr, ST=idf, L=paris, O=vitamui, OU=authorities, CN=ca_root_vitamui
        Subject Public Key Info:
            Public Key Algorithm: rsaEncryption
                RSA Public-Key: (4096 bit)
                Modulus:
                    00:c0:cd:ae:84:93:1f:8f:74:39:f2:c9:de:90:25:
                    e2:a4:33:6b:9f:68:c7:d4:70:e9:41:6c:a7:73:71:
                    bd:13:c0:7b:81:0d:87:d4:ce:32:8f:c6:68:8e:b3:
                    46:83:28:2d:e8:92:23:7c:89:cd:e3:81:2e:ef:ac:
                    4b:0d:e6:24:e4:b8:a8:aa:d3:6f:7b:96:40:9f:a5:
                    2a:01:cf:ad:2b:fc:c2:7e:70:21:3e:37:43:f2:66:
                    e3:84:6a:94:c7:1c:a3:30:0f:28:93:13:03:ff:e4:
                    b3:ba:82:5e:6c:45:89:2d:d5:32:c0:4e:cc:6e:f6:
                    08:42:ef:58:0e:ba:3c:71:42:79:03:ad:28:a5:6f:
                    fc:0c:25:32:0d:a0:a4:30:7e:b9:3a:6b:23:5d:37:
                    d4:9e:e9:66:de:84:31:08:e7:0e:2d:df:d7:61:e5:
                    c5:bf:1b:a8:be:b1:f6:16:9f:2f:62:52:27:70:ba:
                    1c:bd:47:82:2f:83:8d:37:ed:dc:cd:f6:8e:70:c0:
                    11:a6:f1:1a:00:84:8a:0f:03:f8:4d:3e:dc:6e:d5:
                    c1:52:da:cf:5e:a2:f4:5f:ff:10:d8:4b:c7:03:12:
                    3e:fc:7c:1d:90:1d:f0:6d:8b:0e:41:45:6c:01:6d:
                    ab:b0:f9:b1:61:08:72:b2:12:98:1c:bf:5d:a8:63:
                    4e:51:6c:5f:9c:d0:d9:73:09:31:7b:98:20:96:15:
                    75:d6:f8:37:1b:06:51:e0:4d:4e:f8:8c:39:fb:bc:
                    3a:89:66:90:96:62:2b:84:71:a4:62:0d:0f:53:10:
                    a4:42:f9:d3:36:43:69:41:49:19:fa:89:c2:7e:7d:
                    62:d4:2a:54:ec:10:4d:9e:fc:db:a7:9b:ef:39:bd:
                    3f:c1:1b:29:f1:9d:d3:f6:5b:59:be:78:c9:fe:bb:
                    89:4c:19:93:55:19:33:7e:f7:43:a1:58:b2:f8:2a:
                    11:8a:41:9b:76:e8:a8:1e:9a:6b:09:2a:8f:58:1a:
                    f0:ff:77:b1:d8:db:a0:f1:47:a7:51:bb:ff:f0:c8:
                    2e:34:2b:3b:b5:28:8c:55:54:5d:3c:7b:24:91:ef:
                    61:2f:f6:70:e6:83:cd:e6:58:18:85:8a:e8:1e:55:
                    1b:5a:d8:3d:b9:75:09:27:2d:f9:dc:e5:c6:18:99:
                    ba:95:90:fb:1e:ad:94:4b:59:01:50:10:d6:f4:d9:
                    61:34:84:11:71:04:10:4a:00:5c:ed:69:1b:90:62:
                    dc:fb:9b:c4:d6:e7:99:69:62:6a:71:76:46:e2:f2:
                    c8:f3:bc:48:bd:5b:45:2c:83:4b:05:36:2e:ba:e0:
                    8f:e7:7d:57:bb:87:1c:34:98:90:88:2f:0b:34:41:
                    d7:e9:d5
                Exponent: 65537 (0x10001)
        X509v3 extensions:
            Netscape Comment: 
                CA Root
            X509v3 Subject Key Identifier: 
                0D:42:D1:01:69:B1:6B:65:E1:AF:B4:00:37:89:2E:62:1C:5D:C3:FC
            X509v3 Authority Key Identifier: 
                keyid:0D:42:D1:01:69:B1:6B:65:E1:AF:B4:00:37:89:2E:62:1C:5D:C3:FC

            X509v3 Basic Constraints: critical
                CA:TRUE, pathlen:1
            X509v3 Key Usage: 
                Certificate Sign, CRL Sign
            Netscape Cert Type: 
                SSL CA
    Signature Algorithm: sha256WithRSAEncryption
         24:cd:e0:89:65:9a:fe:e6:5f:9e:9e:08:cd:5f:0c:ac:26:eb:
         79:b8:57:70:a7:fe:d0:2c:b1:0d:29:1a:1a:91:ca:22:60:9e:
         54:23:3c:d8:2b:a9:b5:04:10:fe:30:9b:60:10:3c:7f:e8:ca:
         17:5f:f3:0d:54:af:ec:63:65:84:f8:b9:61:24:e9:c4:49:cd:
         d2:26:79:51:84:d6:8b:ff:54:7b:98:bd:04:51:b0:32:7d:bd:
         1e:b3:43:14:a1:80:e5:29:0f:89:94:2b:4a:bf:08:cd:d0:ca:
         91:a6:e3:e5:ff:8a:a8:f1:62:fe:12:31:ba:6f:97:24:eb:91:
         3e:4a:05:62:77:ad:3c:25:a8:e0:ff:c9:15:13:91:7a:b9:f8:
         e7:af:f1:7d:24:de:23:c0:61:48:d6:e7:35:ea:16:85:a7:8d:
         97:b6:0e:65:d8:2d:0e:e8:78:89:f2:da:57:3e:c0:19:53:9e:
         3e:a7:d5:ab:e1:1f:af:da:55:8f:94:95:b0:fd:b9:38:ae:9b:
         77:d0:6d:f6:80:82:33:d0:49:ee:e5:2e:93:bf:43:7c:d8:03:
         53:8a:e1:25:78:41:bc:91:34:90:2a:24:9e:8e:88:33:94:96:
         7f:79:b9:25:63:81:ca:5b:82:78:37:2b:7d:2a:c5:23:ca:2b:
         13:30:c6:3b:76:a1:9f:0e:0a:3c:74:8d:95:5e:d3:2e:b7:54:
         53:7c:f4:1d:69:e2:cb:b4:44:05:d0:83:27:7f:66:e9:4d:3a:
         63:48:7c:f9:6e:d2:2c:4b:f8:be:69:15:d8:bc:12:b8:24:37:
         b8:5d:78:b6:3a:73:1f:59:97:0d:bc:be:08:e2:5d:1c:0e:31:
         07:d1:f5:a8:68:4f:c3:9d:79:0c:9e:2d:4d:85:71:14:5b:1b:
         ee:f2:34:84:11:25:c9:d7:b4:e7:5d:26:44:e4:62:a8:b9:c2:
         93:55:86:0b:20:82:4c:f0:a3:bd:e7:98:82:b5:18:c2:f5:9a:
         46:f6:8b:91:d1:3f:c2:f8:b8:ca:b9:a0:51:61:47:97:99:d4:
         6f:6a:02:3e:a8:51:48:6e:e0:01:e3:b1:81:92:9e:7f:5a:99:
         5b:39:35:bb:22:0d:4a:ba:02:a5:33:1b:2d:c6:21:e4:89:e7:
         96:d7:03:f9:b8:ad:be:6f:1f:d6:50:40:20:94:af:2f:88:49:
         c8:8f:ed:ae:02:f1:51:2a:d0:92:d3:b5:a3:6e:cd:19:b3:c2:
         7c:43:da:2a:cf:7f:02:5f:b3:60:ce:cf:4d:67:eb:be:fd:ef:
         da:18:1d:4f:71:40:ef:b9:f1:cf:b7:a4:3d:12:af:f9:bd:fe:
         0c:83:11:0a:33:2c:ca:50
-----BEGIN CERTIFICATE-----
MIIF9DCCA9ygAwIBAgIQDMv8w6Y/IcVog+P9XSqrFjANBgkqhkiG9w0BAQsFADBt
MQswCQYDVQQGEwJmcjEMMAoGA1UECAwDaWRmMQ4wDAYDVQQHDAVwYXJpczEQMA4G
A1UECgwHdml0YW11aTEUMBIGA1UECwwLYXV0aG9yaXRpZXMxGDAWBgNVBAMMD2Nh
X3Jvb3Rfdml0YW11aTAeFw0yMDAxMTQxNDAxNDRaFw0zMDAxMTExNDAxNDRaMG0x
CzAJBgNVBAYTAmZyMQwwCgYDVQQIDANpZGYxDjAMBgNVBAcMBXBhcmlzMRAwDgYD
VQQKDAd2aXRhbXVpMRQwEgYDVQQLDAthdXRob3JpdGllczEYMBYGA1UEAwwPY2Ff
cm9vdF92aXRhbXVpMIICIjANBgkqhkiG9w0BAQEFAAOCAg8AMIICCgKCAgEAwM2u
hJMfj3Q58snekCXipDNrn2jH1HDpQWync3G9E8B7gQ2H1M4yj8ZojrNGgygt6JIj
fInN44Eu76xLDeYk5LioqtNve5ZAn6UqAc+tK/zCfnAhPjdD8mbjhGqUxxyjMA8o
kxMD/+SzuoJebEWJLdUywE7MbvYIQu9YDro8cUJ5A60opW/8DCUyDaCkMH65Omsj
XTfUnulm3oQxCOcOLd/XYeXFvxuovrH2Fp8vYlIncLocvUeCL4ONN+3czfaOcMAR
pvEaAISKDwP4TT7cbtXBUtrPXqL0X/8Q2EvHAxI+/HwdkB3wbYsOQUVsAW2rsPmx
YQhyshKYHL9dqGNOUWxfnNDZcwkxe5gglhV11vg3GwZR4E1O+Iw5+7w6iWaQlmIr
hHGkYg0PUxCkQvnTNkNpQUkZ+onCfn1i1CpU7BBNnvzbp5vvOb0/wRsp8Z3T9ltZ
vnjJ/ruJTBmTVRkzfvdDoViy+CoRikGbduioHpprCSqPWBrw/3ex2Nug8UenUbv/
8MguNCs7tSiMVVRdPHskke9hL/Zw5oPN5lgYhYroHlUbWtg9uXUJJy353OXGGJm6
lZD7Hq2US1kBUBDW9NlhNIQRcQQQSgBc7WkbkGLc+5vE1ueZaWJqcXZG4vLI87xI
vVtFLINLBTYuuuCP531Xu4ccNJiQiC8LNEHX6dUCAwEAAaOBjzCBjDAWBglghkgB
hvhCAQ0ECRYHQ0EgUm9vdDAdBgNVHQ4EFgQUDULRAWmxa2Xhr7QAN4kuYhxdw/ww
HwYDVR0jBBgwFoAUDULRAWmxa2Xhr7QAN4kuYhxdw/wwEgYDVR0TAQH/BAgwBgEB
/wIBATALBgNVHQ8EBAMCAQYwEQYJYIZIAYb4QgEBBAQDAgIEMA0GCSqGSIb3DQEB
CwUAA4ICAQAkzeCJZZr+5l+engjNXwysJut5uFdwp/7QLLENKRoakcoiYJ5UIzzY
K6m1BBD+MJtgEDx/6MoXX/MNVK/sY2WE+LlhJOnESc3SJnlRhNaL/1R7mL0EUbAy
fb0es0MUoYDlKQ+JlCtKvwjN0MqRpuPl/4qo8WL+EjG6b5ck65E+SgVid608Jajg
/8kVE5F6ufjnr/F9JN4jwGFI1uc16haFp42Xtg5l2C0O6HiJ8tpXPsAZU54+p9Wr
4R+v2lWPlJWw/bk4rpt30G32gIIz0Enu5S6Tv0N82ANTiuEleEG8kTSQKiSejogz
lJZ/ebklY4HKW4J4Nyt9KsUjyisTMMY7dqGfDgo8dI2VXtMut1RTfPQdaeLLtEQF
0IMnf2bpTTpjSHz5btIsS/i+aRXYvBK4JDe4XXi2OnMfWZcNvL4I4l0cDjEH0fWo
aE/DnXkMni1NhXEUWxvu8jSEESXJ17TnXSZE5GKoucKTVYYLIIJM8KO955iCtRjC
9ZpG9ouR0T/C+LjKuaBRYUeXmdRvagI+qFFIbuAB47GBkp5/WplbOTW7Ig1KugKl
MxstxiHkieeW1wP5uK2+bx/WUEAglK8viEnIj+2uAvFRKtCS07Wjbs0Zs8J8Q9oq
z38CX7Ngzs9NZ+u+/e/aGB1PcUDvufHPt6Q9Eq/5vf4MgxEKMyzKUA==
-----END CERTIFICATE-----
