Certificate:
    Data:
        Version: 1 (0x0)
        Serial Number: 514 (0x202)
    Signature Algorithm: sha256WithRSAEncryption
        Issuer: C=fr, ST=idf, L=paris, O=vitam, OU=authorities, CN=ca_intermediate_server
        Validity
            Not Before: Dec 19 12:45:52 2019 GMT
            Not After : Dec 18 12:45:52 2022 GMT
        Subject: C=fr, ST=idf, L=paris, O=vitam, CN=cas-server.service.consul
        Subject Public Key Info:
            Public Key Algorithm: rsaEncryption
                Public-Key: (4096 bit)
                Modulus:
                    00:bc:67:bf:1d:30:23:21:cd:ce:88:e6:9f:39:d8:
                    42:b8:b5:1c:7f:f5:e7:19:e7:8b:41:4a:c8:f0:51:
                    f0:b3:a9:0f:4b:0c:c4:da:54:3c:22:21:0d:92:5a:
                    87:e1:91:07:3a:3a:bd:cd:d3:b7:6d:76:11:b9:94:
                    6e:1f:1a:12:63:8b:6b:4a:3e:6b:3f:89:67:b1:24:
                    87:6f:b0:09:0e:95:b0:3a:db:dd:d5:65:46:44:87:
                    37:8d:f4:aa:da:ee:04:41:f6:ab:5c:d1:11:aa:52:
                    72:44:0f:c9:5d:14:34:6a:43:fc:f1:c4:22:c5:8a:
                    b8:b0:e2:2b:17:8c:8b:df:6f:cf:b5:7a:35:d0:32:
                    b8:1f:f9:df:16:99:4c:3c:69:03:73:b9:73:71:ae:
                    65:2c:2b:95:04:45:06:46:30:93:63:e0:b7:4a:0e:
                    06:bf:28:65:e1:09:07:56:7f:7b:36:eb:12:ba:ad:
                    ab:58:ec:eb:21:a2:34:15:29:24:f2:2e:bf:ae:82:
                    95:e4:37:f9:b5:0e:d9:4c:91:09:87:b5:fa:be:16:
                    4d:e6:e6:4f:a5:45:2d:d9:03:83:34:08:79:5f:36:
                    00:2c:14:2f:c3:31:69:31:a7:0a:63:3f:73:3c:f0:
                    f5:d2:47:76:83:ea:ec:65:68:d3:7b:25:fe:f0:b3:
                    85:df:54:01:6d:97:df:1c:35:7b:5b:55:5f:96:78:
                    d0:40:67:3f:c9:71:00:30:f9:00:6a:90:95:57:e4:
                    5c:76:fe:2a:c9:6d:94:61:de:5e:97:91:1c:77:65:
                    de:fe:45:14:ed:a2:fb:ed:2b:07:3a:ba:9e:4a:97:
                    99:05:ee:40:b8:cb:38:f2:35:c4:e1:1d:07:5e:af:
                    f5:e3:53:4c:50:1c:c2:68:37:9a:ec:45:61:38:cf:
                    73:de:b2:2a:97:af:b2:d2:3a:29:93:e1:40:78:7e:
                    f3:f6:60:23:c7:79:9d:82:12:cf:72:c5:af:10:48:
                    45:9e:83:41:75:a4:21:0d:18:b1:f5:cf:ad:36:d9:
                    a6:4d:2e:b6:74:84:61:3c:a4:fc:c9:34:55:2d:65:
                    56:47:80:67:3c:9d:1f:d5:9d:c7:3d:2c:fa:f1:36:
                    2a:5e:02:f1:c8:6d:37:96:c6:40:1a:03:87:69:53:
                    a0:2a:2b:0b:22:58:33:8f:0e:10:7b:6f:81:cc:6f:
                    c1:99:64:4a:df:f9:c9:3b:10:e3:92:f0:fe:a2:f1:
                    bf:01:e2:98:79:bc:c7:a8:5b:e1:1a:43:f8:27:99:
                    4e:cc:fb:9f:79:d1:62:48:de:c7:41:a6:bd:61:c2:
                    15:09:47:ad:ee:b7:b1:90:ba:0b:7c:fa:56:f6:99:
                    91:a6:b5
                Exponent: 65537 (0x10001)
    Signature Algorithm: sha256WithRSAEncryption
         22:47:21:31:52:26:5f:1d:a1:1b:17:b1:b5:91:02:b3:a6:a5:
         f8:6a:2a:d4:72:c6:78:22:f9:27:d1:08:9d:96:74:72:b8:5c:
         bc:8b:b4:6a:7c:35:e4:a5:49:09:be:99:a2:e7:08:58:10:99:
         47:24:87:31:24:6b:e2:ea:39:55:6e:61:43:55:eb:da:9e:09:
         7a:3d:ae:58:a2:3c:47:40:a7:5e:06:4c:c2:a7:45:c6:1e:e6:
         98:ea:4d:8c:c6:72:17:a6:2b:61:39:7c:24:6e:82:51:04:2b:
         6e:80:df:69:9f:d7:93:6d:d3:92:f3:b7:1b:73:6c:c2:ed:7e:
         cb:6f:06:d3:28:4d:a7:20:e3:f5:a2:37:0a:71:25:84:88:c3:
         83:dd:f3:dc:eb:a8:95:4b:dd:9c:aa:a9:aa:8d:81:f1:b0:ee:
         0e:ef:ad:3e:bc:5d:cd:d1:43:a3:61:f8:0f:bd:ef:fd:a3:74:
         36:18:15:ef:5b:86:da:44:40:66:a7:cb:00:16:bb:fa:6a:01:
         fb:f0:bb:14:35:15:94:6d:5a:4c:e5:6d:33:33:d0:1e:5f:c5:
         64:22:f4:2d:62:ea:71:45:56:90:36:97:1b:0a:b4:3e:b4:27:
         ca:53:65:fc:b0:66:c6:88:88:3e:10:41:ed:92:56:54:10:6e:
         ca:24:18:8e:65:88:04:3b:70:16:19:8f:5c:65:f4:5b:f7:af:
         23:f2:32:e2:f5:dc:78:c0:e4:38:99:27:0b:41:e3:c7:d9:bd:
         70:5f:5d:52:d6:e6:ed:d8:09:4b:33:f7:81:1b:76:d9:15:f8:
         89:e5:ab:e3:91:6a:e2:37:2c:77:6a:b6:c4:66:4c:12:68:69:
         75:da:4e:35:07:a2:18:a7:2c:a5:53:3e:c3:55:79:39:2b:62:
         7c:dc:62:17:4f:4a:f5:c4:7a:4b:ab:a6:63:32:34:f5:4c:54:
         47:67:5d:6f:2a:3d:b0:9d:d5:05:24:ea:1a:26:d1:e2:0f:44:
         e1:56:24:80:f2:b1:44:02:73:97:fe:29:c7:18:fd:cc:74:89:
         10:5b:dd:84:af:d3:27:e3:28:d6:04:99:1b:e5:1e:ac:9c:d5:
         0a:7f:f9:5e:50:4d:0b:f3:f5:ee:e4:6c:bb:45:4c:52:dd:23:
         03:76:f8:48:fd:be:12:95:4d:6f:6b:7b:39:35:50:d4:fe:e8:
         07:17:f4:e9:8c:1a:de:40:12:5a:04:f6:ee:a2:fe:8a:3b:9f:
         60:e9:4b:13:99:62:b1:b1:c8:b2:e5:ff:f7:c8:4f:f3:83:ee:
         5e:64:e3:cc:16:1c:88:02:a8:ce:89:69:fb:62:82:6b:ad:1a:
         12:33:7e:d6:3a:46:52:c7
-----BEGIN CERTIFICATE-----
MIIFRjCCAy4CAgICMA0GCSqGSIb3DQEBCwUAMHIxCzAJBgNVBAYTAmZyMQwwCgYD
VQQIDANpZGYxDjAMBgNVBAcMBXBhcmlzMQ4wDAYDVQQKDAV2aXRhbTEUMBIGA1UE
CwwLYXV0aG9yaXRpZXMxHzAdBgNVBAMMFmNhX2ludGVybWVkaWF0ZV9zZXJ2ZXIw
HhcNMTkxMjE5MTI0NTUyWhcNMjIxMjE4MTI0NTUyWjBfMQswCQYDVQQGEwJmcjEM
MAoGA1UECAwDaWRmMQ4wDAYDVQQHDAVwYXJpczEOMAwGA1UECgwFdml0YW0xIjAg
BgNVBAMMGWNhcy1zZXJ2ZXIuc2VydmljZS5jb25zdWwwggIiMA0GCSqGSIb3DQEB
AQUAA4ICDwAwggIKAoICAQC8Z78dMCMhzc6I5p852EK4tRx/9ecZ54tBSsjwUfCz
qQ9LDMTaVDwiIQ2SWofhkQc6Or3N07dtdhG5lG4fGhJji2tKPms/iWexJIdvsAkO
lbA6293VZUZEhzeN9Kra7gRB9qtc0RGqUnJED8ldFDRqQ/zxxCLFiriw4isXjIvf
b8+1ejXQMrgf+d8WmUw8aQNzuXNxrmUsK5UERQZGMJNj4LdKDga/KGXhCQdWf3s2
6xK6ratY7OshojQVKSTyLr+ugpXkN/m1DtlMkQmHtfq+Fk3m5k+lRS3ZA4M0CHlf
NgAsFC/DMWkxpwpjP3M88PXSR3aD6uxlaNN7Jf7ws4XfVAFtl98cNXtbVV+WeNBA
Zz/JcQAw+QBqkJVX5Fx2/irJbZRh3l6XkRx3Zd7+RRTtovvtKwc6up5Kl5kF7kC4
yzjyNcThHQder/XjU0xQHMJoN5rsRWE4z3PesiqXr7LSOimT4UB4fvP2YCPHeZ2C
Es9yxa8QSEWeg0F1pCENGLH1z6022aZNLrZ0hGE8pPzJNFUtZVZHgGc8nR/Vncc9
LPrxNipeAvHIbTeWxkAaA4dpU6AqKwsiWDOPDhB7b4HMb8GZZErf+ck7EOOS8P6i
8b8B4ph5vMeoW+EaQ/gnmU7M+5950WJI3sdBpr1hwhUJR63ut7GQugt8+lb2mZGm
tQIDAQABMA0GCSqGSIb3DQEBCwUAA4ICAQAiRyExUiZfHaEbF7G1kQKzpqX4airU
csZ4Ivkn0QidlnRyuFy8i7RqfDXkpUkJvpmi5whYEJlHJIcxJGvi6jlVbmFDVeva
ngl6Pa5YojxHQKdeBkzCp0XGHuaY6k2MxnIXpithOXwkboJRBCtugN9pn9eTbdOS
87cbc2zC7X7LbwbTKE2nIOP1ojcKcSWEiMOD3fPc66iVS92cqqmqjYHxsO4O760+
vF3N0UOjYfgPve/9o3Q2GBXvW4baREBmp8sAFrv6agH78LsUNRWUbVpM5W0zM9Ae
X8VkIvQtYupxRVaQNpcbCrQ+tCfKU2X8sGbGiIg+EEHtklZUEG7KJBiOZYgEO3AW
GY9cZfRb968j8jLi9dx4wOQ4mScLQePH2b1wX11S1ubt2AlLM/eBG3bZFfiJ5avj
kWriNyx3arbEZkwSaGl12k41B6IYpyylUz7DVXk5K2J83GIXT0r1xHpLq6ZjMjT1
TFRHZ11vKj2wndUFJOoaJtHiD0ThViSA8rFEAnOX/inHGP3MdIkQW92Er9Mn4yjW
BJkb5R6snNUKf/leUE0L8/Xu5Gy7RUxS3SMDdvhI/b4SlU1va3s5NVDU/ugHF/Tp
jBreQBJaBPbuov6KO59g6UsTmWKxsciy5f/3yE/zg+5eZOPMFhyIAqjOiWn7YoJr
rRoSM37WOkZSxw==
-----END CERTIFICATE-----
