Certificate:
    Data:
        Version: 1 (0x0)
        Serial Number: 554 (0x22a)
    Signature Algorithm: sha256WithRSAEncryption
        Issuer: C=fr, ST=idf, L=paris, O=vitam, OU=authorities, CN=ca_intermediate_server
        Validity
            Not Before: May 29 15:36:47 2020 GMT
            Not After : May 29 15:36:47 2023 GMT
        Subject: C=fr, ST=idf, L=paris, O=vitam, CN=iam-internal.service.
        Subject Public Key Info:
            Public Key Algorithm: rsaEncryption
                Public-Key: (4096 bit)
                Modulus:
                    00:b1:34:9e:b3:52:9a:da:27:3d:59:8c:54:8a:e7:
                    37:af:4e:ce:46:f6:b9:a8:69:f1:da:d1:e1:40:cf:
                    d0:52:00:97:f0:be:cb:e3:80:ef:16:dd:34:7d:24:
                    5d:12:e6:68:07:da:e3:5d:51:c6:53:b8:df:24:eb:
                    95:30:94:17:f9:ba:29:5f:88:d4:c2:13:b0:0e:7d:
                    d5:71:9f:ec:ea:38:35:9e:64:8f:11:76:9e:16:e7:
                    bb:8a:0a:6f:4a:6b:9e:38:9a:15:6d:1f:cc:86:3c:
                    fb:0b:ab:1e:8c:52:6d:da:76:aa:29:0c:c6:01:be:
                    31:a7:70:1c:61:60:8a:8e:d9:c4:7f:01:10:65:06:
                    05:78:f1:21:96:e5:70:f9:e0:cb:51:b2:dd:6e:9b:
                    c5:d8:57:87:74:f9:5f:38:ad:16:63:39:7c:86:97:
                    8f:6d:26:18:e5:48:9e:56:49:a0:ab:ff:c3:c8:69:
                    e9:5d:8b:d7:1b:0c:3a:c5:11:eb:fa:d3:b5:70:92:
                    6b:7e:05:43:94:d5:9b:05:05:cb:55:83:90:fc:d0:
                    af:9c:9c:72:b0:d6:43:3b:25:ab:0b:0e:6f:45:dd:
                    2c:d6:e3:57:b2:c8:33:d9:b5:5a:7c:bf:02:eb:f1:
                    dd:a6:26:93:13:f5:5c:b3:d1:70:43:b9:65:09:82:
                    9b:34:88:54:e3:3a:ff:c9:73:03:cb:d7:c3:61:80:
                    9f:63:1e:7c:07:5b:f8:83:93:fa:a9:28:c0:15:3c:
                    6c:43:35:dd:19:66:fc:06:b3:1a:52:27:5c:74:0e:
                    86:d3:39:26:a1:9e:68:30:29:71:8b:f8:cc:d5:ff:
                    a9:c6:2f:b0:2d:86:64:cd:39:fa:cf:f5:00:34:e2:
                    b3:ef:4d:7e:17:47:2a:62:d4:ae:50:14:ff:43:3e:
                    56:96:86:ce:76:d5:a5:df:ba:04:de:88:3e:2c:7e:
                    f4:ea:88:26:67:e8:13:c6:79:15:22:58:57:74:38:
                    97:ce:e0:c2:06:10:20:1e:a7:42:4e:fe:c8:12:99:
                    b4:8b:43:77:6c:30:b7:57:f2:12:d1:40:f7:95:93:
                    78:f4:f4:6e:f5:44:ec:73:cf:d1:e7:25:35:f9:ef:
                    13:51:6c:ad:92:5f:93:dc:bc:66:be:e9:24:88:ca:
                    d3:70:d0:64:0b:23:f2:aa:3f:f5:6e:0a:fa:c1:22:
                    f0:0b:46:60:d6:7e:7d:bb:1c:5f:bf:e2:c0:29:27:
                    a8:aa:81:e1:4a:2f:60:02:02:44:1e:06:b5:bc:77:
                    ba:1b:63:40:90:45:c4:e6:12:8d:e1:18:12:c9:44:
                    58:e7:6e:e1:a6:90:b2:bc:29:10:b8:fc:ec:d2:c2:
                    a2:e6:6b
                Exponent: 65537 (0x10001)
    Signature Algorithm: sha256WithRSAEncryption
         9a:22:0a:50:d6:f0:38:53:cf:e4:0b:07:ef:9e:02:8f:7a:55:
         4b:7d:06:96:c9:2c:74:cf:c9:28:a6:19:19:59:7f:5e:7e:66:
         51:81:15:e2:84:5e:e6:4b:6c:4c:d5:54:ec:6f:81:ed:ad:cf:
         3d:30:3c:33:c2:0d:24:81:4a:70:ee:b8:32:7d:2b:ab:54:a9:
         d6:96:85:f6:7a:a9:51:17:fd:a1:6f:99:19:22:dc:ea:3c:37:
         18:a4:9c:d1:41:b7:f4:2c:ac:d6:67:65:7c:6f:eb:d5:01:69:
         7b:6b:fc:0c:7e:a7:e8:1f:c9:52:5f:00:57:d2:85:1a:d1:66:
         63:1b:2e:bc:0f:cb:e2:fd:5c:e9:88:e5:db:5d:08:88:b9:21:
         75:38:36:56:58:cf:52:1a:d5:65:7b:b9:79:59:9e:41:a9:da:
         31:c4:e2:77:8a:a7:7c:e8:d8:9e:fc:4f:e4:45:12:b7:fc:2c:
         5e:b2:ec:30:78:cc:4d:d2:e9:2e:22:b4:c9:ee:f3:1b:a7:da:
         da:e1:c4:75:f4:fe:b0:1a:14:26:5d:00:78:a0:f1:c0:db:53:
         41:2c:91:03:b3:29:49:7b:e8:e0:da:e2:3b:50:b9:01:d7:05:
         ee:80:a0:25:a9:34:8d:24:a9:71:34:43:dc:d2:99:40:1f:e5:
         4c:ba:bd:85:9f:d1:bb:76:7b:3d:7e:84:2e:76:ec:0e:e2:6b:
         da:df:95:4e:9d:64:b9:7a:e0:47:6f:74:c6:49:cd:96:48:9f:
         3a:71:e5:0c:6f:ad:78:4d:3a:62:c9:4f:a7:de:44:0c:a9:58:
         76:f6:33:29:ba:3b:25:93:99:69:b3:fb:a4:8f:d4:9a:26:42:
         1e:ea:b0:55:80:9d:74:c1:30:41:65:f6:ae:bb:81:62:17:ed:
         ba:2f:19:63:c4:73:f5:d1:f8:42:aa:f0:89:d2:57:9c:74:38:
         6f:57:60:7f:3c:a0:ad:46:0c:34:f6:09:83:1b:1b:bb:cb:74:
         4e:81:65:f1:cf:38:91:10:c5:dc:82:b5:9d:a2:3e:62:6f:45:
         b4:e7:5f:99:fb:d5:2a:5a:70:0c:65:56:7d:20:2f:f0:89:f1:
         a9:23:2b:ca:cf:92:8b:3c:ad:be:9a:b7:12:7a:a0:26:e6:7e:
         49:4e:2c:87:53:3b:6d:6e:b2:cb:62:d3:ff:b0:2a:c6:18:88:
         0a:bb:6c:18:6e:8f:cc:dd:09:ed:01:cd:53:fe:ec:ad:db:f9:
         0b:32:bb:21:51:9f:d1:56:30:a6:fd:69:4e:28:fe:e9:c6:d5:
         a3:97:bc:79:a9:cc:62:0f:49:f6:1f:bc:0b:83:2c:b8:70:c4:
         e7:1b:60:81:ac:a0:78:c6
-----BEGIN CERTIFICATE-----
MIIFQjCCAyoCAgIqMA0GCSqGSIb3DQEBCwUAMHIxCzAJBgNVBAYTAmZyMQwwCgYD
VQQIDANpZGYxDjAMBgNVBAcMBXBhcmlzMQ4wDAYDVQQKDAV2aXRhbTEUMBIGA1UE
CwwLYXV0aG9yaXRpZXMxHzAdBgNVBAMMFmNhX2ludGVybWVkaWF0ZV9zZXJ2ZXIw
HhcNMjAwNTI5MTUzNjQ3WhcNMjMwNTI5MTUzNjQ3WjBbMQswCQYDVQQGEwJmcjEM
MAoGA1UECAwDaWRmMQ4wDAYDVQQHDAVwYXJpczEOMAwGA1UECgwFdml0YW0xHjAc
BgNVBAMMFWlhbS1pbnRlcm5hbC5zZXJ2aWNlLjCCAiIwDQYJKoZIhvcNAQEBBQAD
ggIPADCCAgoCggIBALE0nrNSmtonPVmMVIrnN69Ozkb2uahp8drR4UDP0FIAl/C+
y+OA7xbdNH0kXRLmaAfa411RxlO43yTrlTCUF/m6KV+I1MITsA591XGf7Oo4NZ5k
jxF2nhbnu4oKb0prnjiaFW0fzIY8+wurHoxSbdp2qikMxgG+MadwHGFgio7ZxH8B
EGUGBXjxIZblcPngy1Gy3W6bxdhXh3T5XzitFmM5fIaXj20mGOVInlZJoKv/w8hp
6V2L1xsMOsUR6/rTtXCSa34FQ5TVmwUFy1WDkPzQr5yccrDWQzslqwsOb0XdLNbj
V7LIM9m1Wny/Auvx3aYmkxP1XLPRcEO5ZQmCmzSIVOM6/8lzA8vXw2GAn2MefAdb
+IOT+qkowBU8bEM13Rlm/AazGlInXHQOhtM5JqGeaDApcYv4zNX/qcYvsC2GZM05
+s/1ADTis+9NfhdHKmLUrlAU/0M+VpaGznbVpd+6BN6IPix+9OqIJmfoE8Z5FSJY
V3Q4l87gwgYQIB6nQk7+yBKZtItDd2wwt1fyEtFA95WTePT0bvVE7HPP0eclNfnv
E1FsrZJfk9y8Zr7pJIjK03DQZAsj8qo/9W4K+sEi8AtGYNZ+fbscX7/iwCknqKqB
4UovYAICRB4Gtbx3uhtjQJBFxOYSjeEYEslEWOdu4aaQsrwpELj87NLCouZrAgMB
AAEwDQYJKoZIhvcNAQELBQADggIBAJoiClDW8DhTz+QLB++eAo96VUt9BpbJLHTP
ySimGRlZf15+ZlGBFeKEXuZLbEzVVOxvge2tzz0wPDPCDSSBSnDuuDJ9K6tUqdaW
hfZ6qVEX/aFvmRki3Oo8NxiknNFBt/QsrNZnZXxv69UBaXtr/Ax+p+gfyVJfAFfS
hRrRZmMbLrwPy+L9XOmI5dtdCIi5IXU4NlZYz1Ia1WV7uXlZnkGp2jHE4neKp3zo
2J78T+RFErf8LF6y7DB4zE3S6S4itMnu8xun2trhxHX0/rAaFCZdAHig8cDbU0Es
kQOzKUl76ODa4jtQuQHXBe6AoCWpNI0kqXE0Q9zSmUAf5Uy6vYWf0bt2ez1+hC52
7A7ia9rflU6dZLl64EdvdMZJzZZInzpx5QxvrXhNOmLJT6feRAypWHb2Mym6OyWT
mWmz+6SP1JomQh7qsFWAnXTBMEFl9q67gWIX7bovGWPEc/XR+EKq8InSV5x0OG9X
YH88oK1GDDT2CYMbG7vLdE6BZfHPOJEQxdyCtZ2iPmJvRbTnX5n71SpacAxlVn0g
L/CJ8akjK8rPkos8rb6atxJ6oCbmfklOLIdTO21ussti0/+wKsYYiAq7bBhuj8zd
Ce0BzVP+7K3b+QsyuyFRn9FWMKb9aU4o/unG1aOXvHmpzGIPSfYfvAuDLLhwxOcb
YIGsoHjG
-----END CERTIFICATE-----
