Certificate:
    Data:
        Version: 1 (0x0)
        Serial Number: 517 (0x205)
    Signature Algorithm: sha256WithRSAEncryption
        Issuer: C=fr, ST=idf, L=paris, O=vitam, OU=authorities, CN=ca_intermediate_server
        Validity
            Not Before: Dec 19 12:46:00 2019 GMT
            Not After : Dec 18 12:46:00 2022 GMT
        Subject: C=fr, ST=idf, L=paris, O=vitam, CN=iam-external.service.consul
        Subject Public Key Info:
            Public Key Algorithm: rsaEncryption
                Public-Key: (4096 bit)
                Modulus:
                    00:99:8d:5f:dc:b1:d8:dc:28:b3:37:60:c8:f5:bf:
                    bb:f9:e7:76:ce:22:79:1e:09:db:70:f6:7a:f1:a8:
                    04:65:1d:1a:28:24:7a:22:80:9f:3c:f4:56:b5:d0:
                    28:cb:10:73:40:aa:e9:59:8d:52:9e:0f:6d:73:90:
                    a7:a4:71:28:29:f6:7c:b1:ea:c3:ba:54:d0:07:11:
                    79:1e:10:33:cf:a9:fc:82:da:9d:c3:ee:3a:33:69:
                    5b:d1:18:16:90:48:26:29:5a:03:3b:53:bd:e2:23:
                    0b:06:58:6a:cd:b7:27:7d:44:2d:fc:42:07:0c:03:
                    a5:ca:0d:38:3b:98:b2:a2:19:e5:59:18:29:41:00:
                    07:5d:8a:16:37:a7:c6:5d:9d:d2:cd:4b:4c:88:04:
                    24:c5:02:38:24:59:a9:65:e3:76:a7:68:88:75:5d:
                    62:ce:0f:b5:50:f3:77:fb:21:8a:07:c7:c2:ab:e6:
                    07:42:13:64:cf:af:be:03:c0:93:4d:e0:fa:00:20:
                    b1:72:56:f2:a7:8e:ae:80:79:34:e9:98:4e:77:36:
                    59:eb:84:bf:b0:16:ee:29:5b:4c:34:aa:19:ac:37:
                    b1:0c:a3:7a:85:2a:56:18:b2:ef:04:fa:de:01:3d:
                    15:3f:0c:ff:de:6b:7b:dd:d5:a5:d5:10:2f:05:2e:
                    61:ec:6d:bf:81:ef:ee:30:76:47:ae:1e:9b:e1:33:
                    95:02:6c:66:84:d7:d6:dc:71:97:16:e5:ed:9a:5c:
                    9b:8d:69:a8:e0:ff:c9:30:8f:2f:a6:68:f9:7f:d6:
                    db:97:81:b5:6a:6e:7f:c5:c5:c3:ec:96:1e:93:28:
                    e2:3b:a0:cb:0f:4a:fe:57:59:fe:b2:85:e8:12:03:
                    a0:dc:1a:5b:a3:0f:01:10:0b:0a:6c:b1:ac:59:8d:
                    10:6a:15:c8:08:32:2d:55:c5:23:f3:ee:92:3c:0c:
                    ad:63:8c:da:bd:25:e9:06:18:d5:d0:2b:6b:d5:39:
                    20:af:7b:fe:24:21:24:02:96:03:81:91:9b:dc:24:
                    df:67:95:71:b3:8e:eb:08:06:17:fc:fb:12:a2:41:
                    3b:f5:5e:52:b2:fb:41:37:d7:e2:1d:0a:ab:90:39:
                    5b:b1:3a:49:62:84:81:0d:26:6f:6b:86:53:ac:20:
                    69:8c:23:d0:4d:80:be:6b:43:09:fc:f2:d2:b2:7d:
                    bd:68:7b:24:0f:90:84:c8:7b:28:e8:d7:dc:b5:b9:
                    fa:d4:db:a4:32:47:ba:79:3d:84:52:44:04:3d:ea:
                    2a:8f:f1:0b:ab:2a:9e:d3:55:8b:a5:fe:3c:a6:29:
                    d3:b8:b2:92:34:70:64:e3:77:f9:03:23:a1:3a:92:
                    c6:16:9f
                Exponent: 65537 (0x10001)
    Signature Algorithm: sha256WithRSAEncryption
         99:95:1b:2b:ed:e1:3d:8e:f4:df:41:fb:0e:12:c8:99:6f:ed:
         1c:11:cd:19:f1:22:0e:76:41:0f:8f:12:b9:88:23:bb:e4:eb:
         45:de:e5:a2:a2:75:2e:6c:9c:87:7c:ed:1e:dc:22:20:bb:80:
         4c:90:e9:1e:f0:5a:f6:b5:c3:1f:e2:89:df:28:75:2f:81:8f:
         b4:b4:0e:8e:0b:8d:ef:6a:2a:57:df:14:18:de:74:c2:5b:17:
         52:f7:b7:93:ec:0c:f9:e7:e0:48:9b:3c:46:19:46:84:2f:4a:
         07:1f:3b:68:cb:32:93:0d:b6:ca:a8:a5:40:c1:a7:b7:f2:b2:
         8a:65:19:a0:9c:65:75:af:d5:63:83:22:cf:d0:c7:f6:1e:af:
         1e:75:39:26:6f:f2:a9:11:5f:f1:ea:ec:6a:8d:77:ac:45:ca:
         29:e3:d9:26:dc:f9:41:38:7d:bd:da:88:f8:9f:d4:44:45:f3:
         e1:60:05:9d:74:e6:4b:19:ed:6c:b9:ee:68:a7:df:4b:94:56:
         68:53:45:df:b6:58:df:e0:59:47:21:e4:80:b0:57:37:50:73:
         ca:c5:06:c1:84:95:84:b8:a5:b6:2b:80:dd:da:eb:ac:da:ea:
         fd:6a:93:f0:d1:33:36:66:8b:85:12:68:b1:e5:b5:40:31:13:
         11:f7:d8:f5:5a:7c:0e:ea:b4:03:54:22:83:9c:ab:c8:fb:9e:
         a3:a0:c9:a1:86:36:26:35:b4:0f:2d:59:ea:da:63:68:7c:de:
         a8:cc:eb:3d:8f:ec:b2:9c:36:d8:cf:88:f8:24:09:fd:2b:9c:
         f2:3b:b6:8c:d1:47:f8:23:ce:b1:1f:e9:cd:3b:fc:cc:03:4e:
         55:2e:06:bf:55:be:20:29:30:ad:83:45:e5:f1:bf:d8:43:9f:
         39:84:dd:7c:e2:d8:ff:4d:5b:f1:66:64:93:71:ea:97:64:c1:
         6e:05:0f:7d:ad:de:c4:79:1e:02:12:f7:be:82:ec:95:0b:28:
         d8:cf:51:2b:a1:ce:75:c1:97:ec:df:38:8c:ad:50:b8:51:b2:
         18:29:16:6d:6e:7b:8d:62:be:af:4f:d3:ea:b2:07:c0:0b:fc:
         23:f7:af:ba:75:ab:8a:0d:c9:98:57:a1:4e:91:1a:cb:e9:fa:
         ab:7f:02:b5:0e:ce:3c:1c:50:39:74:87:ca:71:66:26:91:e3:
         59:71:55:f0:50:82:68:57:2e:92:e0:c2:d8:9c:52:df:12:5c:
         2d:fb:9d:e7:ca:55:8a:89:22:f5:a3:38:f8:e3:9d:9a:51:3e:
         44:40:40:d7:85:20:5e:ae:07:45:cd:2e:77:6e:9e:4c:21:bc:
         87:0a:db:84:c4:6f:e2:c0
-----BEGIN CERTIFICATE-----
MIIFSDCCAzACAgIFMA0GCSqGSIb3DQEBCwUAMHIxCzAJBgNVBAYTAmZyMQwwCgYD
VQQIDANpZGYxDjAMBgNVBAcMBXBhcmlzMQ4wDAYDVQQKDAV2aXRhbTEUMBIGA1UE
CwwLYXV0aG9yaXRpZXMxHzAdBgNVBAMMFmNhX2ludGVybWVkaWF0ZV9zZXJ2ZXIw
HhcNMTkxMjE5MTI0NjAwWhcNMjIxMjE4MTI0NjAwWjBhMQswCQYDVQQGEwJmcjEM
MAoGA1UECAwDaWRmMQ4wDAYDVQQHDAVwYXJpczEOMAwGA1UECgwFdml0YW0xJDAi
BgNVBAMMG2lhbS1leHRlcm5hbC5zZXJ2aWNlLmNvbnN1bDCCAiIwDQYJKoZIhvcN
AQEBBQADggIPADCCAgoCggIBAJmNX9yx2NwoszdgyPW/u/nnds4ieR4J23D2evGo
BGUdGigkeiKAnzz0VrXQKMsQc0Cq6VmNUp4PbXOQp6RxKCn2fLHqw7pU0AcReR4Q
M8+p/ILancPuOjNpW9EYFpBIJilaAztTveIjCwZYas23J31ELfxCBwwDpcoNODuY
sqIZ5VkYKUEAB12KFjenxl2d0s1LTIgEJMUCOCRZqWXjdqdoiHVdYs4PtVDzd/sh
igfHwqvmB0ITZM+vvgPAk03g+gAgsXJW8qeOroB5NOmYTnc2WeuEv7AW7ilbTDSq
Gaw3sQyjeoUqVhiy7wT63gE9FT8M/95re93VpdUQLwUuYextv4Hv7jB2R64em+Ez
lQJsZoTX1txxlxbl7Zpcm41pqOD/yTCPL6Zo+X/W25eBtWpuf8XFw+yWHpMo4jug
yw9K/ldZ/rKF6BIDoNwaW6MPARALCmyxrFmNEGoVyAgyLVXFI/PukjwMrWOM2r0l
6QYY1dAra9U5IK97/iQhJAKWA4GRm9wk32eVcbOO6wgGF/z7EqJBO/VeUrL7QTfX
4h0Kq5A5W7E6SWKEgQ0mb2uGU6wgaYwj0E2AvmtDCfzy0rJ9vWh7JA+QhMh7KOjX
3LW5+tTbpDJHunk9hFJEBD3qKo/xC6sqntNVi6X+PKYp07iykjRwZON3+QMjoTqS
xhafAgMBAAEwDQYJKoZIhvcNAQELBQADggIBAJmVGyvt4T2O9N9B+w4SyJlv7RwR
zRnxIg52QQ+PErmII7vk60Xe5aKidS5snId87R7cIiC7gEyQ6R7wWva1wx/iid8o
dS+Bj7S0Do4Lje9qKlffFBjedMJbF1L3t5PsDPnn4EibPEYZRoQvSgcfO2jLMpMN
tsqopUDBp7fysoplGaCcZXWv1WODIs/Qx/Yerx51OSZv8qkRX/Hq7GqNd6xFyinj
2Sbc+UE4fb3aiPif1ERF8+FgBZ105ksZ7Wy57min30uUVmhTRd+2WN/gWUch5ICw
VzdQc8rFBsGElYS4pbYrgN3a66za6v1qk/DRMzZmi4USaLHltUAxExH32PVafA7q
tANUIoOcq8j7nqOgyaGGNiY1tA8tWeraY2h83qjM6z2P7LKcNtjPiPgkCf0rnPI7
tozRR/gjzrEf6c07/MwDTlUuBr9VviApMK2DReXxv9hDnzmE3Xzi2P9NW/FmZJNx
6pdkwW4FD32t3sR5HgIS976C7JULKNjPUSuhznXBl+zfOIytULhRshgpFm1ue41i
vq9P0+qyB8AL/CP3r7p1q4oNyZhXoU6RGsvp+qt/ArUOzjwcUDl0h8pxZiaR41lx
VfBQgmhXLpLgwticUt8SXC37nefKVYqJIvWjOPjjnZpRPkRAQNeFIF6uB0XNLndu
nkwhvIcK24TEb+LA
-----END CERTIFICATE-----
