Certificate:
    Data:
        Version: 1 (0x0)
        Serial Number: 555 (0x22b)
    Signature Algorithm: sha256WithRSAEncryption
        Issuer: C=fr, ST=idf, L=paris, O=vitam, OU=authorities, CN=ca_intermediate_server
        Validity
            Not Before: May 29 15:36:53 2020 GMT
            Not After : May 29 15:36:53 2023 GMT
        Subject: C=fr, ST=idf, L=paris, O=vitam, CN=iam-external.service.
        Subject Public Key Info:
            Public Key Algorithm: rsaEncryption
                Public-Key: (4096 bit)
                Modulus:
                    00:d7:74:30:d5:1d:ae:bf:5d:f4:40:63:1d:6f:42:
                    b5:75:f6:0e:9c:64:43:35:de:45:6e:7c:57:bd:9a:
                    b3:ec:0b:32:44:98:49:4c:a3:c5:e0:aa:9c:d1:59:
                    46:fb:e0:c6:9d:12:4b:e6:39:31:c9:6b:8a:34:47:
                    96:1a:f4:03:8c:9e:81:75:e3:50:59:13:a1:82:76:
                    eb:68:a4:5c:18:d8:fd:17:98:ea:5c:8f:15:b4:5e:
                    1d:71:6d:e8:e1:24:24:ee:cc:3a:4d:5c:b9:7f:f1:
                    fc:51:6e:31:14:3d:00:8e:b3:71:47:35:9f:8d:91:
                    88:4d:21:52:ca:be:f3:e0:5c:dc:e1:cd:1a:bd:11:
                    e1:91:87:fb:2a:4f:1b:72:1d:e1:59:91:f8:59:43:
                    25:18:9a:02:8d:c0:fe:c1:e3:d1:6f:50:d5:a8:5a:
                    db:8e:24:8e:26:e0:df:62:84:77:2c:8b:1b:2e:dc:
                    57:6f:05:32:d5:ec:54:5c:44:a6:19:72:52:8c:7b:
                    1b:5c:23:bf:1b:0c:bc:2d:0d:35:82:6b:6e:5f:52:
                    2d:3b:52:82:5a:e9:84:bc:3e:8d:4e:9b:a2:ff:2b:
                    d5:eb:1c:af:4c:c0:0e:ae:08:cf:71:73:1d:e5:89:
                    bd:64:bb:23:c1:cd:99:1c:e4:9a:2b:24:bb:65:13:
                    e4:a2:98:fa:af:78:37:21:34:08:31:97:ab:59:ea:
                    28:e7:c8:1a:01:35:65:32:1d:1c:0f:28:3e:17:55:
                    8d:67:47:fd:a5:e4:cb:9e:8b:36:60:05:b7:c4:83:
                    29:0d:8c:2b:2e:09:4a:bb:82:ae:33:81:1e:fa:03:
                    2e:1f:7f:f2:52:b8:1e:5b:88:c3:b6:45:7d:04:5a:
                    b0:24:e6:63:fa:0f:69:a4:d6:ce:01:44:6d:7c:49:
                    ca:cf:c4:c7:04:64:2e:71:8b:46:31:4f:f4:04:5f:
                    e3:5b:5d:c0:aa:06:6f:9d:29:ea:d8:f4:40:ff:de:
                    bb:92:58:db:44:81:84:05:bb:2d:df:c8:41:91:62:
                    f7:59:fe:8f:4e:9c:4c:43:a3:69:6f:3d:ac:fe:0a:
                    ea:78:93:cf:40:b5:58:87:da:57:7a:46:60:62:df:
                    04:64:9a:db:04:02:75:f7:8a:ca:e0:23:a6:74:0c:
                    63:5e:7c:c4:17:91:03:a2:4a:28:1e:99:99:9e:93:
                    c5:38:91:3b:f7:7b:ab:0a:e4:05:71:ca:89:bf:a5:
                    0e:d8:7f:51:f3:57:08:4e:23:fe:20:26:b2:e4:81:
                    ae:a9:9d:9b:7d:d4:1c:ba:a0:6d:b7:db:c7:06:52:
                    18:17:f4:a2:80:91:e8:78:6c:2c:b2:87:c1:e4:62:
                    d1:bb:83
                Exponent: 65537 (0x10001)
    Signature Algorithm: sha256WithRSAEncryption
         a0:41:ef:e0:45:4a:e2:30:41:b3:db:bf:e7:53:50:6b:9a:38:
         57:66:35:ed:6b:38:ed:e2:24:1e:e0:f3:c6:6f:b8:63:91:9e:
         eb:1a:60:d2:a2:78:b3:60:d7:02:63:79:b0:52:38:32:3a:f8:
         5f:c7:03:2a:a5:b9:bf:c5:c8:6d:01:cc:b6:64:54:0d:94:32:
         45:54:a0:b1:18:25:35:21:2e:a9:5e:ff:af:7a:c5:46:90:c0:
         16:26:1d:de:02:68:94:49:f6:4b:14:7b:96:d3:ac:aa:88:8e:
         cc:79:6c:fb:07:8d:d5:17:7f:34:21:75:ce:d5:a0:c7:cc:53:
         cd:2a:c7:1a:51:42:57:a8:5a:44:5a:42:c0:b1:33:75:5a:0c:
         8c:ab:b4:46:59:a7:ae:ed:9e:39:8c:bd:a6:07:80:41:85:0e:
         42:21:86:21:91:f1:1d:7e:f4:8c:0d:4c:3e:25:d3:51:0b:58:
         90:10:a8:88:b9:6b:d7:fe:76:56:fd:48:4f:b2:80:60:86:9c:
         7b:38:4d:b2:c1:12:03:b5:be:63:77:f7:47:04:e2:17:a9:3c:
         32:24:c3:91:f4:ae:c5:f5:eb:fe:85:e7:0b:a6:8b:64:45:43:
         cc:5c:d4:ff:e2:9a:82:fb:71:10:15:79:91:34:7f:2b:a2:af:
         7d:f2:56:09:a9:8a:bc:c6:e9:89:fd:e6:23:e2:20:a8:01:36:
         58:07:cd:6d:49:85:b2:18:41:bb:1f:04:bf:86:b1:d0:b8:c2:
         05:64:4e:b5:7d:db:cd:bf:76:be:02:17:1b:41:46:ca:80:57:
         38:ae:bf:1b:22:d6:48:23:9b:be:2d:ac:fc:fc:48:a5:3e:0e:
         2c:76:5d:f0:4b:20:84:d3:0b:a8:3a:60:3e:a7:3a:76:e3:54:
         ed:64:1e:32:7c:a7:be:6f:db:53:bc:98:a0:11:d0:2e:02:91:
         41:01:aa:15:de:16:fd:e9:e6:7f:78:ed:cb:4d:10:84:36:c1:
         b5:e1:ec:80:3c:e9:bd:da:a0:8b:2c:bc:30:98:d8:f6:64:55:
         8c:0e:d1:d7:75:f8:c6:04:87:df:4a:b5:ec:93:8f:a7:f9:25:
         34:42:5a:59:22:7e:a9:ca:f5:cf:61:aa:00:a0:14:c7:42:5b:
         08:46:10:a1:ec:34:da:2c:f8:bb:4d:84:03:db:eb:40:7d:bb:
         2e:d7:63:71:70:61:25:2c:fa:07:77:af:d1:1a:1a:17:f7:0d:
         f8:94:c4:74:81:eb:0a:b7:0a:69:93:20:1a:8b:4c:ef:02:55:
         17:31:e6:02:03:04:71:a7:ff:10:fd:4f:c8:f8:97:6a:70:14:
         a4:9a:47:59:9b:e3:bb:0f
-----BEGIN CERTIFICATE-----
MIIFQjCCAyoCAgIrMA0GCSqGSIb3DQEBCwUAMHIxCzAJBgNVBAYTAmZyMQwwCgYD
VQQIDANpZGYxDjAMBgNVBAcMBXBhcmlzMQ4wDAYDVQQKDAV2aXRhbTEUMBIGA1UE
CwwLYXV0aG9yaXRpZXMxHzAdBgNVBAMMFmNhX2ludGVybWVkaWF0ZV9zZXJ2ZXIw
HhcNMjAwNTI5MTUzNjUzWhcNMjMwNTI5MTUzNjUzWjBbMQswCQYDVQQGEwJmcjEM
MAoGA1UECAwDaWRmMQ4wDAYDVQQHDAVwYXJpczEOMAwGA1UECgwFdml0YW0xHjAc
BgNVBAMMFWlhbS1leHRlcm5hbC5zZXJ2aWNlLjCCAiIwDQYJKoZIhvcNAQEBBQAD
ggIPADCCAgoCggIBANd0MNUdrr9d9EBjHW9CtXX2DpxkQzXeRW58V72as+wLMkSY
SUyjxeCqnNFZRvvgxp0SS+Y5MclrijRHlhr0A4yegXXjUFkToYJ262ikXBjY/ReY
6lyPFbReHXFt6OEkJO7MOk1cuX/x/FFuMRQ9AI6zcUc1n42RiE0hUsq+8+Bc3OHN
Gr0R4ZGH+ypPG3Id4VmR+FlDJRiaAo3A/sHj0W9Q1aha244kjibg32KEdyyLGy7c
V28FMtXsVFxEphlyUox7G1wjvxsMvC0NNYJrbl9SLTtSglrphLw+jU6bov8r1esc
r0zADq4Iz3FzHeWJvWS7I8HNmRzkmisku2UT5KKY+q94NyE0CDGXq1nqKOfIGgE1
ZTIdHA8oPhdVjWdH/aXky56LNmAFt8SDKQ2MKy4JSruCrjOBHvoDLh9/8lK4HluI
w7ZFfQRasCTmY/oPaaTWzgFEbXxJys/ExwRkLnGLRjFP9ARf41tdwKoGb50p6tj0
QP/eu5JY20SBhAW7Ld/IQZFi91n+j06cTEOjaW89rP4K6niTz0C1WIfaV3pGYGLf
BGSa2wQCdfeKyuAjpnQMY158xBeRA6JKKB6ZmZ6TxTiRO/d7qwrkBXHKib+lDth/
UfNXCE4j/iAmsuSBrqmdm33UHLqgbbfbxwZSGBf0ooCR6HhsLLKHweRi0buDAgMB
AAEwDQYJKoZIhvcNAQELBQADggIBAKBB7+BFSuIwQbPbv+dTUGuaOFdmNe1rOO3i
JB7g88ZvuGORnusaYNKieLNg1wJjebBSODI6+F/HAyqlub/FyG0BzLZkVA2UMkVU
oLEYJTUhLqle/696xUaQwBYmHd4CaJRJ9ksUe5bTrKqIjsx5bPsHjdUXfzQhdc7V
oMfMU80qxxpRQleoWkRaQsCxM3VaDIyrtEZZp67tnjmMvaYHgEGFDkIhhiGR8R1+
9IwNTD4l01ELWJAQqIi5a9f+dlb9SE+ygGCGnHs4TbLBEgO1vmN390cE4hepPDIk
w5H0rsX16/6F5wumi2RFQ8xc1P/imoL7cRAVeZE0fyuir33yVgmpirzG6Yn95iPi
IKgBNlgHzW1JhbIYQbsfBL+GsdC4wgVkTrV9282/dr4CFxtBRsqAVziuvxsi1kgj
m74trPz8SKU+Dix2XfBLIITTC6g6YD6nOnbjVO1kHjJ8p75v21O8mKAR0C4CkUEB
qhXeFv3p5n947ctNEIQ2wbXh7IA86b3aoIssvDCY2PZkVYwO0dd1+MYEh99KteyT
j6f5JTRCWlkifqnK9c9hqgCgFMdCWwhGEKHsNNos+LtNhAPb60B9uy7XY3FwYSUs
+gd3r9EaGhf3DfiUxHSB6wq3CmmTIBqLTO8CVRcx5gIDBHGn/xD9T8j4l2pwFKSa
R1mb47sP
-----END CERTIFICATE-----
