Certificate:
    Data:
        Version: 1 (0x0)
        Serial Number: 556 (0x22c)
    Signature Algorithm: sha256WithRSAEncryption
        Issuer: C=fr, ST=idf, L=paris, O=vitam, OU=authorities, CN=ca_intermediate_server
        Validity
            Not Before: May 29 15:37:00 2020 GMT
            Not After : May 29 15:37:00 2023 GMT
        Subject: C=fr, ST=idf, L=paris, O=vitam, CN=ingest-internal.service.
        Subject Public Key Info:
            Public Key Algorithm: rsaEncryption
                Public-Key: (4096 bit)
                Modulus:
                    00:a8:ae:af:ae:d8:2d:8d:6e:86:58:d9:29:22:43:
                    d2:74:ad:3e:47:19:4b:25:e9:d2:3c:0e:a2:14:f4:
                    eb:b0:a4:62:b5:00:62:c8:ab:9b:b5:91:2f:a2:ad:
                    7d:ac:9b:86:b8:fd:ac:be:5d:7d:7a:67:47:5c:ca:
                    98:9c:ed:1d:16:d5:2e:00:3f:87:0c:4a:a2:90:05:
                    b2:5b:a9:54:86:c4:2a:ef:c7:a4:d7:fd:4b:86:30:
                    3c:23:09:6d:9a:23:b6:ae:1a:b9:30:8d:15:cb:38:
                    cd:1c:e6:9b:7e:55:a8:60:3e:6c:7c:e7:e7:5c:aa:
                    94:03:f1:d5:81:aa:70:dd:fe:1d:02:03:81:51:89:
                    c3:5c:29:e2:27:4b:f6:5d:61:1d:dd:91:f4:51:a8:
                    63:de:24:f7:75:79:84:d2:fe:0f:ea:9d:78:9a:c4:
                    04:69:9a:84:32:c1:9f:e9:f3:a5:68:14:e1:27:ba:
                    ee:13:3b:00:7a:89:d2:c2:4f:36:e8:a7:25:8e:e8:
                    f9:86:c1:41:1f:76:1b:bf:ea:79:48:77:67:ad:1a:
                    98:d0:5b:2f:02:51:66:d2:c1:9b:f3:5d:02:a6:29:
                    f1:64:e9:99:33:f0:ea:3f:1b:df:40:f5:47:da:a2:
                    01:87:5e:48:8a:75:b0:cd:d5:25:59:ec:74:6f:11:
                    f4:e0:8d:11:c7:f9:a5:c5:35:ca:da:a7:b1:08:45:
                    50:88:69:31:09:be:80:54:bc:0e:52:f9:83:74:eb:
                    60:1d:8f:ea:d6:b0:87:3d:8d:f5:68:ec:9c:3e:df:
                    66:40:64:66:7d:25:32:af:6e:b1:af:db:fd:9a:04:
                    c4:28:ee:27:b4:55:4b:15:c4:cd:e5:42:cb:3d:ef:
                    be:32:93:1c:8d:ee:a1:b5:6f:79:89:a0:be:47:20:
                    39:b6:df:6d:e7:89:b3:0d:c0:70:4e:88:7b:44:be:
                    73:62:31:bf:78:70:dd:5c:10:4f:6c:bd:85:72:d3:
                    d8:b1:94:cb:0a:3d:b0:bb:b1:8a:d4:fb:02:03:c4:
                    1e:d1:d0:78:d1:38:ec:a8:6d:b1:a3:ea:d0:97:8c:
                    e4:b5:6b:20:00:b5:a1:a4:c6:8d:b5:d5:b3:5b:0c:
                    57:e5:02:04:a9:fc:ce:33:c9:85:98:97:21:56:d8:
                    88:cb:4c:dc:b9:0f:29:7a:45:72:72:49:a5:92:e6:
                    19:1b:0a:af:b5:95:a1:41:d2:99:06:89:85:e8:49:
                    d1:ec:24:c5:a8:0f:71:0c:8a:2e:54:8e:cf:e1:7d:
                    57:79:e9:a4:90:56:f2:1d:5a:7b:44:89:dd:fe:8f:
                    a5:5a:13:d8:4a:76:cd:30:e2:45:0c:0a:60:70:cc:
                    1b:fd:39
                Exponent: 65537 (0x10001)
    Signature Algorithm: sha256WithRSAEncryption
         52:3c:61:70:35:eb:18:fb:36:32:dd:32:2e:af:19:56:ca:72:
         4b:e9:82:ec:0c:60:19:48:8c:5b:53:ca:b1:b0:7c:a5:ac:fe:
         42:a3:0a:7c:3a:b1:34:1d:cd:8b:83:1a:93:5a:d0:0b:dc:a7:
         23:81:03:52:6d:bd:e8:87:89:71:b9:38:d4:3e:6b:58:63:46:
         29:93:2e:34:32:29:7a:52:fe:98:a4:e2:43:bb:a6:20:e8:68:
         f0:34:62:9c:3b:0f:bf:93:fa:ca:45:54:15:9c:6f:36:98:d8:
         c1:80:22:6d:23:ae:84:49:8e:08:54:ac:9f:52:79:a8:0c:e3:
         d8:c2:7f:8d:f0:1f:e8:1d:91:f8:dc:ff:d3:8d:d0:a6:4a:98:
         d5:28:68:60:19:67:13:cf:a3:9a:82:bc:f2:8d:8f:70:4e:89:
         04:98:ec:63:64:a9:01:b8:57:54:d0:14:de:b5:d6:08:9c:24:
         5d:11:db:15:96:24:a0:25:d4:20:2e:6d:68:4f:cc:34:37:33:
         33:4e:17:f0:97:3e:68:fb:0d:98:51:e9:be:70:0b:f3:4f:14:
         5f:7f:ab:38:94:a2:db:7f:c6:a6:e9:1b:33:0f:36:5b:be:53:
         a4:e8:ed:b0:c3:0b:78:7e:d4:f6:69:cc:73:bb:03:d1:16:da:
         02:92:e8:8f:e5:a0:ef:76:a4:7a:f9:69:ef:58:98:92:4b:48:
         02:66:f0:9e:c4:7b:86:0e:2a:37:e1:df:71:ce:8f:74:5f:af:
         54:40:4f:eb:0f:ea:d5:21:25:70:9d:1b:19:c6:58:5e:ed:ea:
         03:21:e2:aa:1e:9e:33:fe:95:4d:9c:2a:8c:d6:15:2c:0c:60:
         40:3e:24:b5:26:32:f0:31:b6:d9:5a:85:07:1d:13:2c:30:c2:
         32:c0:fc:19:d8:ec:48:b6:94:a4:9e:4c:3a:20:0e:9e:84:57:
         a3:25:d5:0b:40:3b:00:e4:63:0c:c2:92:34:da:7b:1d:b9:32:
         6c:1d:a9:3f:29:f2:2f:0f:7d:3e:23:98:58:42:a1:5e:ec:45:
         7a:f0:f3:f0:9f:2c:1f:f4:71:1c:16:c3:78:45:71:de:f7:cc:
         0d:1d:c1:d4:d5:a0:07:9a:bc:8f:5f:02:45:2e:76:46:c4:08:
         37:f4:5e:bd:a7:d6:26:fd:af:51:16:d9:7b:1f:a5:37:d1:d9:
         dd:c2:db:96:aa:c7:bb:c6:d9:ae:a4:8d:f2:6f:db:d3:ac:db:
         ab:28:94:27:4a:d1:e6:67:05:39:56:5e:b4:ca:5b:30:66:56:
         44:c5:b1:e4:e1:c0:78:bf:47:96:dd:6f:2e:7e:6e:33:4e:cd:
         48:5d:3f:f9:da:ba:45:ed
-----BEGIN CERTIFICATE-----
MIIFRTCCAy0CAgIsMA0GCSqGSIb3DQEBCwUAMHIxCzAJBgNVBAYTAmZyMQwwCgYD
VQQIDANpZGYxDjAMBgNVBAcMBXBhcmlzMQ4wDAYDVQQKDAV2aXRhbTEUMBIGA1UE
CwwLYXV0aG9yaXRpZXMxHzAdBgNVBAMMFmNhX2ludGVybWVkaWF0ZV9zZXJ2ZXIw
HhcNMjAwNTI5MTUzNzAwWhcNMjMwNTI5MTUzNzAwWjBeMQswCQYDVQQGEwJmcjEM
MAoGA1UECAwDaWRmMQ4wDAYDVQQHDAVwYXJpczEOMAwGA1UECgwFdml0YW0xITAf
BgNVBAMMGGluZ2VzdC1pbnRlcm5hbC5zZXJ2aWNlLjCCAiIwDQYJKoZIhvcNAQEB
BQADggIPADCCAgoCggIBAKiur67YLY1uhljZKSJD0nStPkcZSyXp0jwOohT067Ck
YrUAYsirm7WRL6Ktfaybhrj9rL5dfXpnR1zKmJztHRbVLgA/hwxKopAFslupVIbE
Ku/HpNf9S4YwPCMJbZojtq4auTCNFcs4zRzmm35VqGA+bHzn51yqlAPx1YGqcN3+
HQIDgVGJw1wp4idL9l1hHd2R9FGoY94k93V5hNL+D+qdeJrEBGmahDLBn+nzpWgU
4Se67hM7AHqJ0sJPNuinJY7o+YbBQR92G7/qeUh3Z60amNBbLwJRZtLBm/NdAqYp
8WTpmTPw6j8b30D1R9qiAYdeSIp1sM3VJVnsdG8R9OCNEcf5pcU1ytqnsQhFUIhp
MQm+gFS8DlL5g3TrYB2P6tawhz2N9WjsnD7fZkBkZn0lMq9usa/b/ZoExCjuJ7RV
SxXEzeVCyz3vvjKTHI3uobVveYmgvkcgObbfbeeJsw3AcE6Ie0S+c2Ixv3hw3VwQ
T2y9hXLT2LGUywo9sLuxitT7AgPEHtHQeNE47KhtsaPq0JeM5LVrIAC1oaTGjbXV
s1sMV+UCBKn8zjPJhZiXIVbYiMtM3LkPKXpFcnJJpZLmGRsKr7WVoUHSmQaJhehJ
0ewkxagPcQyKLlSOz+F9V3nppJBW8h1ae0SJ3f6PpVoT2Ep2zTDiRQwKYHDMG/05
AgMBAAEwDQYJKoZIhvcNAQELBQADggIBAFI8YXA16xj7NjLdMi6vGVbKckvpguwM
YBlIjFtTyrGwfKWs/kKjCnw6sTQdzYuDGpNa0AvcpyOBA1JtveiHiXG5ONQ+a1hj
RimTLjQyKXpS/pik4kO7piDoaPA0Ypw7D7+T+spFVBWcbzaY2MGAIm0jroRJjghU
rJ9SeagM49jCf43wH+gdkfjc/9ON0KZKmNUoaGAZZxPPo5qCvPKNj3BOiQSY7GNk
qQG4V1TQFN611gicJF0R2xWWJKAl1CAubWhPzDQ3MzNOF/CXPmj7DZhR6b5wC/NP
FF9/qziUott/xqbpGzMPNlu+U6To7bDDC3h+1PZpzHO7A9EW2gKS6I/loO92pHr5
ae9YmJJLSAJm8J7Ee4YOKjfh33HOj3Rfr1RAT+sP6tUhJXCdGxnGWF7t6gMh4qoe
njP+lU2cKozWFSwMYEA+JLUmMvAxttlahQcdEywwwjLA/BnY7Ei2lKSeTDogDp6E
V6Ml1QtAOwDkYwzCkjTaex25MmwdqT8p8i8PfT4jmFhCoV7sRXrw8/CfLB/0cRwW
w3hFcd73zA0dwdTVoAeavI9fAkUudkbECDf0Xr2n1ib9r1EW2XsfpTfR2d3C25aq
x7vG2a6kjfJv29Os26solCdK0eZnBTlWXrTKWzBmVkTFseThwHi/R5bdby5+bjNO
zUhdP/naukXt
-----END CERTIFICATE-----
