Certificate:
    Data:
        Version: 1 (0x0)
        Serial Number: 557 (0x22d)
    Signature Algorithm: sha256WithRSAEncryption
        Issuer: C=fr, ST=idf, L=paris, O=vitam, OU=authorities, CN=ca_intermediate_server
        Validity
            Not Before: May 29 15:37:06 2020 GMT
            Not After : May 29 15:37:06 2023 GMT
        Subject: C=fr, ST=idf, L=paris, O=vitam, CN=ingest-external.service.
        Subject Public Key Info:
            Public Key Algorithm: rsaEncryption
                Public-Key: (4096 bit)
                Modulus:
                    00:d4:aa:92:85:63:97:2e:0b:d0:08:88:f3:28:59:
                    d6:76:7a:a2:f6:03:5e:f6:ac:ef:bc:fd:99:83:75:
                    98:6b:f2:75:d0:4c:87:ba:90:fb:fa:2f:2f:7b:02:
                    30:a4:84:f1:fc:f2:a3:53:3f:8f:39:c1:66:79:64:
                    c3:ec:7d:20:19:de:be:84:40:e4:8c:e8:e0:ad:bc:
                    6e:18:eb:a6:61:dd:52:60:21:47:b1:06:2b:91:69:
                    6e:a0:8c:aa:e9:1a:80:b3:eb:59:c8:27:c1:21:10:
                    27:8f:e0:fe:ca:c0:0c:18:ff:c4:cc:7d:5e:15:1d:
                    69:d2:13:a6:5a:6d:1d:80:65:fa:62:f8:d2:ce:b8:
                    a1:99:4e:ea:4b:70:dd:ed:7c:2e:f9:af:10:53:6e:
                    46:8a:73:91:dc:9b:6b:5e:f0:d8:85:98:2e:be:3a:
                    92:f9:4f:7e:6f:9a:d6:71:a7:dd:50:97:dc:e9:e7:
                    b3:63:57:03:23:35:23:bf:0a:ae:be:ff:f7:05:2b:
                    d9:df:e7:fc:f3:a6:5f:6b:b8:13:5d:15:c9:04:04:
                    2a:9d:6b:72:7d:e8:92:19:ab:6e:37:78:9a:d3:20:
                    c6:ce:80:4e:b2:0e:bd:51:0f:eb:a9:3b:75:77:e0:
                    fa:1b:31:ed:60:dc:bb:0f:1c:45:9a:3f:13:62:91:
                    f5:b9:7d:aa:b4:f0:47:fc:57:46:b6:60:11:f1:ac:
                    5c:01:cb:a7:1d:be:d5:82:e2:39:d2:0a:85:18:f9:
                    b8:39:07:ed:16:1b:7b:1c:09:e5:5d:a0:24:2b:75:
                    ce:ab:11:88:b9:e0:72:da:f1:d3:97:8a:e2:e6:6c:
                    89:f5:77:28:66:78:be:a3:d7:f6:bf:7a:20:aa:27:
                    1d:54:b0:87:00:b1:aa:4e:7a:b5:20:69:03:e9:b4:
                    7a:8a:c6:40:b1:6f:4c:8b:0a:e8:b3:61:7f:33:a5:
                    7d:8d:06:32:e5:b3:36:2f:4f:54:13:6b:f0:ea:58:
                    c9:7c:bb:85:ba:b1:d9:52:10:35:ae:a5:4a:57:d8:
                    28:66:c4:fe:f1:d7:02:0e:c4:c4:a8:43:d8:93:59:
                    33:47:ef:95:19:a0:d4:85:68:e4:8c:fa:44:28:cf:
                    bc:55:0b:5b:dd:69:b8:d8:2d:88:f2:f4:8a:d7:86:
                    35:3c:8a:e3:cf:2a:5e:c3:d4:b4:7d:ca:c3:a9:c7:
                    ec:4c:21:94:67:97:77:41:94:ea:16:91:e9:f3:89:
                    95:01:4a:54:73:bd:78:68:20:a9:64:fc:03:05:f7:
                    46:50:74:07:65:4a:b7:e4:87:38:4b:2d:a1:29:d6:
                    43:db:8f:39:55:7a:e1:bb:80:59:7f:d6:13:1e:c6:
                    9a:7e:3b
                Exponent: 65537 (0x10001)
    Signature Algorithm: sha256WithRSAEncryption
         76:a5:f6:5f:fe:93:e6:46:e1:06:b9:bb:1f:4e:6d:3d:8c:d1:
         45:36:71:c8:ae:b0:46:5c:6a:b6:18:be:2d:3c:bc:f2:e2:da:
         e0:4f:ad:d0:a7:72:1d:b9:48:db:95:bb:35:f9:70:fa:b5:06:
         7a:67:19:b2:c6:4d:e9:53:d6:fd:f2:c6:93:5b:2f:01:6b:ea:
         63:d2:76:c8:f8:68:3a:5f:61:e0:de:13:19:10:e7:c6:0f:bd:
         62:ba:53:ca:2a:ae:99:38:a0:b0:7e:2c:0c:82:f1:cb:36:63:
         80:33:ac:22:b9:ef:5c:20:8a:74:3e:ee:62:f3:23:70:23:b9:
         3b:ee:60:f3:7a:87:4c:61:f9:10:d9:6f:d2:2a:4b:5b:66:a1:
         a0:6d:b4:46:08:02:ce:ab:c7:4d:8b:28:40:1c:2a:4d:3e:e9:
         af:7d:1f:63:91:6e:42:ba:49:41:da:d2:2d:24:cd:d3:83:b3:
         51:69:ba:a9:f7:80:5a:f3:a0:44:cc:21:69:4d:de:21:bf:a8:
         f2:5b:51:04:13:81:6d:71:03:e0:fa:79:b8:ed:14:e3:a7:76:
         2a:1a:ec:f8:14:50:87:2c:81:0e:79:e2:57:56:bb:14:9e:7a:
         f7:0c:33:c0:4e:d0:48:8a:d4:7d:4d:a1:2b:74:ad:29:6e:c6:
         6a:54:79:2f:19:8e:51:b5:1c:fb:af:19:f5:6d:68:ad:75:92:
         6a:3f:de:6f:37:b6:21:9b:7a:6c:dd:12:58:87:e4:c7:ae:10:
         a9:89:17:42:19:48:59:fa:97:20:8d:9a:cb:22:f8:a8:35:33:
         96:f7:0c:d6:be:6a:26:9e:40:af:60:40:12:be:e5:62:32:3c:
         60:c5:e8:d2:a8:f6:e2:a5:69:8f:f8:ae:ee:04:a6:ae:99:1c:
         21:eb:a8:d1:8f:67:98:dd:c9:09:0e:7b:aa:90:cb:df:62:92:
         9a:f5:bc:ac:3e:00:29:3f:6f:dd:6c:de:3d:66:a9:af:ca:9e:
         07:c2:90:ae:4b:08:62:4f:26:9e:5c:c9:8f:88:d0:eb:46:a2:
         27:b9:27:43:d8:ef:ab:88:9b:bd:cc:d4:3f:4c:1e:52:6a:4a:
         b0:1d:a8:45:6c:47:b2:97:8b:05:37:06:05:4f:ab:d9:e6:df:
         f0:cf:87:6a:fc:4e:33:36:fb:60:4e:e0:ca:b6:ec:06:65:bb:
         d9:d3:aa:dc:85:8f:0d:c1:57:ce:68:df:58:ea:24:66:42:7b:
         c9:09:57:25:1d:85:a5:23:9b:fd:64:6b:69:42:5a:d8:38:eb:
         5a:1c:0a:92:da:ad:f2:b2:43:86:a0:05:aa:a2:e9:4c:0c:41:
         28:0e:95:a8:d3:c9:98:0b
-----BEGIN CERTIFICATE-----
MIIFRTCCAy0CAgItMA0GCSqGSIb3DQEBCwUAMHIxCzAJBgNVBAYTAmZyMQwwCgYD
VQQIDANpZGYxDjAMBgNVBAcMBXBhcmlzMQ4wDAYDVQQKDAV2aXRhbTEUMBIGA1UE
CwwLYXV0aG9yaXRpZXMxHzAdBgNVBAMMFmNhX2ludGVybWVkaWF0ZV9zZXJ2ZXIw
HhcNMjAwNTI5MTUzNzA2WhcNMjMwNTI5MTUzNzA2WjBeMQswCQYDVQQGEwJmcjEM
MAoGA1UECAwDaWRmMQ4wDAYDVQQHDAVwYXJpczEOMAwGA1UECgwFdml0YW0xITAf
BgNVBAMMGGluZ2VzdC1leHRlcm5hbC5zZXJ2aWNlLjCCAiIwDQYJKoZIhvcNAQEB
BQADggIPADCCAgoCggIBANSqkoVjly4L0AiI8yhZ1nZ6ovYDXvas77z9mYN1mGvy
ddBMh7qQ+/ovL3sCMKSE8fzyo1M/jznBZnlkw+x9IBnevoRA5Izo4K28bhjrpmHd
UmAhR7EGK5FpbqCMqukagLPrWcgnwSEQJ4/g/srADBj/xMx9XhUdadITplptHYBl
+mL40s64oZlO6ktw3e18LvmvEFNuRopzkdyba17w2IWYLr46kvlPfm+a1nGn3VCX
3Onns2NXAyM1I78Krr7/9wUr2d/n/POmX2u4E10VyQQEKp1rcn3okhmrbjd4mtMg
xs6ATrIOvVEP66k7dXfg+hsx7WDcuw8cRZo/E2KR9bl9qrTwR/xXRrZgEfGsXAHL
px2+1YLiOdIKhRj5uDkH7RYbexwJ5V2gJCt1zqsRiLngctrx05eK4uZsifV3KGZ4
vqPX9r96IKonHVSwhwCxqk56tSBpA+m0eorGQLFvTIsK6LNhfzOlfY0GMuWzNi9P
VBNr8OpYyXy7hbqx2VIQNa6lSlfYKGbE/vHXAg7ExKhD2JNZM0fvlRmg1IVo5Iz6
RCjPvFULW91puNgtiPL0iteGNTyK488qXsPUtH3Kw6nH7EwhlGeXd0GU6haR6fOJ
lQFKVHO9eGggqWT8AwX3RlB0B2VKt+SHOEstoSnWQ9uPOVV64buAWX/WEx7Gmn47
AgMBAAEwDQYJKoZIhvcNAQELBQADggIBAHal9l/+k+ZG4Qa5ux9ObT2M0UU2cciu
sEZcarYYvi08vPLi2uBPrdCnch25SNuVuzX5cPq1BnpnGbLGTelT1v3yxpNbLwFr
6mPSdsj4aDpfYeDeExkQ58YPvWK6U8oqrpk4oLB+LAyC8cs2Y4AzrCK571wginQ+
7mLzI3AjuTvuYPN6h0xh+RDZb9IqS1tmoaBttEYIAs6rx02LKEAcKk0+6a99H2OR
bkK6SUHa0i0kzdODs1Fpuqn3gFrzoETMIWlN3iG/qPJbUQQTgW1xA+D6ebjtFOOn
dioa7PgUUIcsgQ554ldWuxSeevcMM8BO0EiK1H1NoSt0rSluxmpUeS8ZjlG1HPuv
GfVtaK11kmo/3m83tiGbemzdEliH5MeuEKmJF0IZSFn6lyCNmssi+Kg1M5b3DNa+
aiaeQK9gQBK+5WIyPGDF6NKo9uKlaY/4ru4Epq6ZHCHrqNGPZ5jdyQkOe6qQy99i
kpr1vKw+ACk/b91s3j1mqa/KngfCkK5LCGJPJp5cyY+I0OtGoie5J0PY76uIm73M
1D9MHlJqSrAdqEVsR7KXiwU3BgVPq9nm3/DPh2r8TjM2+2BO4Mq27AZlu9nTqtyF
jw3BV85o31jqJGZCe8kJVyUdhaUjm/1ka2lCWtg461ocCpLarfKyQ4agBaqi6UwM
QSgOlajTyZgL
-----END CERTIFICATE-----
