Certificate:
    Data:
        Version: 1 (0x0)
        Serial Number: 521 (0x209)
    Signature Algorithm: sha256WithRSAEncryption
        Issuer: C=fr, ST=idf, L=paris, O=vitam, OU=authorities, CN=ca_intermediate_server
        Validity
            Not Before: Dec 19 12:46:10 2019 GMT
            Not After : Dec 18 12:46:10 2022 GMT
        Subject: C=fr, ST=idf, L=paris, O=vitam, CN=reverse.service.consul
        Subject Public Key Info:
            Public Key Algorithm: rsaEncryption
                Public-Key: (4096 bit)
                Modulus:
                    00:a3:29:84:31:99:eb:a0:62:4c:57:07:01:3d:92:
                    2c:8e:c8:30:e2:b6:19:ed:5b:bb:c3:90:a9:75:c5:
                    0b:5b:b9:d6:de:a2:bc:88:98:f8:06:a1:70:a0:f2:
                    fd:ae:99:54:ee:6d:be:fd:f5:54:4d:0c:56:82:fb:
                    5e:d3:1d:61:98:04:6b:b7:8e:87:c8:48:06:da:14:
                    d1:4b:2c:de:40:d1:57:2a:d9:b9:b7:e7:ba:57:84:
                    24:28:29:54:de:72:ea:c6:d3:2c:4b:d2:28:9c:e8:
                    b6:7f:ca:51:f9:89:5f:bf:e7:3c:01:1c:9b:f0:97:
                    2b:0f:c5:b8:0a:0a:62:88:a8:ff:be:fa:99:8b:b7:
                    1c:42:86:96:07:0c:c1:2e:d1:f1:f9:d7:2b:0c:a3:
                    6b:bc:95:9d:26:1c:2b:9a:b5:b4:a8:fc:4e:96:8f:
                    c2:b5:ca:27:86:be:50:40:eb:d3:57:a7:fb:2e:76:
                    3e:fa:3b:86:19:09:48:e4:c4:5f:c7:58:b5:ad:b1:
                    de:14:9a:13:8d:6f:9b:f7:19:3f:01:09:d3:8e:c0:
                    ec:da:73:bd:59:ac:9c:b3:f1:92:2e:8f:32:9b:f2:
                    7b:f8:30:00:3f:48:d4:e5:18:3f:77:d8:fc:30:d6:
                    e8:d8:29:64:e4:e7:7c:8f:46:b0:7c:d6:50:46:21:
                    3a:da:47:38:09:9e:f7:de:94:ef:82:9d:6b:c3:ba:
                    7c:42:8a:11:95:b0:00:ba:fc:6b:7b:a7:80:82:8a:
                    2b:02:81:fc:8d:ba:25:e9:ee:26:06:56:7a:af:3b:
                    68:25:51:5b:66:7a:31:ad:3c:3e:07:47:71:d9:2c:
                    aa:f9:ff:e3:2a:a6:b2:4a:a4:74:1e:9b:51:b2:c4:
                    75:48:6d:28:60:97:47:f8:c8:e4:93:8f:3e:a2:e0:
                    95:a9:2f:8a:0d:21:9e:a1:0c:5d:d5:94:51:43:37:
                    57:c9:4b:df:a3:f6:78:da:56:21:e7:95:15:7a:03:
                    82:f6:e4:19:11:5b:89:1e:d6:5b:42:01:84:80:11:
                    78:80:d4:34:07:2a:83:90:9c:88:15:cf:13:4a:dc:
                    8f:7d:a2:b0:52:c8:98:43:38:e1:b1:9e:82:53:38:
                    2c:5b:95:63:71:e7:35:57:a1:c9:b8:e8:55:e1:b3:
                    5e:fd:e7:31:ce:f9:b5:91:96:58:f1:dd:bb:27:da:
                    e3:87:e5:56:7c:2d:a9:de:aa:09:39:fb:56:0e:62:
                    83:ab:f8:36:ec:83:22:75:2a:19:eb:17:17:fb:a0:
                    66:c5:9d:75:b1:97:35:6f:0a:2f:9c:25:e4:ea:a3:
                    96:d8:d2:18:02:79:38:bf:7f:2d:b5:5e:61:62:d4:
                    ec:72:0f
                Exponent: 65537 (0x10001)
    Signature Algorithm: sha256WithRSAEncryption
         11:bb:62:d0:6d:22:4a:08:8c:5b:f8:21:ee:9d:e9:f5:af:90:
         aa:5f:22:37:31:fd:fb:52:9a:56:2d:c9:00:2e:08:c5:d3:30:
         5f:39:59:22:89:01:ab:b5:a5:18:7e:e5:5e:39:ff:74:95:25:
         97:78:da:f1:0b:f7:5e:2b:ab:af:26:06:53:8a:25:3c:e8:63:
         00:5e:45:33:b0:67:3a:9f:de:60:17:37:eb:0b:af:a2:f8:f8:
         30:f1:33:1d:b9:61:65:9f:fa:e8:90:c5:1c:fc:f3:c6:58:61:
         ae:a2:e2:54:00:4b:e9:1b:19:20:35:e8:30:37:25:1e:aa:e2:
         36:f8:c3:12:4e:d0:8a:e2:d6:5d:a3:6c:e8:d1:da:df:e6:3d:
         f5:7a:78:56:c4:70:c7:20:f6:a0:d4:5f:81:d3:c8:d6:e1:7e:
         9d:3e:cd:70:32:20:af:0a:43:c7:80:91:cf:01:f9:dd:9a:2f:
         e2:36:6f:f1:34:2b:58:20:9c:65:97:c4:85:a2:14:8c:72:a1:
         85:5c:6c:56:74:4c:24:50:2a:4f:7f:f5:bf:ab:7f:95:cb:b4:
         a4:ec:ce:49:1b:0c:52:39:8f:56:e1:03:28:b1:86:c5:ce:21:
         15:e5:38:b3:65:fe:12:5d:b2:47:a9:8f:ae:2f:10:6c:4f:8a:
         b9:45:20:69:04:62:5e:91:7d:2f:48:6e:57:41:b9:e8:2d:d3:
         3c:dc:51:1a:6d:12:74:7f:b8:ef:0c:68:f4:15:1b:cd:83:f6:
         b1:fd:0b:0e:4b:c8:67:6b:e9:5e:a0:78:af:b3:40:c5:e0:6a:
         c8:48:75:91:aa:fe:1a:cd:f9:55:c2:6e:31:09:3d:72:de:34:
         94:26:43:91:45:23:0e:9c:05:8d:8a:63:44:d4:bd:f0:3e:b1:
         b4:dc:63:50:64:78:20:32:21:3c:8c:e2:11:7c:e7:eb:75:ee:
         2f:ac:23:9f:58:b6:b5:9e:19:96:a6:cd:de:a4:79:74:d2:13:
         53:0d:01:e1:42:43:03:23:55:f3:90:da:1f:60:aa:df:b7:cd:
         bf:0e:41:28:58:66:c3:e8:71:97:5d:c6:8b:e6:8e:43:67:68:
         26:5f:e1:b9:56:96:3c:9c:c9:73:0f:e9:53:e9:57:8d:ce:76:
         19:48:08:25:5a:db:4b:af:88:ba:2d:45:f3:0f:a3:bd:d5:18:
         93:0a:06:83:f1:f9:01:1e:78:1c:26:84:9a:ad:a0:17:e3:2c:
         8e:6e:f9:02:c6:00:97:72:4d:c2:62:b6:3c:ac:86:6c:14:cf:
         29:72:60:c5:0e:0e:d2:35:b1:c0:a2:40:0e:75:2f:87:3c:7f:
         c8:25:95:78:b3:d5:8e:b3
-----BEGIN CERTIFICATE-----
MIIFQzCCAysCAgIJMA0GCSqGSIb3DQEBCwUAMHIxCzAJBgNVBAYTAmZyMQwwCgYD
VQQIDANpZGYxDjAMBgNVBAcMBXBhcmlzMQ4wDAYDVQQKDAV2aXRhbTEUMBIGA1UE
CwwLYXV0aG9yaXRpZXMxHzAdBgNVBAMMFmNhX2ludGVybWVkaWF0ZV9zZXJ2ZXIw
HhcNMTkxMjE5MTI0NjEwWhcNMjIxMjE4MTI0NjEwWjBcMQswCQYDVQQGEwJmcjEM
MAoGA1UECAwDaWRmMQ4wDAYDVQQHDAVwYXJpczEOMAwGA1UECgwFdml0YW0xHzAd
BgNVBAMMFnJldmVyc2Uuc2VydmljZS5jb25zdWwwggIiMA0GCSqGSIb3DQEBAQUA
A4ICDwAwggIKAoICAQCjKYQxmeugYkxXBwE9kiyOyDDithntW7vDkKl1xQtbudbe
oryImPgGoXCg8v2umVTubb799VRNDFaC+17THWGYBGu3jofISAbaFNFLLN5A0Vcq
2bm357pXhCQoKVTecurG0yxL0iic6LZ/ylH5iV+/5zwBHJvwlysPxbgKCmKIqP++
+pmLtxxChpYHDMEu0fH51ysMo2u8lZ0mHCuatbSo/E6Wj8K1yieGvlBA69NXp/su
dj76O4YZCUjkxF/HWLWtsd4UmhONb5v3GT8BCdOOwOzac71ZrJyz8ZIujzKb8nv4
MAA/SNTlGD932Pww1ujYKWTk53yPRrB81lBGITraRzgJnvfelO+CnWvDunxCihGV
sAC6/Gt7p4CCiisCgfyNuiXp7iYGVnqvO2glUVtmejGtPD4HR3HZLKr5/+MqprJK
pHQem1GyxHVIbShgl0f4yOSTjz6i4JWpL4oNIZ6hDF3VlFFDN1fJS9+j9njaViHn
lRV6A4L25BkRW4ke1ltCAYSAEXiA1DQHKoOQnIgVzxNK3I99orBSyJhDOOGxnoJT
OCxblWNx5zVXocm46FXhs1795zHO+bWRlljx3bsn2uOH5VZ8Laneqgk5+1YOYoOr
+DbsgyJ1KhnrFxf7oGbFnXWxlzVvCi+cJeTqo5bY0hgCeTi/fy21XmFi1OxyDwID
AQABMA0GCSqGSIb3DQEBCwUAA4ICAQARu2LQbSJKCIxb+CHunen1r5CqXyI3Mf37
UppWLckALgjF0zBfOVkiiQGrtaUYfuVeOf90lSWXeNrxC/deK6uvJgZTiiU86GMA
XkUzsGc6n95gFzfrC6+i+Pgw8TMduWFln/rokMUc/PPGWGGuouJUAEvpGxkgNegw
NyUequI2+MMSTtCK4tZdo2zo0drf5j31enhWxHDHIPag1F+B08jW4X6dPs1wMiCv
CkPHgJHPAfndmi/iNm/xNCtYIJxll8SFohSMcqGFXGxWdEwkUCpPf/W/q3+Vy7Sk
7M5JGwxSOY9W4QMosYbFziEV5TizZf4SXbJHqY+uLxBsT4q5RSBpBGJekX0vSG5X
QbnoLdM83FEabRJ0f7jvDGj0FRvNg/ax/QsOS8hna+leoHivs0DF4GrISHWRqv4a
zflVwm4xCT1y3jSUJkORRSMOnAWNimNE1L3wPrG03GNQZHggMiE8jOIRfOfrde4v
rCOfWLa1nhmWps3epHl00hNTDQHhQkMDI1XzkNofYKrft82/DkEoWGbD6HGXXcaL
5o5DZ2gmX+G5VpY8nMlzD+lT6VeNznYZSAglWttLr4i6LUXzD6O91RiTCgaD8fkB
HngcJoSaraAX4yyObvkCxgCXck3CYrY8rIZsFM8pcmDFDg7SNbHAokAOdS+HPH/I
JZV4s9WOsw==
-----END CERTIFICATE-----
