Certificate:
    Data:
        Version: 1 (0x0)
        Serial Number: 562 (0x232)
    Signature Algorithm: sha256WithRSAEncryption
        Issuer: C=fr, ST=idf, L=paris, O=vitam, OU=authorities, CN=ca_intermediate_server
        Validity
            Not Before: May 29 15:37:50 2020 GMT
            Not After : May 29 15:37:50 2023 GMT
        Subject: C=fr, ST=idf, L=paris, O=vitam, CN=reverse.service.
        Subject Public Key Info:
            Public Key Algorithm: rsaEncryption
                Public-Key: (4096 bit)
                Modulus:
                    00:bc:78:3c:e0:fe:88:64:38:27:aa:e5:4d:23:71:
                    b9:60:f0:51:c5:f9:3b:7b:3d:36:08:cd:f8:54:da:
                    88:95:ba:01:6d:22:83:da:45:ef:a0:97:73:54:dd:
                    44:21:31:5b:aa:46:b7:99:63:bc:bc:e5:a5:c0:07:
                    7b:ba:84:c0:73:49:be:fe:d1:3b:45:2e:1b:5f:32:
                    9e:54:b0:a5:18:fa:d9:a1:cc:37:fb:14:3a:0e:a9:
                    dc:6f:f5:d9:81:5b:fe:c8:f9:21:7a:fa:b9:86:c8:
                    4e:89:fb:d9:a4:e0:bf:1f:4a:09:f1:09:b7:ee:07:
                    23:44:2d:41:9e:6d:5e:a6:09:bc:97:1b:8f:7f:38:
                    11:bd:c0:a2:cc:2a:2c:18:ae:d4:fa:ea:e2:d1:ae:
                    5b:47:b8:27:59:21:35:4c:16:53:e2:ae:83:53:b7:
                    47:7f:db:6c:79:2b:9e:2b:07:d1:6f:1e:72:48:79:
                    69:ff:98:37:07:88:b9:bc:96:7d:2c:95:0d:cd:c6:
                    86:20:bd:a5:77:c0:9d:42:ed:77:50:22:77:fe:11:
                    23:70:78:de:90:fc:df:f2:be:7c:db:ed:7e:15:0a:
                    94:54:9a:42:77:a3:0a:90:64:1f:bf:0b:62:f2:7b:
                    e5:e0:35:79:6d:a3:6a:0c:67:fb:28:53:cf:a1:61:
                    5c:fd:0d:77:1a:3a:b7:88:e3:d2:a6:bb:f1:9e:e6:
                    f8:11:9a:92:b6:fb:78:df:2c:82:48:4b:13:a4:ad:
                    ff:46:c5:53:d7:a0:9d:66:68:be:24:1c:7f:82:61:
                    1b:3f:92:75:2d:e0:f6:d4:bc:96:9b:c5:58:64:7a:
                    24:fc:93:35:9d:b2:df:83:23:ea:eb:6e:59:d1:ed:
                    0f:f7:70:79:32:02:b0:33:7c:61:73:10:30:13:90:
                    53:44:fe:80:24:40:cd:0c:e1:e7:31:4d:b5:e3:12:
                    2f:36:ef:30:cf:9a:40:37:4d:f3:e1:2f:06:91:79:
                    e3:6c:09:bc:43:eb:e1:87:6b:49:e6:aa:77:c9:ab:
                    94:bd:d4:54:62:4a:11:43:07:84:c6:8a:e7:43:91:
                    d5:0a:c4:a7:1c:41:82:d6:ec:4e:ad:74:89:c3:74:
                    93:a1:06:43:f6:6b:df:e8:95:c8:51:49:90:d2:0b:
                    39:05:7b:21:66:f8:fd:c8:76:b3:be:2c:90:06:85:
                    d5:bf:51:72:09:fc:58:f7:3d:9e:9d:38:26:18:02:
                    b6:75:d4:a2:d8:31:0c:91:ba:94:e9:34:6f:e6:d5:
                    26:91:08:0f:36:38:21:e2:af:b2:99:89:07:d4:49:
                    8a:c6:37:2d:05:b0:a5:c6:b7:92:5d:d1:95:18:73:
                    ea:2b:2b
                Exponent: 65537 (0x10001)
    Signature Algorithm: sha256WithRSAEncryption
         2d:df:cd:aa:f9:c2:7b:12:04:7c:87:99:74:fb:be:dd:47:0d:
         3b:ea:2b:9e:1f:0f:df:a5:46:1b:e5:a3:61:ec:86:64:51:7d:
         ae:11:e7:98:d4:44:2e:95:f0:63:47:67:22:26:e7:68:27:a4:
         d6:a8:ae:ca:f2:92:f0:63:8f:3a:c9:70:72:ce:2e:50:7d:2d:
         89:82:20:db:0c:52:78:52:ca:cd:f8:03:16:cb:a9:6e:48:4a:
         f7:d2:14:61:8b:7d:e9:6c:2e:9c:ae:c7:d7:d1:84:6a:5e:84:
         34:0d:6a:86:ba:3e:d4:4d:e2:8e:ad:81:17:15:7d:3e:ed:38:
         d4:c4:18:59:de:58:4e:87:b9:99:58:ca:29:4b:86:57:09:3a:
         69:27:0b:5e:b5:8c:00:7f:04:9a:8d:9d:f6:b4:10:3d:e9:7f:
         69:0f:ee:6a:49:c5:f2:7c:92:3a:da:98:ac:1c:43:94:c9:08:
         35:56:85:04:25:e5:4a:6f:bd:2d:7c:b7:b7:ff:78:c3:28:b0:
         b8:1d:74:95:4d:f0:88:b8:a2:ff:dc:62:63:93:ed:17:cd:92:
         2b:db:82:64:07:dc:7f:76:e7:1a:f3:b8:d1:2c:5f:47:b0:60:
         da:3e:7a:77:be:1f:88:39:5a:fe:6e:cc:20:b6:85:c7:42:0e:
         35:44:36:34:93:77:bf:c4:0a:ff:c2:ed:16:2c:a6:c1:5a:cc:
         83:15:66:55:85:f4:ee:2b:b9:10:cd:fc:ac:f4:aa:35:c3:a4:
         ba:eb:ac:f5:e6:c8:c8:54:67:df:62:f8:13:7b:27:1e:c7:b3:
         e0:dd:eb:b8:df:bc:f7:5b:5f:e4:aa:7a:f1:f5:72:fe:44:c8:
         ba:e7:ff:19:d6:70:c7:0e:75:53:fb:e5:b4:58:f3:d5:b7:72:
         71:af:62:ba:e4:ac:2c:ce:94:f8:a0:cf:f0:93:3f:81:16:e6:
         11:ce:e6:42:c0:40:72:60:f5:54:5b:a0:40:81:25:5c:32:91:
         d9:84:1f:b9:ae:66:9b:47:91:97:f3:f9:ce:71:1b:4b:c5:76:
         16:dd:6b:07:9e:e8:dc:49:0f:02:e8:07:fe:eb:e2:2e:f2:99:
         e5:db:0b:9c:49:2f:4a:0d:0e:a1:9d:8f:27:04:4c:02:e9:a7:
         ab:78:cb:03:15:67:07:1d:c8:76:6b:c4:84:19:eb:b9:67:68:
         ec:2e:ac:e2:20:df:f4:fb:48:74:fa:2f:f6:0b:52:74:59:c7:
         36:f3:12:eb:c6:b8:c0:25:1f:86:84:a3:ff:4a:1a:95:23:84:
         5c:76:81:cd:eb:30:7d:12:d1:fb:1f:64:6b:27:ad:48:b8:5b:
         4f:02:c4:4b:15:72:5c:a2
-----BEGIN CERTIFICATE-----
MIIFPTCCAyUCAgIyMA0GCSqGSIb3DQEBCwUAMHIxCzAJBgNVBAYTAmZyMQwwCgYD
VQQIDANpZGYxDjAMBgNVBAcMBXBhcmlzMQ4wDAYDVQQKDAV2aXRhbTEUMBIGA1UE
CwwLYXV0aG9yaXRpZXMxHzAdBgNVBAMMFmNhX2ludGVybWVkaWF0ZV9zZXJ2ZXIw
HhcNMjAwNTI5MTUzNzUwWhcNMjMwNTI5MTUzNzUwWjBWMQswCQYDVQQGEwJmcjEM
MAoGA1UECAwDaWRmMQ4wDAYDVQQHDAVwYXJpczEOMAwGA1UECgwFdml0YW0xGTAX
BgNVBAMMEHJldmVyc2Uuc2VydmljZS4wggIiMA0GCSqGSIb3DQEBAQUAA4ICDwAw
ggIKAoICAQC8eDzg/ohkOCeq5U0jcblg8FHF+Tt7PTYIzfhU2oiVugFtIoPaRe+g
l3NU3UQhMVuqRreZY7y85aXAB3u6hMBzSb7+0TtFLhtfMp5UsKUY+tmhzDf7FDoO
qdxv9dmBW/7I+SF6+rmGyE6J+9mk4L8fSgnxCbfuByNELUGebV6mCbyXG49/OBG9
wKLMKiwYrtT66uLRrltHuCdZITVMFlPiroNTt0d/22x5K54rB9FvHnJIeWn/mDcH
iLm8ln0slQ3NxoYgvaV3wJ1C7XdQInf+ESNweN6Q/N/yvnzb7X4VCpRUmkJ3owqQ
ZB+/C2Lye+XgNXlto2oMZ/soU8+hYVz9DXcaOreI49Kmu/Ge5vgRmpK2+3jfLIJI
SxOkrf9GxVPXoJ1maL4kHH+CYRs/knUt4PbUvJabxVhkeiT8kzWdst+DI+rrblnR
7Q/3cHkyArAzfGFzEDATkFNE/oAkQM0M4ecxTbXjEi827zDPmkA3TfPhLwaReeNs
CbxD6+GHa0nmqnfJq5S91FRiShFDB4TGiudDkdUKxKccQYLW7E6tdInDdJOhBkP2
a9/olchRSZDSCzkFeyFm+P3IdrO+LJAGhdW/UXIJ/Fj3PZ6dOCYYArZ11KLYMQyR
upTpNG/m1SaRCA82OCHir7KZiQfUSYrGNy0FsKXGt5Jd0ZUYc+orKwIDAQABMA0G
CSqGSIb3DQEBCwUAA4ICAQAt382q+cJ7EgR8h5l0+77dRw076iueHw/fpUYb5aNh
7IZkUX2uEeeY1EQulfBjR2ciJudoJ6TWqK7K8pLwY486yXByzi5QfS2JgiDbDFJ4
UsrN+AMWy6luSEr30hRhi33pbC6crsfX0YRqXoQ0DWqGuj7UTeKOrYEXFX0+7TjU
xBhZ3lhOh7mZWMopS4ZXCTppJwtetYwAfwSajZ32tBA96X9pD+5qScXyfJI62pis
HEOUyQg1VoUEJeVKb70tfLe3/3jDKLC4HXSVTfCIuKL/3GJjk+0XzZIr24JkB9x/
duca87jRLF9HsGDaPnp3vh+IOVr+bswgtoXHQg41RDY0k3e/xAr/wu0WLKbBWsyD
FWZVhfTuK7kQzfys9Ko1w6S666z15sjIVGffYvgTeycex7Pg3eu437z3W1/kqnrx
9XL+RMi65/8Z1nDHDnVT++W0WPPVt3Jxr2K65KwszpT4oM/wkz+BFuYRzuZCwEBy
YPVUW6BAgSVcMpHZhB+5rmabR5GX8/nOcRtLxXYW3WsHnujcSQ8C6Af+6+Iu8pnl
2wucSS9KDQ6hnY8nBEwC6aereMsDFWcHHch2a8SEGeu5Z2jsLqziIN/0+0h0+i/2
C1J0Wcc28xLrxrjAJR+GhKP/ShqVI4RcdoHN6zB9EtH7H2RrJ61IuFtPAsRLFXJc
og==
-----END CERTIFICATE-----
