Certificate:
    Data:
        Version: 1 (0x0)
        Serial Number: 515 (0x203)
    Signature Algorithm: sha256WithRSAEncryption
        Issuer: C=fr, ST=idf, L=paris, O=vitam, OU=authorities, CN=ca_intermediate_server
        Validity
            Not Before: Dec 19 12:45:55 2019 GMT
            Not After : Dec 18 12:45:55 2022 GMT
        Subject: C=fr, ST=idf, L=paris, O=vitam, CN=security-internal.service.consul
        Subject Public Key Info:
            Public Key Algorithm: rsaEncryption
                Public-Key: (4096 bit)
                Modulus:
                    00:aa:c3:f1:9c:ac:1d:fa:45:30:b5:03:57:5c:6e:
                    ac:bf:80:af:05:cc:1b:4d:8c:a5:07:4d:cb:88:00:
                    5f:2c:c6:78:c8:a3:8d:95:98:1c:bf:c5:73:59:4c:
                    2d:a8:b4:83:88:fa:02:46:de:a2:54:39:42:0b:d8:
                    e2:f4:38:df:81:45:bc:6b:09:65:8f:11:3d:43:90:
                    87:b6:35:4b:bc:8d:f1:ac:30:50:f6:a4:c6:e9:90:
                    57:cd:0d:7e:89:d6:22:cd:98:44:5f:88:9b:93:61:
                    43:e6:4c:48:16:4e:9e:68:df:2b:69:43:dc:15:30:
                    0e:74:d5:11:7e:f6:b7:a2:35:c4:a3:b0:e6:9c:9a:
                    83:da:cd:24:ab:0f:2f:7d:71:f4:45:1b:69:49:16:
                    d4:c1:ae:d5:18:11:af:28:c7:a4:8b:71:2a:3b:13:
                    86:26:a1:15:b2:ba:32:f3:a5:1d:e4:98:40:29:9f:
                    d5:c7:92:34:80:4c:cb:68:29:aa:6b:f6:7a:7b:3a:
                    12:fc:89:9b:00:b0:20:23:3a:3a:23:65:48:1c:0e:
                    4f:97:ed:d0:9a:c5:fb:1d:63:3a:08:b6:e9:d6:ff:
                    aa:1d:90:0b:3d:ae:a7:fc:d9:27:5e:fb:98:dd:eb:
                    ee:13:33:db:35:c7:a3:e1:40:07:19:6d:f4:61:c2:
                    03:a7:76:28:3c:2e:f5:8a:da:1d:3d:85:72:46:6e:
                    00:0c:21:96:2d:75:0f:e1:4b:18:72:ed:f6:30:c1:
                    02:27:b6:6c:d0:7b:29:08:51:22:35:89:b3:2d:d6:
                    bd:b9:f8:bc:d1:2b:f8:1a:a3:ac:2b:1b:36:59:b4:
                    00:a8:31:cc:81:33:a2:59:91:47:30:6c:74:e0:73:
                    6e:07:4a:4c:2b:42:07:e5:9c:b6:7b:76:64:3f:d1:
                    d6:b0:81:f9:17:ce:8f:7f:72:ac:bd:45:e7:a5:d7:
                    bf:b5:aa:fb:7f:37:89:4e:94:54:a3:92:c0:7d:48:
                    9f:d7:54:ef:5c:7d:75:88:c8:41:19:e7:0a:a3:3b:
                    8c:23:93:7b:06:b7:92:8c:9d:fe:e7:8b:fb:8c:0c:
                    ae:b5:c0:2c:09:dd:01:f7:18:f9:c3:29:dd:88:16:
                    97:ba:c0:a1:69:78:f8:b9:1b:4f:d0:cd:c3:ed:50:
                    bd:2c:43:0e:18:31:c4:3b:b4:b5:fc:99:7a:8a:5c:
                    db:3e:29:ef:f8:10:d7:06:a9:ec:58:a7:f7:c5:0e:
                    56:9f:37:ab:7f:9b:1d:b2:6e:36:ef:17:d6:ac:76:
                    65:1a:8d:34:5e:73:a8:e8:f3:d0:af:61:3f:68:35:
                    1a:ab:e2:70:9b:fd:a3:61:f9:ef:fe:17:b7:38:a7:
                    91:9a:c5
                Exponent: 65537 (0x10001)
    Signature Algorithm: sha256WithRSAEncryption
         1c:8d:7e:c5:63:a6:c2:40:bb:62:e9:97:df:6f:ef:42:8a:c1:
         11:db:a8:35:91:f7:b9:41:34:1d:f4:9c:35:5b:20:37:c9:ce:
         93:97:70:20:b6:9c:f6:01:f4:03:17:3d:1c:4a:89:dd:75:45:
         50:15:4c:8b:a9:86:7b:f1:64:dd:ef:67:54:c5:b2:1d:d8:06:
         e5:92:86:62:c1:0a:4a:13:5d:fe:51:28:24:36:fa:fd:c0:70:
         ed:98:dd:80:7a:2b:57:dc:58:d5:54:ce:fb:e5:bb:22:f9:63:
         d1:0a:5d:af:5e:ff:ab:b4:6b:0d:a7:38:e8:86:0e:c4:ea:f6:
         80:1f:b3:c0:41:9b:b4:a4:b9:de:70:17:50:15:8e:5b:5d:ab:
         92:9f:24:23:ab:4d:d2:3e:77:2a:d4:80:ff:a0:0a:20:6f:a0:
         32:72:bb:de:56:99:d7:53:6c:b2:4b:9a:61:2c:b0:d2:ab:30:
         99:99:5c:d3:5d:64:26:0c:09:89:f3:e3:fb:fa:2e:7d:aa:88:
         2b:81:0c:ec:ca:b8:52:b0:ce:7a:f5:a1:f2:e9:ad:7e:bb:38:
         b6:d6:1d:f8:63:71:ed:c1:53:b5:d1:e4:f7:1e:11:28:a5:f0:
         2e:c5:f9:bc:a7:f7:f9:a3:99:96:3d:c2:5c:77:1a:01:ec:75:
         7a:02:0a:2b:64:b9:92:e6:6a:88:93:34:ef:2c:c0:87:ac:53:
         4d:9b:80:57:0b:79:b5:cf:b3:53:33:b5:c5:57:67:79:9e:3f:
         44:08:5b:df:8f:10:5b:a0:36:12:d8:df:d1:18:57:68:a8:92:
         bf:21:d1:11:3d:d4:e4:01:37:26:7c:00:ad:14:9d:1b:d5:13:
         33:88:0f:20:b1:b1:d2:2b:ba:d0:95:4f:65:65:c0:69:34:a9:
         86:ea:cd:c7:e2:09:80:20:cd:23:22:11:f1:40:ae:ff:8a:06:
         40:ea:b3:c5:e4:fb:94:9b:4b:b0:fb:74:9f:45:b6:ad:30:fb:
         9b:45:47:bc:be:2d:02:d2:24:5a:37:1b:6c:bd:21:30:96:a5:
         ab:28:db:5e:00:6c:db:f8:d8:d4:c4:fb:59:ed:6c:d5:5e:11:
         de:9d:61:d9:ba:dd:59:0e:f1:8c:e6:9c:3e:4f:7b:a3:02:57:
         ac:fa:fa:92:c6:79:79:e4:08:42:7e:1e:99:ea:fa:e7:2f:54:
         21:06:f3:63:f3:cc:6b:a8:45:c8:df:51:95:d9:ea:c2:e7:5f:
         57:cd:fe:64:db:74:dd:80:e0:4f:37:5a:41:61:c2:40:34:7a:
         9c:88:44:24:7e:77:33:f4:56:29:a0:bf:bb:9a:4d:97:c2:58:
         2c:2c:23:46:d1:6c:c5:f7
-----BEGIN CERTIFICATE-----
MIIFTTCCAzUCAgIDMA0GCSqGSIb3DQEBCwUAMHIxCzAJBgNVBAYTAmZyMQwwCgYD
VQQIDANpZGYxDjAMBgNVBAcMBXBhcmlzMQ4wDAYDVQQKDAV2aXRhbTEUMBIGA1UE
CwwLYXV0aG9yaXRpZXMxHzAdBgNVBAMMFmNhX2ludGVybWVkaWF0ZV9zZXJ2ZXIw
HhcNMTkxMjE5MTI0NTU1WhcNMjIxMjE4MTI0NTU1WjBmMQswCQYDVQQGEwJmcjEM
MAoGA1UECAwDaWRmMQ4wDAYDVQQHDAVwYXJpczEOMAwGA1UECgwFdml0YW0xKTAn
BgNVBAMMIHNlY3VyaXR5LWludGVybmFsLnNlcnZpY2UuY29uc3VsMIICIjANBgkq
hkiG9w0BAQEFAAOCAg8AMIICCgKCAgEAqsPxnKwd+kUwtQNXXG6sv4CvBcwbTYyl
B03LiABfLMZ4yKONlZgcv8VzWUwtqLSDiPoCRt6iVDlCC9ji9DjfgUW8awlljxE9
Q5CHtjVLvI3xrDBQ9qTG6ZBXzQ1+idYizZhEX4ibk2FD5kxIFk6eaN8raUPcFTAO
dNURfva3ojXEo7DmnJqD2s0kqw8vfXH0RRtpSRbUwa7VGBGvKMeki3EqOxOGJqEV
sroy86Ud5JhAKZ/Vx5I0gEzLaCmqa/Z6ezoS/ImbALAgIzo6I2VIHA5Pl+3QmsX7
HWM6CLbp1v+qHZALPa6n/NknXvuY3evuEzPbNcej4UAHGW30YcIDp3YoPC71itod
PYVyRm4ADCGWLXUP4UsYcu32MMECJ7Zs0HspCFEiNYmzLda9ufi80Sv4GqOsKxs2
WbQAqDHMgTOiWZFHMGx04HNuB0pMK0IH5Zy2e3ZkP9HWsIH5F86Pf3KsvUXnpde/
tar7fzeJTpRUo5LAfUif11TvXH11iMhBGecKozuMI5N7BreSjJ3+54v7jAyutcAs
Cd0B9xj5wyndiBaXusChaXj4uRtP0M3D7VC9LEMOGDHEO7S1/Jl6ilzbPinv+BDX
BqnsWKf3xQ5Wnzerf5sdsm427xfWrHZlGo00XnOo6PPQr2E/aDUaq+Jwm/2jYfnv
/he3OKeRmsUCAwEAATANBgkqhkiG9w0BAQsFAAOCAgEAHI1+xWOmwkC7YumX32/v
QorBEduoNZH3uUE0HfScNVsgN8nOk5dwILac9gH0Axc9HEqJ3XVFUBVMi6mGe/Fk
3e9nVMWyHdgG5ZKGYsEKShNd/lEoJDb6/cBw7ZjdgHorV9xY1VTO++W7Ivlj0Qpd
r17/q7RrDac46IYOxOr2gB+zwEGbtKS53nAXUBWOW12rkp8kI6tN0j53KtSA/6AK
IG+gMnK73laZ11NsskuaYSyw0qswmZlc011kJgwJifPj+/oufaqIK4EM7Mq4UrDO
evWh8umtfrs4ttYd+GNx7cFTtdHk9x4RKKXwLsX5vKf3+aOZlj3CXHcaAex1egIK
K2S5kuZqiJM07yzAh6xTTZuAVwt5tc+zUzO1xVdneZ4/RAhb348QW6A2Etjf0RhX
aKiSvyHRET3U5AE3JnwArRSdG9UTM4gPILGx0iu60JVPZWXAaTSphurNx+IJgCDN
IyIR8UCu/4oGQOqzxeT7lJtLsPt0n0W2rTD7m0VHvL4tAtIkWjcbbL0hMJalqyjb
XgBs2/jY1MT7We1s1V4R3p1h2brdWQ7xjOacPk97owJXrPr6ksZ5eeQIQn4emer6
5y9UIQbzY/PMa6hFyN9RldnqwudfV83+ZNt03YDgTzdaQWHCQDR6nIhEJH53M/RW
KaC/u5pNl8JYLCwjRtFsxfc=
-----END CERTIFICATE-----
