Certificate:
    Data:
        Version: 1 (0x0)
        Serial Number: 520 (0x208)
    Signature Algorithm: sha256WithRSAEncryption
        Issuer: C=fr, ST=idf, L=paris, O=vitam, OU=authorities, CN=ca_intermediate_server
        Validity
            Not Before: Dec 19 12:46:07 2019 GMT
            Not After : Dec 18 12:46:07 2022 GMT
        Subject: C=fr, ST=idf, L=paris, O=vitam, CN=ui-identity-admin.service.consul
        Subject Public Key Info:
            Public Key Algorithm: rsaEncryption
                Public-Key: (4096 bit)
                Modulus:
                    00:bd:38:cd:99:95:82:89:d4:79:26:ce:41:63:c5:
                    c9:61:bb:0c:04:81:05:90:4a:c2:71:e9:02:30:6b:
                    dc:00:5e:24:a9:79:c9:01:53:da:a5:62:9c:20:7f:
                    d7:c8:0e:ef:34:b3:99:f3:7d:72:b9:c4:27:25:9e:
                    b6:9b:99:63:4b:a1:61:38:db:02:07:bc:37:70:cf:
                    eb:9c:47:4f:e7:22:49:05:b4:49:90:50:4f:67:e2:
                    74:9a:b9:50:5a:7d:ac:a3:a4:2a:ea:58:dc:bc:03:
                    a6:e2:e8:03:2e:78:63:03:95:ff:5d:82:eb:88:57:
                    8f:11:d9:5d:7a:23:63:55:f7:b5:34:ef:8c:89:b6:
                    ec:20:82:b2:2b:6f:ab:9d:21:01:cc:58:7a:45:fd:
                    ed:bc:4f:b5:be:6c:1a:eb:4c:bc:1b:61:df:d6:c9:
                    b4:6c:45:b1:3a:64:83:1f:e3:76:c5:19:24:a1:99:
                    dc:2e:5a:e9:3c:19:42:c4:f6:77:5f:88:e7:fc:7c:
                    a5:fe:19:46:d3:76:c0:6a:d5:29:25:9d:1f:69:c3:
                    82:64:14:7b:80:c5:18:69:11:00:2c:d6:37:3f:ec:
                    cb:17:fd:98:53:2b:23:ff:ac:68:b0:2a:83:c2:74:
                    72:99:39:ed:6b:1e:27:90:4c:4f:de:70:62:53:a7:
                    43:2a:71:46:51:21:90:8a:38:3b:9a:05:c4:97:f1:
                    a7:54:62:b5:8d:c0:d3:53:be:6c:f6:4b:f7:e7:fe:
                    60:3c:34:ff:02:bc:7c:2d:8c:dd:0a:ed:21:99:c3:
                    94:6f:c2:25:4c:25:be:b0:d3:bd:c5:40:7b:90:53:
                    d0:de:8f:2c:57:2c:05:46:1d:15:b4:21:b8:0e:1c:
                    55:ab:e2:85:63:29:de:28:ae:62:b9:97:1b:ff:02:
                    bd:66:e5:d8:26:eb:3e:8b:f3:70:b4:20:66:3b:30:
                    12:a6:44:44:7a:29:3c:b9:86:49:46:9a:88:bc:f7:
                    8f:22:fa:c8:a7:b3:f1:07:23:7b:9b:a8:0e:5f:0c:
                    b0:e3:26:27:3b:3b:de:86:cb:94:2d:dd:fb:79:a8:
                    ec:4e:44:67:6a:55:4b:1b:26:74:48:ac:ec:68:8c:
                    ec:5c:7d:b0:a5:40:80:b5:ca:8f:8e:73:a0:04:32:
                    46:d9:ad:54:fb:9b:3b:9c:e6:a4:8f:02:b4:4b:38:
                    3e:f3:b6:98:43:97:8b:6c:08:8a:18:bf:38:48:d9:
                    41:a8:68:08:35:52:8e:01:3f:bc:5e:ea:65:0a:4f:
                    87:60:a3:bd:bb:05:fa:1d:57:5b:f5:59:3f:4a:17:
                    5b:ed:5a:e3:5b:87:2f:78:77:31:3d:69:27:9b:85:
                    83:52:51
                Exponent: 65537 (0x10001)
    Signature Algorithm: sha256WithRSAEncryption
         a0:80:89:cf:bb:ba:18:b7:be:b1:31:cb:92:71:cc:c1:48:e7:
         72:da:15:8d:56:9e:86:06:a8:bc:4c:db:c8:b8:2c:5e:85:f4:
         88:67:8f:a8:2c:d2:fc:eb:dd:8c:c5:59:9f:cc:ab:71:3f:f8:
         63:1a:27:02:55:d9:0c:7d:95:62:94:4a:4c:d7:e9:ef:3c:eb:
         f1:f3:e1:93:dd:8b:b2:78:ba:8d:28:a6:5f:0d:16:8a:73:30:
         41:b7:2c:37:21:bc:80:3a:21:63:11:ca:6f:4e:6d:1d:73:2a:
         04:ab:cc:9e:e5:58:b0:af:da:79:e4:53:61:6c:11:58:d6:aa:
         c7:26:db:7e:97:86:6d:2e:f8:ef:01:5b:68:cd:a4:be:4c:66:
         f0:19:22:31:14:20:22:dd:77:9f:2b:a5:82:ba:fd:52:82:06:
         d7:c1:e6:31:19:a5:a6:da:f0:e2:fc:6e:b8:12:88:a7:f6:62:
         a3:86:2c:31:6e:e4:3a:e5:a7:49:bd:95:c8:a4:ad:a8:36:60:
         94:23:e1:dc:19:32:f9:9a:79:24:6e:fb:32:5a:b4:5d:34:b8:
         c9:34:eb:7c:66:f6:58:11:7d:4b:1d:b5:54:bd:10:70:03:b7:
         97:99:d0:08:01:3a:9f:bf:b8:d4:7c:51:fe:86:fc:a0:41:c2:
         1d:fd:7c:18:a4:1d:db:1a:6c:14:19:cb:89:f1:10:81:75:7b:
         43:5a:9a:e2:e5:27:48:e9:45:4c:8c:e9:42:e9:9b:c3:a4:35:
         fa:95:6f:6f:ba:0f:82:de:3a:3f:a8:c5:cf:b3:37:54:c0:b0:
         1f:04:a1:43:3d:1b:f3:15:f8:1c:bb:b3:70:a3:d0:0e:1d:61:
         71:d5:22:94:f6:8b:78:fe:dc:46:39:e5:06:c5:2f:9d:8b:b0:
         64:9e:88:e5:da:9a:2e:e4:09:c7:b0:a6:91:95:2c:06:e8:20:
         3a:e3:7c:62:34:f9:28:df:55:4c:99:4c:52:63:c7:c0:c6:e4:
         26:bd:8e:21:28:ae:53:a8:4f:6f:f5:32:1b:d3:39:03:d9:3a:
         f6:1b:27:dc:4c:37:a0:bc:60:29:69:e8:41:0a:21:a4:f3:d0:
         87:f8:88:23:f6:48:f9:01:9e:d3:90:fe:35:51:ba:7b:67:aa:
         39:97:17:4b:dd:53:d3:57:90:54:b7:2c:55:1c:f3:db:ee:da:
         1e:f0:bc:c0:d2:e8:cf:9b:51:1d:9a:b1:2d:99:f6:c0:97:59:
         12:26:48:3d:96:3b:6c:c9:a4:be:e0:e9:27:34:94:03:93:b3:
         7c:35:7e:f7:d0:2e:af:8a:2c:d2:e8:c1:ca:09:9c:ab:6d:1d:
         8b:ad:5c:fe:bd:f3:bb:b8
-----BEGIN CERTIFICATE-----
MIIFTTCCAzUCAgIIMA0GCSqGSIb3DQEBCwUAMHIxCzAJBgNVBAYTAmZyMQwwCgYD
VQQIDANpZGYxDjAMBgNVBAcMBXBhcmlzMQ4wDAYDVQQKDAV2aXRhbTEUMBIGA1UE
CwwLYXV0aG9yaXRpZXMxHzAdBgNVBAMMFmNhX2ludGVybWVkaWF0ZV9zZXJ2ZXIw
HhcNMTkxMjE5MTI0NjA3WhcNMjIxMjE4MTI0NjA3WjBmMQswCQYDVQQGEwJmcjEM
MAoGA1UECAwDaWRmMQ4wDAYDVQQHDAVwYXJpczEOMAwGA1UECgwFdml0YW0xKTAn
BgNVBAMMIHVpLWlkZW50aXR5LWFkbWluLnNlcnZpY2UuY29uc3VsMIICIjANBgkq
hkiG9w0BAQEFAAOCAg8AMIICCgKCAgEAvTjNmZWCidR5Js5BY8XJYbsMBIEFkErC
cekCMGvcAF4kqXnJAVPapWKcIH/XyA7vNLOZ831yucQnJZ62m5ljS6FhONsCB7w3
cM/rnEdP5yJJBbRJkFBPZ+J0mrlQWn2so6Qq6ljcvAOm4ugDLnhjA5X/XYLriFeP
EdldeiNjVfe1NO+MibbsIIKyK2+rnSEBzFh6Rf3tvE+1vmwa60y8G2Hf1sm0bEWx
OmSDH+N2xRkkoZncLlrpPBlCxPZ3X4jn/Hyl/hlG03bAatUpJZ0facOCZBR7gMUY
aREALNY3P+zLF/2YUysj/6xosCqDwnRymTntax4nkExP3nBiU6dDKnFGUSGQijg7
mgXEl/GnVGK1jcDTU75s9kv35/5gPDT/Arx8LYzdCu0hmcOUb8IlTCW+sNO9xUB7
kFPQ3o8sVywFRh0VtCG4DhxVq+KFYyneKK5iuZcb/wK9ZuXYJus+i/NwtCBmOzAS
pkREeik8uYZJRpqIvPePIvrIp7PxByN7m6gOXwyw4yYnOzvehsuULd37eajsTkRn
alVLGyZ0SKzsaIzsXH2wpUCAtcqPjnOgBDJG2a1U+5s7nOakjwK0Szg+87aYQ5eL
bAiKGL84SNlBqGgINVKOAT+8XuplCk+HYKO9uwX6HVdb9Vk/Shdb7VrjW4cveHcx
PWknm4WDUlECAwEAATANBgkqhkiG9w0BAQsFAAOCAgEAoICJz7u6GLe+sTHLknHM
wUjnctoVjVaehgaovEzbyLgsXoX0iGePqCzS/OvdjMVZn8yrcT/4YxonAlXZDH2V
YpRKTNfp7zzr8fPhk92Lsni6jSimXw0WinMwQbcsNyG8gDohYxHKb05tHXMqBKvM
nuVYsK/aeeRTYWwRWNaqxybbfpeGbS747wFbaM2kvkxm8BkiMRQgIt13nyulgrr9
UoIG18HmMRmlptrw4vxuuBKIp/Zio4YsMW7kOuWnSb2VyKStqDZglCPh3Bky+Zp5
JG77Mlq0XTS4yTTrfGb2WBF9Sx21VL0QcAO3l5nQCAE6n7+41HxR/ob8oEHCHf18
GKQd2xpsFBnLifEQgXV7Q1qa4uUnSOlFTIzpQumbw6Q1+pVvb7oPgt46P6jFz7M3
VMCwHwShQz0b8xX4HLuzcKPQDh1hcdUilPaLeP7cRjnlBsUvnYuwZJ6I5dqaLuQJ
x7CmkZUsBuggOuN8YjT5KN9VTJlMUmPHwMbkJr2OISiuU6hPb/UyG9M5A9k69hsn
3Ew3oLxgKWnoQQohpPPQh/iII/ZI+QGe05D+NVG6e2eqOZcXS91T01eQVLcsVRzz
2+7aHvC8wNLoz5tRHZqxLZn2wJdZEiZIPZY7bMmkvuDpJzSUA5OzfDV+99Aur4os
0ujBygmcq20di61c/r3zu7g=
-----END CERTIFICATE-----
