Certificate:
    Data:
        Version: 1 (0x0)
        Serial Number: 561 (0x231)
    Signature Algorithm: sha256WithRSAEncryption
        Issuer: C=fr, ST=idf, L=paris, O=vitam, OU=authorities, CN=ca_intermediate_server
        Validity
            Not Before: May 29 15:37:40 2020 GMT
            Not After : May 29 15:37:40 2023 GMT
        Subject: C=fr, ST=idf, L=paris, O=vitam, CN=ui-ingest.service.
        Subject Public Key Info:
            Public Key Algorithm: rsaEncryption
                Public-Key: (4096 bit)
                Modulus:
                    00:d2:3c:4e:24:44:47:8a:73:44:9a:21:91:b9:84:
                    a0:96:e1:38:41:52:e8:4f:34:74:c7:f1:08:cb:09:
                    74:ab:8e:0a:cf:2f:f0:8c:59:1d:06:51:4b:49:52:
                    fa:d7:14:5c:47:53:e5:09:4c:18:bc:e6:b9:64:9b:
                    94:6d:75:46:9c:9c:4b:18:d0:9a:10:95:0d:a7:f9:
                    fa:33:92:a8:0c:7b:7e:8b:d9:5f:5c:f4:55:fe:61:
                    ba:38:f3:63:56:f9:1d:97:d5:d4:f9:7a:19:67:6a:
                    99:2c:70:f8:cf:cc:e7:1e:43:46:6c:d1:d0:71:15:
                    5f:fe:b7:ff:07:f7:dd:5f:46:62:9f:ec:03:be:12:
                    c9:13:72:80:50:85:2d:a6:8a:a5:58:4a:68:02:e1:
                    cf:b8:c6:24:b0:73:8f:54:cb:10:85:62:fd:2d:5d:
                    ab:fd:db:91:59:86:b4:2a:fd:92:b8:8a:f8:f7:41:
                    48:31:9b:e4:91:95:d8:a0:3a:f3:e4:4d:61:15:4b:
                    f4:19:e6:35:ec:db:7a:54:4d:2a:1f:e5:c7:23:ee:
                    0f:6d:b6:6e:60:24:09:ec:d2:c5:d3:1a:11:f1:65:
                    1b:89:3b:d7:a2:f5:15:d5:97:6d:f5:dc:7a:39:17:
                    e8:3e:0b:95:f2:d0:cb:9d:1f:ff:4a:96:0f:1e:77:
                    51:82:ca:35:4a:b8:8a:e1:90:87:f6:45:8e:bc:22:
                    c1:23:ad:0b:58:86:92:3c:f5:81:7d:46:3c:c2:5a:
                    70:fd:52:d6:11:ef:49:0e:45:b0:a7:8d:ab:49:95:
                    8c:68:f5:27:72:82:7e:b5:a6:b5:3d:79:63:5e:3f:
                    71:83:9c:c9:a6:be:a5:92:a4:48:79:26:36:4b:02:
                    36:4e:10:6d:23:6f:be:e2:2d:5e:d4:2d:53:20:92:
                    34:6d:36:7d:50:de:91:91:11:66:50:b9:e5:68:95:
                    46:1d:72:54:f1:43:2c:2b:62:65:a4:44:86:9f:72:
                    a9:ca:3e:6b:4f:a0:4f:23:75:12:37:35:aa:fd:1d:
                    0c:61:5a:a6:18:e2:7f:69:7e:5b:da:91:ef:91:25:
                    c5:d0:22:e3:15:ce:71:3d:c8:75:3c:a0:f9:87:af:
                    7b:1a:c9:a7:0b:0e:21:b1:7d:b5:a2:03:15:48:68:
                    b1:16:4b:ae:88:42:f5:e9:2d:5d:b8:40:2c:fe:be:
                    26:82:3b:3f:19:6e:78:29:b3:83:03:87:2a:9c:9b:
                    c3:05:a7:0e:99:40:46:70:71:a1:84:db:04:04:15:
                    ed:3c:54:f5:01:a7:49:3a:a3:f3:bc:83:d3:29:6c:
                    bf:ad:93:35:83:58:35:68:0f:ac:b9:68:e9:36:1c:
                    f3:08:3f
                Exponent: 65537 (0x10001)
    Signature Algorithm: sha256WithRSAEncryption
         76:e2:7f:3f:cb:8e:80:48:92:bd:bd:ef:ec:35:17:90:95:5d:
         d7:80:61:69:5f:44:5e:6e:3d:b0:50:34:f4:58:8e:8a:e9:73:
         ec:80:6e:be:64:44:a1:2a:ac:c4:96:7a:38:28:06:22:a1:0b:
         20:34:b0:29:50:1b:21:d1:ee:78:2c:02:94:57:38:8a:c6:ff:
         07:33:04:b1:0f:15:ce:e5:f3:81:e1:f7:8e:7d:78:5c:e4:bd:
         93:d9:4d:e2:65:b8:c0:7a:e3:f9:58:00:e1:6b:4c:ec:a1:ef:
         f9:ab:8e:4b:0d:b6:c1:49:63:2a:c1:45:b8:98:a2:25:d9:41:
         f1:ba:fb:60:f5:df:67:4e:36:d8:f7:ae:d0:ed:eb:2a:af:d2:
         e9:fa:2e:ec:8f:af:bb:98:37:4f:28:bd:0f:50:32:c3:21:5a:
         2e:b4:dc:8c:07:60:39:52:4a:af:6b:07:07:0f:c4:c6:94:96:
         f7:0f:7b:08:41:03:32:40:56:58:2b:06:34:80:d2:14:c1:ca:
         52:55:28:22:50:93:a8:5f:59:82:b7:77:a3:5b:b3:b5:23:6c:
         3e:75:bf:d3:3d:c7:7a:5a:f5:74:04:60:73:da:26:61:c2:70:
         c5:e4:22:6f:9b:a6:d8:b7:22:bb:bf:85:ef:d2:eb:36:b1:6e:
         58:77:1e:74:21:8f:dd:7d:76:e7:c8:33:4e:17:87:76:2b:88:
         e5:65:38:38:f8:9a:78:3d:33:9e:c3:ae:e4:d9:16:7b:3b:77:
         76:c4:84:04:ae:7b:01:e2:d3:0e:e0:fc:b8:68:a9:d9:95:3b:
         c8:91:1c:6c:8f:e4:43:95:cc:21:61:91:15:ff:f1:76:05:61:
         3e:18:67:19:c5:f5:1f:cf:c7:cf:ab:4b:98:6d:c2:df:78:65:
         01:0b:f2:c2:5a:02:05:d4:a0:3e:a4:66:3b:84:a5:08:49:f5:
         c7:81:19:8b:f2:0d:e5:7c:e2:d9:f4:6f:93:66:b8:19:7d:9a:
         5e:19:53:91:28:03:fe:07:15:a0:2e:25:ae:01:67:bd:13:56:
         9d:e6:46:c3:46:83:a6:f1:4e:58:1e:27:fc:e7:ec:75:f4:8e:
         8b:00:95:cd:44:f7:4f:f6:9e:18:03:d2:d1:fe:ae:35:81:fe:
         6d:16:03:e4:b2:a1:a8:0f:74:71:87:a3:e0:65:ca:d2:ea:09:
         80:7e:e8:0f:d4:18:b4:b6:02:07:20:9e:3d:f2:0a:16:e2:39:
         c1:15:59:15:e6:57:2a:24:8b:79:54:72:9a:35:80:4a:7f:7e:
         bf:24:c2:84:9b:82:e6:ec:f1:50:5c:bc:3f:55:53:32:18:bb:
         a8:37:32:7c:d7:61:e1:fd
-----BEGIN CERTIFICATE-----
MIIFPzCCAycCAgIxMA0GCSqGSIb3DQEBCwUAMHIxCzAJBgNVBAYTAmZyMQwwCgYD
VQQIDANpZGYxDjAMBgNVBAcMBXBhcmlzMQ4wDAYDVQQKDAV2aXRhbTEUMBIGA1UE
CwwLYXV0aG9yaXRpZXMxHzAdBgNVBAMMFmNhX2ludGVybWVkaWF0ZV9zZXJ2ZXIw
HhcNMjAwNTI5MTUzNzQwWhcNMjMwNTI5MTUzNzQwWjBYMQswCQYDVQQGEwJmcjEM
MAoGA1UECAwDaWRmMQ4wDAYDVQQHDAVwYXJpczEOMAwGA1UECgwFdml0YW0xGzAZ
BgNVBAMMEnVpLWluZ2VzdC5zZXJ2aWNlLjCCAiIwDQYJKoZIhvcNAQEBBQADggIP
ADCCAgoCggIBANI8TiRER4pzRJohkbmEoJbhOEFS6E80dMfxCMsJdKuOCs8v8IxZ
HQZRS0lS+tcUXEdT5QlMGLzmuWSblG11RpycSxjQmhCVDaf5+jOSqAx7fovZX1z0
Vf5hujjzY1b5HZfV1Pl6GWdqmSxw+M/M5x5DRmzR0HEVX/63/wf33V9GYp/sA74S
yRNygFCFLaaKpVhKaALhz7jGJLBzj1TLEIVi/S1dq/3bkVmGtCr9kriK+PdBSDGb
5JGV2KA68+RNYRVL9BnmNezbelRNKh/lxyPuD222bmAkCezSxdMaEfFlG4k716L1
FdWXbfXcejkX6D4LlfLQy50f/0qWDx53UYLKNUq4iuGQh/ZFjrwiwSOtC1iGkjz1
gX1GPMJacP1S1hHvSQ5FsKeNq0mVjGj1J3KCfrWmtT15Y14/cYOcyaa+pZKkSHkm
NksCNk4QbSNvvuItXtQtUyCSNG02fVDekZERZlC55WiVRh1yVPFDLCtiZaREhp9y
qco+a0+gTyN1Ejc1qv0dDGFaphjif2l+W9qR75ElxdAi4xXOcT3IdTyg+YevexrJ
pwsOIbF9taIDFUhosRZLrohC9ektXbhALP6+JoI7PxlueCmzgwOHKpybwwWnDplA
RnBxoYTbBAQV7TxU9QGnSTqj87yD0ylsv62TNYNYNWgPrLlo6TYc8wg/AgMBAAEw
DQYJKoZIhvcNAQELBQADggIBAHbifz/LjoBIkr297+w1F5CVXdeAYWlfRF5uPbBQ
NPRYjorpc+yAbr5kRKEqrMSWejgoBiKhCyA0sClQGyHR7ngsApRXOIrG/wczBLEP
Fc7l84Hh9459eFzkvZPZTeJluMB64/lYAOFrTOyh7/mrjksNtsFJYyrBRbiYoiXZ
QfG6+2D132dONtj3rtDt6yqv0un6LuyPr7uYN08ovQ9QMsMhWi603IwHYDlSSq9r
BwcPxMaUlvcPewhBAzJAVlgrBjSA0hTBylJVKCJQk6hfWYK3d6Nbs7UjbD51v9M9
x3pa9XQEYHPaJmHCcMXkIm+bpti3Iru/he/S6zaxblh3HnQhj919dufIM04Xh3Yr
iOVlODj4mng9M57DruTZFns7d3bEhASuewHi0w7g/LhoqdmVO8iRHGyP5EOVzCFh
kRX/8XYFYT4YZxnF9R/Px8+rS5htwt94ZQEL8sJaAgXUoD6kZjuEpQhJ9ceBGYvy
DeV84tn0b5NmuBl9ml4ZU5EoA/4HFaAuJa4BZ70TVp3mRsNGg6bxTlgeJ/zn7HX0
josAlc1E90/2nhgD0tH+rjWB/m0WA+SyoagPdHGHo+BlytLqCYB+6A/UGLS2Agcg
nj3yChbiOcEVWRXmVyoki3lUcpo1gEp/fr8kwoSbgubs8VBcvD9VUzIYu6g3MnzX
YeH9
-----END CERTIFICATE-----
