Certificate:
    Data:
        Version: 1 (0x0)
        Serial Number: 559 (0x22f)
    Signature Algorithm: sha256WithRSAEncryption
        Issuer: C=fr, ST=idf, L=paris, O=vitam, OU=authorities, CN=ca_intermediate_server
        Validity
            Not Before: May 29 15:37:19 2020 GMT
            Not After : May 29 15:37:19 2023 GMT
        Subject: C=fr, ST=idf, L=paris, O=vitam, CN=ui-identity.service.
        Subject Public Key Info:
            Public Key Algorithm: rsaEncryption
                Public-Key: (4096 bit)
                Modulus:
                    00:f0:be:eb:4d:73:91:b2:44:cf:c9:7d:42:98:5d:
                    5c:e4:9f:2b:69:ad:16:aa:d5:52:e6:a3:e1:ee:f7:
                    6b:6c:ac:f9:d5:20:5f:f2:9a:7b:6f:88:a7:b2:1a:
                    13:84:2d:bd:36:fa:f5:a4:2a:02:9e:4e:f2:26:e4:
                    8d:a8:02:bd:ec:4b:88:fb:40:e6:e6:16:4d:8e:f3:
                    f1:cb:9f:11:26:9b:6d:d6:54:04:d4:98:9f:6f:b7:
                    e6:7a:d8:fe:8a:27:94:9e:f1:08:79:e1:80:66:c6:
                    c0:e7:af:23:ab:28:45:d6:37:cb:63:8d:4e:a7:f7:
                    0f:a2:51:4c:50:b0:f9:a8:aa:da:a7:b2:a6:09:f3:
                    ae:fc:0f:9a:f9:fd:7f:56:60:be:16:f8:68:04:8e:
                    34:ac:3f:08:cf:e5:6e:d3:9b:19:5f:31:e9:82:35:
                    4e:ab:9d:7f:dd:51:30:68:9d:d1:49:f5:d5:a4:d4:
                    9a:82:8d:fb:63:23:64:43:cb:5a:25:42:fc:82:7d:
                    1a:dd:e2:99:b5:d7:23:24:19:60:9b:4b:d9:d2:3e:
                    7d:18:6b:63:94:29:5f:d2:bc:33:f1:36:b7:d8:08:
                    cb:31:52:f6:27:8d:de:13:32:09:2d:b6:34:41:04:
                    7b:94:04:a5:bf:72:65:85:c2:ee:d4:bc:f9:6c:ac:
                    5b:66:7e:bb:8c:6b:37:8f:3c:1c:8f:10:b7:9f:88:
                    30:99:a2:5a:68:8b:f5:7f:3f:fd:37:7d:8e:e5:fb:
                    ea:6a:3f:83:c1:36:d4:be:0b:4c:23:5a:81:4d:c9:
                    8c:20:16:09:b3:b4:55:9e:dc:8c:7d:88:a1:bd:64:
                    57:6a:e1:25:ce:43:c6:a6:29:49:35:2d:99:23:46:
                    b6:2d:17:62:c0:3e:b8:ed:ed:bd:b8:90:be:f6:20:
                    2a:2a:e4:f1:01:ac:91:8b:ed:a7:97:a9:c4:37:f7:
                    b5:97:31:63:9f:e9:a2:03:a4:35:66:dc:40:0e:46:
                    ce:59:82:3e:4d:fb:03:60:32:79:23:fe:29:1f:a2:
                    68:f7:42:ff:73:18:34:e7:25:17:dd:fc:e4:77:f9:
                    a3:e6:39:da:2d:02:3e:88:e7:8c:36:4d:6b:f6:31:
                    c1:dc:a9:3c:99:4b:41:81:3e:8f:86:99:fe:e7:fa:
                    1d:60:53:b4:7a:c4:ab:a6:de:d5:f1:3e:26:d8:81:
                    03:a6:b9:37:1c:fc:23:80:dc:a9:5c:b4:1d:6c:81:
                    07:33:2b:f9:bf:cb:8e:14:db:ad:9c:23:5a:ce:50:
                    04:ef:43:62:6d:c3:d9:e1:8f:67:b3:82:73:86:32:
                    5d:ca:33:34:c5:89:c3:54:65:43:11:1b:4b:70:a3:
                    14:c2:c7
                Exponent: 65537 (0x10001)
    Signature Algorithm: sha256WithRSAEncryption
         a7:bf:c4:ea:5c:7a:e6:c5:5b:b8:69:16:82:06:ce:20:25:fa:
         78:8a:fe:30:7e:02:67:de:33:bd:77:e3:23:8f:28:c7:7e:fb:
         0e:c5:71:42:ca:33:f7:09:86:34:30:63:83:6f:14:94:af:8f:
         b7:ab:87:7f:25:0b:9c:81:14:b6:fa:8c:e3:98:1f:73:88:6b:
         e8:db:f0:48:d9:64:fd:33:20:89:64:82:42:8a:bc:8a:58:f3:
         74:69:02:96:a2:31:1e:ec:4a:fe:d6:e4:ad:38:9e:13:65:95:
         f4:43:85:5d:b6:51:82:2e:50:3c:16:03:2d:40:b3:81:fc:b1:
         e0:e1:e5:a8:5d:c2:24:08:a3:e1:df:af:de:d6:b2:81:32:cd:
         6d:0d:c1:1e:eb:0f:6e:b1:99:b8:09:48:fe:5c:f2:0b:d0:9e:
         70:ef:c7:b8:c1:ef:98:df:90:81:48:3f:29:97:11:97:15:3d:
         aa:52:aa:1e:a2:bf:a6:f7:f0:45:eb:07:92:bb:3d:b5:f0:17:
         c7:13:f7:41:67:9d:69:4a:bd:5a:43:d9:7b:43:89:99:c9:6d:
         00:ad:7a:40:65:e6:17:36:db:8b:b1:35:1f:f8:9a:d8:5b:c7:
         10:84:15:e0:1a:25:f8:b4:f8:7d:1e:dc:de:13:ea:2a:96:7b:
         4a:cf:2e:7a:9d:c0:18:19:09:31:0d:ba:54:76:dd:f0:18:d1:
         b8:4f:e8:5f:61:ed:64:01:06:a6:86:e7:b2:b1:bd:77:88:a8:
         eb:ad:c0:a8:62:1d:04:0c:1b:43:a6:b8:5a:33:f5:60:9d:9f:
         a8:2f:e9:79:12:47:32:78:c1:0b:4e:0a:d9:05:8b:53:11:b7:
         4c:c2:0f:7f:96:8e:99:77:c9:d3:3b:9c:d4:ef:c4:39:9b:dd:
         86:28:28:3d:4d:0f:be:ab:27:4d:68:99:d5:be:b9:31:76:f3:
         a0:98:fd:8b:c9:bf:2e:67:73:08:2a:25:27:52:83:16:d8:1e:
         63:b1:ef:0c:57:1d:20:a5:73:89:b7:0c:96:36:03:b7:14:5d:
         4b:e0:60:00:f4:8f:81:72:11:6b:87:f0:6e:66:41:66:b0:d7:
         3b:0d:b3:15:1e:da:5f:82:6e:ed:9b:6a:50:60:6f:38:1d:94:
         01:14:cf:84:0d:16:8d:26:75:29:b5:9a:9d:9c:61:90:16:9f:
         08:35:05:ca:13:90:f3:34:34:f7:d2:c9:d8:7b:f7:81:1b:b7:
         ab:8c:ee:22:24:3b:49:ce:3a:ff:48:86:bb:bd:a4:3f:b5:d6:
         0a:12:ff:63:b9:9d:5c:35:1a:c1:b2:b2:54:76:02:91:7b:13:
         e5:f3:b5:60:f9:48:fc:9c
-----BEGIN CERTIFICATE-----
MIIFQTCCAykCAgIvMA0GCSqGSIb3DQEBCwUAMHIxCzAJBgNVBAYTAmZyMQwwCgYD
VQQIDANpZGYxDjAMBgNVBAcMBXBhcmlzMQ4wDAYDVQQKDAV2aXRhbTEUMBIGA1UE
CwwLYXV0aG9yaXRpZXMxHzAdBgNVBAMMFmNhX2ludGVybWVkaWF0ZV9zZXJ2ZXIw
HhcNMjAwNTI5MTUzNzE5WhcNMjMwNTI5MTUzNzE5WjBaMQswCQYDVQQGEwJmcjEM
MAoGA1UECAwDaWRmMQ4wDAYDVQQHDAVwYXJpczEOMAwGA1UECgwFdml0YW0xHTAb
BgNVBAMMFHVpLWlkZW50aXR5LnNlcnZpY2UuMIICIjANBgkqhkiG9w0BAQEFAAOC
Ag8AMIICCgKCAgEA8L7rTXORskTPyX1CmF1c5J8raa0WqtVS5qPh7vdrbKz51SBf
8pp7b4inshoThC29Nvr1pCoCnk7yJuSNqAK97EuI+0Dm5hZNjvPxy58RJptt1lQE
1Jifb7fmetj+iieUnvEIeeGAZsbA568jqyhF1jfLY41Op/cPolFMULD5qKrap7Km
CfOu/A+a+f1/VmC+FvhoBI40rD8Iz+Vu05sZXzHpgjVOq51/3VEwaJ3RSfXVpNSa
go37YyNkQ8taJUL8gn0a3eKZtdcjJBlgm0vZ0j59GGtjlClf0rwz8Ta32AjLMVL2
J43eEzIJLbY0QQR7lASlv3JlhcLu1Lz5bKxbZn67jGs3jzwcjxC3n4gwmaJaaIv1
fz/9N32O5fvqaj+DwTbUvgtMI1qBTcmMIBYJs7RVntyMfYihvWRXauElzkPGpilJ
NS2ZI0a2LRdiwD647e29uJC+9iAqKuTxAayRi+2nl6nEN/e1lzFjn+miA6Q1ZtxA
DkbOWYI+TfsDYDJ5I/4pH6Jo90L/cxg05yUX3fzkd/mj5jnaLQI+iOeMNk1r9jHB
3Kk8mUtBgT6Phpn+5/odYFO0esSrpt7V8T4m2IEDprk3HPwjgNypXLQdbIEHMyv5
v8uOFNutnCNazlAE70NibcPZ4Y9ns4JzhjJdyjM0xYnDVGVDERtLcKMUwscCAwEA
ATANBgkqhkiG9w0BAQsFAAOCAgEAp7/E6lx65sVbuGkWggbOICX6eIr+MH4CZ94z
vXfjI48ox377DsVxQsoz9wmGNDBjg28UlK+Pt6uHfyULnIEUtvqM45gfc4hr6Nvw
SNlk/TMgiWSCQoq8iljzdGkClqIxHuxK/tbkrTieE2WV9EOFXbZRgi5QPBYDLUCz
gfyx4OHlqF3CJAij4d+v3taygTLNbQ3BHusPbrGZuAlI/lzyC9CecO/HuMHvmN+Q
gUg/KZcRlxU9qlKqHqK/pvfwResHkrs9tfAXxxP3QWedaUq9WkPZe0OJmcltAK16
QGXmFzbbi7E1H/ia2FvHEIQV4Bol+LT4fR7c3hPqKpZ7Ss8uep3AGBkJMQ26VHbd
8BjRuE/oX2HtZAEGpobnsrG9d4io663AqGIdBAwbQ6a4WjP1YJ2fqC/peRJHMnjB
C04K2QWLUxG3TMIPf5aOmXfJ0zuc1O/EOZvdhigoPU0PvqsnTWiZ1b65MXbzoJj9
i8m/LmdzCColJ1KDFtgeY7HvDFcdIKVzibcMljYDtxRdS+BgAPSPgXIRa4fwbmZB
ZrDXOw2zFR7aX4Ju7ZtqUGBvOB2UARTPhA0WjSZ1KbWanZxhkBafCDUFyhOQ8zQ0
99LJ2Hv3gRu3q4zuIiQ7Sc46/0iGu72kP7XWChL/Y7mdXDUawbKyVHYCkXsT5fO1
YPlI/Jw=
-----END CERTIFICATE-----
