Certificate:
    Data:
        Version: 1 (0x0)
        Serial Number: 519 (0x207)
    Signature Algorithm: sha256WithRSAEncryption
        Issuer: C=fr, ST=idf, L=paris, O=vitam, OU=authorities, CN=ca_intermediate_server
        Validity
            Not Before: Dec 19 12:46:05 2019 GMT
            Not After : Dec 18 12:46:05 2022 GMT
        Subject: C=fr, ST=idf, L=paris, O=vitam, CN=ui-identity.service.consul
        Subject Public Key Info:
            Public Key Algorithm: rsaEncryption
                Public-Key: (4096 bit)
                Modulus:
                    00:b7:9d:1d:59:f3:79:75:8a:22:64:4d:c6:83:b4:
                    4a:02:9d:74:66:b6:64:47:b2:8c:56:8f:5e:20:17:
                    4f:41:4f:12:03:99:9e:19:ae:1b:b0:45:46:30:2c:
                    9b:aa:9c:d3:b3:cf:50:cb:e3:ce:c3:26:3e:17:91:
                    b5:85:bb:03:d4:78:fc:81:74:08:d9:ef:93:dd:b9:
                    00:2b:94:e8:ab:30:c2:2c:e0:5c:26:1d:20:4b:5a:
                    bd:c3:3e:17:49:cb:85:42:aa:52:e7:cc:ae:e0:ed:
                    88:88:8f:e4:da:99:fc:ce:6d:93:20:9f:30:fd:1d:
                    3a:08:54:a2:9f:99:53:b8:b2:cf:b2:d7:d8:fd:b2:
                    ba:e9:f4:50:15:ba:c2:11:2b:dc:5c:e0:1c:3e:86:
                    9a:2e:99:1c:a8:a6:19:cb:e8:d8:c2:b0:22:79:0e:
                    50:2e:8c:3c:d6:44:32:ab:d9:ba:ab:19:38:59:7d:
                    d4:1f:94:02:60:18:25:49:13:6e:88:86:42:c9:b8:
                    28:62:f6:ed:34:47:1c:ed:72:5f:43:84:4e:21:c2:
                    1b:7e:6a:a3:8b:95:c7:a2:46:6c:1f:70:b3:10:77:
                    23:17:ff:99:31:5a:c5:49:9d:d9:ff:3f:26:eb:10:
                    fa:b2:78:2e:1f:2b:4e:8c:6a:1f:b1:99:cd:35:3c:
                    49:4a:6c:65:4f:be:43:2f:92:72:d5:72:9a:67:5a:
                    3f:c0:74:58:db:0f:1d:b7:4a:85:cf:4f:ae:7a:4b:
                    43:a0:51:e1:ae:62:2b:71:4c:17:ab:93:cf:ef:00:
                    5b:52:a0:0c:b9:aa:5a:be:63:83:5a:29:de:42:9e:
                    c0:03:08:a8:df:c9:e8:77:62:8a:66:fd:a2:ad:2a:
                    94:d7:c1:0e:2a:07:13:94:18:71:a8:8a:29:da:90:
                    81:a5:3f:db:38:df:c6:5b:58:8e:7f:f2:eb:85:0e:
                    87:ee:45:0a:4c:79:b9:ce:c3:d6:05:1f:71:5b:88:
                    55:0a:af:8e:4e:a3:07:f8:56:4f:1f:e4:67:31:eb:
                    ec:86:29:7c:c7:9b:ff:36:96:83:84:bb:11:76:ee:
                    7a:97:2d:09:ac:57:c9:75:f8:e0:33:3b:c3:7f:fc:
                    11:6a:55:1e:6e:7d:90:58:e5:94:1c:19:68:da:b0:
                    58:5c:0b:96:14:b2:0f:20:96:22:20:96:77:14:7d:
                    b0:fb:9a:f5:29:ff:01:6e:0f:51:7c:21:5e:85:e4:
                    20:03:e5:51:8b:10:2a:41:ba:27:5e:f8:83:7f:2f:
                    e6:8e:7c:1a:db:1f:c8:e7:f8:cb:c1:0b:6d:ac:3f:
                    cc:57:e3:66:7a:70:ed:23:d7:6d:cb:65:b0:11:42:
                    f0:88:09
                Exponent: 65537 (0x10001)
    Signature Algorithm: sha256WithRSAEncryption
         95:d1:10:98:45:ee:4b:a2:0e:3f:aa:a8:4f:1d:bc:4e:4c:32:
         29:1d:a7:9f:c5:60:62:ba:3d:9e:61:14:7e:b7:0f:f9:90:70:
         f1:d4:2e:57:74:f1:48:b2:37:33:23:30:a3:99:dd:87:f6:7c:
         12:a5:b9:b6:ce:85:7f:c6:fe:1b:04:cb:10:b6:69:f0:97:18:
         d7:41:44:3e:61:22:e2:05:5a:88:56:23:1d:98:50:0b:ae:f6:
         3a:cf:1b:39:5b:f6:f5:11:1b:5f:85:fe:e4:44:72:aa:84:68:
         af:47:53:a6:3a:00:a4:7d:11:2f:25:e7:fb:ec:0b:ba:36:85:
         ee:c2:3d:85:62:55:e5:8c:09:18:89:34:50:f7:71:c4:92:b6:
         1c:09:52:78:bd:51:10:de:42:d0:da:2e:a0:47:54:b6:11:d4:
         cf:cf:d8:35:78:75:99:a9:cf:39:90:c0:f7:da:29:5d:39:95:
         8e:93:df:b3:9a:48:28:65:b3:71:23:5d:7e:df:27:cd:ef:88:
         f2:84:39:47:0c:96:f5:50:4d:9f:39:89:c7:61:5a:4b:96:35:
         9c:d6:27:a6:ec:86:36:70:7a:da:35:3e:12:8e:35:5c:19:b4:
         b7:90:ee:ff:ab:95:be:5b:c6:f8:1d:4e:aa:8f:75:19:52:e2:
         2c:9a:75:92:34:c6:2b:f5:62:52:db:11:a4:2f:ec:d4:26:01:
         0f:22:d2:d5:1c:6d:9c:88:2c:ea:10:bb:fa:27:4d:6b:55:84:
         f2:d5:f2:4a:f0:6e:8e:db:98:59:61:8a:3d:e0:eb:fd:93:63:
         41:fc:11:d5:e4:02:5c:27:43:e5:b1:e8:5f:7f:e3:d9:25:4a:
         c8:a4:8d:0d:c6:17:f2:ec:82:94:f1:0f:4c:7e:f7:d4:a1:e0:
         78:49:6c:96:cc:16:77:b5:4a:9f:24:11:6b:24:1a:25:87:d2:
         ba:82:6a:de:ad:25:43:1b:bb:8e:49:62:15:34:1b:30:03:e8:
         e9:95:bd:9d:14:a9:50:c0:78:05:6a:89:fc:00:d8:33:ee:ca:
         56:ab:82:be:7a:e0:1b:b1:a6:0d:95:a3:d5:7a:29:89:60:cf:
         53:b2:f3:62:85:ab:57:45:76:08:d6:88:de:4a:65:15:a5:f3:
         6a:d2:02:04:55:99:23:a0:68:df:51:f2:32:b7:3f:3a:a1:8b:
         57:ea:d4:6d:51:48:8d:05:9f:81:5d:a4:8b:bc:6d:53:a2:1a:
         ec:38:46:e4:8a:05:14:91:54:42:4b:48:39:0c:29:7c:54:5a:
         92:80:e5:06:17:5f:46:c0:c8:13:50:0f:e6:1b:b9:65:9b:ad:
         5d:48:3e:aa:35:a6:22:4d
-----BEGIN CERTIFICATE-----
MIIFRzCCAy8CAgIHMA0GCSqGSIb3DQEBCwUAMHIxCzAJBgNVBAYTAmZyMQwwCgYD
VQQIDANpZGYxDjAMBgNVBAcMBXBhcmlzMQ4wDAYDVQQKDAV2aXRhbTEUMBIGA1UE
CwwLYXV0aG9yaXRpZXMxHzAdBgNVBAMMFmNhX2ludGVybWVkaWF0ZV9zZXJ2ZXIw
HhcNMTkxMjE5MTI0NjA1WhcNMjIxMjE4MTI0NjA1WjBgMQswCQYDVQQGEwJmcjEM
MAoGA1UECAwDaWRmMQ4wDAYDVQQHDAVwYXJpczEOMAwGA1UECgwFdml0YW0xIzAh
BgNVBAMMGnVpLWlkZW50aXR5LnNlcnZpY2UuY29uc3VsMIICIjANBgkqhkiG9w0B
AQEFAAOCAg8AMIICCgKCAgEAt50dWfN5dYoiZE3Gg7RKAp10ZrZkR7KMVo9eIBdP
QU8SA5meGa4bsEVGMCybqpzTs89Qy+POwyY+F5G1hbsD1Hj8gXQI2e+T3bkAK5To
qzDCLOBcJh0gS1q9wz4XScuFQqpS58yu4O2IiI/k2pn8zm2TIJ8w/R06CFSin5lT
uLLPstfY/bK66fRQFbrCESvcXOAcPoaaLpkcqKYZy+jYwrAieQ5QLow81kQyq9m6
qxk4WX3UH5QCYBglSRNuiIZCybgoYvbtNEcc7XJfQ4ROIcIbfmqji5XHokZsH3Cz
EHcjF/+ZMVrFSZ3Z/z8m6xD6snguHytOjGofsZnNNTxJSmxlT75DL5Jy1XKaZ1o/
wHRY2w8dt0qFz0+uektDoFHhrmIrcUwXq5PP7wBbUqAMuapavmODWineQp7AAwio
38nod2KKZv2irSqU18EOKgcTlBhxqIop2pCBpT/bON/GW1iOf/LrhQ6H7kUKTHm5
zsPWBR9xW4hVCq+OTqMH+FZPH+RnMevshil8x5v/NpaDhLsRdu56ly0JrFfJdfjg
MzvDf/wRalUebn2QWOWUHBlo2rBYXAuWFLIPIJYiIJZ3FH2w+5r1Kf8Bbg9RfCFe
heQgA+VRixAqQbonXviDfy/mjnwa2x/I5/jLwQttrD/MV+NmenDtI9dty2WwEULw
iAkCAwEAATANBgkqhkiG9w0BAQsFAAOCAgEAldEQmEXuS6IOP6qoTx28TkwyKR2n
n8VgYro9nmEUfrcP+ZBw8dQuV3TxSLI3MyMwo5ndh/Z8EqW5ts6Ff8b+GwTLELZp
8JcY10FEPmEi4gVaiFYjHZhQC672Os8bOVv29REbX4X+5ERyqoRor0dTpjoApH0R
LyXn++wLujaF7sI9hWJV5YwJGIk0UPdxxJK2HAlSeL1REN5C0NouoEdUthHUz8/Y
NXh1manPOZDA99opXTmVjpPfs5pIKGWzcSNdft8nze+I8oQ5RwyW9VBNnzmJx2Fa
S5Y1nNYnpuyGNnB62jU+Eo41XBm0t5Du/6uVvlvG+B1Oqo91GVLiLJp1kjTGK/Vi
UtsRpC/s1CYBDyLS1RxtnIgs6hC7+idNa1WE8tXySvBujtuYWWGKPeDr/ZNjQfwR
1eQCXCdD5bHoX3/j2SVKyKSNDcYX8uyClPEPTH731KHgeElslswWd7VKnyQRayQa
JYfSuoJq3q0lQxu7jkliFTQbMAPo6ZW9nRSpUMB4BWqJ/ADYM+7KVquCvnrgG7Gm
DZWj1XopiWDPU7LzYoWrV0V2CNaI3kplFaXzatICBFWZI6Bo31HyMrc/OqGLV+rU
bVFIjQWfgV2ki7xtU6Ia7DhG5IoFFJFUQktIOQwpfFRakoDlBhdfRsDIE1AP5hu5
ZZutXUg+qjWmIk0=
-----END CERTIFICATE-----
