Certificate:
    Data:
        Version: 1 (0x0)
        Serial Number: 560 (0x230)
    Signature Algorithm: sha256WithRSAEncryption
        Issuer: C=fr, ST=idf, L=paris, O=vitam, OU=authorities, CN=ca_intermediate_server
        Validity
            Not Before: May 29 15:37:27 2020 GMT
            Not After : May 29 15:37:27 2023 GMT
        Subject: C=fr, ST=idf, L=paris, O=vitam, CN=ui-identity-admin.service.
        Subject Public Key Info:
            Public Key Algorithm: rsaEncryption
                Public-Key: (4096 bit)
                Modulus:
                    00:d7:b0:55:b1:5e:65:61:5d:c8:f0:3e:ef:22:c3:
                    bd:a9:45:78:be:f6:cb:f0:51:1b:a3:51:4f:0c:0c:
                    02:6e:4e:bd:74:b2:af:9a:28:15:ff:18:12:85:5b:
                    6c:ee:cd:ca:d7:fa:e4:4f:f5:cd:37:2b:69:11:a6:
                    90:17:a5:98:1b:4c:32:52:d4:ea:88:03:aa:aa:af:
                    eb:42:6c:37:cc:4a:62:0e:ee:6d:75:fd:5d:44:0c:
                    ab:1a:36:e3:34:a4:77:61:bd:97:ac:41:54:4e:79:
                    b9:69:04:22:22:ed:2d:b1:a5:47:5c:55:b8:64:79:
                    ff:41:87:fc:5c:a3:8c:e4:2b:9f:db:7a:81:e2:b3:
                    d8:e0:fb:c6:20:04:91:1b:30:2e:a6:e6:48:12:7c:
                    5b:3f:bf:a1:36:9e:ad:e8:40:f2:4c:39:bf:c2:bf:
                    2e:69:e6:05:29:0d:56:b6:91:35:52:7f:df:4f:39:
                    b3:6a:bf:2f:99:78:6d:be:73:44:d7:e2:19:52:e5:
                    ec:52:da:3d:de:62:44:09:d0:1c:d7:4b:09:45:66:
                    3a:0b:7e:f2:57:5e:81:06:ad:bc:7e:a4:f9:f6:d0:
                    53:ee:4f:08:e3:4f:83:a7:1d:4b:71:15:0f:b7:96:
                    c2:cc:5a:34:35:5c:85:6e:27:08:60:a4:f4:8b:24:
                    1b:13:14:62:f2:80:fe:5e:ee:df:fb:c3:bc:50:e5:
                    9c:73:e3:86:34:0b:1d:ca:b9:80:12:7a:94:4d:b4:
                    57:24:a0:f1:08:5e:37:44:45:14:d0:f5:03:1a:ac:
                    4e:9c:28:eb:77:b2:f9:11:db:c8:55:ef:4e:ce:bb:
                    41:45:e0:ca:1e:cf:09:55:2b:05:fc:69:f8:48:b0:
                    33:b0:fb:04:dc:0f:24:d2:ef:bc:bf:b4:dd:73:9d:
                    1f:4f:9e:dc:a5:d5:5a:1b:50:4b:7c:55:83:51:a5:
                    e7:29:d8:c4:86:52:71:94:49:17:8a:f8:5f:81:f0:
                    cd:05:ad:4d:c5:c8:a7:66:35:8f:ee:31:c4:86:22:
                    89:40:51:df:18:97:66:f1:41:19:51:d6:01:29:0f:
                    98:8f:d3:e4:78:ba:14:af:26:9b:6c:02:2e:06:95:
                    45:3d:19:fd:d1:57:7a:a9:08:91:29:30:42:47:b5:
                    54:ee:41:4b:aa:0c:ac:31:11:1b:3f:f2:49:06:ef:
                    1e:27:9a:7b:1c:81:23:3d:20:51:89:a1:61:82:3a:
                    64:bd:6d:b3:af:d4:55:74:4c:e6:b6:c4:b3:b5:aa:
                    83:64:c5:7b:ff:2f:e5:96:96:c3:33:c8:8a:86:be:
                    25:67:dd:54:96:59:e0:2d:59:3c:90:f5:d7:da:05:
                    3d:5f:27
                Exponent: 65537 (0x10001)
    Signature Algorithm: sha256WithRSAEncryption
         3a:20:45:e5:88:79:a1:80:dc:1e:06:9c:53:e7:f3:dd:d5:3e:
         2a:3e:34:84:13:83:25:7c:b7:4b:58:2d:13:db:17:3a:a2:80:
         36:90:e2:e1:92:ea:e1:a3:83:f4:e4:e6:62:0b:73:72:08:e5:
         5b:dd:25:dc:b0:2c:8f:b3:63:a1:69:37:84:02:af:d3:1a:33:
         ea:c5:ce:a2:80:4c:51:39:59:4e:3d:4d:1e:d0:17:5d:a4:05:
         c6:da:d5:c6:8e:1e:27:71:d5:50:0c:3d:81:8f:65:56:18:f9:
         83:9b:97:95:6e:ea:e9:3e:2f:65:ed:01:52:1e:dd:00:9c:f5:
         b9:2c:28:0f:8b:cb:27:28:b9:0c:70:83:e8:9d:e1:49:a6:37:
         49:b2:d6:63:a1:ad:7d:b7:e0:1c:c2:2b:24:4d:e3:cb:1a:73:
         92:63:6d:7a:80:df:30:88:d7:08:26:67:03:93:57:6d:6d:b3:
         ab:6e:44:b0:81:f5:9a:67:5e:1b:75:d7:27:be:1b:f7:3f:ff:
         32:e7:54:8c:5d:bc:18:4f:57:bc:14:db:51:87:80:1d:6a:13:
         23:60:29:25:30:21:c7:a2:5e:84:c9:22:5e:fb:a4:ad:0b:c3:
         a0:69:eb:dc:9e:37:00:d0:14:92:7f:29:13:aa:5d:b8:1b:e3:
         a6:dc:b5:58:d0:fa:94:5c:0b:c2:6f:19:87:79:9a:9e:c8:f9:
         59:d2:1c:0d:62:28:6b:71:28:69:3a:22:72:25:da:d9:89:d9:
         23:45:47:c3:28:b5:c4:fc:01:a5:39:bc:ff:1e:b7:ef:f2:3f:
         0a:c8:f2:b0:b1:23:13:15:0d:fd:49:c0:04:2d:31:b6:de:ac:
         91:85:67:a2:b3:c0:78:34:96:76:b6:ec:7a:b5:d3:1f:80:ef:
         2b:10:55:b1:55:93:13:e2:51:31:d1:64:d5:03:f0:83:2e:d6:
         e2:36:f7:21:ca:94:54:7f:47:8b:db:4a:00:3c:93:6c:d6:37:
         66:f3:f5:75:a7:bb:74:6c:c4:b0:18:75:84:cd:be:ad:43:18:
         b1:70:b8:96:e2:ac:98:68:cf:f8:93:1a:b3:f5:cc:dd:c9:20:
         83:19:e8:65:a8:5b:19:98:98:b0:e5:e0:80:67:bf:87:b2:9d:
         b5:82:e9:00:b2:2b:f5:4c:c2:82:05:1b:30:49:94:a5:b8:ec:
         1e:b2:11:d3:4f:9a:5e:90:ec:c2:f5:a5:62:2b:c5:c2:75:a1:
         69:7b:cb:2a:a2:ce:ee:80:40:b1:d7:55:2d:cc:6a:a0:03:ae:
         8a:f2:97:91:7d:6a:34:25:44:a1:88:fa:4f:e7:d2:eb:b6:d3:
         fa:83:13:b7:4d:aa:c0:cd
-----BEGIN CERTIFICATE-----
MIIFRzCCAy8CAgIwMA0GCSqGSIb3DQEBCwUAMHIxCzAJBgNVBAYTAmZyMQwwCgYD
VQQIDANpZGYxDjAMBgNVBAcMBXBhcmlzMQ4wDAYDVQQKDAV2aXRhbTEUMBIGA1UE
CwwLYXV0aG9yaXRpZXMxHzAdBgNVBAMMFmNhX2ludGVybWVkaWF0ZV9zZXJ2ZXIw
HhcNMjAwNTI5MTUzNzI3WhcNMjMwNTI5MTUzNzI3WjBgMQswCQYDVQQGEwJmcjEM
MAoGA1UECAwDaWRmMQ4wDAYDVQQHDAVwYXJpczEOMAwGA1UECgwFdml0YW0xIzAh
BgNVBAMMGnVpLWlkZW50aXR5LWFkbWluLnNlcnZpY2UuMIICIjANBgkqhkiG9w0B
AQEFAAOCAg8AMIICCgKCAgEA17BVsV5lYV3I8D7vIsO9qUV4vvbL8FEbo1FPDAwC
bk69dLKvmigV/xgShVts7s3K1/rkT/XNNytpEaaQF6WYG0wyUtTqiAOqqq/rQmw3
zEpiDu5tdf1dRAyrGjbjNKR3Yb2XrEFUTnm5aQQiIu0tsaVHXFW4ZHn/QYf8XKOM
5Cuf23qB4rPY4PvGIASRGzAupuZIEnxbP7+hNp6t6EDyTDm/wr8uaeYFKQ1WtpE1
Un/fTzmzar8vmXhtvnNE1+IZUuXsUto93mJECdAc10sJRWY6C37yV16BBq28fqT5
9tBT7k8I40+Dpx1LcRUPt5bCzFo0NVyFbicIYKT0iyQbExRi8oD+Xu7f+8O8UOWc
c+OGNAsdyrmAEnqUTbRXJKDxCF43REUU0PUDGqxOnCjrd7L5EdvIVe9OzrtBReDK
Hs8JVSsF/Gn4SLAzsPsE3A8k0u+8v7Tdc50fT57cpdVaG1BLfFWDUaXnKdjEhlJx
lEkXivhfgfDNBa1NxcinZjWP7jHEhiKJQFHfGJdm8UEZUdYBKQ+Yj9PkeLoUryab
bAIuBpVFPRn90Vd6qQiRKTBCR7VU7kFLqgysMREbP/JJBu8eJ5p7HIEjPSBRiaFh
gjpkvW2zr9RVdEzmtsSztaqDZMV7/y/llpbDM8iKhr4lZ91UllngLVk8kPXX2gU9
XycCAwEAATANBgkqhkiG9w0BAQsFAAOCAgEAOiBF5Yh5oYDcHgacU+fz3dU+Kj40
hBODJXy3S1gtE9sXOqKANpDi4ZLq4aOD9OTmYgtzcgjlW90l3LAsj7NjoWk3hAKv
0xoz6sXOooBMUTlZTj1NHtAXXaQFxtrVxo4eJ3HVUAw9gY9lVhj5g5uXlW7q6T4v
Ze0BUh7dAJz1uSwoD4vLJyi5DHCD6J3hSaY3SbLWY6GtfbfgHMIrJE3jyxpzkmNt
eoDfMIjXCCZnA5NXbW2zq25EsIH1mmdeG3XXJ74b9z//MudUjF28GE9XvBTbUYeA
HWoTI2ApJTAhx6JehMkiXvukrQvDoGnr3J43ANAUkn8pE6pduBvjpty1WND6lFwL
wm8Zh3mansj5WdIcDWIoa3EoaToiciXa2YnZI0VHwyi1xPwBpTm8/x637/I/Csjy
sLEjExUN/UnABC0xtt6skYVnorPAeDSWdrbserXTH4DvKxBVsVWTE+JRMdFk1QPw
gy7W4jb3IcqUVH9Hi9tKADyTbNY3ZvP1dae7dGzEsBh1hM2+rUMYsXC4luKsmGjP
+JMas/XM3ckggxnoZahbGZiYsOXggGe/h7KdtYLpALIr9UzCggUbMEmUpbjsHrIR
00+aXpDswvWlYivFwnWhaXvLKqLO7oBAsddVLcxqoAOuivKXkX1qNCVEoYj6T+fS
67bT+oMTt02qwM0=
-----END CERTIFICATE-----
