Certificate:
    Data:
        Version: 1 (0x0)
        Serial Number: 518 (0x206)
    Signature Algorithm: sha256WithRSAEncryption
        Issuer: C=fr, ST=idf, L=paris, O=vitam, OU=authorities, CN=ca_intermediate_server
        Validity
            Not Before: Dec 19 12:46:02 2019 GMT
            Not After : Dec 18 12:46:02 2022 GMT
        Subject: C=fr, ST=idf, L=paris, O=vitam, CN=ui-portal.service.consul
        Subject Public Key Info:
            Public Key Algorithm: rsaEncryption
                Public-Key: (4096 bit)
                Modulus:
                    00:ad:86:ce:78:8c:c7:1b:98:79:14:6f:c9:68:72:
                    ab:10:00:18:cc:98:09:c9:e7:69:76:04:b2:d5:9e:
                    32:6d:a1:ff:92:20:9c:51:77:95:65:e7:d7:8e:93:
                    52:a8:4c:4a:b6:02:e9:0e:f7:79:99:6e:e2:2b:cb:
                    6f:a7:62:56:75:8e:e8:a5:75:b9:e0:81:38:27:7b:
                    fe:60:2a:ac:50:b0:9f:b5:6e:d3:e7:19:e6:f1:ef:
                    16:38:03:12:e6:25:62:5e:f3:51:ec:b0:81:74:54:
                    94:32:60:0d:70:98:b2:17:35:6c:9c:b5:61:86:e4:
                    25:f4:2a:21:66:55:19:26:8b:f9:d2:24:f0:8f:43:
                    90:38:b5:31:5d:2f:20:1b:10:32:e6:f9:c4:45:f5:
                    78:89:ac:23:a3:87:c7:39:0a:7f:4b:ee:f1:63:ce:
                    8a:dd:75:8c:5a:e8:28:bd:c2:6f:17:a3:85:d8:8a:
                    d4:30:00:b6:1b:b2:2d:35:2a:24:27:c0:52:2f:7c:
                    2b:06:b1:5a:36:8e:f4:14:61:45:af:4e:4e:61:7b:
                    30:69:b5:55:de:ff:37:fe:7f:c1:8a:12:9b:63:0d:
                    c0:e9:c8:49:15:67:96:34:3f:8c:00:fb:e3:c5:8a:
                    5d:ee:b3:60:ae:45:a6:f0:b3:61:65:f1:a9:1e:69:
                    63:55:6c:1d:72:ca:7b:5e:4f:e0:3b:76:e1:64:be:
                    82:93:70:65:d6:c4:ef:62:e2:4d:94:ad:04:26:b5:
                    1a:0d:ce:cd:a2:b5:a7:35:3e:09:17:30:6f:8a:bb:
                    57:02:51:dc:61:2b:bc:ad:39:9d:85:51:be:27:c0:
                    fa:24:7f:87:42:b2:ba:db:bd:e8:6b:79:73:72:2d:
                    15:a0:9b:e1:89:f5:bc:fe:ac:64:3d:51:59:2b:fc:
                    49:79:25:bc:4f:16:86:c5:39:9e:75:00:a5:d8:61:
                    73:ae:46:6e:83:4a:59:7b:46:f6:18:6b:2d:3a:84:
                    06:63:cf:95:5b:82:4c:03:1a:d6:a0:0e:de:00:6e:
                    14:c9:18:5d:3e:96:de:f5:51:26:bf:68:1e:b3:83:
                    84:41:4b:1c:cb:9f:a1:87:9c:89:42:13:9b:eb:ee:
                    35:30:de:d3:b8:06:5d:0d:53:3e:68:87:82:5d:d5:
                    56:94:e0:f6:2f:67:35:65:42:c5:6a:76:55:a6:0a:
                    16:48:a3:00:bf:85:d0:df:65:77:e3:37:1a:1f:87:
                    0b:38:10:07:54:2d:1d:c6:48:3b:3c:e5:b9:f6:90:
                    fb:dc:f8:b7:63:7d:aa:a0:ed:6b:e9:f9:b0:a8:7b:
                    f7:7d:50:29:d9:d8:8f:53:b1:1b:39:3a:6c:05:03:
                    ef:33:09
                Exponent: 65537 (0x10001)
    Signature Algorithm: sha256WithRSAEncryption
         66:f0:a5:e9:f7:2d:44:c5:83:94:0c:0b:a3:96:0e:fd:b9:44:
         42:25:5e:a1:e8:8a:42:1a:a3:61:54:ad:40:73:52:7a:2b:35:
         e9:b1:ca:62:06:6e:cf:55:06:5e:8c:04:d2:c9:15:d3:d9:20:
         2b:9e:b5:a6:c3:16:68:04:cf:74:bf:31:bd:1a:c5:cd:ae:1b:
         ba:f5:ea:b8:2f:6d:51:d5:9a:3e:01:87:ae:7c:18:18:3d:f3:
         cb:16:9f:d4:4c:75:1f:6c:27:56:a6:a5:cd:5f:e3:a9:e3:16:
         b6:f6:91:08:dd:e6:d4:3a:54:06:cb:20:ff:06:0a:13:dc:ea:
         69:b3:c7:5a:98:fe:fa:18:b9:ba:71:2a:d6:f7:08:e5:e4:da:
         84:98:23:cf:a6:65:86:8c:bb:d9:e9:56:c9:87:b7:4a:82:f0:
         4e:9a:9b:d9:2f:5d:83:bc:15:d7:3c:62:02:6d:40:ba:4b:b2:
         4c:71:a1:56:ed:5e:81:c8:f3:b3:76:0f:1a:80:8f:6f:41:51:
         f2:d0:56:b5:52:8d:09:17:c4:c4:0c:bd:bb:18:a6:26:71:cf:
         94:d0:c4:a0:ef:70:22:32:95:65:15:69:87:f6:d3:36:9b:c5:
         68:8b:34:22:24:aa:92:6d:93:32:e9:6a:1b:0f:5a:fd:dd:06:
         44:32:ad:da:8e:16:25:ad:6e:1e:ea:94:76:85:49:ed:87:e5:
         cf:b2:e4:90:b4:e2:a5:87:20:be:75:06:bd:55:c1:e3:20:90:
         25:21:bd:f1:3b:12:39:fe:42:d1:ad:68:80:12:e8:ef:01:a9:
         c0:e2:c0:e3:e2:61:5d:2e:b6:57:ff:50:c1:0d:a6:12:7c:f5:
         30:ac:5e:74:36:45:37:f1:c0:3b:d5:94:69:db:60:78:62:e3:
         3d:26:e2:af:cf:43:e9:8a:d6:3d:c8:98:a9:ea:02:63:79:12:
         42:f4:94:6b:58:bf:05:5c:9e:76:f1:19:85:07:d0:12:a1:70:
         33:8f:eb:e5:9f:70:1d:a5:be:aa:54:8a:20:cd:8e:58:f4:c7:
         d0:7f:75:84:3a:8a:44:93:56:a4:80:1a:12:93:19:1d:60:c5:
         67:1d:c2:d7:3f:81:4a:c1:f7:34:14:fb:e4:7f:2d:07:46:f7:
         f4:80:f7:de:48:34:d2:03:55:95:49:43:ad:2e:93:22:46:91:
         02:1c:11:fb:2e:35:ce:07:13:3f:c7:29:71:0d:e2:53:3a:a2:
         56:19:d9:42:b9:a0:6e:79:44:37:16:08:1b:c9:c8:53:33:37:
         1f:15:81:46:3b:ac:b2:46:8f:c3:36:ee:c8:c7:92:2d:64:c0:
         38:ac:2a:47:05:56:5c:c7
-----BEGIN CERTIFICATE-----
MIIFRTCCAy0CAgIGMA0GCSqGSIb3DQEBCwUAMHIxCzAJBgNVBAYTAmZyMQwwCgYD
VQQIDANpZGYxDjAMBgNVBAcMBXBhcmlzMQ4wDAYDVQQKDAV2aXRhbTEUMBIGA1UE
CwwLYXV0aG9yaXRpZXMxHzAdBgNVBAMMFmNhX2ludGVybWVkaWF0ZV9zZXJ2ZXIw
HhcNMTkxMjE5MTI0NjAyWhcNMjIxMjE4MTI0NjAyWjBeMQswCQYDVQQGEwJmcjEM
MAoGA1UECAwDaWRmMQ4wDAYDVQQHDAVwYXJpczEOMAwGA1UECgwFdml0YW0xITAf
BgNVBAMMGHVpLXBvcnRhbC5zZXJ2aWNlLmNvbnN1bDCCAiIwDQYJKoZIhvcNAQEB
BQADggIPADCCAgoCggIBAK2GzniMxxuYeRRvyWhyqxAAGMyYCcnnaXYEstWeMm2h
/5IgnFF3lWXn146TUqhMSrYC6Q73eZlu4ivLb6diVnWO6KV1ueCBOCd7/mAqrFCw
n7Vu0+cZ5vHvFjgDEuYlYl7zUeywgXRUlDJgDXCYshc1bJy1YYbkJfQqIWZVGSaL
+dIk8I9DkDi1MV0vIBsQMub5xEX1eImsI6OHxzkKf0vu8WPOit11jFroKL3Cbxej
hdiK1DAAthuyLTUqJCfAUi98KwaxWjaO9BRhRa9OTmF7MGm1Vd7/N/5/wYoSm2MN
wOnISRVnljQ/jAD748WKXe6zYK5FpvCzYWXxqR5pY1VsHXLKe15P4Dt24WS+gpNw
ZdbE72LiTZStBCa1Gg3OzaK1pzU+CRcwb4q7VwJR3GErvK05nYVRvifA+iR/h0Ky
utu96Gt5c3ItFaCb4Yn1vP6sZD1RWSv8SXklvE8WhsU5nnUApdhhc65GboNKWXtG
9hhrLTqEBmPPlVuCTAMa1qAO3gBuFMkYXT6W3vVRJr9oHrODhEFLHMufoYeciUIT
m+vuNTDe07gGXQ1TPmiHgl3VVpTg9i9nNWVCxWp2VaYKFkijAL+F0N9ld+M3Gh+H
CzgQB1QtHcZIOzzlufaQ+9z4t2N9qqDta+n5sKh7931QKdnYj1OxGzk6bAUD7zMJ
AgMBAAEwDQYJKoZIhvcNAQELBQADggIBAGbwpen3LUTFg5QMC6OWDv25REIlXqHo
ikIao2FUrUBzUnorNemxymIGbs9VBl6MBNLJFdPZICuetabDFmgEz3S/Mb0axc2u
G7r16rgvbVHVmj4Bh658GBg988sWn9RMdR9sJ1ampc1f46njFrb2kQjd5tQ6VAbL
IP8GChPc6mmzx1qY/voYubpxKtb3COXk2oSYI8+mZYaMu9npVsmHt0qC8E6am9kv
XYO8Fdc8YgJtQLpLskxxoVbtXoHI87N2DxqAj29BUfLQVrVSjQkXxMQMvbsYpiZx
z5TQxKDvcCIylWUVaYf20zabxWiLNCIkqpJtkzLpahsPWv3dBkQyrdqOFiWtbh7q
lHaFSe2H5c+y5JC04qWHIL51Br1VweMgkCUhvfE7Ejn+QtGtaIAS6O8BqcDiwOPi
YV0utlf/UMENphJ89TCsXnQ2RTfxwDvVlGnbYHhi4z0m4q/PQ+mK1j3ImKnqAmN5
EkL0lGtYvwVcnnbxGYUH0BKhcDOP6+WfcB2lvqpUiiDNjlj0x9B/dYQ6ikSTVqSA
GhKTGR1gxWcdwtc/gUrB9zQU++R/LQdG9/SA995INNIDVZVJQ60ukyJGkQIcEfsu
Nc4HEz/HKXEN4lM6olYZ2UK5oG55RDcWCBvJyFMzNx8VgUY7rLJGj8M27sjHki1k
wDisKkcFVlzH
-----END CERTIFICATE-----
