Certificate:
    Data:
        Version: 1 (0x0)
        Serial Number: 558 (0x22e)
    Signature Algorithm: sha256WithRSAEncryption
        Issuer: C=fr, ST=idf, L=paris, O=vitam, OU=authorities, CN=ca_intermediate_server
        Validity
            Not Before: May 29 15:37:12 2020 GMT
            Not After : May 29 15:37:12 2023 GMT
        Subject: C=fr, ST=idf, L=paris, O=vitam, CN=ui-portal.service.
        Subject Public Key Info:
            Public Key Algorithm: rsaEncryption
                Public-Key: (4096 bit)
                Modulus:
                    00:de:dd:4c:7e:28:9d:9e:e8:a2:d4:c8:4a:01:1d:
                    d9:2d:cc:c4:6b:ba:68:0f:02:07:76:61:8c:65:01:
                    8d:57:9e:e8:98:60:4c:14:bf:a2:58:21:6e:a2:00:
                    03:f0:60:08:cb:b1:0d:b0:2d:d3:a8:2c:ad:8c:84:
                    b4:66:1f:e7:d5:78:99:f6:f5:04:29:cf:71:60:1d:
                    62:2f:5a:1b:c3:89:34:c1:b5:51:0c:7f:e0:05:35:
                    a3:a4:a0:0f:49:5f:04:68:cf:7b:70:ee:11:9b:0a:
                    70:e6:a4:92:4b:40:e2:98:32:e2:cb:81:3f:c9:f8:
                    26:78:50:ee:15:b4:9c:10:87:ac:6c:f6:e9:75:f7:
                    d9:15:87:6c:d9:3b:10:d7:60:51:6a:b3:f9:4d:1c:
                    92:0d:a9:a5:eb:96:8b:f1:59:5f:b9:dd:b1:b4:ec:
                    ff:d6:2f:42:35:fb:db:48:ea:33:0c:92:56:de:41:
                    56:ae:14:eb:55:7a:0c:fa:37:9c:1d:3d:0b:ec:d0:
                    79:d9:83:29:52:72:45:ed:56:5d:f4:81:2f:c6:7b:
                    26:bf:7f:8c:8d:2f:9e:90:0b:d3:48:fb:3a:8a:69:
                    1d:8f:8a:97:82:1a:ad:a0:f9:33:d1:3c:39:65:1e:
                    fb:57:4f:57:e7:a6:e2:2e:86:e9:46:59:89:70:52:
                    2c:85:2e:96:5e:24:3d:16:bd:0a:43:95:34:ed:42:
                    0b:e5:85:11:a0:b9:fb:40:92:fd:5c:64:cb:d0:b2:
                    40:76:32:a9:8d:fe:fa:f2:a1:6b:ea:fa:10:6c:fc:
                    9b:87:fd:fa:40:0b:28:c2:27:80:5a:dd:23:00:5b:
                    f0:bd:ea:c7:c3:37:10:68:e2:93:c2:47:7d:43:6c:
                    69:82:d6:39:08:45:18:56:fc:7d:88:89:39:02:4a:
                    21:b9:b5:5a:c7:9c:7a:84:ce:34:47:53:7f:f8:7a:
                    7f:d3:0e:ad:ac:1c:0f:84:de:43:46:1f:81:a2:95:
                    07:4a:38:ca:2d:d1:69:02:0f:11:d4:5f:51:a2:28:
                    05:dc:25:22:a3:d8:ba:26:bd:56:0c:19:4e:13:79:
                    da:01:9b:58:65:97:9d:58:83:ab:a0:86:3b:c1:97:
                    54:af:be:f2:fe:36:36:a0:b0:70:79:bc:bb:ab:38:
                    ed:21:21:97:0a:19:d4:9a:77:88:df:9d:43:a9:4f:
                    ec:42:78:a6:c4:14:1d:ab:3f:ff:65:e3:44:7b:d7:
                    5f:47:d4:0d:5e:22:50:9a:44:31:33:47:bd:ea:0c:
                    4e:b5:8e:56:a5:2f:b6:c8:c8:21:b3:6c:0a:3c:15:
                    9c:da:0a:ad:ff:a2:80:b6:09:d5:71:49:f4:e0:8a:
                    da:bd:47
                Exponent: 65537 (0x10001)
    Signature Algorithm: sha256WithRSAEncryption
         60:e5:05:cd:31:ce:8d:14:f9:a6:02:85:21:98:c9:dc:2a:6c:
         ae:b6:ba:15:98:6e:ef:55:69:81:3b:d9:f5:53:a5:bf:2a:d2:
         d5:4f:e1:63:3e:df:8e:bc:13:f2:69:90:00:31:1c:d6:d6:37:
         9a:60:f1:df:c1:27:85:60:54:2b:6c:08:e3:45:7f:1d:72:31:
         48:09:2e:66:d8:ca:0a:d7:bd:74:ce:07:6d:59:43:fc:b1:e0:
         7c:25:dc:21:fe:31:fa:25:00:f7:d7:57:0b:49:8d:e1:73:8a:
         39:09:b2:bb:5a:01:ec:a7:91:35:c8:06:99:00:05:2d:15:01:
         43:96:a9:d9:bb:31:81:78:b9:d8:21:10:0d:d3:bb:8e:44:13:
         8b:6d:30:34:2b:05:a6:e6:f4:a9:2b:30:b2:54:83:5d:9b:01:
         32:af:79:35:2a:72:8a:fa:7a:7a:a7:d2:ca:6d:bd:22:af:f8:
         b6:35:5f:e2:2a:ce:b8:cd:70:3f:ad:92:54:6e:2e:35:7e:0a:
         55:a0:2a:3b:13:ed:f8:b9:8d:e2:d4:7e:cb:5c:b9:51:ae:12:
         1c:5d:a6:a0:b3:b0:81:72:b0:1d:d4:fa:7e:93:dc:77:ad:1e:
         43:b7:ef:af:97:5d:eb:14:69:bc:f7:01:7a:d5:79:82:79:45:
         f5:64:27:6b:8b:d5:41:29:f0:14:39:35:80:bf:67:c2:bd:7b:
         86:cc:70:53:0b:be:52:13:88:0b:f4:89:9e:64:79:5a:58:38:
         06:69:93:a4:94:d3:ed:24:0d:ac:e5:1c:9a:6e:22:90:a1:77:
         07:7f:eb:e3:f6:b5:e6:7f:c9:64:ac:20:60:69:d9:73:c4:eb:
         6c:90:15:1b:dc:40:d3:40:fb:03:6b:05:b2:46:41:66:ed:5f:
         02:b9:33:46:9f:f9:5c:2b:6a:d3:17:99:e5:b9:d3:44:be:8a:
         39:99:e4:b1:f4:6c:0d:e3:77:d2:19:c9:48:3d:39:65:03:4a:
         59:c5:22:f7:d6:26:5e:7e:e1:20:2e:bd:b6:af:2d:92:2f:8b:
         9d:cd:1e:2f:bf:d0:a6:5d:3a:8e:58:a3:73:cb:4a:67:5f:4f:
         f7:cb:05:8e:e5:d3:f6:1b:00:e3:4e:e6:90:72:39:a1:76:76:
         6a:c4:c0:a3:a4:7d:1d:02:03:bd:c5:c5:a0:10:f8:d7:db:79:
         72:96:ce:5c:2a:f5:d8:fb:8a:b6:8b:c7:82:85:be:b1:4b:f2:
         67:50:d0:b8:24:cc:fc:43:d0:64:aa:66:2a:d6:a5:01:1c:b5:
         30:eb:c5:df:83:7f:3b:05:b9:26:5a:d5:5e:2f:c0:d3:87:a1:
         02:6a:88:70:67:b7:4f:a6
-----BEGIN CERTIFICATE-----
MIIFPzCCAycCAgIuMA0GCSqGSIb3DQEBCwUAMHIxCzAJBgNVBAYTAmZyMQwwCgYD
VQQIDANpZGYxDjAMBgNVBAcMBXBhcmlzMQ4wDAYDVQQKDAV2aXRhbTEUMBIGA1UE
CwwLYXV0aG9yaXRpZXMxHzAdBgNVBAMMFmNhX2ludGVybWVkaWF0ZV9zZXJ2ZXIw
HhcNMjAwNTI5MTUzNzEyWhcNMjMwNTI5MTUzNzEyWjBYMQswCQYDVQQGEwJmcjEM
MAoGA1UECAwDaWRmMQ4wDAYDVQQHDAVwYXJpczEOMAwGA1UECgwFdml0YW0xGzAZ
BgNVBAMMEnVpLXBvcnRhbC5zZXJ2aWNlLjCCAiIwDQYJKoZIhvcNAQEBBQADggIP
ADCCAgoCggIBAN7dTH4onZ7ootTISgEd2S3MxGu6aA8CB3ZhjGUBjVee6JhgTBS/
olghbqIAA/BgCMuxDbAt06gsrYyEtGYf59V4mfb1BCnPcWAdYi9aG8OJNMG1UQx/
4AU1o6SgD0lfBGjPe3DuEZsKcOakkktA4pgy4suBP8n4JnhQ7hW0nBCHrGz26XX3
2RWHbNk7ENdgUWqz+U0ckg2ppeuWi/FZX7ndsbTs/9YvQjX720jqMwySVt5BVq4U
61V6DPo3nB09C+zQedmDKVJyRe1WXfSBL8Z7Jr9/jI0vnpAL00j7OoppHY+Kl4Ia
raD5M9E8OWUe+1dPV+em4i6G6UZZiXBSLIUull4kPRa9CkOVNO1CC+WFEaC5+0CS
/Vxky9CyQHYyqY3++vKha+r6EGz8m4f9+kALKMIngFrdIwBb8L3qx8M3EGjik8JH
fUNsaYLWOQhFGFb8fYiJOQJKIbm1WseceoTONEdTf/h6f9MOrawcD4TeQ0YfgaKV
B0o4yi3RaQIPEdRfUaIoBdwlIqPYuia9VgwZThN52gGbWGWXnViDq6CGO8GXVK++
8v42NqCwcHm8u6s47SEhlwoZ1Jp3iN+dQ6lP7EJ4psQUHas//2XjRHvXX0fUDV4i
UJpEMTNHveoMTrWOVqUvtsjIIbNsCjwVnNoKrf+igLYJ1XFJ9OCK2r1HAgMBAAEw
DQYJKoZIhvcNAQELBQADggIBAGDlBc0xzo0U+aYChSGYydwqbK62uhWYbu9VaYE7
2fVTpb8q0tVP4WM+3468E/JpkAAxHNbWN5pg8d/BJ4VgVCtsCONFfx1yMUgJLmbY
ygrXvXTOB21ZQ/yx4Hwl3CH+MfolAPfXVwtJjeFzijkJsrtaAeynkTXIBpkABS0V
AUOWqdm7MYF4udghEA3Tu45EE4ttMDQrBabm9KkrMLJUg12bATKveTUqcor6enqn
0sptvSKv+LY1X+IqzrjNcD+tklRuLjV+ClWgKjsT7fi5jeLUfstcuVGuEhxdpqCz
sIFysB3U+n6T3HetHkO376+XXesUabz3AXrVeYJ5RfVkJ2uL1UEp8BQ5NYC/Z8K9
e4bMcFMLvlITiAv0iZ5keVpYOAZpk6SU0+0kDazlHJpuIpChdwd/6+P2teZ/yWSs
IGBp2XPE62yQFRvcQNNA+wNrBbJGQWbtXwK5M0af+VwratMXmeW500S+ijmZ5LH0
bA3jd9IZyUg9OWUDSlnFIvfWJl5+4SAuvbavLZIvi53NHi+/0KZdOo5Yo3PLSmdf
T/fLBY7l0/YbAONO5pByOaF2dmrEwKOkfR0CA73FxaAQ+NfbeXKWzlwq9dj7iraL
x4KFvrFL8mdQ0LgkzPxD0GSqZirWpQEctTDrxd+DfzsFuSZa1V4vwNOHoQJqiHBn
t0+m
-----END CERTIFICATE-----
