Certificate:
    Data:
        Version: 3 (0x2)
        Serial Number: 4 (0x4)
        Signature Algorithm: sha256WithRSAEncryption
        Issuer: C=fr, ST=idf, L=paris, O=vitamui, OU=authorities, CN=ca_intermediate_client-vitam
        Validity
            Not Before: Jun  5 11:50:59 2020 GMT
            Not After : Jun  5 11:50:59 2023 GMT
        Subject: C=fr, ST=idf, L=paris, O=vitamui, CN=vitamui
        Subject Public Key Info:
            Public Key Algorithm: rsaEncryption
                RSA Public-Key: (4096 bit)
                Modulus:
                    00:e4:35:d5:34:93:55:b0:57:83:ff:dd:b2:28:30:
                    91:ee:90:9c:6d:43:3d:5e:7a:5a:f6:8d:9b:b8:85:
                    ac:4f:3b:f6:94:96:31:9c:c1:dd:c6:e8:f0:d9:dc:
                    c2:66:ee:11:b2:41:73:c0:d2:c7:24:5f:cf:88:c9:
                    23:ea:40:21:3e:26:18:56:f1:3a:74:4f:3b:f4:b6:
                    7e:c7:9d:08:a0:f3:a2:86:fc:7d:18:d0:b4:fb:af:
                    19:12:ec:02:f5:67:a0:fe:c9:92:d9:d8:da:8d:bb:
                    63:6f:1c:a3:d3:63:05:22:f1:71:fe:3c:63:a1:0e:
                    cd:2a:bc:ed:79:c4:8d:d5:bc:3f:7c:94:97:05:4a:
                    eb:45:14:0a:3d:2d:07:5c:78:3f:d0:66:b0:e2:17:
                    cf:90:2f:31:9a:7a:b3:5a:8c:e2:a8:9c:49:16:7b:
                    2e:9e:3d:24:c4:c7:29:1a:44:95:98:67:6e:fb:f4:
                    36:61:84:ea:bd:38:d5:de:f6:0f:23:bc:c5:6a:8f:
                    81:9a:f0:99:eb:3a:c4:d7:e5:64:18:d2:25:d4:dd:
                    ba:ea:f2:c5:cd:ce:69:76:74:4b:ab:32:5c:26:94:
                    d8:66:34:f1:f6:c1:fe:52:e5:3f:02:7d:5b:3b:b3:
                    61:b8:f7:17:2b:bf:a7:31:2a:e4:81:b1:13:5f:dc:
                    24:dc:4a:f1:32:7d:e8:12:c9:6e:4e:7b:0b:ec:ef:
                    2a:bb:79:a1:7a:09:ef:8a:1a:48:23:d1:8b:d5:24:
                    57:52:49:2f:6b:61:17:fa:d7:22:e9:c3:52:c3:bd:
                    7c:ac:06:4d:3b:05:c6:6e:0c:e9:f4:87:32:3e:df:
                    c8:8a:a7:69:fe:b5:4e:53:2b:8e:55:a2:10:e6:84:
                    a2:e1:23:f8:6a:ac:f7:01:12:ee:5e:54:ba:97:57:
                    19:cf:9d:ca:9a:12:ec:a9:ea:2b:12:4a:3d:a7:d8:
                    35:48:09:43:50:f8:af:5a:de:2c:31:fb:0d:e6:f4:
                    ce:ab:0f:a7:58:05:c0:66:64:42:d5:ac:ad:50:0c:
                    8f:1f:e7:ad:fc:9f:cd:99:f9:3d:f4:ee:43:3d:78:
                    b6:5a:f5:82:00:82:fe:3a:82:a9:71:76:85:ca:7b:
                    3d:d9:46:ae:da:e9:d9:7d:1e:99:91:01:eb:7c:00:
                    2e:3f:92:b9:00:3f:d5:cd:cc:2d:d6:49:1a:d1:4f:
                    01:43:27:73:27:11:6d:c5:4f:77:a1:c3:28:c3:e0:
                    26:c7:7a:e0:5e:2b:c6:47:c8:19:df:0c:f6:06:3e:
                    1d:5a:08:7e:ea:83:80:96:4b:15:5f:83:47:01:82:
                    d4:08:6a:45:ee:e1:63:4e:db:66:6e:1b:e6:0c:26:
                    75:f1:a1
                Exponent: 65537 (0x10001)
        X509v3 extensions:
            Netscape Comment: 
                Certificat Client SSL
            X509v3 Subject Key Identifier: 
                B5:07:9A:45:B2:A5:55:13:8F:3A:0D:52:E2:91:08:AA:18:39:DA:94
            X509v3 Authority Key Identifier: 
                keyid:D2:02:43:D6:2A:DD:DF:77:12:04:7A:8C:72:77:D5:6A:1A:D8:70:6B
                DirName:/C=fr/ST=idf/L=paris/O=vitamui/OU=authorities/CN=ca_root_client-vitam
                serial:02

            X509v3 Issuer Alternative Name: 
                <EMPTY>

            X509v3 Basic Constraints: critical
                CA:FALSE
            X509v3 Key Usage: 
                Digital Signature
            Netscape Cert Type: 
                SSL Client
            X509v3 Extended Key Usage: 
                TLS Web Client Authentication
    Signature Algorithm: sha256WithRSAEncryption
         08:a7:f4:0f:54:8c:ca:a2:a6:8a:1e:0c:62:61:48:58:ef:50:
         26:c5:77:98:80:73:32:32:f0:35:a6:ab:60:2f:31:d6:0c:c3:
         02:bc:12:39:e6:cf:58:51:5d:11:37:8a:3d:70:87:5f:44:f5:
         ae:0d:1a:7e:49:33:b1:af:fc:b1:5c:bf:9d:a4:4e:87:af:e4:
         4a:ce:d9:a5:10:87:29:b1:79:75:a7:fd:1d:9a:2e:31:72:f5:
         32:14:76:d6:d7:fa:c3:b5:e6:40:05:84:cb:ad:63:18:f4:1e:
         68:6a:9c:3f:ff:aa:c7:8f:90:ba:11:1d:44:21:39:54:46:2c:
         d0:93:d9:0d:f2:d4:a5:aa:95:e1:a9:6b:f0:94:c0:0e:48:07:
         d0:32:06:65:d6:b4:c6:9a:fe:ea:b0:4d:8c:45:a1:31:ee:ee:
         f0:88:f1:d9:80:df:22:90:b3:e8:a3:36:f2:0d:72:fe:ae:60:
         f5:7f:88:2c:3e:61:5e:5e:e2:d4:0a:ce:22:92:c9:bc:32:bf:
         75:ed:45:d1:15:78:be:a5:11:03:b8:7a:52:8e:be:67:3f:85:
         fd:b1:13:43:16:dd:29:d5:0f:11:7f:e9:e3:e0:68:28:24:d5:
         2b:5b:d2:a1:d4:13:c1:d3:96:d0:99:3d:2f:41:40:70:7b:27:
         5b:bf:9e:43:e9:d5:54:43:21:76:aa:0c:3e:1c:fa:c8:98:87:
         84:6f:e7:c8:34:21:22:6b:39:ac:99:f1:62:95:80:9e:23:4f:
         c4:9b:1f:3c:53:51:df:11:e1:a6:ec:69:4b:de:d6:8d:87:3c:
         7a:fa:07:2a:e0:4d:1d:a3:d5:f6:59:6f:bb:56:d9:ea:f7:9c:
         6c:ab:53:f8:1e:e7:3d:da:78:e5:12:65:be:12:b7:4b:5f:c1:
         3a:59:2c:e3:d9:1e:bb:27:17:50:54:6f:92:8c:93:62:be:fe:
         d9:d9:40:17:0c:8b:d8:08:f5:b4:2d:71:8c:f7:cc:65:fd:00:
         07:eb:76:d9:90:e8:17:ff:25:67:8f:14:d2:f2:dc:8e:bb:41:
         a7:88:c9:0b:e5:ed:f3:07:63:22:8c:2f:3b:d0:42:cc:58:e7:
         88:20:fb:ab:9d:30:34:76:49:ff:65:48:70:42:7a:d7:5f:e4:
         20:13:8d:a8:60:41:47:7c:ad:c4:6f:a6:fa:47:2a:b3:3d:62:
         6f:d4:20:41:d0:08:b5:d8:10:18:98:81:1c:5f:95:75:12:51:
         53:3d:a8:4c:8f:07:65:22:28:d7:55:59:a0:29:39:bb:2f:bc:
         a1:a8:b5:ed:fc:48:b3:21:ed:44:e7:fb:37:5c:7d:ea:d1:da:
         38:4e:ce:ef:2e:68:f3:45
-----BEGIN CERTIFICATE-----
MIIGfDCCBGSgAwIBAgIBBDANBgkqhkiG9w0BAQsFADB6MQswCQYDVQQGEwJmcjEM
MAoGA1UECAwDaWRmMQ4wDAYDVQQHDAVwYXJpczEQMA4GA1UECgwHdml0YW11aTEU
MBIGA1UECwwLYXV0aG9yaXRpZXMxJTAjBgNVBAMMHGNhX2ludGVybWVkaWF0ZV9j
bGllbnQtdml0YW0wHhcNMjAwNjA1MTE1MDU5WhcNMjMwNjA1MTE1MDU5WjBPMQsw
CQYDVQQGEwJmcjEMMAoGA1UECAwDaWRmMQ4wDAYDVQQHDAVwYXJpczEQMA4GA1UE
CgwHdml0YW11aTEQMA4GA1UEAwwHdml0YW11aTCCAiIwDQYJKoZIhvcNAQEBBQAD
ggIPADCCAgoCggIBAOQ11TSTVbBXg//dsigwke6QnG1DPV56WvaNm7iFrE879pSW
MZzB3cbo8NncwmbuEbJBc8DSxyRfz4jJI+pAIT4mGFbxOnRPO/S2fsedCKDzoob8
fRjQtPuvGRLsAvVnoP7JktnY2o27Y28co9NjBSLxcf48Y6EOzSq87XnEjdW8P3yU
lwVK60UUCj0tB1x4P9BmsOIXz5AvMZp6s1qM4qicSRZ7Lp49JMTHKRpElZhnbvv0
NmGE6r041d72DyO8xWqPgZrwmes6xNflZBjSJdTduuryxc3OaXZ0S6syXCaU2GY0
8fbB/lLlPwJ9WzuzYbj3Fyu/pzEq5IGxE1/cJNxK8TJ96BLJbk57C+zvKrt5oXoJ
74oaSCPRi9UkV1JJL2thF/rXIunDUsO9fKwGTTsFxm4M6fSHMj7fyIqnaf61TlMr
jlWiEOaEouEj+Gqs9wES7l5UupdXGc+dypoS7KnqKxJKPafYNUgJQ1D4r1reLDH7
Deb0zqsPp1gFwGZkQtWsrVAMjx/nrfyfzZn5PfTuQz14tlr1ggCC/jqCqXF2hcp7
PdlGrtrp2X0emZEB63wALj+SuQA/1c3MLdZJGtFPAUMncycRbcVPd6HDKMPgJsd6
4F4rxkfIGd8M9gY+HVoIfuqDgJZLFV+DRwGC1AhqRe7hY07bZm4b5gwmdfGhAgMB
AAGjggE2MIIBMjAkBglghkgBhvhCAQ0EFxYVQ2VydGlmaWNhdCBDbGllbnQgU1NM
MB0GA1UdDgQWBBS1B5pFsqVVE486DVLikQiqGDnalDCBnAYDVR0jBIGUMIGRgBTS
AkPWKt3fdxIEeoxyd9VqGthwa6F2pHQwcjELMAkGA1UEBhMCZnIxDDAKBgNVBAgM
A2lkZjEOMAwGA1UEBwwFcGFyaXMxEDAOBgNVBAoMB3ZpdGFtdWkxFDASBgNVBAsM
C2F1dGhvcml0aWVzMR0wGwYDVQQDDBRjYV9yb290X2NsaWVudC12aXRhbYIBAjAJ
BgNVHRIEAjAAMAwGA1UdEwEB/wQCMAAwCwYDVR0PBAQDAgeAMBEGCWCGSAGG+EIB
AQQEAwIHgDATBgNVHSUEDDAKBggrBgEFBQcDAjANBgkqhkiG9w0BAQsFAAOCAgEA
CKf0D1SMyqKmih4MYmFIWO9QJsV3mIBzMjLwNaarYC8x1gzDArwSOebPWFFdETeK
PXCHX0T1rg0afkkzsa/8sVy/naROh6/kSs7ZpRCHKbF5daf9HZouMXL1MhR21tf6
w7XmQAWEy61jGPQeaGqcP/+qx4+QuhEdRCE5VEYs0JPZDfLUpaqV4alr8JTADkgH
0DIGZda0xpr+6rBNjEWhMe7u8Ijx2YDfIpCz6KM28g1y/q5g9X+ILD5hXl7i1ArO
IpLJvDK/de1F0RV4vqURA7h6Uo6+Zz+F/bETQxbdKdUPEX/p4+BoKCTVK1vSodQT
wdOW0Jk9L0FAcHsnW7+eQ+nVVEMhdqoMPhz6yJiHhG/nyDQhIms5rJnxYpWAniNP
xJsfPFNR3xHhpuxpS97WjYc8evoHKuBNHaPV9llvu1bZ6vecbKtT+B7nPdp45RJl
vhK3S1/BOlks49keuycXUFRvkoyTYr7+2dlAFwyL2Aj1tC1xjPfMZf0AB+t22ZDo
F/8lZ48U0vLcjrtBp4jJC+Xt8wdjIowvO9BCzFjniCD7q50wNHZJ/2VIcEJ611/k
IBONqGBBR3ytxG+m+kcqsz1ib9QgQdAItdgQGJiBHF+VdRJRUz2oTI8HZSIo11VZ
oCk5uy+8oai17fxIsyHtROf7N1x96tHaOE7O7y5o80U=
-----END CERTIFICATE-----
