Certificate:
    Data:
        Version: 3 (0x2)
        Serial Number: 289 (0x121)
    Signature Algorithm: sha256WithRSAEncryption
        Issuer: C=fr, ST=idf, L=paris, O=vitam, OU=authorities, CN=ca_root_iam-internal
        Validity
            Not Before: Nov 22 15:20:55 2019 GMT
            Not After : Nov 19 15:20:55 2029 GMT
        Subject: C=fr, ST=idf, L=paris, O=vitam, OU=authorities, CN=ca_intermediate_iam-internal
        Subject Public Key Info:
            Public Key Algorithm: rsaEncryption
                Public-Key: (4096 bit)
                Modulus:
                    00:f0:56:95:ed:69:c9:19:ce:0b:d6:2a:10:4e:61:
                    e1:23:71:f8:cb:08:a8:2b:4b:2d:bb:70:ba:ba:04:
                    da:eb:d6:4c:9f:5a:da:dd:be:ba:bb:10:f2:eb:82:
                    d2:34:1e:14:57:8a:d9:cb:36:a9:f5:b5:2b:67:e3:
                    9b:8d:a6:7b:7e:3b:ae:47:84:73:c6:07:48:4c:93:
                    c1:d0:36:9f:60:8e:f0:63:d5:c7:47:6f:dc:0b:31:
                    e6:e2:bf:06:e5:e7:56:24:05:01:39:20:04:73:fd:
                    55:06:32:d6:1a:5f:71:0e:42:6d:5b:51:06:80:36:
                    d3:85:b6:b7:17:21:2e:76:30:92:94:41:c0:06:4c:
                    45:27:73:e3:37:e4:34:23:42:64:07:84:85:52:1b:
                    4e:66:18:57:20:1a:46:7c:59:33:46:31:ed:77:5d:
                    3a:97:6b:6a:ee:96:dc:13:64:b3:af:39:30:b8:9a:
                    c2:5a:b3:42:57:60:7d:55:eb:55:1d:fb:ee:44:58:
                    42:65:7c:56:91:25:87:87:1c:98:82:8c:b1:fe:6c:
                    59:9e:a0:cc:eb:82:b7:b4:97:04:c6:09:9a:7f:bc:
                    85:a3:64:3f:b9:8c:f6:0f:4a:b3:4f:1e:bb:ae:a1:
                    36:6c:7a:1c:11:33:b0:81:31:26:f7:6d:13:c8:98:
                    03:81:1b:bb:19:0f:5d:80:2a:0a:72:b7:e0:69:4b:
                    13:fd:30:82:86:3b:f8:9d:cc:ad:d9:78:12:7c:06:
                    63:eb:d5:72:2f:98:40:91:35:50:59:a9:1f:58:de:
                    f3:c2:c4:ba:33:13:36:da:31:b2:59:65:f4:96:ad:
                    e7:c9:67:25:2a:0d:1a:ef:36:92:18:6f:1a:bd:eb:
                    36:f3:d2:de:f9:8e:95:82:17:db:52:59:db:e6:c2:
                    72:c4:0d:81:c8:45:11:7f:ec:c0:65:f2:93:08:e1:
                    b1:07:f3:6f:0f:5e:3f:09:c8:4b:d3:05:34:e7:36:
                    a0:5e:da:08:32:69:1d:ee:b5:48:d7:3b:01:bb:d0:
                    57:8a:03:62:cf:bd:0d:db:34:94:5b:ab:9b:af:53:
                    df:a9:6a:43:eb:da:ba:0c:19:ca:98:1e:20:12:2c:
                    f1:ca:77:47:e8:8c:5c:12:bd:85:ac:28:90:60:ed:
                    52:af:db:ac:aa:dc:b1:e8:8a:79:74:12:ba:29:85:
                    78:1c:bd:fc:88:40:13:f8:10:12:2d:e2:b5:07:5e:
                    44:d0:df:3a:5b:23:cc:13:59:a6:d3:2b:28:f8:fd:
                    73:e5:60:36:ed:6d:13:7c:8a:c5:bb:e7:9c:a8:3d:
                    b9:9a:54:42:7c:5d:ea:b0:14:43:17:e2:a6:5d:9b:
                    6c:dd:b7
                Exponent: 65537 (0x10001)
        X509v3 extensions:
            Netscape Comment:
                CA Intermediate
            X509v3 Subject Key Identifier:
                BD:46:A7:30:88:A4:42:FC:6D:94:32:D6:12:AE:E9:9C:7B:80:71:0D
            X509v3 Authority Key Identifier:
                keyid:CD:73:F8:1B:D2:B5:BE:55:9D:DE:C2:65:45:B1:91:D7:39:F6:4E:5E
                DirName:/C=fr/ST=idf/L=paris/O=vitam/OU=authorities/CN=ca_root_iam-internal
                serial:01:20

            X509v3 Basic Constraints: critical
                CA:TRUE, pathlen:0
            X509v3 Issuer Alternative Name:
                <EMPTY>

            X509v3 Key Usage:
                Certificate Sign, CRL Sign
            Netscape Cert Type:
                SSL CA
    Signature Algorithm: sha256WithRSAEncryption
         a1:5a:76:01:5c:4a:f0:5c:9a:1b:96:ff:bc:b1:e2:ca:fd:75:
         a6:ca:7f:1b:2b:16:99:1c:75:cf:83:38:08:d3:1d:fe:1f:90:
         77:d8:08:bd:df:c0:a4:90:19:a8:e4:70:4b:0f:d8:d1:9b:19:
         d0:43:1b:4c:8f:a4:7b:bf:b1:03:40:ff:6d:0a:1b:59:68:44:
         45:1c:35:ac:a6:b0:df:b2:47:38:b0:86:fb:fc:61:11:0c:af:
         ac:86:a7:d0:e4:a4:c9:8a:b3:c2:4b:72:7c:f0:b3:14:63:16:
         65:66:77:ac:7e:bd:85:6b:db:52:94:6b:5b:2d:7b:6b:dc:e4:
         60:d2:7e:88:00:48:fe:28:2e:2d:67:61:41:40:71:2f:f1:08:
         2a:10:2d:ae:9a:8b:a2:62:73:8a:13:a1:fb:f9:d1:98:bb:cd:
         ed:86:90:d7:5d:be:dc:77:c9:fb:7b:46:ce:da:a2:15:35:bb:
         c4:24:d4:64:a0:3a:e6:11:41:b8:e0:55:fe:4e:f5:02:24:9c:
         a4:34:2a:b0:44:bf:fc:d5:7a:a7:4b:7f:10:f4:c1:64:44:aa:
         0d:a3:d9:81:cd:4d:69:cd:07:1f:ad:d9:c2:6d:a8:7a:a1:6c:
         28:96:a9:8b:db:79:e2:32:fe:48:36:f7:b9:70:06:6b:be:28:
         bb:96:3e:15:f3:a2:a2:92:c3:1a:68:16:a4:bc:78:42:79:14:
         c5:8f:b6:4e:67:96:3e:3c:d0:ed:73:8a:dc:38:db:c1:61:62:
         c7:1f:69:32:12:ef:23:7e:2e:0a:98:98:44:c4:f6:6b:90:f7:
         f1:1c:9c:f7:3e:3d:f9:3b:72:66:75:fa:f5:ca:4d:0f:3c:eb:
         6c:5f:bc:39:7b:5a:4c:ac:61:1b:ee:b1:d5:4a:fd:3b:9f:bf:
         df:ab:30:83:fa:e2:7f:00:91:98:b2:85:57:e3:85:af:ff:72:
         2c:90:20:6b:f2:38:c3:07:47:a9:44:63:56:b6:d4:7d:09:2e:
         52:fd:30:ec:ce:48:6d:fa:92:02:16:b8:4d:73:f3:43:98:3a:
         63:f6:7e:a1:09:77:66:bc:9e:43:2a:3c:76:06:90:e1:dc:b9:
         28:22:6e:96:4f:58:33:a1:61:b6:04:1f:d8:ed:37:81:b4:cd:
         61:07:32:af:69:00:f5:94:99:97:53:b3:cb:00:80:87:95:5e:
         2a:ff:8c:d8:f5:c2:af:ce:52:f1:7d:7c:2a:0c:b8:56:70:62:
         55:aa:47:a2:67:c4:fb:02:13:73:1f:f7:bb:3a:d4:62:2b:f3:
         bf:80:24:58:84:c2:26:19:00:87:5a:88:16:20:f9:4e:4a:72:
         9b:5f:24:56:43:f5:57:7a
-----BEGIN CERTIFICATE-----
MIIGhjCCBG6gAwIBAgICASEwDQYJKoZIhvcNAQELBQAwcDELMAkGA1UEBhMCZnIx
DDAKBgNVBAgMA2lkZjEOMAwGA1UEBwwFcGFyaXMxDjAMBgNVBAoMBXZpdGFtMRQw
EgYDVQQLDAthdXRob3JpdGllczEdMBsGA1UEAwwUY2Ffcm9vdF9pYW0taW50ZXJu
YWwwHhcNMTkxMTIyMTUyMDU1WhcNMjkxMTE5MTUyMDU1WjB4MQswCQYDVQQGEwJm
cjEMMAoGA1UECAwDaWRmMQ4wDAYDVQQHDAVwYXJpczEOMAwGA1UECgwFdml0YW0x
FDASBgNVBAsMC2F1dGhvcml0aWVzMSUwIwYDVQQDDBxjYV9pbnRlcm1lZGlhdGVf
aWFtLWludGVybmFsMIICIjANBgkqhkiG9w0BAQEFAAOCAg8AMIICCgKCAgEA8FaV
7WnJGc4L1ioQTmHhI3H4ywioK0stu3C6ugTa69ZMn1ra3b66uxDy64LSNB4UV4rZ
yzap9bUrZ+ObjaZ7fjuuR4RzxgdITJPB0DafYI7wY9XHR2/cCzHm4r8G5edWJAUB
OSAEc/1VBjLWGl9xDkJtW1EGgDbThba3FyEudjCSlEHABkxFJ3PjN+Q0I0JkB4SF
UhtOZhhXIBpGfFkzRjHtd106l2tq7pbcE2SzrzkwuJrCWrNCV2B9VetVHfvuRFhC
ZXxWkSWHhxyYgoyx/mxZnqDM64K3tJcExgmaf7yFo2Q/uYz2D0qzTx67rqE2bHoc
ETOwgTEm920TyJgDgRu7GQ9dgCoKcrfgaUsT/TCChjv4ncyt2XgSfAZj69VyL5hA
kTVQWakfWN7zwsS6MxM22jGyWWX0lq3nyWclKg0a7zaSGG8aves289Le+Y6Vghfb
Ulnb5sJyxA2ByEURf+zAZfKTCOGxB/NvD14/CchL0wU05zagXtoIMmkd7rVI1zsB
u9BXigNiz70N2zSUW6ubr1PfqWpD69q6DBnKmB4gEizxyndH6IxcEr2FrCiQYO1S
r9usqtyx6Ip5dBK6KYV4HL38iEAT+BASLeK1B15E0N86WyPME1mm0yso+P1z5WA2
7W0TfIrFu+ecqD25mlRCfF3qsBRDF+KmXZts3bcCAwEAAaOCASAwggEcMB4GCWCG
SAGG+EIBDQQRFg9DQSBJbnRlcm1lZGlhdGUwHQYDVR0OBBYEFL1GpzCIpEL8bZQy
1hKu6Zx7gHENMIGbBgNVHSMEgZMwgZCAFM1z+BvStb5Vnd7CZUWxkdc59k5eoXSk
cjBwMQswCQYDVQQGEwJmcjEMMAoGA1UECAwDaWRmMQ4wDAYDVQQHDAVwYXJpczEO
MAwGA1UECgwFdml0YW0xFDASBgNVBAsMC2F1dGhvcml0aWVzMR0wGwYDVQQDDBRj
YV9yb290X2lhbS1pbnRlcm5hbIICASAwEgYDVR0TAQH/BAgwBgEB/wIBADAJBgNV
HRIEAjAAMAsGA1UdDwQEAwIBBjARBglghkgBhvhCAQEEBAMCAgQwDQYJKoZIhvcN
AQELBQADggIBAKFadgFcSvBcmhuW/7yx4sr9dabKfxsrFpkcdc+DOAjTHf4fkHfY
CL3fwKSQGajkcEsP2NGbGdBDG0yPpHu/sQNA/20KG1loREUcNaymsN+yRziwhvv8
YREMr6yGp9DkpMmKs8JLcnzwsxRjFmVmd6x+vYVr21KUa1ste2vc5GDSfogASP4o
Li1nYUFAcS/xCCoQLa6ai6Jic4oTofv50Zi7ze2GkNddvtx3yft7Rs7aohU1u8Qk
1GSgOuYRQbjgVf5O9QIknKQ0KrBEv/zVeqdLfxD0wWREqg2j2YHNTWnNBx+t2cJt
qHqhbCiWqYvbeeIy/kg297lwBmu+KLuWPhXzoqKSwxpoFqS8eEJ5FMWPtk5nlj48
0O1zitw428FhYscfaTIS7yN+LgqYmETE9muQ9/EcnPc+Pfk7cmZ1+vXKTQ8862xf
vDl7WkysYRvusdVK/Tufv9+rMIP64n8AkZiyhVfjha//ciyQIGvyOMMHR6lEY1a2
1H0JLlL9MOzOSG36kgIWuE1z80OYOmP2fqEJd2a8nkMqPHYGkOHcuSgibpZPWDOh
YbYEH9jtN4G0zWEHMq9pAPWUmZdTs8sAgIeVXir/jNj1wq/OUvF9fCoMuFZwYlWq
R6JnxPsCE3Mf97s61GIr87+AJFiEwiYZAIdaiBYg+U5KcptfJFZD9Vd6
-----END CERTIFICATE-----
