Certificate:
    Data:
        Version: 3 (0x2)
        Serial Number: 2 (0x2)
        Signature Algorithm: sha256WithRSAEncryption
        Issuer: C=fr, ST=idf, L=paris, O=vitamui, OU=authorities, CN=ca_root_client-vitam
        Validity
            Not Before: Apr 21 08:36:41 2020 GMT
            Not After : Apr 19 08:36:41 2030 GMT
        Subject: C=fr, ST=idf, L=paris, O=vitamui, OU=authorities, CN=ca_intermediate_client-vitam
        Subject Public Key Info:
            Public Key Algorithm: rsaEncryption
                RSA Public-Key: (4096 bit)
                Modulus:
                    00:ab:ad:db:bf:81:7c:34:34:61:13:54:68:e7:09:
                    cc:6b:3f:b7:90:6d:94:51:9e:02:2c:c4:8c:34:6c:
                    26:60:c7:fa:64:2d:ec:80:d1:91:24:d8:fb:67:83:
                    b2:ac:4f:08:8e:be:ba:da:0e:a7:bf:49:96:aa:58:
                    ea:f0:16:e5:0f:ae:17:79:d8:e9:66:1c:f6:c3:55:
                    66:77:55:1f:0c:fd:f2:b9:4e:ae:1b:5e:0d:c1:0e:
                    51:b8:8f:e8:a9:7f:e2:5f:74:3f:e8:6c:41:21:f0:
                    53:ab:4f:82:ed:c2:b5:87:bc:8a:3d:5f:36:2c:f4:
                    73:94:db:72:ce:ea:63:10:d2:c1:7f:0a:03:93:b8:
                    de:72:57:22:89:56:66:da:fe:70:ca:c3:95:21:df:
                    5a:a5:36:3c:54:1a:92:cf:ba:30:8a:b5:48:54:90:
                    76:9d:de:75:63:3b:8c:f1:46:59:1b:28:29:38:88:
                    c5:4f:01:c7:94:59:3b:e9:50:b9:9e:c8:05:41:dc:
                    5e:76:bd:0a:64:1b:71:a7:25:c7:9c:16:26:24:d2:
                    e7:0f:71:36:fa:0d:a0:6e:28:9f:c0:a2:54:ce:e9:
                    bd:3b:02:75:bc:a6:67:6e:c7:19:16:86:9c:99:9a:
                    c9:d0:7f:63:9e:c6:07:47:95:11:c7:b4:4a:d6:34:
                    b4:76:b4:37:89:f2:2e:b7:33:db:9f:bf:e1:c0:84:
                    7e:f0:aa:e5:15:e9:fa:dc:00:0e:00:f6:f1:f3:10:
                    61:39:64:01:86:6d:91:eb:36:0b:7b:04:63:9f:93:
                    2a:ee:08:31:e9:bb:5c:be:f0:a3:13:95:82:0d:ff:
                    04:ab:d3:8e:0a:e3:4e:ba:7a:98:6c:fa:cb:2b:59:
                    b9:c2:a2:6c:13:ea:a7:14:65:fe:b7:6d:4e:56:b4:
                    2d:3f:aa:ae:d2:0c:87:56:1d:e2:36:91:38:65:69:
                    0d:23:51:07:d5:d7:65:78:87:c8:54:22:82:53:de:
                    3f:fe:45:a1:54:42:b2:d2:d5:f0:b1:c2:30:39:04:
                    03:94:05:d5:06:98:af:7b:ff:4e:35:3c:a4:ac:d6:
                    40:ac:f1:c3:62:db:e7:f6:44:c7:2b:1c:ed:fe:7c:
                    9d:33:03:b3:98:7c:4f:fa:42:81:a2:93:6d:60:85:
                    91:97:8c:50:bc:90:d8:79:39:37:78:bf:c4:71:03:
                    97:c8:ed:1f:fa:fd:ee:06:f1:f0:54:a7:59:02:48:
                    51:84:d2:6f:db:3c:02:de:37:6b:f7:cd:b0:1c:82:
                    1a:08:25:03:f6:95:56:ca:b0:35:40:8f:47:9e:c1:
                    85:ac:55:ef:47:b2:3b:ff:8f:70:7e:dd:9d:f5:03:
                    52:c9:a9
                Exponent: 65537 (0x10001)
        X509v3 extensions:
            Netscape Comment: 
                CA Intermediate
            X509v3 Subject Key Identifier: 
                D2:02:43:D6:2A:DD:DF:77:12:04:7A:8C:72:77:D5:6A:1A:D8:70:6B
            X509v3 Authority Key Identifier: 
                keyid:56:3E:0E:6A:BE:9D:98:36:A7:16:F2:37:C5:1E:EE:AE:2A:03:B6:D6
                DirName:/C=fr/ST=idf/L=paris/O=vitamui/OU=authorities/CN=ca_root_client-vitam
                serial:01

            X509v3 Basic Constraints: critical
                CA:TRUE, pathlen:0
            X509v3 Issuer Alternative Name: 
                <EMPTY>

            X509v3 Key Usage: 
                Certificate Sign, CRL Sign
            Netscape Cert Type: 
                SSL CA
    Signature Algorithm: sha256WithRSAEncryption
         51:0b:49:c5:32:1f:37:ca:62:03:9a:04:5d:13:2b:c4:cf:8a:
         c6:46:a4:8f:9a:e5:f7:21:2d:83:39:d6:80:26:13:95:de:8c:
         d7:45:0b:50:5f:a7:43:83:83:d7:0b:66:e5:04:f2:8a:7b:90:
         28:07:f8:90:43:10:3e:53:1a:2d:be:90:f8:c0:c6:7f:47:2b:
         2e:47:14:0c:04:7a:66:1b:55:ca:f7:6d:fd:ef:83:a4:54:7c:
         5d:a5:98:d1:62:05:88:85:b6:14:96:36:6b:26:0a:b8:9a:56:
         57:37:79:76:b6:ea:08:ba:75:92:9e:bf:b3:e0:35:88:60:89:
         9c:9c:7e:39:4c:e3:41:ab:d4:45:64:68:b8:62:f8:4e:4f:f7:
         32:41:de:c0:9f:0b:d2:b4:56:bd:73:d7:09:7e:fd:19:76:e9:
         14:f7:6d:1e:ce:a4:28:da:c9:8e:41:8f:c5:0f:63:80:53:aa:
         e7:32:a9:4f:4f:e1:4c:03:07:0a:2e:15:44:93:96:15:18:dd:
         ac:57:d1:f5:7f:63:20:1f:c1:cf:99:54:e5:b5:7b:7f:3b:e6:
         d4:67:9b:2d:36:5e:78:2a:b7:83:5f:73:4a:e6:4f:7e:c8:e5:
         29:82:8b:dc:24:bb:9f:6f:0f:2b:d3:64:7f:be:44:5c:db:34:
         55:0e:0b:6c:eb:17:41:85:66:5f:77:46:ce:93:80:2b:d6:49:
         49:89:a1:3c:76:45:08:4c:e1:a4:55:77:df:b8:3b:07:23:ca:
         8f:a6:25:9c:f2:76:9f:0b:d8:35:4e:53:93:7b:15:79:20:a8:
         2c:01:8e:2a:5f:b9:ef:f5:b2:10:b9:c5:3f:33:42:46:b1:d6:
         6a:d2:62:b8:dd:f8:20:04:b3:c0:6c:5b:04:32:a7:b9:70:18:
         c3:de:f3:c1:e0:8d:b6:cb:44:24:28:9a:c5:fd:cd:03:9a:fa:
         df:e4:d5:a6:ef:27:2d:55:bf:56:6d:77:d2:ca:88:dc:3e:2a:
         a8:17:89:57:cb:47:66:2c:ef:e8:83:23:dd:c1:d9:a7:01:cf:
         e0:2f:9d:b8:06:4b:22:79:c4:7b:d5:d7:5c:36:92:c5:c3:83:
         2d:14:0f:ec:cc:5f:bd:99:da:90:6f:d6:77:67:8a:10:2c:bf:
         2e:f8:dc:f6:5e:33:9e:cd:ec:04:8a:c3:b7:f4:1a:09:80:46:
         9c:3a:de:ed:5b:ab:0a:2a:7a:b4:28:ce:80:56:f3:15:d6:79:
         eb:61:ad:77:86:ac:51:1a:f9:ab:5f:1f:07:c0:9e:34:40:57:
         19:03:89:92:ee:7c:98:de:6c:19:9e:db:da:aa:a9:54:19:56:
         28:da:dd:20:ee:0d:2b:5d
-----BEGIN CERTIFICATE-----
MIIGijCCBHKgAwIBAgIBAjANBgkqhkiG9w0BAQsFADByMQswCQYDVQQGEwJmcjEM
MAoGA1UECAwDaWRmMQ4wDAYDVQQHDAVwYXJpczEQMA4GA1UECgwHdml0YW11aTEU
MBIGA1UECwwLYXV0aG9yaXRpZXMxHTAbBgNVBAMMFGNhX3Jvb3RfY2xpZW50LXZp
dGFtMB4XDTIwMDQyMTA4MzY0MVoXDTMwMDQxOTA4MzY0MVowejELMAkGA1UEBhMC
ZnIxDDAKBgNVBAgMA2lkZjEOMAwGA1UEBwwFcGFyaXMxEDAOBgNVBAoMB3ZpdGFt
dWkxFDASBgNVBAsMC2F1dGhvcml0aWVzMSUwIwYDVQQDDBxjYV9pbnRlcm1lZGlh
dGVfY2xpZW50LXZpdGFtMIICIjANBgkqhkiG9w0BAQEFAAOCAg8AMIICCgKCAgEA
q63bv4F8NDRhE1Ro5wnMaz+3kG2UUZ4CLMSMNGwmYMf6ZC3sgNGRJNj7Z4OyrE8I
jr662g6nv0mWqljq8BblD64XedjpZhz2w1Vmd1UfDP3yuU6uG14NwQ5RuI/oqX/i
X3Q/6GxBIfBTq0+C7cK1h7yKPV82LPRzlNtyzupjENLBfwoDk7jeclciiVZm2v5w
ysOVId9apTY8VBqSz7owirVIVJB2nd51YzuM8UZZGygpOIjFTwHHlFk76VC5nsgF
Qdxedr0KZBtxpyXHnBYmJNLnD3E2+g2gbiifwKJUzum9OwJ1vKZnbscZFoacmZrJ
0H9jnsYHR5URx7RK1jS0drQ3ifIutzPbn7/hwIR+8KrlFen63AAOAPbx8xBhOWQB
hm2R6zYLewRjn5Mq7ggx6btcvvCjE5WCDf8Eq9OOCuNOunqYbPrLK1m5wqJsE+qn
FGX+t21OVrQtP6qu0gyHVh3iNpE4ZWkNI1EH1ddleIfIVCKCU94//kWhVEKy0tXw
scIwOQQDlAXVBpive/9ONTykrNZArPHDYtvn9kTHKxzt/nydMwOzmHxP+kKBopNt
YIWRl4xQvJDYeTk3eL/EcQOXyO0f+v3uBvHwVKdZAkhRhNJv2zwC3jdr982wHIIa
CCUD9pVWyrA1QI9HnsGFrFXvR7I7/49wft2d9QNSyakCAwEAAaOCASEwggEdMB4G
CWCGSAGG+EIBDQQRFg9DQSBJbnRlcm1lZGlhdGUwHQYDVR0OBBYEFNICQ9Yq3d93
EgR6jHJ31Woa2HBrMIGcBgNVHSMEgZQwgZGAFFY+Dmq+nZg2pxbyN8Ue7q4qA7bW
oXakdDByMQswCQYDVQQGEwJmcjEMMAoGA1UECAwDaWRmMQ4wDAYDVQQHDAVwYXJp
czEQMA4GA1UECgwHdml0YW11aTEUMBIGA1UECwwLYXV0aG9yaXRpZXMxHTAbBgNV
BAMMFGNhX3Jvb3RfY2xpZW50LXZpdGFtggEBMBIGA1UdEwEB/wQIMAYBAf8CAQAw
CQYDVR0SBAIwADALBgNVHQ8EBAMCAQYwEQYJYIZIAYb4QgEBBAQDAgIEMA0GCSqG
SIb3DQEBCwUAA4ICAQBRC0nFMh83ymIDmgRdEyvEz4rGRqSPmuX3IS2DOdaAJhOV
3ozXRQtQX6dDg4PXC2blBPKKe5AoB/iQQxA+UxotvpD4wMZ/RysuRxQMBHpmG1XK
923974OkVHxdpZjRYgWIhbYUljZrJgq4mlZXN3l2tuoIunWSnr+z4DWIYImcnH45
TONBq9RFZGi4YvhOT/cyQd7AnwvStFa9c9cJfv0ZdukU920ezqQo2smOQY/FD2OA
U6rnMqlPT+FMAwcKLhVEk5YVGN2sV9H1f2MgH8HPmVTltXt/O+bUZ5stNl54KreD
X3NK5k9+yOUpgovcJLufbw8r02R/vkRc2zRVDgts6xdBhWZfd0bOk4Ar1klJiaE8
dkUITOGkVXffuDsHI8qPpiWc8nafC9g1TlOTexV5IKgsAY4qX7nv9bIQucU/M0JG
sdZq0mK43fggBLPAbFsEMqe5cBjD3vPB4I22y0QkKJrF/c0Dmvrf5NWm7yctVb9W
bXfSyojcPiqoF4lXy0dmLO/ogyPdwdmnAc/gL524BksiecR71ddcNpLFw4MtFA/s
zF+9mdqQb9Z3Z4oQLL8u+Nz2XjOezewEisO39BoJgEacOt7tW6sKKnq0KM6AVvMV
1nnrYa13hqxRGvmrXx8HwJ40QFcZA4mS7nyY3mwZntvaqqlUGVYo2t0g7g0rXQ==
-----END CERTIFICATE-----
