Certificate:
    Data:
        Version: 3 (0x2)
        Serial Number: 1 (0x1)
        Signature Algorithm: sha256WithRSAEncryption
        Issuer: C=fr, ST=idf, L=paris, O=vitamui, OU=authorities, CN=ca_root_client-vitam
        Validity
            Not Before: May  5 09:13:47 2020 GMT
            Not After : May  3 09:13:47 2030 GMT
        Subject: C=fr, ST=idf, L=paris, O=vitamui, OU=authorities, CN=ca_root_client-vitam
        Subject Public Key Info:
            Public Key Algorithm: rsaEncryption
                RSA Public-Key: (4096 bit)
                Modulus:
                    00:c4:09:8e:5f:bb:7f:a5:f8:4e:28:02:67:b4:ed:
                    09:a3:a6:ea:e7:28:8e:42:c7:16:0c:e8:57:fe:1d:
                    0b:3b:a9:79:22:b3:32:05:a3:06:ad:f1:3f:b9:76:
                    48:2c:e4:f4:93:a9:b6:30:d3:28:0d:de:b1:25:4a:
                    5c:7b:32:cf:93:b4:e9:58:5e:c0:fe:f6:3d:4f:75:
                    f2:55:63:02:c8:52:f9:c0:2e:92:af:db:17:90:bc:
                    65:28:ce:20:a0:6c:1a:14:4c:94:01:50:51:71:e7:
                    0a:58:e2:7d:31:36:c7:10:92:d2:22:48:a2:81:fa:
                    02:df:bd:71:4f:69:66:28:65:de:5e:63:5a:ef:3d:
                    50:46:e3:2d:8e:b8:8f:23:ce:16:6d:40:31:42:60:
                    e5:f0:9b:f9:17:6f:ab:8a:46:5b:b4:e0:0d:1e:4d:
                    d6:d1:7f:f9:6b:44:2e:f3:0d:eb:fa:bd:9e:41:64:
                    5f:de:5f:70:ae:81:77:9b:c6:c6:0c:42:c5:56:53:
                    cd:bb:8a:3d:73:65:f4:06:a6:59:34:23:33:fa:e4:
                    78:53:34:e0:9b:82:6e:fd:79:2c:d4:56:59:6d:f3:
                    19:a6:96:e6:3e:14:19:68:4b:03:b1:9d:38:a1:fc:
                    f8:f9:7a:9d:20:c0:d7:5d:eb:1d:01:06:61:2c:d6:
                    1c:a6:11:94:25:80:c9:2d:fc:8b:fa:5b:e7:59:1f:
                    90:2b:fe:de:ce:22:5e:26:d3:79:e6:21:39:e0:53:
                    0c:0f:b9:22:00:59:e3:ed:54:9c:34:f4:ab:1e:45:
                    4e:be:d1:b0:bf:10:b5:72:5a:dd:31:23:46:65:9f:
                    1a:fd:6c:e5:bc:7a:fd:41:cc:1d:b1:e5:43:62:3a:
                    d5:f0:18:0d:8e:ef:28:62:f4:a8:41:03:b6:2a:6e:
                    c1:59:0c:a5:be:e5:a2:ab:ed:0f:a6:9c:bc:ac:b4:
                    5b:6a:a0:3b:83:08:26:a0:f8:b0:f1:a6:ab:be:ed:
                    c4:ac:df:aa:0f:03:eb:43:48:fd:a7:78:e3:7b:4b:
                    7d:40:d9:ac:cf:d4:94:8d:8d:8e:d6:2f:71:9c:81:
                    e9:65:2f:6e:57:6f:21:c2:fa:e1:18:1d:e1:69:ba:
                    5b:4e:e9:db:12:39:be:01:7e:ed:de:52:28:a8:a5:
                    59:26:1c:c5:f3:12:49:70:e4:7c:e0:dc:57:aa:38:
                    0e:6d:af:76:87:19:d8:db:f6:e3:7f:cd:1b:9f:32:
                    25:2e:ec:b0:b5:bb:65:64:ac:30:f5:7d:f5:cf:83:
                    aa:68:41:c8:ba:f0:b3:d9:6c:93:97:b3:89:91:b5:
                    b5:55:37:81:a9:9f:66:eb:c4:01:58:c0:d2:38:d0:
                    af:ce:f5
                Exponent: 65537 (0x10001)
        X509v3 extensions:
            Netscape Comment: 
                CA Root
            X509v3 Subject Key Identifier: 
                06:FE:4C:68:B6:B0:FA:83:B5:FC:2D:9E:52:78:59:63:01:E0:8E:B9
            X509v3 Authority Key Identifier: 
                keyid:06:FE:4C:68:B6:B0:FA:83:B5:FC:2D:9E:52:78:59:63:01:E0:8E:B9

            X509v3 Basic Constraints: critical
                CA:TRUE, pathlen:1
            X509v3 Key Usage: 
                Certificate Sign, CRL Sign
            Netscape Cert Type: 
                SSL CA
    Signature Algorithm: sha256WithRSAEncryption
         0d:b6:01:e5:5f:47:4c:87:8e:0a:83:20:52:10:1e:00:c5:c7:
         bc:da:36:2a:db:73:0e:78:ea:06:7d:97:30:77:68:51:34:ae:
         d9:8a:ec:7e:f8:3a:aa:e4:15:59:ea:65:1e:84:47:77:03:0d:
         4e:43:b7:88:aa:94:35:de:14:cb:c4:6f:07:ef:f8:ff:cd:b8:
         18:60:c2:87:eb:23:2a:c2:c6:b4:16:15:24:ad:bb:2f:25:94:
         a2:36:22:ac:10:61:d1:bb:14:de:bd:b5:f8:58:5e:1d:46:56:
         f8:0f:7a:45:ea:ef:64:19:17:d6:ca:e3:d9:14:a2:b6:95:f9:
         5a:0a:f0:0b:0b:2b:bc:1c:85:6a:a1:39:47:d4:47:e5:91:d2:
         9d:82:1d:07:bd:34:fe:05:e7:60:97:77:65:9a:d8:1c:07:4a:
         5f:4a:f0:f4:f1:9d:44:6e:0e:ef:d9:ba:20:81:d9:99:d3:0a:
         0b:a9:f9:58:ee:de:6b:e2:13:9f:33:4c:2f:8f:03:49:ce:75:
         95:aa:de:b0:03:19:5a:ad:99:94:a5:3a:4a:dc:19:94:a3:62:
         3d:b3:14:f8:cd:37:42:e8:66:f7:e8:7e:0e:70:c7:be:3b:e9:
         04:1e:46:21:2e:8a:dc:13:d3:b3:be:74:77:dc:e9:20:95:ce:
         9b:28:0b:60:1f:7e:5a:ea:ea:7e:e3:d0:07:4a:21:0e:f0:9a:
         37:bb:98:03:bf:ed:46:b0:2c:6b:9c:19:1a:43:0e:22:62:21:
         59:69:b4:31:15:74:06:26:ba:02:83:85:3a:32:d7:71:6d:f9:
         95:80:44:d5:09:d4:4f:9c:e1:e9:8d:18:5f:54:89:82:ed:c7:
         bd:77:66:c5:39:8e:53:60:4d:4f:bd:0b:56:58:5e:b9:9d:ec:
         ce:48:13:21:74:37:3d:25:9f:e5:b7:40:b4:f0:13:52:a5:7e:
         8e:51:da:ce:3e:80:15:b3:a5:7a:39:2e:d8:c8:b0:96:6a:3d:
         2a:6a:e5:88:e5:e2:f7:a5:aa:3f:c5:dd:8b:49:9b:2f:04:39:
         12:4e:ad:9b:a7:26:be:11:c7:76:ff:85:1a:ac:45:77:aa:90:
         81:3e:e1:7d:d6:37:7a:ae:69:8d:4d:8a:bb:72:b4:8f:85:de:
         b8:72:f2:55:65:cd:61:24:d3:8d:dc:99:54:38:d1:1f:c9:93:
         d8:e8:da:0a:02:a3:d6:1a:fe:15:08:a4:9f:41:ab:22:c1:7d:
         27:29:fc:9b:f0:19:26:a6:73:19:a4:68:97:1d:d4:cf:27:38:
         18:26:4b:55:e2:cf:35:b6:cc:5f:dc:a6:5d:07:09:f8:1c:6a:
         59:bc:5d:a6:89:43:69:a4
-----BEGIN CERTIFICATE-----
MIIF7zCCA9egAwIBAgIBATANBgkqhkiG9w0BAQsFADByMQswCQYDVQQGEwJmcjEM
MAoGA1UECAwDaWRmMQ4wDAYDVQQHDAVwYXJpczEQMA4GA1UECgwHdml0YW11aTEU
MBIGA1UECwwLYXV0aG9yaXRpZXMxHTAbBgNVBAMMFGNhX3Jvb3RfY2xpZW50LXZp
dGFtMB4XDTIwMDUwNTA5MTM0N1oXDTMwMDUwMzA5MTM0N1owcjELMAkGA1UEBhMC
ZnIxDDAKBgNVBAgMA2lkZjEOMAwGA1UEBwwFcGFyaXMxEDAOBgNVBAoMB3ZpdGFt
dWkxFDASBgNVBAsMC2F1dGhvcml0aWVzMR0wGwYDVQQDDBRjYV9yb290X2NsaWVu
dC12aXRhbTCCAiIwDQYJKoZIhvcNAQEBBQADggIPADCCAgoCggIBAMQJjl+7f6X4
TigCZ7TtCaOm6ucojkLHFgzoV/4dCzupeSKzMgWjBq3xP7l2SCzk9JOptjDTKA3e
sSVKXHsyz5O06VhewP72PU918lVjAshS+cAukq/bF5C8ZSjOIKBsGhRMlAFQUXHn
CljifTE2xxCS0iJIooH6At+9cU9pZihl3l5jWu89UEbjLY64jyPOFm1AMUJg5fCb
+Rdvq4pGW7TgDR5N1tF/+WtELvMN6/q9nkFkX95fcK6Bd5vGxgxCxVZTzbuKPXNl
9AamWTQjM/rkeFM04JuCbv15LNRWWW3zGaaW5j4UGWhLA7GdOKH8+Pl6nSDA113r
HQEGYSzWHKYRlCWAyS38i/pb51kfkCv+3s4iXibTeeYhOeBTDA+5IgBZ4+1UnDT0
qx5FTr7RsL8QtXJa3TEjRmWfGv1s5bx6/UHMHbHlQ2I61fAYDY7vKGL0qEEDtipu
wVkMpb7loqvtD6acvKy0W2qgO4MIJqD4sPGmq77txKzfqg8D60NI/ad443tLfUDZ
rM/UlI2NjtYvcZyB6WUvbldvIcL64Rgd4Wm6W07p2xI5vgF+7d5SKKilWSYcxfMS
SXDkfODcV6o4Dm2vdocZ2Nv243/NG58yJS7ssLW7ZWSsMPV99c+DqmhByLrws9ls
k5eziZG1tVU3gamfZuvEAVjA0jjQr871AgMBAAGjgY8wgYwwFgYJYIZIAYb4QgEN
BAkWB0NBIFJvb3QwHQYDVR0OBBYEFAb+TGi2sPqDtfwtnlJ4WWMB4I65MB8GA1Ud
IwQYMBaAFAb+TGi2sPqDtfwtnlJ4WWMB4I65MBIGA1UdEwEB/wQIMAYBAf8CAQEw
CwYDVR0PBAQDAgEGMBEGCWCGSAGG+EIBAQQEAwICBDANBgkqhkiG9w0BAQsFAAOC
AgEADbYB5V9HTIeOCoMgUhAeAMXHvNo2KttzDnjqBn2XMHdoUTSu2Yrsfvg6quQV
WeplHoRHdwMNTkO3iKqUNd4Uy8RvB+/4/824GGDCh+sjKsLGtBYVJK27LyWUojYi
rBBh0bsU3r21+FheHUZW+A96RervZBkX1srj2RSitpX5WgrwCwsrvByFaqE5R9RH
5ZHSnYIdB700/gXnYJd3ZZrYHAdKX0rw9PGdRG4O79m6IIHZmdMKC6n5WO7ea+IT
nzNML48DSc51laresAMZWq2ZlKU6StwZlKNiPbMU+M03Quhm9+h+DnDHvjvpBB5G
IS6K3BPTs750d9zpIJXOmygLYB9+WurqfuPQB0ohDvCaN7uYA7/tRrAsa5wZGkMO
ImIhWWm0MRV0Bia6AoOFOjLXcW35lYBE1QnUT5zh6Y0YX1SJgu3HvXdmxTmOU2BN
T70LVlheuZ3szkgTIXQ3PSWf5bdAtPATUqV+jlHazj6AFbOlejku2Miwlmo9Kmrl
iOXi96WqP8Xdi0mbLwQ5Ek6tm6cmvhHHdv+FGqxFd6qQgT7hfdY3eq5pjU2Ku3K0
j4XeuHLyVWXNYSTTjdyZVDjRH8mT2OjaCgKj1hr+FQikn0GrIsF9Jyn8m/AZJqZz
GaRolx3Uzyc4GCZLVeLPNbbMX9ymXQcJ+BxqWbxdpolDaaQ=
-----END CERTIFICATE-----
