Certificate:
    Data:
        Version: 3 (0x2)
        Serial Number: 288 (0x120)
    Signature Algorithm: sha256WithRSAEncryption
        Issuer: C=fr, ST=idf, L=paris, O=vitam, OU=authorities, CN=ca_root_iam-internal
        Validity
            Not Before: Nov 22 15:20:54 2019 GMT
            Not After : Nov 19 15:20:54 2029 GMT
        Subject: C=fr, ST=idf, L=paris, O=vitam, OU=authorities, CN=ca_root_iam-internal
        Subject Public Key Info:
            Public Key Algorithm: rsaEncryption
                Public-Key: (4096 bit)
                Modulus:
                    00:b0:14:16:80:02:35:3f:79:3e:2d:60:74:ed:28:
                    ad:86:e0:6e:eb:9c:3f:d1:2e:03:31:84:60:74:e1:
                    87:76:24:58:1b:85:a9:7d:64:12:83:54:26:c5:66:
                    26:dd:c1:e4:c9:6f:05:b6:a9:db:a6:6a:5c:92:1e:
                    f1:1e:7d:eb:c1:00:15:9c:51:cc:86:02:47:25:40:
                    2b:92:37:d7:59:3e:57:d4:74:3f:2e:4f:ec:12:29:
                    4b:c0:e4:8b:d5:02:e6:da:2b:96:68:59:de:a9:f0:
                    b4:55:a3:b7:b3:9f:92:e8:cb:be:16:e5:77:0b:a6:
                    35:50:cb:7e:9f:3c:b1:aa:06:bf:2a:b4:83:c2:e8:
                    0b:b6:f0:43:6b:d1:0f:cb:71:89:fc:f4:7a:55:8d:
                    cf:62:fe:fb:5b:fc:52:d9:e2:7f:37:af:4d:05:1d:
                    df:da:cc:8a:0d:13:6f:0b:3a:67:d4:39:a7:37:8c:
                    7f:d8:87:c6:a3:11:cb:4d:2a:e4:9d:c6:87:5c:fc:
                    d7:e4:5e:bc:cd:24:04:ae:a2:c0:81:cd:1c:f8:ec:
                    00:7b:be:a1:d9:02:c2:9a:cd:fa:fa:a6:0f:27:93:
                    6f:92:35:e4:75:5c:4c:65:51:8b:e2:dc:d1:a6:c8:
                    52:b6:8c:0e:e5:2b:b5:09:f1:91:70:ec:97:78:0b:
                    22:bc:0e:be:e7:07:73:57:74:28:3c:f6:4a:c5:d1:
                    dc:6d:7c:54:b9:85:62:59:bb:fc:15:f0:08:6f:fd:
                    3c:24:23:55:3a:fc:12:de:19:21:d5:c3:21:ba:54:
                    05:3d:59:69:17:b9:1a:2a:51:84:f1:58:b9:da:35:
                    63:d9:4a:bf:97:ff:f0:b2:97:a7:2e:a2:45:8b:40:
                    05:5b:94:1c:15:35:3c:d2:c2:88:94:d3:bf:d9:c0:
                    7b:ee:41:bf:89:d2:8a:91:fb:7b:41:39:92:84:f8:
                    43:d7:ac:3c:7c:0e:f6:ef:75:35:74:33:44:96:7f:
                    97:88:b7:39:a0:ae:c3:f0:a0:af:d4:1f:26:9c:04:
                    47:8d:61:78:5b:e3:fc:a5:ff:06:f2:fe:af:75:f2:
                    12:5f:a7:fb:41:1e:81:ed:ad:9d:49:2a:3c:26:47:
                    83:96:12:dc:c9:d9:43:57:7d:6d:4f:e7:ca:14:36:
                    8a:85:5f:78:f0:db:b4:18:1a:68:4d:7c:5f:52:ef:
                    0f:df:99:1a:d2:54:61:25:cd:48:b3:74:aa:20:42:
                    f4:47:4d:ec:a1:02:00:87:69:52:ce:ac:46:59:ae:
                    8d:f4:a2:a1:ed:4a:17:58:39:90:5e:06:d5:8c:23:
                    34:0e:5c:88:88:4f:d5:11:ea:d9:fd:ad:d3:36:ff:
                    0e:59:cf
                Exponent: 65537 (0x10001)
        X509v3 extensions:
            Netscape Comment:
                CA Root
            X509v3 Subject Key Identifier:
                CD:73:F8:1B:D2:B5:BE:55:9D:DE:C2:65:45:B1:91:D7:39:F6:4E:5E
            X509v3 Authority Key Identifier:
                keyid:CD:73:F8:1B:D2:B5:BE:55:9D:DE:C2:65:45:B1:91:D7:39:F6:4E:5E

            X509v3 Basic Constraints: critical
                CA:TRUE, pathlen:1
            X509v3 Key Usage:
                Certificate Sign, CRL Sign
            Netscape Cert Type:
                SSL CA
    Signature Algorithm: sha256WithRSAEncryption
         8a:d0:4c:52:df:12:9f:7b:64:f1:7f:8c:ac:a0:cc:ff:38:24:
         f3:89:9c:8c:76:be:f7:ce:d9:d5:ab:8f:78:a4:51:6f:34:f4:
         90:9b:39:9c:db:de:c4:c7:e8:b1:24:26:0d:4c:83:22:ce:c2:
         1c:7e:b5:38:0d:82:24:3d:f6:8a:4c:35:ca:77:4f:56:03:5a:
         cd:28:c4:42:82:8d:5a:21:26:b6:03:18:05:d8:bf:76:81:29:
         89:34:24:76:2f:42:87:db:0f:b0:3e:fc:fa:70:77:78:5d:92:
         ae:58:ee:a3:fb:7e:22:37:22:c4:ac:86:78:e9:a5:12:04:fd:
         e6:6f:cd:6e:39:fe:1d:d3:e6:c1:96:2f:2b:d3:42:8a:2c:e0:
         d0:0d:51:50:dc:7e:d9:d4:2c:31:a0:1f:a4:3b:c9:19:88:52:
         4d:13:5a:cc:74:43:74:90:16:51:d1:09:a9:d8:84:7a:41:71:
         9d:eb:8d:93:3a:42:eb:a4:3c:37:d5:ba:42:cb:15:1d:71:79:
         be:7c:1f:1b:be:1a:2f:0b:33:03:e4:a1:ed:90:4e:33:93:a1:
         3b:1e:93:c2:59:4e:e5:8f:d5:e0:87:8b:f6:b0:7e:cc:09:51:
         80:f4:59:8c:20:0f:e2:f7:02:c5:8c:bc:8b:e4:e8:22:57:c2:
         21:8a:ac:7b:77:e7:2f:93:69:01:e2:0f:f1:ac:c3:78:9a:c1:
         09:77:7d:1c:d4:18:f9:ff:98:14:3f:a1:7c:85:b2:54:28:a3:
         14:cf:f2:26:77:8c:97:79:3f:69:ad:58:ec:de:60:31:4c:c5:
         8f:25:5c:2b:5c:01:9e:ce:62:50:2e:8b:b3:9c:24:47:7d:ee:
         c2:69:bb:b5:70:b0:ff:ab:0a:f0:40:94:ce:4d:91:3b:75:f5:
         98:4f:d2:ac:8e:66:2a:ff:af:cf:d8:28:ba:95:98:16:90:29:
         d0:f8:eb:6c:0f:7a:09:55:fb:a0:c2:da:9f:13:86:cb:b3:db:
         9a:f2:69:61:c0:26:07:4b:25:1e:98:8d:97:b8:6a:3c:e7:c8:
         76:02:c6:39:7f:51:b8:de:14:f5:ad:49:de:e2:09:09:33:aa:
         4c:57:3d:da:51:35:a8:c9:d0:12:84:89:2b:f7:e8:70:10:c6:
         26:12:8e:33:fd:92:c4:53:24:83:23:be:46:64:56:46:1e:e2:
         e8:31:7e:e4:d0:a8:da:84:3c:cd:2c:d0:c8:7e:75:16:c4:09:
         a6:d4:56:4e:5c:bf:50:47:e5:c6:32:1a:85:44:a6:44:1d:0d:
         1a:9f:ed:df:71:ea:74:4d:25:47:fe:31:8c:72:82:f0:1b:c9:
         21:a0:87:91:de:01:54:5e
-----BEGIN CERTIFICATE-----
MIIF7DCCA9SgAwIBAgICASAwDQYJKoZIhvcNAQELBQAwcDELMAkGA1UEBhMCZnIx
DDAKBgNVBAgMA2lkZjEOMAwGA1UEBwwFcGFyaXMxDjAMBgNVBAoMBXZpdGFtMRQw
EgYDVQQLDAthdXRob3JpdGllczEdMBsGA1UEAwwUY2Ffcm9vdF9pYW0taW50ZXJu
YWwwHhcNMTkxMTIyMTUyMDU0WhcNMjkxMTE5MTUyMDU0WjBwMQswCQYDVQQGEwJm
cjEMMAoGA1UECAwDaWRmMQ4wDAYDVQQHDAVwYXJpczEOMAwGA1UECgwFdml0YW0x
FDASBgNVBAsMC2F1dGhvcml0aWVzMR0wGwYDVQQDDBRjYV9yb290X2lhbS1pbnRl
cm5hbDCCAiIwDQYJKoZIhvcNAQEBBQADggIPADCCAgoCggIBALAUFoACNT95Pi1g
dO0orYbgbuucP9EuAzGEYHThh3YkWBuFqX1kEoNUJsVmJt3B5MlvBbap26ZqXJIe
8R5968EAFZxRzIYCRyVAK5I311k+V9R0Py5P7BIpS8Dki9UC5torlmhZ3qnwtFWj
t7OfkujLvhbldwumNVDLfp88saoGvyq0g8LoC7bwQ2vRD8txifz0elWNz2L++1v8
UtnifzevTQUd39rMig0Tbws6Z9Q5pzeMf9iHxqMRy00q5J3Gh1z81+RevM0kBK6i
wIHNHPjsAHu+odkCwprN+vqmDyeTb5I15HVcTGVRi+Lc0abIUraMDuUrtQnxkXDs
l3gLIrwOvucHc1d0KDz2SsXR3G18VLmFYlm7/BXwCG/9PCQjVTr8Et4ZIdXDIbpU
BT1ZaRe5GipRhPFYudo1Y9lKv5f/8LKXpy6iRYtABVuUHBU1PNLCiJTTv9nAe+5B
v4nSipH7e0E5koT4Q9esPHwO9u91NXQzRJZ/l4i3OaCuw/Cgr9QfJpwER41heFvj
/KX/BvL+r3XyEl+n+0Eege2tnUkqPCZHg5YS3MnZQ1d9bU/nyhQ2ioVfePDbtBga
aE18X1LvD9+ZGtJUYSXNSLN0qiBC9EdN7KECAIdpUs6sRlmujfSioe1KF1g5kF4G
1YwjNA5ciIhP1RHq2f2t0zb/DlnPAgMBAAGjgY8wgYwwFgYJYIZIAYb4QgENBAkW
B0NBIFJvb3QwHQYDVR0OBBYEFM1z+BvStb5Vnd7CZUWxkdc59k5eMB8GA1UdIwQY
MBaAFM1z+BvStb5Vnd7CZUWxkdc59k5eMBIGA1UdEwEB/wQIMAYBAf8CAQEwCwYD
VR0PBAQDAgEGMBEGCWCGSAGG+EIBAQQEAwICBDANBgkqhkiG9w0BAQsFAAOCAgEA
itBMUt8Sn3tk8X+MrKDM/zgk84mcjHa+987Z1auPeKRRbzT0kJs5nNvexMfosSQm
DUyDIs7CHH61OA2CJD32ikw1yndPVgNazSjEQoKNWiEmtgMYBdi/doEpiTQkdi9C
h9sPsD78+nB3eF2Srljuo/t+IjcixKyGeOmlEgT95m/Nbjn+HdPmwZYvK9NCiizg
0A1RUNx+2dQsMaAfpDvJGYhSTRNazHRDdJAWUdEJqdiEekFxneuNkzpC66Q8N9W6
QssVHXF5vnwfG74aLwszA+Sh7ZBOM5OhOx6TwllO5Y/V4IeL9rB+zAlRgPRZjCAP
4vcCxYy8i+ToIlfCIYqse3fnL5NpAeIP8azDeJrBCXd9HNQY+f+YFD+hfIWyVCij
FM/yJneMl3k/aa1Y7N5gMUzFjyVcK1wBns5iUC6Ls5wkR33uwmm7tXCw/6sK8ECU
zk2RO3X1mE/SrI5mKv+vz9goupWYFpAp0PjrbA96CVX7oMLanxOGy7PbmvJpYcAm
B0slHpiNl7hqPOfIdgLGOX9RuN4U9a1J3uIJCTOqTFc92lE1qMnQEoSJK/focBDG
JhKOM/2SxFMkgyO+RmRWRh7i6DF+5NCo2oQ8zSzQyH51FsQJptRWTly/UEflxjIa
hUSmRB0NGp/t33HqdE0lR/4xjHKC8BvJIaCHkd4BVF4=
-----END CERTIFICATE-----
