Certificate:
    Data:
        Version: 3 (0x2)
        Serial Number:
            0c:cb:fc:c3:a6:3f:21:c5:68:83:e3:fd:5d:2a:ab:1f
        Signature Algorithm: sha256WithRSAEncryption
        Issuer: C=fr, ST=idf, L=paris, O=vitamui, OU=authorities, CN=ca_root_vitamui
        Validity
            Not Before: Jan 14 14:02:16 2020 GMT
            Not After : Jan 13 14:02:16 2023 GMT
        Subject: C=fr, ST=idf, L=paris, O=vitamui, CN=jkspasswd
        Subject Public Key Info:
            Public Key Algorithm: rsaEncryption
                RSA Public-Key: (4096 bit)
                Modulus:
                    00:d0:68:0a:d7:a5:27:86:11:0d:16:e4:6d:84:b9:
                    0d:26:8f:29:b0:6c:fe:f9:26:8b:8c:6e:50:56:0e:
                    6b:e4:9a:fa:77:0b:13:a6:65:33:cb:32:46:4d:42:
                    22:8c:f3:2d:f7:a7:d9:64:eb:26:42:13:0f:c9:80:
                    b6:40:f8:85:83:db:3c:0b:2a:57:55:14:06:06:1b:
                    e9:94:21:3d:7e:6c:63:3d:f3:03:34:09:65:c7:6d:
                    8c:96:a6:41:64:11:94:a0:b2:a5:70:8c:55:44:0a:
                    a1:25:2e:ae:a1:3b:21:b2:31:35:d7:98:80:96:65:
                    71:88:82:47:87:d2:7c:a4:8b:ca:5f:b1:55:aa:86:
                    68:cf:75:fa:1f:78:77:37:04:80:71:45:4d:ce:5d:
                    1e:fd:e4:cb:18:fb:6a:e5:77:ec:c8:3a:75:a7:28:
                    09:6e:87:af:70:72:a4:00:5e:d7:f1:03:61:90:92:
                    43:41:7d:af:8e:b0:6c:5d:6f:0d:9c:73:e2:db:d6:
                    5e:98:5b:96:28:07:5f:1f:a1:86:18:56:5d:8a:3b:
                    cc:50:b9:fd:ef:a9:d4:10:ee:89:b7:de:67:fb:3d:
                    cb:66:0b:03:22:01:03:8d:76:18:03:dc:88:4e:a1:
                    cf:1f:45:02:4b:bd:d1:40:ae:07:9a:59:18:77:aa:
                    35:de:37:b0:95:0a:94:27:18:7a:8d:46:a5:8c:68:
                    f6:61:31:7d:e2:f3:bb:fc:b1:f3:43:e9:3b:06:2c:
                    0d:ad:63:6e:18:1c:23:09:c2:14:e1:18:1d:03:47:
                    3d:7d:0b:05:c5:7e:8a:07:ff:56:7a:b0:74:8f:b7:
                    97:78:e3:f6:ea:72:0e:88:eb:7a:a8:f2:63:76:f8:
                    8e:f9:53:87:25:55:a2:c2:20:12:d1:fd:e4:50:a5:
                    66:4a:6f:f8:21:80:91:76:a0:ab:e4:c4:62:5c:f9:
                    84:66:47:a3:91:42:7e:21:34:69:1d:98:64:cf:85:
                    02:14:1b:91:00:8d:5f:c2:3b:e0:d6:da:a2:34:73:
                    e9:32:b3:7b:93:bd:4c:07:7c:b3:71:2c:34:07:41:
                    76:bc:34:48:a1:7e:6d:b7:a6:3f:09:05:19:50:86:
                    d0:cf:0b:9d:a7:9a:88:fe:cf:5d:ba:86:b6:80:d1:
                    b6:e2:a2:89:2c:da:c7:3d:dd:b5:97:8f:aa:d4:95:
                    af:95:ae:18:1c:a8:3e:39:6f:f7:2f:4d:55:5c:1f:
                    a2:1f:f0:27:84:4f:56:97:95:aa:26:27:dc:c9:22:
                    97:42:0d:a5:db:cb:10:66:9e:32:a5:25:a1:87:9c:
                    98:37:40:5b:85:b8:68:e9:13:a1:4f:82:3b:92:9d:
                    03:68:ff
                Exponent: 65537 (0x10001)
        X509v3 extensions:
            Netscape Comment: 
                Certificat SSL VITAMUI
            X509v3 Subject Key Identifier: 
                59:5F:34:1F:7D:97:DB:68:FD:CE:20:F0:12:EA:D6:FD:E8:2D:F3:AB
            X509v3 Authority Key Identifier: 
                keyid:0D:42:D1:01:69:B1:6B:65:E1:AF:B4:00:37:89:2E:62:1C:5D:C3:FC
                DirName:/C=fr/ST=idf/L=paris/O=vitamui/OU=authorities/CN=ca_root_vitamui
                serial:0C:CB:FC:C3:A6:3F:21:C5:68:83:E3:FD:5D:2A:AB:16

            X509v3 Issuer Alternative Name: 
                <EMPTY>

            X509v3 Basic Constraints: critical
                CA:FALSE
    Signature Algorithm: sha256WithRSAEncryption
         3a:1d:00:73:d5:b6:54:5f:38:48:18:5b:82:c8:6f:f0:dd:8e:
         f7:d7:4e:a6:80:ef:22:a8:22:6e:5a:07:17:25:79:87:e5:55:
         95:08:96:f5:f3:e0:9e:e9:06:21:ab:9d:b0:25:74:14:c7:95:
         5a:d9:43:5a:29:55:0a:0a:c3:29:31:97:29:32:9f:8f:cc:61:
         51:98:52:00:19:f4:74:1d:a7:9c:99:79:52:8a:d0:b5:d5:79:
         cc:10:87:12:28:55:60:cf:2a:0f:63:11:d6:cb:87:dd:c8:f6:
         fd:fc:7e:61:9c:27:a2:92:79:98:2c:74:80:ef:26:05:b9:b4:
         ba:99:a3:56:9d:20:3a:4c:ff:5e:8e:a6:a9:24:48:a2:c9:e6:
         90:92:bd:5d:28:b1:b8:66:3b:ac:75:5d:3f:49:f2:f6:59:36:
         a5:60:3a:fd:a7:e5:3f:22:0a:2a:f9:b8:4a:3a:7b:bb:94:57:
         f0:77:ab:28:2e:9a:91:86:e4:4c:b5:4c:ef:42:bc:9c:42:a3:
         ef:7a:ed:b3:ec:27:38:db:6e:f3:b7:0a:22:99:22:76:7e:25:
         ef:3a:c4:e3:eb:8a:c3:22:c3:b6:95:54:24:30:aa:b3:d5:fc:
         9e:6e:4e:bc:5e:86:53:ba:fc:9f:2e:8d:59:0e:3f:94:d4:38:
         5c:63:db:97:fa:08:36:fa:49:67:49:49:35:d2:c8:ee:76:22:
         9b:37:6c:37:4e:8b:a4:3e:93:22:62:a4:c1:de:71:89:f7:76:
         38:1b:af:34:07:ac:b8:97:a1:e1:37:12:4e:fa:41:33:41:19:
         9b:98:31:dd:00:92:79:2e:9f:95:25:0f:b2:d2:b0:10:85:2f:
         5d:d7:e9:c4:79:94:6c:4c:52:03:d6:be:bf:fc:b8:8c:06:46:
         00:00:2c:1d:3c:dc:ee:a6:2d:93:ee:40:6d:e0:8c:fd:f2:77:
         4b:d6:9c:3b:9c:b5:a9:ec:29:67:ff:b3:9c:bd:cc:47:4f:38:
         55:fb:62:04:c4:24:9f:a0:02:de:7a:e1:16:d8:d3:9d:cd:6d:
         7a:e1:a8:07:db:24:3a:e5:8f:99:b3:7d:1e:30:e4:81:4f:df:
         e1:4a:0c:a6:1c:b1:9f:37:7d:2c:0c:87:b4:55:04:fb:f5:45:
         06:06:44:aa:6e:ad:a1:42:ef:2a:a5:d7:2b:70:20:dd:23:3a:
         ea:1f:56:3b:de:aa:72:3d:b5:3d:e2:0f:b8:f0:4c:68:5e:3e:
         cf:e0:50:a4:0c:13:2c:ee:09:c0:0a:03:6b:1b:e6:c7:a1:79:
         2e:5f:e9:f4:40:a8:41:46:8a:55:20:9b:55:38:6c:d2:62:8c:
         cc:32:5b:a1:0d:95:2a:58
-----BEGIN CERTIFICATE-----
MIIGVjCCBD6gAwIBAgIQDMv8w6Y/IcVog+P9XSqrHzANBgkqhkiG9w0BAQsFADBt
MQswCQYDVQQGEwJmcjEMMAoGA1UECAwDaWRmMQ4wDAYDVQQHDAVwYXJpczEQMA4G
A1UECgwHdml0YW11aTEUMBIGA1UECwwLYXV0aG9yaXRpZXMxGDAWBgNVBAMMD2Nh
X3Jvb3Rfdml0YW11aTAeFw0yMDAxMTQxNDAyMTZaFw0yMzAxMTMxNDAyMTZaMFEx
CzAJBgNVBAYTAmZyMQwwCgYDVQQIDANpZGYxDjAMBgNVBAcMBXBhcmlzMRAwDgYD
VQQKDAd2aXRhbXVpMRIwEAYDVQQDDAlqa3NwYXNzd2QwggIiMA0GCSqGSIb3DQEB
AQUAA4ICDwAwggIKAoICAQDQaArXpSeGEQ0W5G2EuQ0mjymwbP75JouMblBWDmvk
mvp3CxOmZTPLMkZNQiKM8y33p9lk6yZCEw/JgLZA+IWD2zwLKldVFAYGG+mUIT1+
bGM98wM0CWXHbYyWpkFkEZSgsqVwjFVECqElLq6hOyGyMTXXmICWZXGIgkeH0nyk
i8pfsVWqhmjPdfofeHc3BIBxRU3OXR795MsY+2rld+zIOnWnKAluh69wcqQAXtfx
A2GQkkNBfa+OsGxdbw2cc+Lb1l6YW5YoB18foYYYVl2KO8xQuf3vqdQQ7om33mf7
PctmCwMiAQONdhgD3IhOoc8fRQJLvdFArgeaWRh3qjXeN7CVCpQnGHqNRqWMaPZh
MX3i87v8sfND6TsGLA2tY24YHCMJwhThGB0DRz19CwXFfooH/1Z6sHSPt5d44/bq
cg6I63qo8mN2+I75U4clVaLCIBLR/eRQpWZKb/ghgJF2oKvkxGJc+YRmR6ORQn4h
NGkdmGTPhQIUG5EAjV/CO+DW2qI0c+kys3uTvUwHfLNxLDQHQXa8NEihfm23pj8J
BRlQhtDPC52nmoj+z126hraA0bbiooks2sc93bWXj6rUla+VrhgcqD45b/cvTVVc
H6If8CeET1aXlaomJ9zJIpdCDaXbyxBmnjKlJaGHnJg3QFuFuGjpE6FPgjuSnQNo
/wIDAQABo4IBDDCCAQgwJQYJYIZIAYb4QgENBBgWFkNlcnRpZmljYXQgU1NMIFZJ
VEFNVUkwHQYDVR0OBBYEFFlfNB99l9to/c4g8BLq1v3oLfOrMIGmBgNVHSMEgZ4w
gZuAFA1C0QFpsWtl4a+0ADeJLmIcXcP8oXGkbzBtMQswCQYDVQQGEwJmcjEMMAoG
A1UECAwDaWRmMQ4wDAYDVQQHDAVwYXJpczEQMA4GA1UECgwHdml0YW11aTEUMBIG
A1UECwwLYXV0aG9yaXRpZXMxGDAWBgNVBAMMD2NhX3Jvb3Rfdml0YW11aYIQDMv8
w6Y/IcVog+P9XSqrFjAJBgNVHRIEAjAAMAwGA1UdEwEB/wQCMAAwDQYJKoZIhvcN
AQELBQADggIBADodAHPVtlRfOEgYW4LIb/DdjvfXTqaA7yKoIm5aBxcleYflVZUI
lvXz4J7pBiGrnbAldBTHlVrZQ1opVQoKwykxlykyn4/MYVGYUgAZ9HQdp5yZeVKK
0LXVecwQhxIoVWDPKg9jEdbLh93I9v38fmGcJ6KSeZgsdIDvJgW5tLqZo1adIDpM
/16OpqkkSKLJ5pCSvV0osbhmO6x1XT9J8vZZNqVgOv2n5T8iCir5uEo6e7uUV/B3
qygumpGG5Ey1TO9CvJxCo+967bPsJzjbbvO3CiKZInZ+Je86xOPrisMiw7aVVCQw
qrPV/J5uTrxehlO6/J8ujVkOP5TUOFxj25f6CDb6SWdJSTXSyO52Ips3bDdOi6Q+
kyJipMHecYn3djgbrzQHrLiXoeE3Ek76QTNBGZuYMd0Aknkun5UlD7LSsBCFL13X
6cR5lGxMUgPWvr/8uIwGRgAALB083O6mLZPuQG3gjP3yd0vWnDuctansKWf/s5y9
zEdPOFX7YgTEJJ+gAt564RbY053NbXrhqAfbJDrlj5mzfR4w5IFP3+FKDKYcsZ83
fSwMh7RVBPv1RQYGRKpuraFC7yql1ytwIN0jOuofVjveqnI9tT3iD7jwTGhePs/g
UKQMEyzuCcAKA2sb5seheS5f6fRAqEFGilUgm1U4bNJijMwyW6ENlSpY
-----END CERTIFICATE-----
