Certificate:
    Data:
        Version: 3 (0x2)
        Serial Number: 3 (0x3)
        Signature Algorithm: sha256WithRSAEncryption
        Issuer: C=fr, ST=idf, L=paris, O=vitamui, OU=authorities, CN=ca_intermediate_client-vitam
        Validity
            Not Before: May  5 12:35:12 2020 GMT
            Not After : May  5 12:35:12 2023 GMT
        Subject: C=fr, ST=idf, L=paris, O=vitamui, CN=vitamui
        Subject Public Key Info:
            Public Key Algorithm: rsaEncryption
                RSA Public-Key: (4096 bit)
                Modulus:
                    00:9f:c1:11:ec:22:41:dc:5d:b7:fc:a9:ac:73:c9:
                    8f:2d:c9:e7:e6:c1:e5:7b:df:eb:52:c8:95:0f:3a:
                    4c:09:7d:8d:39:4d:eb:a6:a1:b4:16:28:b7:37:a1:
                    86:fb:73:af:b7:d6:cd:4d:ae:7a:9e:e9:94:50:e8:
                    48:83:d1:a5:5f:d1:05:ba:ce:4b:e2:d7:92:9a:f5:
                    84:50:71:d8:cf:5e:df:3f:1b:14:b8:ad:40:b0:3e:
                    65:71:57:7f:b7:91:f8:bb:16:aa:44:d1:dd:7b:ff:
                    29:f2:d5:b3:6f:d8:e9:8d:f6:41:81:d5:83:47:89:
                    30:f4:07:cf:6a:ad:8a:6b:95:ac:c6:23:cd:dc:f7:
                    e9:38:91:c9:5f:d1:68:1b:d9:20:cb:38:53:1e:9d:
                    2c:58:9a:3d:5b:a0:08:c9:e4:8d:4d:ac:f8:d4:94:
                    12:a8:29:9f:4e:9d:73:25:80:8d:c9:23:e6:78:97:
                    43:79:ba:f9:d2:03:3f:2f:c7:47:98:f1:e4:eb:d9:
                    30:30:9b:b4:c1:45:61:f2:a6:90:1f:3a:51:bc:6b:
                    a8:83:5f:49:15:a8:1d:67:9d:77:32:4f:98:b6:1a:
                    12:a3:63:f3:b2:21:ee:09:5c:16:6d:eb:56:ee:4c:
                    b1:e5:60:2d:7c:49:d3:e4:1c:a8:65:1d:f9:58:d4:
                    75:21:03:50:cd:27:43:2f:18:70:f4:e5:2a:90:42:
                    4c:8f:0c:48:d0:5f:5f:9b:0f:38:99:6d:07:29:2b:
                    20:52:98:fb:fb:fb:1a:4c:9f:85:aa:6d:7b:6c:3c:
                    11:59:48:33:bf:6b:eb:69:9e:9a:9a:28:ef:22:3a:
                    f6:43:6c:e3:bf:f8:20:c9:09:09:5a:1e:70:7c:fe:
                    a4:ee:41:4c:38:0e:70:30:27:e8:89:7f:e3:44:b9:
                    b4:9e:d1:aa:f0:41:12:1e:83:5b:6e:93:ec:2c:88:
                    b7:88:70:ad:1b:8c:80:89:9f:b6:bc:e6:a7:31:5f:
                    26:3f:9a:84:b6:63:55:dd:0a:5f:ae:ed:82:94:54:
                    5e:a7:db:f6:06:09:7c:b5:dd:90:2e:96:c7:9b:2d:
                    40:3d:1f:93:0f:e9:52:6a:b4:0a:45:c3:be:1d:5f:
                    04:e2:af:15:be:ee:9d:80:fa:13:7d:94:92:5f:c9:
                    02:07:20:22:3c:02:9a:da:76:57:1f:23:b2:e9:49:
                    a3:65:49:84:d1:42:18:2c:8b:ab:80:7a:91:91:96:
                    db:04:d9:14:53:d2:8a:d1:fc:45:00:45:10:64:03:
                    69:e9:42:08:08:55:bc:27:68:ab:1e:cb:df:df:85:
                    ec:9a:6c:34:ac:e1:af:3e:5e:60:dc:56:f0:73:ff:
                    12:42:39
                Exponent: 65537 (0x10001)
        X509v3 extensions:
            Netscape Comment: 
                Certificat Client SSL
            X509v3 Subject Key Identifier: 
                C7:6A:49:28:67:98:AE:85:6D:13:D3:9A:E0:72:34:86:F1:B3:36:C1
            X509v3 Authority Key Identifier: 
                keyid:8D:24:4C:8A:40:90:31:A1:31:3A:0B:93:75:2B:F6:93:EF:AD:46:B9
                DirName:/C=fr/ST=idf/L=paris/O=vitamui/OU=authorities/CN=ca_root_client-vitam
                serial:02

            X509v3 Issuer Alternative Name: 
                <EMPTY>

            X509v3 Basic Constraints: critical
                CA:FALSE
            X509v3 Key Usage: 
                Digital Signature
            Netscape Cert Type: 
                SSL Client
            X509v3 Extended Key Usage: 
                TLS Web Client Authentication
    Signature Algorithm: sha256WithRSAEncryption
         0e:ff:93:76:c2:a0:3e:0b:a1:f0:36:1b:50:80:4e:9a:1d:1b:
         dd:05:13:82:44:a4:b8:7f:7c:4c:0f:2e:1b:69:6d:71:86:c0:
         a8:ed:84:7f:a3:c4:be:33:c2:b4:63:da:b0:80:7f:5b:2e:c9:
         57:03:97:04:ec:d8:9c:1a:5a:07:04:6e:f1:7d:bc:75:30:6e:
         96:34:b8:ab:e6:92:25:cb:f0:38:d6:dd:e8:1b:70:37:63:3c:
         84:18:61:fb:ed:c1:0e:d0:32:c6:01:02:2b:95:99:f2:d5:da:
         ff:7c:70:9d:74:eb:6f:1c:f2:a6:6f:b1:ca:1c:c5:85:f4:10:
         41:0c:b1:f3:f0:b9:b3:bd:a9:34:5f:0d:ea:a5:6a:e2:58:37:
         18:12:45:87:9b:67:0b:a0:df:80:73:fd:d9:29:13:63:54:50:
         85:af:61:b0:b7:25:4f:d4:99:e3:b4:15:46:89:fc:a3:d7:bf:
         1e:e8:93:27:3e:9b:60:c0:30:b5:43:c3:68:46:2c:a6:86:fc:
         09:b3:fe:54:20:f8:a5:7e:6e:ff:a3:24:ff:9d:a2:04:91:e5:
         04:12:d9:89:04:aa:85:22:ca:38:33:0b:95:8a:bf:ba:b7:f8:
         97:fc:bc:62:9d:df:4b:5a:69:f5:7c:88:b4:ce:d3:4a:d2:f0:
         00:9b:df:b2:0a:65:48:db:b1:c6:55:ea:38:32:8b:6a:62:f6:
         1e:8d:1b:69:89:62:61:07:bd:7c:f3:21:1b:93:25:11:2e:68:
         90:69:27:fd:a1:9b:1f:9c:4f:f3:86:ad:c3:13:9e:55:d4:81:
         79:e8:a2:11:8e:94:10:16:33:8b:06:ba:9f:61:78:72:7f:0b:
         eb:9a:7e:d9:ae:8d:78:82:a6:0f:00:f3:b4:df:85:36:33:b5:
         34:70:bf:64:1f:96:46:96:ad:66:dd:3b:ff:c7:d0:6f:c4:d2:
         e3:a6:21:79:44:76:de:24:c1:15:1e:54:df:0d:28:49:b4:59:
         90:52:8c:a3:e8:3f:99:03:c4:8d:29:17:75:03:2b:07:ac:06:
         5e:26:ae:4f:63:38:5e:21:3e:cf:30:dd:d1:38:a0:a7:e9:8f:
         b1:ec:a7:cb:9a:57:bd:6f:35:2b:b3:73:28:99:ca:38:08:fe:
         29:63:78:93:2f:07:2e:0a:20:dc:db:b1:f5:bf:f7:1f:4d:bb:
         36:55:76:8c:58:9b:9f:ca:93:06:90:4f:57:40:52:3d:00:29:
         54:c3:a0:f4:ae:26:0f:fc:92:2d:e3:4a:18:dd:22:8b:61:82:
         96:79:ad:fc:41:3f:4e:e9:16:fb:f7:ad:d9:9e:ae:ee:17:c8:
         a3:57:65:fa:e2:9b:98:0e
-----BEGIN CERTIFICATE-----
MIIGfDCCBGSgAwIBAgIBAzANBgkqhkiG9w0BAQsFADB6MQswCQYDVQQGEwJmcjEM
MAoGA1UECAwDaWRmMQ4wDAYDVQQHDAVwYXJpczEQMA4GA1UECgwHdml0YW11aTEU
MBIGA1UECwwLYXV0aG9yaXRpZXMxJTAjBgNVBAMMHGNhX2ludGVybWVkaWF0ZV9j
bGllbnQtdml0YW0wHhcNMjAwNTA1MTIzNTEyWhcNMjMwNTA1MTIzNTEyWjBPMQsw
CQYDVQQGEwJmcjEMMAoGA1UECAwDaWRmMQ4wDAYDVQQHDAVwYXJpczEQMA4GA1UE
CgwHdml0YW11aTEQMA4GA1UEAwwHdml0YW11aTCCAiIwDQYJKoZIhvcNAQEBBQAD
ggIPADCCAgoCggIBAJ/BEewiQdxdt/yprHPJjy3J5+bB5Xvf61LIlQ86TAl9jTlN
66ahtBYotzehhvtzr7fWzU2uep7plFDoSIPRpV/RBbrOS+LXkpr1hFBx2M9e3z8b
FLitQLA+ZXFXf7eR+LsWqkTR3Xv/KfLVs2/Y6Y32QYHVg0eJMPQHz2qtimuVrMYj
zdz36TiRyV/RaBvZIMs4Ux6dLFiaPVugCMnkjU2s+NSUEqgpn06dcyWAjckj5niX
Q3m6+dIDPy/HR5jx5OvZMDCbtMFFYfKmkB86UbxrqINfSRWoHWeddzJPmLYaEqNj
87Ih7glcFm3rVu5MseVgLXxJ0+QcqGUd+VjUdSEDUM0nQy8YcPTlKpBCTI8MSNBf
X5sPOJltBykrIFKY+/v7Gkyfhapte2w8EVlIM79r62mempoo7yI69kNs47/4IMkJ
CVoecHz+pO5BTDgOcDAn6Il/40S5tJ7RqvBBEh6DW26T7CyIt4hwrRuMgImftrzm
pzFfJj+ahLZjVd0KX67tgpRUXqfb9gYJfLXdkC6Wx5stQD0fkw/pUmq0CkXDvh1f
BOKvFb7unYD6E32Ukl/JAgcgIjwCmtp2Vx8jsulJo2VJhNFCGCyLq4B6kZGW2wTZ
FFPSitH8RQBFEGQDaelCCAhVvCdoqx7L39+F7JpsNKzhrz5eYNxW8HP/EkI5AgMB
AAGjggE2MIIBMjAkBglghkgBhvhCAQ0EFxYVQ2VydGlmaWNhdCBDbGllbnQgU1NM
MB0GA1UdDgQWBBTHakkoZ5iuhW0T05rgcjSG8bM2wTCBnAYDVR0jBIGUMIGRgBSN
JEyKQJAxoTE6C5N1K/aT761GuaF2pHQwcjELMAkGA1UEBhMCZnIxDDAKBgNVBAgM
A2lkZjEOMAwGA1UEBwwFcGFyaXMxEDAOBgNVBAoMB3ZpdGFtdWkxFDASBgNVBAsM
C2F1dGhvcml0aWVzMR0wGwYDVQQDDBRjYV9yb290X2NsaWVudC12aXRhbYIBAjAJ
BgNVHRIEAjAAMAwGA1UdEwEB/wQCMAAwCwYDVR0PBAQDAgeAMBEGCWCGSAGG+EIB
AQQEAwIHgDATBgNVHSUEDDAKBggrBgEFBQcDAjANBgkqhkiG9w0BAQsFAAOCAgEA
Dv+TdsKgPguh8DYbUIBOmh0b3QUTgkSkuH98TA8uG2ltcYbAqO2Ef6PEvjPCtGPa
sIB/Wy7JVwOXBOzYnBpaBwRu8X28dTBuljS4q+aSJcvwONbd6BtwN2M8hBhh++3B
DtAyxgECK5WZ8tXa/3xwnXTrbxzypm+xyhzFhfQQQQyx8/C5s72pNF8N6qVq4lg3
GBJFh5tnC6DfgHP92SkTY1RQha9hsLclT9SZ47QVRon8o9e/HuiTJz6bYMAwtUPD
aEYspob8CbP+VCD4pX5u/6Mk/52iBJHlBBLZiQSqhSLKODMLlYq/urf4l/y8Yp3f
S1pp9XyItM7TStLwAJvfsgplSNuxxlXqODKLamL2Ho0baYliYQe9fPMhG5MlES5o
kGkn/aGbH5xP84atwxOeVdSBeeiiEY6UEBYziwa6n2F4cn8L65p+2a6NeIKmDwDz
tN+FNjO1NHC/ZB+WRpatZt07/8fQb8TS46YheUR23iTBFR5U3w0oSbRZkFKMo+g/
mQPEjSkXdQMrB6wGXiauT2M4XiE+zzDd0Tigp+mPseyny5pXvW81K7NzKJnKOAj+
KWN4ky8HLgog3Nux9b/3H027NlV2jFibn8qTBpBPV0BSPQApVMOg9K4mD/ySLeNK
GN0ii2GClnmt/EE/TukW+/et2Z6u7hfIo1dl+uKbmA4=
-----END CERTIFICATE-----
