Certificate:
    Data:
        Version: 3 (0x2)
        Serial Number: 288 (0x120)
    Signature Algorithm: sha256WithRSAEncryption
        Issuer: C=fr, ST=idf, L=paris, O=vitam, OU=authorities, CN=ca_root_iam-external
        Validity
            Not Before: Nov 22 15:20:53 2019 GMT
            Not After : Nov 19 15:20:53 2029 GMT
        Subject: C=fr, ST=idf, L=paris, O=vitam, OU=authorities, CN=ca_intermediate_iam-external
        Subject Public Key Info:
            Public Key Algorithm: rsaEncryption
                Public-Key: (4096 bit)
                Modulus:
                    00:b7:50:4a:72:69:88:5e:1d:7c:b2:5c:ef:e4:81:
                    27:17:61:97:00:87:52:53:4e:3d:f4:77:a3:5a:5a:
                    ec:72:8d:73:c3:66:b5:1f:ac:67:b9:d3:98:8a:7a:
                    db:11:77:16:fd:87:43:bc:38:be:01:76:80:1d:b4:
                    ec:f7:d2:f4:b6:28:cf:9e:21:c9:9a:bb:11:ae:e7:
                    c6:1a:91:1b:61:6e:2b:a6:f7:fa:0e:6e:db:41:4f:
                    df:3d:18:48:dc:55:f8:c2:6a:fe:40:a8:26:65:85:
                    a8:6f:26:e2:66:31:ca:d3:a1:18:d7:7f:df:a9:8c:
                    63:24:57:c7:81:82:bc:ea:98:43:be:73:98:4d:64:
                    ca:15:61:56:27:c2:67:77:cb:cd:3d:75:05:59:c5:
                    1c:3d:20:f5:a9:4e:d6:47:57:6b:0b:7c:28:34:82:
                    12:ac:7a:18:09:9f:23:5b:4e:fe:f7:a7:d1:aa:47:
                    f8:cc:aa:7d:40:63:8a:da:78:c7:c4:8a:ad:a4:cc:
                    f3:5a:93:f4:77:38:cb:4c:a6:8e:a0:ba:7a:6f:f1:
                    45:89:eb:85:b2:40:54:34:37:f6:5c:72:43:66:23:
                    28:18:ce:e9:0e:8a:01:b2:b3:16:95:68:92:e5:2c:
                    d1:40:25:9d:42:71:6e:ac:f5:4e:40:49:d4:8a:47:
                    73:34:ea:fc:a3:09:66:24:08:8f:33:25:f1:1b:e5:
                    4f:22:bf:10:ed:28:d9:65:ca:2a:51:79:10:b1:87:
                    69:e7:b2:59:af:1f:27:2b:7c:7a:04:87:22:0b:a5:
                    26:ab:fa:ee:56:8f:e8:b8:ec:d4:74:59:19:03:b5:
                    b7:1f:c0:61:56:c2:4a:ce:3a:c6:02:ac:29:00:8f:
                    23:02:10:1f:eb:b6:c6:d0:4a:79:b7:2e:cb:3c:57:
                    41:8c:f1:53:1f:23:aa:a2:65:59:60:ac:35:48:2e:
                    ea:0d:f6:d3:b8:5f:6c:ef:11:31:67:2d:75:91:5f:
                    3d:1c:8f:56:52:c9:41:12:ef:9a:ab:ef:a1:de:55:
                    aa:cd:48:d2:ff:59:f3:97:9c:fe:a0:d6:54:6a:86:
                    a5:49:9e:3a:93:3d:26:1e:ee:e2:76:e6:a7:3d:86:
                    ed:57:a0:67:cc:19:a3:d4:bd:f2:ef:e7:68:13:d2:
                    f9:2f:fe:7a:96:b3:1d:92:ea:8d:47:07:bb:a9:be:
                    d7:ff:47:57:f9:04:27:16:a0:db:9f:01:6b:e5:a6:
                    f8:68:38:07:6d:f4:ee:da:b4:fb:4e:86:e0:02:b8:
                    df:1a:de:19:80:8d:99:92:8c:9e:c6:99:36:0b:3c:
                    d9:1d:ff:e9:0f:6e:b1:bf:9c:de:8f:d1:dc:5a:5a:
                    0a:c9:33
                Exponent: 65537 (0x10001)
        X509v3 extensions:
            Netscape Comment:
                CA Intermediate
            X509v3 Subject Key Identifier:
                AA:72:D7:D1:90:F7:B0:9C:B5:C8:D2:84:30:61:CC:9B:D8:6D:30:DF
            X509v3 Authority Key Identifier:
                keyid:D7:C3:37:02:D3:F8:1F:FE:02:00:42:5F:7B:D0:B3:7E:BE:F3:4B:B2
                DirName:/C=fr/ST=idf/L=paris/O=vitam/OU=authorities/CN=ca_root_iam-external
                serial:01:1F

            X509v3 Basic Constraints: critical
                CA:TRUE, pathlen:0
            X509v3 Issuer Alternative Name:
                <EMPTY>

            X509v3 Key Usage:
                Certificate Sign, CRL Sign
            Netscape Cert Type:
                SSL CA
    Signature Algorithm: sha256WithRSAEncryption
         0b:82:fb:53:7c:67:25:c4:00:09:6f:ce:aa:26:85:88:a6:c8:
         5b:9d:40:3c:0b:81:a0:66:7a:e1:32:98:49:8a:8f:88:93:5a:
         16:92:2f:ec:9e:6b:0c:46:eb:c4:50:35:65:2c:0c:ac:e5:3e:
         b4:6a:1d:e0:61:be:c2:7b:34:d0:cb:78:25:4d:aa:04:16:0b:
         5a:88:27:28:cb:eb:0b:20:4d:1f:ba:65:3a:ca:b6:08:fe:07:
         9b:49:0c:34:21:70:c8:40:b9:c5:0a:4a:83:02:9d:fa:fb:3c:
         f4:98:5c:48:55:4a:13:d9:9b:ac:f8:19:c2:47:57:e9:47:2d:
         21:85:26:c4:e0:ea:02:df:50:a5:e1:39:08:cc:4f:90:53:e7:
         e8:99:e6:07:92:23:5d:3c:fe:7b:7d:99:c4:9b:d9:36:f5:5c:
         7c:cf:ef:c9:ad:45:23:fd:10:2f:0f:80:0a:0c:14:cd:9c:94:
         78:8e:90:ac:41:9e:34:4b:3b:cc:e5:51:38:23:91:b7:b3:82:
         a3:d6:50:a1:e5:99:38:70:14:6c:56:27:59:cc:04:64:34:04:
         39:c8:61:09:15:97:a6:2f:13:4b:6a:9d:2e:76:6d:9c:6f:09:
         64:4e:60:44:11:93:1f:66:4c:8b:4a:40:58:8b:f5:a9:85:d1:
         81:a6:c1:e2:c9:f1:84:95:1f:b0:bc:81:2b:42:f8:a3:8b:cb:
         92:fa:dc:56:f1:cf:75:5a:65:2c:11:23:6a:62:d3:8f:7e:db:
         7f:4f:b2:4f:da:e5:3a:cc:6e:da:37:2e:9a:f9:06:bc:75:ce:
         83:dd:0a:ec:fb:2f:41:b1:2c:0c:59:5a:4d:18:ae:34:c7:96:
         e7:08:47:f4:66:6e:34:b5:ab:46:b4:f8:2f:0e:b1:13:c6:2d:
         db:1a:10:f9:5a:eb:44:3b:2f:f8:1c:47:0e:c6:5a:f4:56:8d:
         77:29:3a:e6:cb:71:7c:f4:93:f1:bb:b6:03:7e:b8:f9:91:24:
         36:42:00:4e:d9:ba:1a:5a:d2:00:46:17:a2:de:f6:18:56:7c:
         00:09:9c:f9:0d:ae:ce:8b:d3:3f:86:49:d4:22:1a:5e:92:d4:
         46:ee:3d:92:71:be:39:e1:85:e3:a8:01:0a:9e:41:19:a8:b5:
         fc:4e:6c:ad:b5:a2:ee:e5:bc:db:c8:6d:f8:a2:12:c2:8d:24:
         61:5f:c5:7b:6f:0c:7d:ba:49:9e:a9:d2:9f:0b:65:e9:24:0e:
         3a:ae:91:34:c0:7d:e6:a8:e2:8c:4d:42:f1:62:4b:d8:1a:25:
         7f:20:12:d6:ae:13:c7:1f:64:3d:60:55:03:a8:7e:8d:44:41:
         1c:34:f7:a0:56:08:96:d7
-----BEGIN CERTIFICATE-----
MIIGhjCCBG6gAwIBAgICASAwDQYJKoZIhvcNAQELBQAwcDELMAkGA1UEBhMCZnIx
DDAKBgNVBAgMA2lkZjEOMAwGA1UEBwwFcGFyaXMxDjAMBgNVBAoMBXZpdGFtMRQw
EgYDVQQLDAthdXRob3JpdGllczEdMBsGA1UEAwwUY2Ffcm9vdF9pYW0tZXh0ZXJu
YWwwHhcNMTkxMTIyMTUyMDUzWhcNMjkxMTE5MTUyMDUzWjB4MQswCQYDVQQGEwJm
cjEMMAoGA1UECAwDaWRmMQ4wDAYDVQQHDAVwYXJpczEOMAwGA1UECgwFdml0YW0x
FDASBgNVBAsMC2F1dGhvcml0aWVzMSUwIwYDVQQDDBxjYV9pbnRlcm1lZGlhdGVf
aWFtLWV4dGVybmFsMIICIjANBgkqhkiG9w0BAQEFAAOCAg8AMIICCgKCAgEAt1BK
cmmIXh18slzv5IEnF2GXAIdSU0499HejWlrsco1zw2a1H6xnudOYinrbEXcW/YdD
vDi+AXaAHbTs99L0tijPniHJmrsRrufGGpEbYW4rpvf6Dm7bQU/fPRhI3FX4wmr+
QKgmZYWobybiZjHK06EY13/fqYxjJFfHgYK86phDvnOYTWTKFWFWJ8Jnd8vNPXUF
WcUcPSD1qU7WR1drC3woNIISrHoYCZ8jW07+96fRqkf4zKp9QGOK2njHxIqtpMzz
WpP0dzjLTKaOoLp6b/FFieuFskBUNDf2XHJDZiMoGM7pDooBsrMWlWiS5SzRQCWd
QnFurPVOQEnUikdzNOr8owlmJAiPMyXxG+VPIr8Q7SjZZcoqUXkQsYdp57JZrx8n
K3x6BIciC6Umq/ruVo/ouOzUdFkZA7W3H8BhVsJKzjrGAqwpAI8jAhAf67bG0Ep5
ty7LPFdBjPFTHyOqomVZYKw1SC7qDfbTuF9s7xExZy11kV89HI9WUslBEu+aq++h
3lWqzUjS/1nzl5z+oNZUaoalSZ46kz0mHu7iduanPYbtV6BnzBmj1L3y7+doE9L5
L/56lrMdkuqNRwe7qb7X/0dX+QQnFqDbnwFr5ab4aDgHbfTu2rT7TobgArjfGt4Z
gI2Zkoyexpk2CzzZHf/pD26xv5zej9HcWloKyTMCAwEAAaOCASAwggEcMB4GCWCG
SAGG+EIBDQQRFg9DQSBJbnRlcm1lZGlhdGUwHQYDVR0OBBYEFKpy19GQ97CctcjS
hDBhzJvYbTDfMIGbBgNVHSMEgZMwgZCAFNfDNwLT+B/+AgBCX3vQs36+80uyoXSk
cjBwMQswCQYDVQQGEwJmcjEMMAoGA1UECAwDaWRmMQ4wDAYDVQQHDAVwYXJpczEO
MAwGA1UECgwFdml0YW0xFDASBgNVBAsMC2F1dGhvcml0aWVzMR0wGwYDVQQDDBRj
YV9yb290X2lhbS1leHRlcm5hbIICAR8wEgYDVR0TAQH/BAgwBgEB/wIBADAJBgNV
HRIEAjAAMAsGA1UdDwQEAwIBBjARBglghkgBhvhCAQEEBAMCAgQwDQYJKoZIhvcN
AQELBQADggIBAAuC+1N8ZyXEAAlvzqomhYimyFudQDwLgaBmeuEymEmKj4iTWhaS
L+yeawxG68RQNWUsDKzlPrRqHeBhvsJ7NNDLeCVNqgQWC1qIJyjL6wsgTR+6ZTrK
tgj+B5tJDDQhcMhAucUKSoMCnfr7PPSYXEhVShPZm6z4GcJHV+lHLSGFJsTg6gLf
UKXhOQjMT5BT5+iZ5geSI108/nt9mcSb2Tb1XHzP78mtRSP9EC8PgAoMFM2clHiO
kKxBnjRLO8zlUTgjkbezgqPWUKHlmThwFGxWJ1nMBGQ0BDnIYQkVl6YvE0tqnS52
bZxvCWROYEQRkx9mTItKQFiL9amF0YGmweLJ8YSVH7C8gStC+KOLy5L63Fbxz3Va
ZSwRI2pi049+239Psk/a5TrMbto3Lpr5Brx1zoPdCuz7L0GxLAxZWk0YrjTHlucI
R/RmbjS1q0a0+C8OsRPGLdsaEPla60Q7L/gcRw7GWvRWjXcpOubLcXz0k/G7tgN+
uPmRJDZCAE7Zuhpa0gBGF6Le9hhWfAAJnPkNrs6L0z+GSdQiGl6S1EbuPZJxvjnh
heOoAQqeQRmotfxObK21ou7lvNvIbfiiEsKNJGFfxXtvDH26SZ6p0p8LZekkDjqu
kTTAfeao4oxNQvFiS9gaJX8gEtauE8cfZD1gVQOofo1EQRw096BWCJbX
-----END CERTIFICATE-----
