Certificate:
    Data:
        Version: 3 (0x2)
        Serial Number: 337 (0x151)
    Signature Algorithm: sha256WithRSAEncryption
        Issuer: C=fr, ST=idf, L=paris, O=vitam, OU=authorities, CN=ca_intermediate_client-iam-internal
        Validity
            Not Before: Dec 19 12:46:13 2019 GMT
            Not After : Dec 18 12:46:13 2022 GMT
        Subject: C=fr, ST=idf, L=paris, O=vitam, CN=iam-external
        Subject Public Key Info:
            Public Key Algorithm: rsaEncryption
                Public-Key: (4096 bit)
                Modulus:
                    00:b6:d0:c4:91:00:ad:3f:f6:7f:ab:b4:c3:1f:57:
                    9e:bf:36:6c:dd:1c:1d:46:b4:06:ef:6d:e7:41:32:
                    99:2a:07:f9:ae:ba:03:26:b2:35:ab:49:20:fe:e1:
                    69:25:54:3e:4d:12:0c:58:65:19:bf:e9:3e:c3:1e:
                    38:8f:f3:d3:be:36:45:73:5e:7f:9c:1c:a6:68:76:
                    eb:33:96:e6:ed:64:58:ce:30:c4:d4:5c:88:90:c5:
                    b7:c6:07:bf:ab:f1:66:e5:71:4e:ac:e7:5e:96:5c:
                    5c:27:9c:95:4b:5e:a1:7a:98:55:24:2c:cd:64:e5:
                    6d:ac:4a:d1:1c:fe:30:e2:8c:e5:1c:68:0a:8c:91:
                    40:b6:e0:4b:32:a4:43:4a:dd:f0:ba:e9:25:85:cc:
                    15:07:08:6c:61:7a:a5:5d:f5:1e:9f:f2:b5:cc:b4:
                    13:c3:24:25:5b:d0:94:36:d8:60:fa:8f:d3:4c:93:
                    00:fc:2f:bd:6b:4f:c1:66:5c:99:b3:e3:90:f2:4c:
                    3c:bf:1d:ee:a1:3c:3a:77:e4:80:19:66:97:6f:b3:
                    18:87:4c:92:ba:1c:98:e5:e3:f0:0e:45:e2:8f:7a:
                    bb:c7:16:33:8f:dc:a9:a7:92:55:f2:62:39:34:61:
                    81:6e:8a:d1:21:41:33:54:cb:df:d7:9c:0e:8d:67:
                    32:5b:cd:d0:56:84:00:91:f2:44:f8:5f:61:aa:13:
                    47:2c:8b:51:be:e5:f7:04:ad:bb:45:29:1c:8e:b7:
                    ee:cc:99:34:38:79:54:20:58:1f:08:3d:1e:48:86:
                    33:3d:68:73:ae:7b:1e:46:a6:32:35:13:de:e1:12:
                    fb:fd:36:a9:83:b0:bd:2f:da:1b:58:9c:30:a0:e2:
                    2d:ba:21:8a:75:58:72:83:82:fc:97:8e:10:95:ee:
                    d8:31:68:7d:e7:51:09:75:87:93:aa:75:36:49:2f:
                    ef:54:49:b4:ac:dc:96:51:87:06:02:e0:af:13:9a:
                    79:5a:71:c4:4b:4e:98:04:70:9b:f7:09:64:fb:1f:
                    d8:19:e7:4d:ea:4f:51:fc:57:ee:25:04:aa:b6:14:
                    56:95:c0:55:d5:c0:94:08:aa:81:b4:56:da:32:e0:
                    19:05:1c:8e:f0:38:b9:04:bc:83:71:c8:e0:9c:8d:
                    50:84:56:dc:0a:00:fd:f2:cb:e1:31:4f:2e:1f:39:
                    63:d8:78:e0:7d:e5:5f:5c:ff:a3:86:96:5f:48:4e:
                    f6:ef:75:a7:a2:91:3d:8e:0f:5a:30:23:61:64:6c:
                    73:3d:84:81:9d:f5:01:7e:31:40:00:d8:47:f9:99:
                    73:83:0b:82:e5:84:72:32:01:a0:e3:41:6c:41:1e:
                    4f:a2:4f
                Exponent: 65537 (0x10001)
        X509v3 extensions:
            Netscape Comment:
                Certificat Client SSL
            X509v3 Subject Key Identifier:
                62:45:C8:1F:16:06:0E:9C:39:1B:BF:EF:6C:A5:75:B3:FA:D1:BC:F8
            X509v3 Authority Key Identifier:
                keyid:43:5B:E8:68:7B:38:34:7D:3A:D3:0A:A3:6B:6D:A5:A9:1F:A0:DF:79
                DirName:/C=fr/ST=idf/L=paris/O=vitam/OU=authorities/CN=ca_root_client-iam-internal
                serial:01:4B

            X509v3 Issuer Alternative Name:
                <EMPTY>

            X509v3 Basic Constraints: critical
                CA:FALSE
            X509v3 Key Usage:
                Digital Signature
            Netscape Cert Type:
                SSL Client
            X509v3 Extended Key Usage:
                TLS Web Client Authentication
    Signature Algorithm: sha256WithRSAEncryption
         95:6a:90:61:d8:59:17:5f:3e:f5:0e:2b:3a:1c:a3:43:60:44:
         32:97:1b:21:57:60:d8:d9:1b:b0:f5:c5:b5:68:1d:02:6b:d3:
         46:34:76:ce:c9:3c:70:df:59:f5:24:0a:da:fe:ea:c4:a3:11:
         1f:12:19:04:4d:80:a8:cf:a7:9e:cd:9a:a7:b4:fd:8c:6d:61:
         a7:64:17:fe:25:5a:af:dc:4d:4d:93:a5:16:9a:8a:8f:24:ae:
         4b:d9:18:91:7c:4e:fb:fc:45:ad:a8:9b:af:03:ef:ef:de:91:
         3b:92:47:e7:91:c7:6d:3d:8f:a7:5e:a5:4e:46:3d:88:97:39:
         3b:92:3e:12:c7:77:83:4a:60:3d:5a:84:88:00:c9:56:d1:b7:
         ee:f8:3d:e5:31:0e:6f:85:d1:55:73:66:96:e7:fb:54:ba:1d:
         2b:45:46:73:e7:c5:f8:b9:86:40:2f:85:2f:49:77:1b:93:6a:
         c2:7d:84:81:02:bd:f6:2b:b2:03:a9:1a:1f:3e:b9:27:4e:53:
         26:28:e7:c6:f4:0f:39:fb:6c:c1:96:f7:33:b7:42:5b:ab:4f:
         b6:f3:fa:c7:85:e5:58:7b:98:2f:c5:d8:c1:77:b3:2a:c5:71:
         b8:96:4d:76:0a:89:02:ec:eb:d9:6a:27:34:e8:90:3c:58:85:
         c0:a0:27:7e:99:3b:3b:d8:9e:9e:88:21:4b:28:ba:e8:39:e3:
         ff:8e:83:9a:e3:46:c1:e3:7e:45:08:9c:c0:4f:d3:b9:84:68:
         59:f8:b1:26:bf:a9:0d:fd:59:0d:9a:be:b7:ec:50:8d:26:da:
         26:a0:fe:1f:03:d5:6d:8f:06:af:eb:8e:fb:8c:d4:40:bf:44:
         4a:22:52:e8:07:5a:d7:31:14:54:1d:ae:8d:83:e5:3b:d3:51:
         7a:77:8a:73:7a:b6:ee:11:71:4e:87:27:d4:d8:b2:3d:f0:dd:
         10:bc:9b:47:0b:bc:18:15:90:64:ef:0c:c8:91:3e:d6:2d:fd:
         c9:4e:4d:15:51:35:b3:9f:1f:e5:8d:b2:a7:c2:54:57:67:49:
         83:d2:b3:9f:ca:bd:fc:19:de:50:f2:e1:62:ab:d4:fd:83:1e:
         c2:74:7e:ae:31:77:b7:8c:3c:83:65:25:9a:8d:ea:62:b4:a8:
         e6:74:7c:b7:a4:c6:f1:1b:6b:7d:79:a5:43:69:db:01:cb:a4:
         34:6f:52:bb:6d:85:9b:19:b3:3a:37:b5:4f:67:c0:04:68:4d:
         8c:23:da:4c:ca:7c:3f:91:78:bc:dc:e6:cb:aa:e2:ed:62:a3:
         5c:8c:2a:6f:43:42:0c:b6:1d:61:36:66:71:51:eb:c5:45:e4:
         81:4b:db:7a:f8:b5:48:c8
-----BEGIN CERTIFICATE-----
MIIGizCCBHOgAwIBAgICAVEwDQYJKoZIhvcNAQELBQAwfzELMAkGA1UEBhMCZnIx
DDAKBgNVBAgMA2lkZjEOMAwGA1UEBwwFcGFyaXMxDjAMBgNVBAoMBXZpdGFtMRQw
EgYDVQQLDAthdXRob3JpdGllczEsMCoGA1UEAwwjY2FfaW50ZXJtZWRpYXRlX2Ns
aWVudC1pYW0taW50ZXJuYWwwHhcNMTkxMjE5MTI0NjEzWhcNMjIxMjE4MTI0NjEz
WjBSMQswCQYDVQQGEwJmcjEMMAoGA1UECAwDaWRmMQ4wDAYDVQQHDAVwYXJpczEO
MAwGA1UECgwFdml0YW0xFTATBgNVBAMMDGlhbS1leHRlcm5hbDCCAiIwDQYJKoZI
hvcNAQEBBQADggIPADCCAgoCggIBALbQxJEArT/2f6u0wx9Xnr82bN0cHUa0Bu9t
50EymSoH+a66AyayNatJIP7haSVUPk0SDFhlGb/pPsMeOI/z0742RXNef5wcpmh2
6zOW5u1kWM4wxNRciJDFt8YHv6vxZuVxTqznXpZcXCeclUteoXqYVSQszWTlbaxK
0Rz+MOKM5RxoCoyRQLbgSzKkQ0rd8LrpJYXMFQcIbGF6pV31Hp/ytcy0E8MkJVvQ
lDbYYPqP00yTAPwvvWtPwWZcmbPjkPJMPL8d7qE8OnfkgBlml2+zGIdMkrocmOXj
8A5F4o96u8cWM4/cqaeSVfJiOTRhgW6K0SFBM1TL39ecDo1nMlvN0FaEAJHyRPhf
YaoTRyyLUb7l9wStu0UpHI637syZNDh5VCBYHwg9HkiGMz1oc657HkamMjUT3uES
+/02qYOwvS/aG1icMKDiLbohinVYcoOC/JeOEJXu2DFofedRCXWHk6p1Nkkv71RJ
tKzcllGHBgLgrxOaeVpxxEtOmARwm/cJZPsf2BnnTepPUfxX7iUEqrYUVpXAVdXA
lAiqgbRW2jLgGQUcjvA4uQS8g3HI4JyNUIRW3AoA/fLL4TFPLh85Y9h44H3lX1z/
o4aWX0hO9u91p6KRPY4PWjAjYWRscz2EgZ31AX4xQADYR/mZc4MLguWEcjIBoONB
bEEeT6JPAgMBAAGjggE8MIIBODAkBglghkgBhvhCAQ0EFxYVQ2VydGlmaWNhdCBD
bGllbnQgU1NMMB0GA1UdDgQWBBRiRcgfFgYOnDkbv+9spXWz+tG8+DCBogYDVR0j
BIGaMIGXgBRDW+hoezg0fTrTCqNrbaWpH6DfeaF7pHkwdzELMAkGA1UEBhMCZnIx
DDAKBgNVBAgMA2lkZjEOMAwGA1UEBwwFcGFyaXMxDjAMBgNVBAoMBXZpdGFtMRQw
EgYDVQQLDAthdXRob3JpdGllczEkMCIGA1UEAwwbY2Ffcm9vdF9jbGllbnQtaWFt
LWludGVybmFsggIBSzAJBgNVHRIEAjAAMAwGA1UdEwEB/wQCMAAwCwYDVR0PBAQD
AgeAMBEGCWCGSAGG+EIBAQQEAwIHgDATBgNVHSUEDDAKBggrBgEFBQcDAjANBgkq
hkiG9w0BAQsFAAOCAgEAlWqQYdhZF18+9Q4rOhyjQ2BEMpcbIVdg2NkbsPXFtWgd
AmvTRjR2zsk8cN9Z9SQK2v7qxKMRHxIZBE2AqM+nns2ap7T9jG1hp2QX/iVar9xN
TZOlFpqKjySuS9kYkXxO+/xFraibrwPv796RO5JH55HHbT2Pp16lTkY9iJc5O5I+
Esd3g0pgPVqEiADJVtG37vg95TEOb4XRVXNmluf7VLodK0VGc+fF+LmGQC+FL0l3
G5Nqwn2EgQK99iuyA6kaHz65J05TJijnxvQPOftswZb3M7dCW6tPtvP6x4XlWHuY
L8XYwXezKsVxuJZNdgqJAuzr2WonNOiQPFiFwKAnfpk7O9ienoghSyi66Dnj/46D
muNGweN+RQicwE/TuYRoWfixJr+pDf1ZDZq+t+xQjSbaJqD+HwPVbY8Gr+uO+4zU
QL9ESiJS6Ada1zEUVB2ujYPlO9NReneKc3q27hFxTocn1NiyPfDdELybRwu8GBWQ
ZO8MyJE+1i39yU5NFVE1s58f5Y2yp8JUV2dJg9Kzn8q9/BneUPLhYqvU/YMewnR+
rjF3t4w8g2Ulmo3qYrSo5nR8t6TG8RtrfXmlQ2nbAcukNG9Su22FmxmzOje1T2fA
BGhNjCPaTMp8P5F4vNzmy6ri7WKjXIwqb0NCDLYdYTZmcVHrxUXkgUvbevi1SMg=
-----END CERTIFICATE-----
