Certificate:
    Data:
        Version: 3 (0x2)
        Serial Number: 485 (0x1e5)
    Signature Algorithm: sha256WithRSAEncryption
        Issuer: C=fr, ST=idf, L=paris, O=vitam, OU=authorities, CN=ca_root_server
        Validity
            Not Before: Dec 12 10:42:42 2019 GMT
            Not After : Dec  9 10:42:42 2029 GMT
        Subject: C=fr, ST=idf, L=paris, O=vitam, OU=authorities, CN=ca_intermediate_server
        Subject Public Key Info:
            Public Key Algorithm: rsaEncryption
                Public-Key: (4096 bit)
                Modulus:
                    00:c6:40:80:8f:e0:81:f9:ec:92:b5:af:60:5a:90:
                    58:a4:1f:e2:1c:ec:63:a5:1b:2c:7a:3a:e9:7c:a5:
                    52:27:d9:df:55:a8:93:47:7f:e6:0c:8a:ad:a3:2c:
                    52:a4:bb:38:06:4d:1d:43:56:de:19:7c:f3:28:02:
                    f2:c6:8f:41:c0:a2:fe:78:65:c5:0e:88:3a:1b:34:
                    39:47:f1:9b:16:3a:68:b5:3f:b2:f9:99:81:3a:e8:
                    b3:8b:d2:38:1e:77:ba:31:69:af:12:ca:ea:6a:bb:
                    28:01:ff:df:9f:2b:58:4e:fb:18:29:72:fb:63:30:
                    f5:73:0e:61:d6:cc:7e:19:40:99:2c:45:fb:5e:51:
                    06:54:bf:0b:5f:6d:e7:d9:cd:b5:3a:ca:bb:20:37:
                    1e:8d:04:33:63:d9:64:47:2a:47:32:5f:1a:14:a8:
                    af:b8:da:9b:f3:a7:b4:d5:41:ff:fc:49:20:62:ae:
                    69:a0:ad:37:fc:01:6c:f6:3d:12:53:5f:02:f0:3a:
                    fb:1d:ac:3d:61:22:a9:e0:0e:cc:aa:a6:2b:45:d7:
                    1d:c4:a8:6d:04:18:ff:56:11:49:0d:80:8a:31:ab:
                    ab:06:b7:fe:07:2b:64:18:0b:50:7e:9a:96:26:ed:
                    e6:d5:9d:aa:33:fe:7b:4a:cd:ba:15:85:ad:bb:c5:
                    c6:f1:0d:f2:20:71:72:a8:0b:f7:64:14:2d:3a:35:
                    04:8f:a7:68:f6:26:81:e3:68:17:ca:77:37:3b:6b:
                    81:68:05:55:64:6c:13:c0:a2:59:2d:62:2a:39:c5:
                    74:21:ed:95:ba:38:80:65:b2:99:e2:f7:97:80:9c:
                    23:2b:07:79:84:97:b2:5a:c0:db:97:6a:81:3c:ce:
                    4a:0b:3e:fd:fe:9b:6d:29:6b:f4:20:50:ba:a7:77:
                    6c:26:54:22:e0:81:6e:56:3c:cf:e3:a9:8f:8c:cd:
                    91:e1:bc:7d:9c:c4:92:39:7e:01:12:9d:9b:06:93:
                    f7:e1:0b:a8:35:2c:fb:16:24:11:a4:91:17:84:91:
                    0e:54:eb:3f:5d:8c:8a:78:f8:65:67:dd:08:c0:6a:
                    88:25:26:47:25:ab:28:09:1b:b0:ce:bd:21:20:f1:
                    73:65:2c:c9:e9:14:8e:cd:76:46:79:43:08:2e:ba:
                    96:ea:3e:05:31:81:4b:b2:eb:6f:0f:5b:54:6b:29:
                    0c:4a:91:a2:8e:99:62:a3:84:8e:3d:71:a9:01:35:
                    4d:08:49:59:84:62:9a:06:47:c8:ce:43:43:bd:9e:
                    88:d2:99:1c:aa:68:a5:31:b1:0b:88:3f:87:ff:7c:
                    8a:1e:1c:12:7b:85:02:aa:b9:6a:11:07:81:4c:50:
                    46:1b:a3
                Exponent: 65537 (0x10001)
        X509v3 extensions:
            Netscape Comment:
                CA Intermediate
            X509v3 Subject Key Identifier:
                88:CD:41:D7:31:FE:AE:05:33:F5:D4:82:48:A4:0E:1A:9E:EE:BC:B8
            X509v3 Authority Key Identifier:
                keyid:C7:BD:36:FF:58:55:76:8D:DF:07:1F:6F:C8:79:3D:C3:25:DD:D9:80
                DirName:/C=fr/ST=idf/L=paris/O=vitam/OU=authorities/CN=ca_root_server
                serial:01:E4

            X509v3 Basic Constraints: critical
                CA:TRUE, pathlen:0
            X509v3 Issuer Alternative Name:
                <EMPTY>

            X509v3 Key Usage:
                Certificate Sign, CRL Sign
            Netscape Cert Type:
                SSL CA
    Signature Algorithm: sha256WithRSAEncryption
         27:b2:fe:12:9c:5f:2f:59:9d:c9:f2:48:6b:7b:f3:07:20:74:
         24:64:ce:75:9c:8c:01:f1:3d:aa:86:cd:21:f8:35:91:ee:9f:
         27:3f:92:ab:4e:4f:81:c4:52:60:01:19:15:d8:bc:95:d6:a3:
         2a:72:3b:32:06:f1:c3:b0:81:fc:06:4e:a6:4c:81:4b:a5:43:
         23:5b:40:3e:a5:5c:2e:17:08:76:4d:d7:de:90:ad:98:ec:74:
         5f:2d:6a:71:ec:99:cf:88:07:d9:90:55:44:f2:db:b4:cb:67:
         1f:ee:b8:54:60:3e:61:5a:45:0b:06:60:05:ed:b3:bb:13:7d:
         38:8c:51:a4:a0:6a:b7:88:c5:c1:70:11:44:a7:6c:e9:2b:83:
         75:57:97:d2:16:d6:c0:15:ea:53:2e:56:b7:86:50:88:c3:3a:
         9e:50:6b:f1:af:03:9e:56:8b:4e:e5:24:f8:0f:2d:00:d8:40:
         b7:04:18:3c:61:58:34:86:2b:ae:99:44:e7:58:34:02:05:ae:
         f9:fb:11:2f:4a:03:f4:7c:66:15:89:04:4c:e8:b1:e5:cf:71:
         27:d0:fa:e0:52:a2:9b:f9:cf:7e:2b:bd:1d:04:a5:db:52:aa:
         56:b8:62:b0:aa:a6:32:ac:88:37:e0:01:6a:1b:79:be:ba:7c:
         20:95:8f:fa:87:26:70:a8:58:9d:93:1c:b1:c1:a2:3b:1e:bc:
         bb:0e:ef:9d:7d:3a:ac:b4:b8:8d:17:6c:b4:e2:e1:82:6c:1b:
         79:8b:a1:e7:46:c0:0c:3f:c5:4c:3c:d1:84:40:bb:3c:84:48:
         aa:05:7a:2d:09:ad:55:e0:7e:3c:97:44:22:b4:73:80:5c:24:
         e9:5e:8a:0e:dd:1d:f8:3f:c9:f0:b9:93:a8:b6:b8:ea:20:1b:
         8b:c3:49:87:0b:30:35:9c:d9:da:25:12:96:4a:cb:9a:b1:8e:
         fc:2a:14:eb:50:f9:dc:45:ed:67:85:f6:03:c9:22:57:7c:91:
         7a:dd:50:eb:e1:e7:0d:5a:d4:4d:27:75:4e:c6:e8:c3:27:f3:
         da:2f:ea:b0:11:0b:1a:b6:9d:45:bc:ef:b3:7f:ae:aa:1a:d8:
         7a:bd:1a:d9:01:3e:8f:a6:42:09:19:c1:d4:ae:83:8f:d8:fc:
         de:7d:47:7b:78:84:b9:53:44:68:21:c2:4a:94:e6:bf:69:d6:
         89:d0:4c:54:14:be:cd:a1:b7:01:c9:ae:e5:37:41:49:a0:15:
         d1:0b:bd:40:1c:34:43:6c:72:ee:d0:73:95:2b:49:64:fb:69:
         5c:77:4d:48:57:3b:7f:a3:9b:b8:1d:b6:e3:0c:34:b4:73:75:
         0a:59:b4:14:fa:35:6d:2b
-----BEGIN CERTIFICATE-----
MIIGdDCCBFygAwIBAgICAeUwDQYJKoZIhvcNAQELBQAwajELMAkGA1UEBhMCZnIx
DDAKBgNVBAgMA2lkZjEOMAwGA1UEBwwFcGFyaXMxDjAMBgNVBAoMBXZpdGFtMRQw
EgYDVQQLDAthdXRob3JpdGllczEXMBUGA1UEAwwOY2Ffcm9vdF9zZXJ2ZXIwHhcN
MTkxMjEyMTA0MjQyWhcNMjkxMjA5MTA0MjQyWjByMQswCQYDVQQGEwJmcjEMMAoG
A1UECAwDaWRmMQ4wDAYDVQQHDAVwYXJpczEOMAwGA1UECgwFdml0YW0xFDASBgNV
BAsMC2F1dGhvcml0aWVzMR8wHQYDVQQDDBZjYV9pbnRlcm1lZGlhdGVfc2VydmVy
MIICIjANBgkqhkiG9w0BAQEFAAOCAg8AMIICCgKCAgEAxkCAj+CB+eySta9gWpBY
pB/iHOxjpRssejrpfKVSJ9nfVaiTR3/mDIqtoyxSpLs4Bk0dQ1beGXzzKALyxo9B
wKL+eGXFDog6GzQ5R/GbFjpotT+y+ZmBOuizi9I4Hne6MWmvEsrqarsoAf/fnytY
TvsYKXL7YzD1cw5h1sx+GUCZLEX7XlEGVL8LX23n2c21Osq7IDcejQQzY9lkRypH
Ml8aFKivuNqb86e01UH//EkgYq5poK03/AFs9j0SU18C8Dr7Haw9YSKp4A7MqqYr
RdcdxKhtBBj/VhFJDYCKMaurBrf+BytkGAtQfpqWJu3m1Z2qM/57Ss26FYWtu8XG
8Q3yIHFyqAv3ZBQtOjUEj6do9iaB42gXync3O2uBaAVVZGwTwKJZLWIqOcV0Ie2V
ujiAZbKZ4veXgJwjKwd5hJeyWsDbl2qBPM5KCz79/pttKWv0IFC6p3dsJlQi4IFu
VjzP46mPjM2R4bx9nMSSOX4BEp2bBpP34QuoNSz7FiQRpJEXhJEOVOs/XYyKePhl
Z90IwGqIJSZHJasoCRuwzr0hIPFzZSzJ6RSOzXZGeUMILrqW6j4FMYFLsutvD1tU
aykMSpGijplio4SOPXGpATVNCElZhGKaBkfIzkNDvZ6I0pkcqmilMbELiD+H/3yK
HhwSe4UCqrlqEQeBTFBGG6MCAwEAAaOCARowggEWMB4GCWCGSAGG+EIBDQQRFg9D
QSBJbnRlcm1lZGlhdGUwHQYDVR0OBBYEFIjNQdcx/q4FM/XUgkikDhqe7ry4MIGV
BgNVHSMEgY0wgYqAFMe9Nv9YVXaN3wcfb8h5PcMl3dmAoW6kbDBqMQswCQYDVQQG
EwJmcjEMMAoGA1UECAwDaWRmMQ4wDAYDVQQHDAVwYXJpczEOMAwGA1UECgwFdml0
YW0xFDASBgNVBAsMC2F1dGhvcml0aWVzMRcwFQYDVQQDDA5jYV9yb290X3NlcnZl
coICAeQwEgYDVR0TAQH/BAgwBgEB/wIBADAJBgNVHRIEAjAAMAsGA1UdDwQEAwIB
BjARBglghkgBhvhCAQEEBAMCAgQwDQYJKoZIhvcNAQELBQADggIBACey/hKcXy9Z
ncnySGt78wcgdCRkznWcjAHxPaqGzSH4NZHunyc/kqtOT4HEUmABGRXYvJXWoypy
OzIG8cOwgfwGTqZMgUulQyNbQD6lXC4XCHZN196QrZjsdF8tanHsmc+IB9mQVUTy
27TLZx/uuFRgPmFaRQsGYAXts7sTfTiMUaSgareIxcFwEUSnbOkrg3VXl9IW1sAV
6lMuVreGUIjDOp5Qa/GvA55Wi07lJPgPLQDYQLcEGDxhWDSGK66ZROdYNAIFrvn7
ES9KA/R8ZhWJBEzoseXPcSfQ+uBSopv5z34rvR0EpdtSqla4YrCqpjKsiDfgAWob
eb66fCCVj/qHJnCoWJ2THLHBojsevLsO7519Oqy0uI0XbLTi4YJsG3mLoedGwAw/
xUw80YRAuzyESKoFei0JrVXgfjyXRCK0c4BcJOleig7dHfg/yfC5k6i2uOogG4vD
SYcLMDWc2dolEpZKy5qxjvwqFOtQ+dxF7WeF9gPJIld8kXrdUOvh5w1a1E0ndU7G
6MMn89ov6rARCxq2nUW877N/rqoa2Hq9GtkBPo+mQgkZwdSug4/Y/N59R3t4hLlT
RGghwkqU5r9p1onQTFQUvs2htwHJruU3QUmgFdELvUAcNENscu7Qc5UrSWT7aVx3
TUhXO3+jm7gdtuMMNLRzdQpZtBT6NW0r
-----END CERTIFICATE-----
