Certificate:
    Data:
        Version: 3 (0x2)
        Serial Number: 2 (0x2)
        Signature Algorithm: sha256WithRSAEncryption
        Issuer: C=fr, ST=idf, L=paris, O=vitamui, OU=authorities, CN=ca_root_client-external
        Validity
            Not Before: May  5 12:15:18 2020 GMT
            Not After : May  3 12:15:18 2030 GMT
        Subject: C=fr, ST=idf, L=paris, O=vitamui, OU=authorities, CN=ca_intermediate_client-external
        Subject Public Key Info:
            Public Key Algorithm: rsaEncryption
                RSA Public-Key: (4096 bit)
                Modulus:
                    00:d1:0d:66:f4:dd:ec:a5:35:91:1b:f6:dc:b6:5b:
                    85:fe:5b:b1:b6:80:e6:20:5b:ed:27:16:fb:25:f9:
                    3c:83:f7:d0:30:51:50:55:3e:49:ab:81:9a:50:66:
                    1b:53:f8:9a:e2:5d:d9:64:b1:de:4e:9d:a7:69:68:
                    d2:6f:6c:0a:09:c7:e5:ae:6f:c4:0d:73:15:00:0b:
                    c8:f3:52:04:c9:ab:5f:66:7f:d7:ad:1b:e0:ee:56:
                    ea:d3:76:fb:b7:ad:14:01:53:5c:7a:df:d5:ac:52:
                    eb:98:69:1c:a6:d6:30:a9:0c:7c:31:4e:01:19:68:
                    20:bc:ea:70:62:63:dd:77:02:0f:6f:86:28:4e:c3:
                    b7:c2:66:2c:26:c6:fd:08:e4:94:3f:06:b0:be:c3:
                    20:5c:0c:d9:1e:05:b7:f0:e7:c8:eb:7c:17:90:6d:
                    25:78:44:03:14:be:91:6d:a5:f8:f6:83:3a:11:75:
                    2b:cb:cf:31:a7:6e:50:a1:73:20:85:f5:dc:43:7c:
                    5c:a4:5a:34:8a:13:64:ab:ec:87:34:33:07:3a:d6:
                    65:1a:a1:c8:82:ff:30:53:f7:a5:1f:01:1f:d2:fb:
                    d4:7d:33:0e:13:47:23:05:89:a9:0a:6b:65:de:0a:
                    9d:7d:ba:0f:1e:42:78:5a:f8:71:69:9d:c5:75:b9:
                    d0:87:74:98:69:b2:00:04:81:1a:f0:2c:8d:71:f5:
                    53:19:51:00:1e:cb:cf:f2:7f:0f:61:47:47:6d:30:
                    99:50:ad:eb:ec:14:4f:18:24:5d:93:80:63:b9:21:
                    e5:84:88:8d:b1:78:d2:d9:42:cb:5f:bb:76:97:cf:
                    6f:7d:ee:a4:1b:ec:34:52:ff:ed:1e:fe:55:bf:d8:
                    e5:fb:a0:1a:2f:78:76:a4:df:db:12:bf:c7:0b:18:
                    4f:f7:29:fe:88:34:8a:b3:6b:8f:73:0d:98:1d:01:
                    1a:6d:84:41:c8:6c:3d:68:e6:86:82:8b:22:8d:ad:
                    92:b6:8a:97:37:e2:08:e3:c7:49:9a:5d:72:7c:0d:
                    66:58:6e:98:4e:69:dc:4b:e7:dd:20:c0:aa:af:51:
                    b4:b9:cd:2c:67:5c:66:27:75:30:14:82:59:0f:8c:
                    86:c8:28:2b:43:dd:21:83:2f:22:07:5c:44:7c:88:
                    1e:fb:d0:33:9c:35:34:a3:02:cb:b9:c0:e2:94:b2:
                    04:e4:10:b8:c8:da:9f:b4:f7:3f:54:2c:e2:6f:89:
                    8b:b0:49:11:d3:c9:14:17:15:e1:a7:a5:2e:42:f4:
                    0e:c2:d7:0a:70:64:94:32:c4:27:42:e0:c0:98:41:
                    2c:bb:02:0b:fb:a9:e4:f6:c5:13:89:59:ed:e6:d3:
                    f1:c1:35
                Exponent: 65537 (0x10001)
        X509v3 extensions:
            Netscape Comment: 
                CA Intermediate
            X509v3 Subject Key Identifier: 
                24:0C:1B:40:0F:9A:EC:7E:53:52:6E:DD:75:D7:47:6F:B2:84:21:B4
            X509v3 Authority Key Identifier: 
                keyid:7C:4A:2C:F1:F4:F5:16:06:22:0F:74:19:38:BB:50:05:4E:19:53:20
                DirName:/C=fr/ST=idf/L=paris/O=vitamui/OU=authorities/CN=ca_root_client-external
                serial:01

            X509v3 Basic Constraints: critical
                CA:TRUE, pathlen:0
            X509v3 Issuer Alternative Name: 
                <EMPTY>

            X509v3 Key Usage: 
                Certificate Sign, CRL Sign
            Netscape Cert Type: 
                SSL CA
    Signature Algorithm: sha256WithRSAEncryption
         49:9d:33:33:72:69:2e:67:a0:37:7b:1e:9a:26:c1:b7:6c:61:
         4f:1a:ab:df:0a:38:28:98:59:7e:4c:e0:de:c6:26:ed:fb:b2:
         e4:49:0f:d3:df:38:38:8e:d5:39:a4:5b:e4:cd:89:1d:7d:67:
         96:0e:15:2a:f7:03:b4:94:48:f3:29:ef:66:5c:be:28:47:cf:
         78:68:b5:6f:3a:59:83:3e:e6:48:a5:a3:17:07:92:61:8f:e1:
         10:d9:ec:ed:ce:d8:67:e5:54:0f:27:27:dd:41:b3:37:31:cf:
         da:b7:c6:4b:5d:58:17:c1:6a:a0:da:c7:a8:1f:68:4f:38:c9:
         be:be:96:13:b3:5d:e5:7d:0e:00:93:90:20:ee:d3:02:03:73:
         32:e0:b6:0b:6c:6e:bb:ae:2f:02:d2:a5:35:18:d6:d1:c2:c0:
         e2:4e:fe:c1:08:f3:1e:9d:b0:79:1b:a7:07:18:36:53:8b:1e:
         f5:a9:50:9f:5f:66:70:63:fc:d1:03:0c:c4:c1:d5:19:83:0b:
         bd:5b:af:a1:82:8c:21:bf:f5:d0:10:4c:d0:e6:6a:0e:af:38:
         3e:6f:ff:66:c8:b6:29:90:f3:c8:7f:2a:6f:2a:a1:a1:b2:a3:
         ff:ad:a3:76:ed:77:77:e2:96:26:30:75:ea:89:36:86:51:35:
         fb:93:36:7c:4c:f0:ff:29:60:26:fb:3d:89:cd:d2:45:c7:0f:
         be:3f:fd:c8:da:2b:67:53:35:34:d9:8f:84:cb:71:d9:9c:cd:
         54:f9:26:6d:55:31:5c:99:a5:5c:7a:62:d2:69:31:12:f8:14:
         b6:53:3b:29:52:7f:b7:a7:ac:0e:cd:15:8f:53:a0:a9:5c:b1:
         37:72:70:6c:b4:74:34:9b:5b:f0:f0:b0:2f:a9:41:d0:29:3e:
         13:66:2a:65:05:2c:d3:fd:0d:49:8b:63:b4:88:d3:c6:6f:ef:
         ba:b3:5e:d0:b1:20:dc:82:47:6a:a3:b3:f1:5c:38:16:8f:2c:
         9f:4c:60:ad:cb:60:72:a8:02:78:06:0b:af:05:c5:16:9b:c2:
         b7:b6:2a:e3:f0:0e:23:e6:49:80:9a:79:14:04:7e:02:bf:76:
         78:6d:7d:e7:92:41:2b:b7:f2:34:fc:19:89:29:23:53:11:92:
         ab:20:43:27:4b:2a:8a:06:16:73:54:88:e2:07:e0:47:c3:a8:
         3e:4e:3d:3d:b8:ad:d3:d0:0f:2a:d9:5c:04:0c:46:d1:da:e5:
         cd:72:89:ee:0e:40:c9:6b:56:db:e4:d1:a5:a2:c6:be:3c:36:
         da:30:ee:e3:ce:52:9b:d3:e6:1a:7d:40:f0:9b:f2:3c:26:02:
         b4:a7:45:55:25:43:68:fc
-----BEGIN CERTIFICATE-----
MIIGkzCCBHugAwIBAgIBAjANBgkqhkiG9w0BAQsFADB1MQswCQYDVQQGEwJmcjEM
MAoGA1UECAwDaWRmMQ4wDAYDVQQHDAVwYXJpczEQMA4GA1UECgwHdml0YW11aTEU
MBIGA1UECwwLYXV0aG9yaXRpZXMxIDAeBgNVBAMMF2NhX3Jvb3RfY2xpZW50LWV4
dGVybmFsMB4XDTIwMDUwNTEyMTUxOFoXDTMwMDUwMzEyMTUxOFowfTELMAkGA1UE
BhMCZnIxDDAKBgNVBAgMA2lkZjEOMAwGA1UEBwwFcGFyaXMxEDAOBgNVBAoMB3Zp
dGFtdWkxFDASBgNVBAsMC2F1dGhvcml0aWVzMSgwJgYDVQQDDB9jYV9pbnRlcm1l
ZGlhdGVfY2xpZW50LWV4dGVybmFsMIICIjANBgkqhkiG9w0BAQEFAAOCAg8AMIIC
CgKCAgEA0Q1m9N3spTWRG/bctluF/luxtoDmIFvtJxb7Jfk8g/fQMFFQVT5Jq4Ga
UGYbU/ia4l3ZZLHeTp2naWjSb2wKCcflrm/EDXMVAAvI81IEyatfZn/XrRvg7lbq
03b7t60UAVNcet/VrFLrmGkcptYwqQx8MU4BGWggvOpwYmPddwIPb4YoTsO3wmYs
Jsb9COSUPwawvsMgXAzZHgW38OfI63wXkG0leEQDFL6RbaX49oM6EXUry88xp25Q
oXMghfXcQ3xcpFo0ihNkq+yHNDMHOtZlGqHIgv8wU/elHwEf0vvUfTMOE0cjBYmp
Cmtl3gqdfboPHkJ4WvhxaZ3FdbnQh3SYabIABIEa8CyNcfVTGVEAHsvP8n8PYUdH
bTCZUK3r7BRPGCRdk4BjuSHlhIiNsXjS2ULLX7t2l89vfe6kG+w0Uv/tHv5Vv9jl
+6AaL3h2pN/bEr/HCxhP9yn+iDSKs2uPcw2YHQEabYRByGw9aOaGgosija2StoqX
N+II48dJml1yfA1mWG6YTmncS+fdIMCqr1G0uc0sZ1xmJ3UwFIJZD4yGyCgrQ90h
gy8iB1xEfIge+9AznDU0owLLucDilLIE5BC4yNqftPc/VCzib4mLsEkR08kUFxXh
p6UuQvQOwtcKcGSUMsQnQuDAmEEsuwIL+6nk9sUTiVnt5tPxwTUCAwEAAaOCASQw
ggEgMB4GCWCGSAGG+EIBDQQRFg9DQSBJbnRlcm1lZGlhdGUwHQYDVR0OBBYEFCQM
G0APmux+U1Ju3XXXR2+yhCG0MIGfBgNVHSMEgZcwgZSAFHxKLPH09RYGIg90GTi7
UAVOGVMgoXmkdzB1MQswCQYDVQQGEwJmcjEMMAoGA1UECAwDaWRmMQ4wDAYDVQQH
DAVwYXJpczEQMA4GA1UECgwHdml0YW11aTEUMBIGA1UECwwLYXV0aG9yaXRpZXMx
IDAeBgNVBAMMF2NhX3Jvb3RfY2xpZW50LWV4dGVybmFsggEBMBIGA1UdEwEB/wQI
MAYBAf8CAQAwCQYDVR0SBAIwADALBgNVHQ8EBAMCAQYwEQYJYIZIAYb4QgEBBAQD
AgIEMA0GCSqGSIb3DQEBCwUAA4ICAQBJnTMzcmkuZ6A3ex6aJsG3bGFPGqvfCjgo
mFl+TODexibt+7LkSQ/T3zg4jtU5pFvkzYkdfWeWDhUq9wO0lEjzKe9mXL4oR894
aLVvOlmDPuZIpaMXB5Jhj+EQ2eztzthn5VQPJyfdQbM3Mc/at8ZLXVgXwWqg2seo
H2hPOMm+vpYTs13lfQ4Ak5Ag7tMCA3My4LYLbG67ri8C0qU1GNbRwsDiTv7BCPMe
nbB5G6cHGDZTix71qVCfX2ZwY/zRAwzEwdUZgwu9W6+hgowhv/XQEEzQ5moOrzg+
b/9myLYpkPPIfypvKqGhsqP/raN27Xd34pYmMHXqiTaGUTX7kzZ8TPD/KWAm+z2J
zdJFxw++P/3I2itnUzU02Y+Ey3HZnM1U+SZtVTFcmaVcemLSaTES+BS2UzspUn+3
p6wOzRWPU6CpXLE3cnBstHQ0m1vw8LAvqUHQKT4TZiplBSzT/Q1Ji2O0iNPGb++6
s17QsSDcgkdqo7PxXDgWjyyfTGCty2ByqAJ4BguvBcUWm8K3tirj8A4j5kmAmnkU
BH4Cv3Z4bX3nkkErt/I0/BmJKSNTEZKrIEMnSyqKBhZzVIjiB+BHw6g+Tj09uK3T
0A8q2VwEDEbR2uXNconuDkDJa1bb5NGlosa+PDbaMO7jzlKb0+YafUDwm/I8JgK0
p0VVJUNo/A==
-----END CERTIFICATE-----
