Certificate:
    Data:
        Version: 3 (0x2)
        Serial Number: 2 (0x2)
        Signature Algorithm: sha256WithRSAEncryption
        Issuer: C=fr, ST=idf, L=paris, O=vitamui, OU=authorities, CN=ca_root_client-vitam
        Validity
            Not Before: May  5 12:15:22 2020 GMT
            Not After : May  3 12:15:22 2030 GMT
        Subject: C=fr, ST=idf, L=paris, O=vitamui, OU=authorities, CN=ca_intermediate_client-vitam
        Subject Public Key Info:
            Public Key Algorithm: rsaEncryption
                RSA Public-Key: (4096 bit)
                Modulus:
                    00:b3:ad:d4:2c:f4:26:42:fb:fa:f8:08:12:9d:34:
                    3c:ba:54:7e:fc:0d:c1:d2:f1:50:1c:80:6d:65:81:
                    00:fa:51:85:db:ed:43:78:7d:5d:b1:dc:66:4e:0e:
                    9a:92:a8:c3:d4:41:81:80:e3:0d:9e:02:18:fb:d0:
                    77:2e:5d:93:24:8c:0d:d4:eb:59:5f:71:d0:50:51:
                    e0:9d:66:e4:59:5a:b5:9f:3b:0c:49:cc:7b:a6:cf:
                    dc:b9:98:b9:8c:92:04:3b:f0:69:c0:05:a9:be:af:
                    ec:56:7d:72:88:8a:7d:70:f0:60:11:b0:f7:5d:7e:
                    a2:dc:c0:f5:13:d9:98:5a:da:d2:cb:56:4a:f0:b1:
                    81:7b:44:cd:1e:92:66:ff:f7:70:b0:ec:00:32:30:
                    1c:be:a2:9e:ba:8a:13:60:cd:34:0d:10:20:91:29:
                    c5:54:79:43:e3:85:66:6a:c7:dc:c5:c6:9c:07:6c:
                    1e:85:c8:b7:e7:98:c7:e3:4d:55:d9:b6:5a:d7:9b:
                    5c:4f:7e:fd:b2:ae:7a:53:7c:94:09:28:ee:54:25:
                    70:72:cb:f7:fe:97:41:e0:50:27:86:ca:7d:9f:7a:
                    cd:fc:2e:5d:90:d9:df:6e:c2:09:da:0a:c5:ac:c2:
                    d3:86:84:ca:71:a5:73:e6:88:57:b8:57:24:cf:65:
                    ff:1e:ea:e5:98:19:29:ac:b5:cd:b1:ef:53:92:a2:
                    16:e5:e7:73:f4:c4:ad:05:8b:ab:55:5a:cb:b3:de:
                    de:d5:71:d6:97:13:88:16:86:58:e8:3c:28:b5:76:
                    03:99:26:06:5f:8a:a1:df:57:67:dd:06:49:5e:8e:
                    f1:4e:d1:f1:3a:4d:23:4b:5e:d5:03:81:dd:eb:e0:
                    43:6d:eb:7b:ca:a4:b1:24:c6:97:85:17:e3:eb:d8:
                    a1:b0:36:d9:85:ad:e7:ce:fd:97:93:64:87:dc:69:
                    e4:5d:99:4e:ba:95:bd:cb:ae:7d:5c:2d:c2:21:84:
                    d6:aa:a5:68:3a:78:82:7e:59:5e:eb:1b:f9:92:28:
                    53:4b:b7:06:21:bd:9a:fc:b0:40:e8:dd:97:35:4a:
                    db:ff:b3:d0:26:bc:93:e1:7c:6d:da:df:27:37:9c:
                    2e:dd:84:8e:32:ff:1e:e3:94:7c:bd:d3:16:f4:31:
                    d3:6e:41:f7:03:70:af:a9:75:2b:1c:dd:49:75:3f:
                    cf:3a:32:e5:c7:2e:49:5c:62:ab:e3:fb:37:4a:86:
                    4f:c2:ca:16:68:f5:11:1b:a0:1b:96:8e:56:20:6e:
                    e6:c8:55:58:e8:64:7f:4c:94:b3:43:34:a5:22:1b:
                    36:b3:06:71:be:95:ca:c2:43:e9:78:09:63:85:61:
                    0f:76:57
                Exponent: 65537 (0x10001)
        X509v3 extensions:
            Netscape Comment: 
                CA Intermediate
            X509v3 Subject Key Identifier: 
                8D:24:4C:8A:40:90:31:A1:31:3A:0B:93:75:2B:F6:93:EF:AD:46:B9
            X509v3 Authority Key Identifier: 
                keyid:6A:B6:51:B0:3C:6F:34:81:D2:BD:8A:80:96:75:D4:A2:1C:CF:C8:D9
                DirName:/C=fr/ST=idf/L=paris/O=vitamui/OU=authorities/CN=ca_root_client-vitam
                serial:01

            X509v3 Basic Constraints: critical
                CA:TRUE, pathlen:0
            X509v3 Issuer Alternative Name: 
                <EMPTY>

            X509v3 Key Usage: 
                Certificate Sign, CRL Sign
            Netscape Cert Type: 
                SSL CA
    Signature Algorithm: sha256WithRSAEncryption
         6a:f2:0b:fd:cb:4a:aa:b1:03:f5:db:0f:4b:55:f8:c3:b4:7a:
         7c:32:9b:60:24:fe:cc:dc:cc:d1:7c:7d:60:ab:ac:55:e2:01:
         bf:56:23:d8:7d:1a:b5:a2:35:4f:19:ad:71:2d:92:27:4d:a1:
         8d:dc:2f:e4:5f:5e:af:53:7e:18:3f:f0:9d:8a:0a:a3:df:4b:
         0e:49:70:6d:a8:72:fa:e0:79:94:37:e8:4e:f8:c2:09:79:d2:
         71:db:61:56:db:e9:74:78:0a:e3:0d:0a:17:74:5a:b5:3c:00:
         d7:82:75:1c:f5:55:88:d1:5f:3b:bd:e3:2e:05:04:7b:86:a0:
         29:79:71:60:8c:37:b3:de:02:ad:f4:ca:cc:18:3e:b0:be:67:
         1c:71:d9:d1:00:dd:33:70:43:cb:7c:8b:1a:9a:09:f9:80:fb:
         bf:95:bc:53:ad:eb:72:dd:b3:df:97:ca:6f:d9:23:6c:05:25:
         53:b5:8d:34:c8:36:d1:aa:00:3c:78:d4:e0:57:d6:75:d3:ac:
         2a:27:82:a4:74:27:f1:20:31:3c:9b:f8:5e:7e:22:04:7e:cc:
         6c:f4:cb:59:27:72:3a:54:02:a6:62:d1:1e:a4:07:b1:2f:26:
         e6:c4:4c:80:ac:17:48:c5:f7:4c:a8:c5:5e:21:14:20:e3:b3:
         c8:be:88:a2:b3:c7:2c:a0:d7:01:24:c0:86:cd:10:f7:cb:7a:
         58:10:8c:44:2c:ba:35:3a:07:aa:d9:93:7a:08:45:a9:76:e1:
         04:48:c9:d3:b9:90:b4:31:e0:6b:3b:06:a9:1d:68:69:fe:a3:
         0f:a8:15:2f:d7:c1:5a:9b:53:99:ef:15:23:58:33:05:d5:27:
         40:f4:d1:e6:59:bd:85:05:b9:68:4f:f2:2d:2c:bc:03:34:35:
         f5:fb:48:49:1e:03:16:64:ba:ec:79:9f:7b:59:87:76:5e:39:
         0f:04:e4:b0:39:42:84:26:31:6e:90:cf:80:ec:f7:5c:c8:c9:
         04:12:1e:7c:4b:35:55:22:31:3a:16:04:b1:a8:d0:43:c1:7a:
         14:39:49:3b:e4:f8:fe:22:3a:72:2e:e1:33:61:4a:8a:2c:56:
         9a:c5:b2:0b:f8:75:1a:4b:ed:4c:f5:85:67:73:7c:38:d8:e4:
         bb:49:02:e9:92:d2:d7:42:cf:3a:62:8f:e8:ff:6b:4a:fa:32:
         8c:25:51:fd:e8:4e:bd:be:c9:64:60:9c:5d:15:52:40:83:a9:
         3e:3c:40:31:36:f6:ee:59:bb:74:3c:01:ce:0b:c3:cf:c6:02:
         0f:7a:d0:b5:9f:46:39:74:c8:a3:94:5d:28:ae:aa:e8:7c:91:
         4e:46:6e:b5:88:82:fb:96
-----BEGIN CERTIFICATE-----
MIIGijCCBHKgAwIBAgIBAjANBgkqhkiG9w0BAQsFADByMQswCQYDVQQGEwJmcjEM
MAoGA1UECAwDaWRmMQ4wDAYDVQQHDAVwYXJpczEQMA4GA1UECgwHdml0YW11aTEU
MBIGA1UECwwLYXV0aG9yaXRpZXMxHTAbBgNVBAMMFGNhX3Jvb3RfY2xpZW50LXZp
dGFtMB4XDTIwMDUwNTEyMTUyMloXDTMwMDUwMzEyMTUyMlowejELMAkGA1UEBhMC
ZnIxDDAKBgNVBAgMA2lkZjEOMAwGA1UEBwwFcGFyaXMxEDAOBgNVBAoMB3ZpdGFt
dWkxFDASBgNVBAsMC2F1dGhvcml0aWVzMSUwIwYDVQQDDBxjYV9pbnRlcm1lZGlh
dGVfY2xpZW50LXZpdGFtMIICIjANBgkqhkiG9w0BAQEFAAOCAg8AMIICCgKCAgEA
s63ULPQmQvv6+AgSnTQ8ulR+/A3B0vFQHIBtZYEA+lGF2+1DeH1dsdxmTg6akqjD
1EGBgOMNngIY+9B3Ll2TJIwN1OtZX3HQUFHgnWbkWVq1nzsMScx7ps/cuZi5jJIE
O/BpwAWpvq/sVn1yiIp9cPBgEbD3XX6i3MD1E9mYWtrSy1ZK8LGBe0TNHpJm//dw
sOwAMjAcvqKeuooTYM00DRAgkSnFVHlD44VmasfcxcacB2wehci355jH401V2bZa
15tcT379sq56U3yUCSjuVCVwcsv3/pdB4FAnhsp9n3rN/C5dkNnfbsIJ2grFrMLT
hoTKcaVz5ohXuFckz2X/HurlmBkprLXNse9TkqIW5edz9MStBYurVVrLs97e1XHW
lxOIFoZY6DwotXYDmSYGX4qh31dn3QZJXo7xTtHxOk0jS17VA4Hd6+BDbet7yqSx
JMaXhRfj69ihsDbZha3nzv2Xk2SH3GnkXZlOupW9y659XC3CIYTWqqVoOniCflle
6xv5kihTS7cGIb2a/LBA6N2XNUrb/7PQJryT4Xxt2t8nN5wu3YSOMv8e45R8vdMW
9DHTbkH3A3CvqXUrHN1JdT/POjLlxy5JXGKr4/s3SoZPwsoWaPURG6Ablo5WIG7m
yFVY6GR/TJSzQzSlIhs2swZxvpXKwkPpeAljhWEPdlcCAwEAAaOCASEwggEdMB4G
CWCGSAGG+EIBDQQRFg9DQSBJbnRlcm1lZGlhdGUwHQYDVR0OBBYEFI0kTIpAkDGh
MToLk3Ur9pPvrUa5MIGcBgNVHSMEgZQwgZGAFGq2UbA8bzSB0r2KgJZ11KIcz8jZ
oXakdDByMQswCQYDVQQGEwJmcjEMMAoGA1UECAwDaWRmMQ4wDAYDVQQHDAVwYXJp
czEQMA4GA1UECgwHdml0YW11aTEUMBIGA1UECwwLYXV0aG9yaXRpZXMxHTAbBgNV
BAMMFGNhX3Jvb3RfY2xpZW50LXZpdGFtggEBMBIGA1UdEwEB/wQIMAYBAf8CAQAw
CQYDVR0SBAIwADALBgNVHQ8EBAMCAQYwEQYJYIZIAYb4QgEBBAQDAgIEMA0GCSqG
SIb3DQEBCwUAA4ICAQBq8gv9y0qqsQP12w9LVfjDtHp8MptgJP7M3MzRfH1gq6xV
4gG/ViPYfRq1ojVPGa1xLZInTaGN3C/kX16vU34YP/Cdigqj30sOSXBtqHL64HmU
N+hO+MIJedJx22FW2+l0eArjDQoXdFq1PADXgnUc9VWI0V87veMuBQR7hqApeXFg
jDez3gKt9MrMGD6wvmcccdnRAN0zcEPLfIsamgn5gPu/lbxTrety3bPfl8pv2SNs
BSVTtY00yDbRqgA8eNTgV9Z106wqJ4KkdCfxIDE8m/hefiIEfsxs9MtZJ3I6VAKm
YtEepAexLybmxEyArBdIxfdMqMVeIRQg47PIvoiis8csoNcBJMCGzRD3y3pYEIxE
LLo1Ogeq2ZN6CEWpduEESMnTuZC0MeBrOwapHWhp/qMPqBUv18Fam1OZ7xUjWDMF
1SdA9NHmWb2FBbloT/ItLLwDNDX1+0hJHgMWZLrseZ97WYd2XjkPBOSwOUKEJjFu
kM+A7PdcyMkEEh58SzVVIjE6FgSxqNBDwXoUOUk75Pj+IjpyLuEzYUqKLFaaxbIL
+HUaS+1M9YVnc3w42OS7SQLpktLXQs86Yo/o/2tK+jKMJVH96E69vslkYJxdFVJA
g6k+PEAxNvbuWbt0PAHOC8PPxgIPetC1n0Y5dMijlF0orqrofJFORm61iIL7lg==
-----END CERTIFICATE-----
