Certificate:
    Data:
        Version: 3 (0x2)
        Serial Number: 1 (0x1)
        Signature Algorithm: sha256WithRSAEncryption
        Issuer: C=fr, ST=idf, L=paris, O=vitamui, OU=authorities, CN=ca_root_client-vitam
        Validity
            Not Before: May  5 12:15:20 2020 GMT
            Not After : May  3 12:15:20 2030 GMT
        Subject: C=fr, ST=idf, L=paris, O=vitamui, OU=authorities, CN=ca_root_client-vitam
        Subject Public Key Info:
            Public Key Algorithm: rsaEncryption
                RSA Public-Key: (4096 bit)
                Modulus:
                    00:d7:e1:a4:d0:b4:35:c8:be:c7:9f:9d:34:c8:b3:
                    44:51:88:94:ba:94:f9:9a:b9:5e:71:8d:7e:47:20:
                    1c:1a:c6:27:67:29:74:5b:a1:71:34:e8:28:4c:ac:
                    28:3c:39:19:0f:86:cf:03:42:cd:80:f4:d3:a3:ab:
                    fa:f7:f7:96:59:8f:74:1b:4f:17:c8:38:a7:71:2e:
                    2b:39:31:78:28:aa:7c:72:61:be:c9:ed:d3:48:f2:
                    ea:cb:97:87:68:74:ed:5d:72:40:4e:41:9a:ad:87:
                    3f:08:6f:f3:14:28:4c:b1:b7:57:0d:8f:fe:29:1a:
                    4b:90:eb:1a:0c:e2:9a:28:23:a3:fa:fc:93:17:f0:
                    5c:5a:bf:ef:62:5c:8d:23:5e:77:48:1c:0d:f4:7c:
                    ad:39:fa:06:54:39:e4:ed:df:8b:2e:f6:ae:d3:de:
                    2b:f5:d6:4a:f0:45:9d:f0:b1:4d:67:a4:ba:80:fa:
                    eb:3e:01:bc:6f:ae:08:49:e4:95:b2:4c:a4:6b:93:
                    45:4b:c7:ab:04:4e:14:63:50:3a:0b:95:e3:70:72:
                    b1:91:c4:c0:53:b1:0c:36:ed:3c:c2:1b:16:20:75:
                    6d:0f:7f:57:76:3e:a0:d6:bb:ff:7c:05:37:8a:16:
                    47:48:56:54:97:62:b2:47:60:15:70:aa:9a:19:48:
                    b0:19:fe:33:f6:1b:1f:a3:d0:9f:15:ee:2c:b1:71:
                    ce:78:7b:f5:b0:32:49:c9:79:02:12:5a:f5:2c:4a:
                    28:1b:26:f7:da:59:af:98:12:5c:8e:01:7b:b4:15:
                    0d:b9:8f:08:50:71:25:d9:b7:c2:b5:80:55:ce:c4:
                    75:51:4f:1f:6e:db:ba:37:99:08:9f:90:b4:c6:95:
                    ce:9f:27:6a:b7:ff:b5:3e:3a:e0:2c:70:40:17:19:
                    e7:59:aa:84:d1:64:9a:74:7f:6e:f1:65:c9:af:cd:
                    ca:c6:c0:04:c7:94:86:2b:9a:4c:dd:86:6c:d8:a0:
                    be:11:f0:0a:16:34:c7:da:91:8d:01:20:05:46:c2:
                    4b:a4:c3:05:8e:08:f3:c9:ff:7e:26:de:6c:87:8b:
                    e9:ba:c7:c4:24:62:50:0f:f4:02:43:8e:77:30:97:
                    4a:0b:f5:1c:a5:c4:46:ce:50:28:32:77:1a:39:65:
                    23:f0:83:b6:b6:c5:74:46:00:36:2f:f1:2f:7d:bb:
                    a7:97:80:76:a6:24:94:da:9f:d6:99:10:18:e0:3a:
                    b5:40:a2:19:b2:c7:71:b8:0e:de:fb:a5:05:a8:48:
                    ab:63:53:2c:15:7f:b8:a6:1f:1b:41:4a:e4:72:66:
                    ae:dd:e5:15:1e:2f:4a:ab:c9:3a:5a:08:68:2d:a6:
                    dd:af:3d
                Exponent: 65537 (0x10001)
        X509v3 extensions:
            Netscape Comment: 
                CA Root
            X509v3 Subject Key Identifier: 
                6A:B6:51:B0:3C:6F:34:81:D2:BD:8A:80:96:75:D4:A2:1C:CF:C8:D9
            X509v3 Authority Key Identifier: 
                keyid:6A:B6:51:B0:3C:6F:34:81:D2:BD:8A:80:96:75:D4:A2:1C:CF:C8:D9

            X509v3 Basic Constraints: critical
                CA:TRUE, pathlen:1
            X509v3 Key Usage: 
                Certificate Sign, CRL Sign
            Netscape Cert Type: 
                SSL CA
    Signature Algorithm: sha256WithRSAEncryption
         29:e1:0f:44:f2:6e:75:70:88:3e:6b:95:da:9f:0f:2a:fb:5c:
         ae:0b:e7:f0:c8:7b:9d:c4:2e:02:4f:66:d2:2d:01:5c:42:e2:
         81:e6:69:e3:18:aa:c9:69:9e:0b:e9:1a:55:ec:0e:fa:c9:d5:
         97:6c:5f:5a:16:f3:8e:eb:7e:83:8c:3f:f8:ec:75:6f:f1:90:
         a9:b3:29:d9:31:b4:17:98:7e:28:58:ef:dd:c6:f5:73:e4:bf:
         12:c0:1f:52:03:d2:6a:4f:c4:83:6b:7d:f7:b1:90:a6:5a:0c:
         81:96:67:e1:3d:d9:7a:fd:9d:e0:23:96:31:18:1f:35:b3:ed:
         6f:e5:71:4d:c1:37:17:18:ea:a6:5c:c9:4d:65:cd:b3:97:a2:
         f6:9b:24:c8:7a:d2:95:94:fd:38:bf:42:74:5e:ce:04:de:b7:
         99:6e:e4:35:28:7f:37:1f:b5:e2:19:ac:4e:b6:06:c3:d7:f2:
         d3:71:f3:38:96:55:ed:ef:55:42:29:a7:cf:a6:63:c1:fb:cf:
         6e:ed:03:6e:cb:0f:7d:b0:42:87:c5:85:e7:e1:8a:11:fe:55:
         95:00:dd:99:35:a5:c1:d0:8a:8a:a9:59:0a:4c:e6:1c:63:1f:
         27:08:bf:37:c2:00:2b:44:cf:49:fb:7c:77:4f:88:39:21:12:
         69:42:6b:95:15:0d:da:95:24:72:44:79:88:00:e6:7d:7b:a5:
         aa:a5:ea:40:6e:ca:59:7e:91:d7:1e:11:23:13:67:fc:47:ef:
         5c:ee:db:63:f5:73:e3:5f:66:50:a5:8f:60:e1:bd:5d:3b:11:
         f3:aa:20:67:77:79:8c:95:84:18:b8:cd:c6:42:60:8c:2b:1a:
         c3:4a:70:ca:73:00:c8:2c:2c:82:2d:c9:11:c4:30:4a:1b:96:
         1b:22:d1:f2:12:7a:e1:ef:fb:15:d8:45:ea:67:5b:46:af:14:
         66:46:23:31:ce:63:7c:b2:32:b4:90:0d:cb:7f:2e:9a:4c:a6:
         2b:c6:5e:8a:fe:f5:76:55:64:6e:3d:8c:ab:39:8f:20:8d:ed:
         d0:a4:fd:ee:7f:d3:02:05:69:72:e4:f8:84:3c:fb:6c:47:3a:
         0a:86:a0:f4:39:ae:31:4f:a0:d3:b4:6b:b5:33:d0:36:8a:c3:
         81:79:80:3d:ee:5f:84:b2:0c:73:30:a1:72:95:6c:05:07:35:
         95:82:c9:e3:45:9e:77:78:40:4a:14:6f:d5:56:23:30:63:43:
         1d:8e:9d:ab:0f:81:f5:0d:dc:57:48:6b:da:5b:f4:ee:4c:a4:
         80:f5:24:9e:5c:aa:42:db:3e:f0:48:7a:ce:d2:72:9a:e2:2d:
         2f:e7:b1:a8:20:7c:f4:32
-----BEGIN CERTIFICATE-----
MIIF7zCCA9egAwIBAgIBATANBgkqhkiG9w0BAQsFADByMQswCQYDVQQGEwJmcjEM
MAoGA1UECAwDaWRmMQ4wDAYDVQQHDAVwYXJpczEQMA4GA1UECgwHdml0YW11aTEU
MBIGA1UECwwLYXV0aG9yaXRpZXMxHTAbBgNVBAMMFGNhX3Jvb3RfY2xpZW50LXZp
dGFtMB4XDTIwMDUwNTEyMTUyMFoXDTMwMDUwMzEyMTUyMFowcjELMAkGA1UEBhMC
ZnIxDDAKBgNVBAgMA2lkZjEOMAwGA1UEBwwFcGFyaXMxEDAOBgNVBAoMB3ZpdGFt
dWkxFDASBgNVBAsMC2F1dGhvcml0aWVzMR0wGwYDVQQDDBRjYV9yb290X2NsaWVu
dC12aXRhbTCCAiIwDQYJKoZIhvcNAQEBBQADggIPADCCAgoCggIBANfhpNC0Nci+
x5+dNMizRFGIlLqU+Zq5XnGNfkcgHBrGJ2cpdFuhcTToKEysKDw5GQ+GzwNCzYD0
06Or+vf3llmPdBtPF8g4p3EuKzkxeCiqfHJhvsnt00jy6suXh2h07V1yQE5Bmq2H
Pwhv8xQoTLG3Vw2P/ikaS5DrGgzimigjo/r8kxfwXFq/72JcjSNed0gcDfR8rTn6
BlQ55O3fiy72rtPeK/XWSvBFnfCxTWekuoD66z4BvG+uCEnklbJMpGuTRUvHqwRO
FGNQOguV43BysZHEwFOxDDbtPMIbFiB1bQ9/V3Y+oNa7/3wFN4oWR0hWVJdiskdg
FXCqmhlIsBn+M/YbH6PQnxXuLLFxznh79bAyScl5AhJa9SxKKBsm99pZr5gSXI4B
e7QVDbmPCFBxJdm3wrWAVc7EdVFPH27bujeZCJ+QtMaVzp8narf/tT464CxwQBcZ
51mqhNFkmnR/bvFlya/NysbABMeUhiuaTN2GbNigvhHwChY0x9qRjQEgBUbCS6TD
BY4I88n/fibebIeL6brHxCRiUA/0AkOOdzCXSgv1HKXERs5QKDJ3GjllI/CDtrbF
dEYANi/xL327p5eAdqYklNqf1pkQGOA6tUCiGbLHcbgO3vulBahIq2NTLBV/uKYf
G0FK5HJmrt3lFR4vSqvJOloIaC2m3a89AgMBAAGjgY8wgYwwFgYJYIZIAYb4QgEN
BAkWB0NBIFJvb3QwHQYDVR0OBBYEFGq2UbA8bzSB0r2KgJZ11KIcz8jZMB8GA1Ud
IwQYMBaAFGq2UbA8bzSB0r2KgJZ11KIcz8jZMBIGA1UdEwEB/wQIMAYBAf8CAQEw
CwYDVR0PBAQDAgEGMBEGCWCGSAGG+EIBAQQEAwICBDANBgkqhkiG9w0BAQsFAAOC
AgEAKeEPRPJudXCIPmuV2p8PKvtcrgvn8Mh7ncQuAk9m0i0BXELigeZp4xiqyWme
C+kaVewO+snVl2xfWhbzjut+g4w/+Ox1b/GQqbMp2TG0F5h+KFjv3cb1c+S/EsAf
UgPSak/Eg2t997GQploMgZZn4T3Zev2d4COWMRgfNbPtb+VxTcE3FxjqplzJTWXN
s5ei9pskyHrSlZT9OL9CdF7OBN63mW7kNSh/Nx+14hmsTrYGw9fy03HzOJZV7e9V
Qimnz6ZjwfvPbu0DbssPfbBCh8WF5+GKEf5VlQDdmTWlwdCKiqlZCkzmHGMfJwi/
N8IAK0TPSft8d0+IOSESaUJrlRUN2pUkckR5iADmfXulqqXqQG7KWX6R1x4RIxNn
/EfvXO7bY/Vz419mUKWPYOG9XTsR86ogZ3d5jJWEGLjNxkJgjCsaw0pwynMAyCws
gi3JEcQwShuWGyLR8hJ64e/7FdhF6mdbRq8UZkYjMc5jfLIytJANy38umkymK8Ze
iv71dlVkbj2MqzmPII3t0KT97n/TAgVpcuT4hDz7bEc6Coag9DmuMU+g07RrtTPQ
NorDgXmAPe5fhLIMczChcpVsBQc1lYLJ40Wed3hAShRv1VYjMGNDHY6dqw+B9Q3c
V0hr2lv07kykgPUknlyqQts+8Eh6ztJymuItL+exqCB89DI=
-----END CERTIFICATE-----
