Certificate:
    Data:
        Version: 3 (0x2)
        Serial Number:
            0c:cb:fc:c3:a6:3f:21:c5:68:83:e3:fd:5d:2a:ab:26
        Signature Algorithm: sha256WithRSAEncryption
        Issuer: C=fr, ST=idf, L=paris, O=vitamui, OU=authorities, CN=ca_root_vitamui
        Validity
            Not Before: Feb  3 14:28:53 2020 GMT
            Not After : Feb  2 14:28:53 2023 GMT
        Subject: C=fr, ST=idf, L=paris, O=vitamui, CN=dev.vitamui.com
        Subject Public Key Info:
            Public Key Algorithm: rsaEncryption
                RSA Public-Key: (4096 bit)
                Modulus:
                    00:ca:39:c0:94:df:57:b6:9e:e4:76:60:44:d8:e2:
                    0a:6c:ac:d6:b1:e9:8a:62:1c:d7:ea:2e:72:b0:85:
                    64:e3:a3:72:e9:d5:9d:21:14:66:a3:dc:83:98:8f:
                    aa:7a:71:33:3d:e7:8e:f5:fe:0f:bb:72:da:89:a6:
                    11:ad:a5:c6:11:4f:17:44:f0:70:1c:49:08:eb:5c:
                    2d:c1:71:37:aa:20:1b:d7:70:4b:3e:b5:87:17:23:
                    17:76:e6:0c:57:3e:7b:4c:e3:a3:8e:ac:da:ed:ec:
                    3a:de:2f:20:b2:fb:3f:6b:a4:85:53:90:96:53:1c:
                    b5:09:3d:ec:b4:29:2f:67:87:f7:82:f0:49:05:84:
                    67:9b:ce:d2:67:7e:13:73:81:f1:43:fa:ad:ed:16:
                    ce:ac:af:67:ce:08:aa:d5:6d:af:91:ae:4e:57:16:
                    83:a8:56:d9:92:94:44:65:75:86:84:f4:30:99:7b:
                    1e:39:e2:e6:68:98:48:f3:77:ac:3a:8c:e5:32:60:
                    da:fb:eb:b8:93:e4:f6:88:c0:0c:24:26:5a:3c:24:
                    13:9f:4f:fa:03:c5:81:9a:8b:ab:5b:5d:bd:06:0f:
                    c6:6d:1b:2d:bb:6d:e6:2d:97:63:12:4d:d2:15:bd:
                    dc:0e:8f:0f:d6:04:57:d3:0c:07:25:c9:f3:c4:c9:
                    be:a5:ce:79:c5:d3:aa:11:71:45:fa:4c:7b:9e:fc:
                    b1:ee:7a:de:60:7a:c4:43:c5:95:12:b2:3e:53:e4:
                    13:2c:39:a3:4d:e2:35:6e:3d:fc:35:75:5a:5a:02:
                    73:0a:74:b2:8b:25:58:79:63:8b:79:ee:37:18:a7:
                    25:f5:e5:cf:e3:ee:24:5c:17:5b:ec:99:a1:f1:91:
                    32:ec:2b:9a:6a:f6:0c:bd:f8:a2:21:ff:58:5d:8c:
                    9c:11:1a:1b:0d:51:1d:3d:0c:82:eb:fa:b0:5a:86:
                    b4:a3:29:c4:d1:14:38:ac:65:e5:ee:85:dc:ab:5d:
                    3e:91:39:f0:a6:85:01:e6:a2:1c:02:d8:53:49:c9:
                    56:36:e7:bb:9b:b3:7c:26:ce:c3:84:57:b2:95:27:
                    d8:90:17:98:a9:dd:a0:6b:7b:ae:bd:1e:1c:03:ee:
                    46:e6:b4:9f:41:49:51:8a:dc:92:86:a7:47:2b:01:
                    0b:66:38:ea:25:ad:02:10:db:76:c2:d8:44:c7:4e:
                    29:54:74:7a:c2:ef:e5:2f:6b:a2:11:ec:05:db:cf:
                    53:ec:a7:c6:5e:c7:5c:03:51:93:ff:3a:54:db:6e:
                    c7:f0:15:d0:16:19:ac:57:46:b3:7a:37:34:70:78:
                    ff:25:a2:f7:f3:e3:e2:c5:88:a5:a8:46:4e:93:fa:
                    93:18:45
                Exponent: 65537 (0x10001)
        X509v3 extensions:
            Netscape Comment: 
                Certificat SSL VITAMUI
            X509v3 Subject Key Identifier: 
                45:FC:F7:63:E5:2D:48:12:3A:19:76:26:4D:97:CC:26:EF:34:67:9F
            X509v3 Authority Key Identifier: 
                keyid:0D:42:D1:01:69:B1:6B:65:E1:AF:B4:00:37:89:2E:62:1C:5D:C3:FC
                DirName:/C=fr/ST=idf/L=paris/O=vitamui/OU=authorities/CN=ca_root_vitamui
                serial:0C:CB:FC:C3:A6:3F:21:C5:68:83:E3:FD:5D:2A:AB:16

            X509v3 Issuer Alternative Name: 
                <EMPTY>

            X509v3 Basic Constraints: critical
                CA:FALSE
    Signature Algorithm: sha256WithRSAEncryption
         55:8e:b3:a3:0d:27:8e:ab:f2:46:2d:80:47:d4:d9:69:6c:a9:
         b9:fd:5f:85:11:49:74:b2:d9:5f:74:19:9a:55:0e:cc:58:c9:
         19:53:0f:31:54:d5:bc:43:2c:6d:5c:61:f5:f4:44:71:bb:16:
         c1:ae:76:c8:ab:8f:dc:67:89:cb:e0:bc:6d:d4:3b:cd:f6:60:
         bd:89:e9:fc:ff:84:80:0c:73:00:ea:9b:ea:bd:aa:29:76:a7:
         18:6c:a8:58:2a:49:51:14:ef:f2:7c:77:c9:8b:63:46:51:14:
         4d:93:e2:f8:0c:a5:83:5f:94:15:9a:48:b7:c5:e7:86:0d:06:
         a4:fb:a7:dd:33:ca:42:35:d1:84:be:19:99:57:e5:84:d3:c4:
         cc:79:8c:66:eb:58:a9:4e:0d:8f:b0:59:f5:0d:65:17:b1:14:
         ab:71:7b:50:f0:c8:f9:7a:a7:43:14:fc:8a:de:1d:38:e2:04:
         fd:91:f6:5d:17:01:12:f2:c8:1f:f8:06:5f:fa:be:9c:23:41:
         2c:66:dc:d0:2c:7c:cb:15:3c:c5:22:d1:e8:32:0b:90:3e:8b:
         18:a4:0a:89:96:20:44:07:36:7e:0c:e0:0d:95:72:d2:d0:0e:
         13:c3:2f:6a:58:62:12:9e:93:f0:ae:0f:b1:49:98:72:01:b7:
         98:25:77:9d:da:30:0e:ec:2d:c6:24:69:b5:39:2c:b5:07:48:
         c6:00:a3:93:57:16:2c:2b:29:72:73:d0:53:ba:34:ae:05:46:
         7e:8a:59:42:8d:b8:1e:37:d0:5c:99:30:d1:84:20:4d:5c:5a:
         a0:ca:75:1e:f8:ae:6f:10:8f:48:f8:67:0a:bf:db:e6:8b:97:
         46:3e:10:b8:00:e0:93:f5:a1:27:5d:f9:2a:60:cd:b9:87:f7:
         b1:b7:c6:bb:5b:99:44:8d:71:05:53:69:90:5b:5c:8b:92:70:
         2b:08:f5:d0:55:1d:a4:5a:57:0b:24:50:58:25:67:3b:49:a8:
         1b:72:2a:d6:aa:b9:20:2e:b2:ef:dd:46:ed:60:4b:65:72:58:
         49:19:98:c5:fb:0a:85:71:15:b0:0c:a1:2e:32:80:e2:dd:c6:
         98:ae:b8:46:b9:59:35:4c:a4:92:e9:82:31:15:40:e0:0c:f4:
         f5:0f:ad:bf:06:a3:d2:c9:61:88:af:38:23:c4:71:ed:3e:57:
         1d:96:b7:9c:93:7a:1e:b5:12:2d:c5:cf:05:59:df:2f:7b:8d:
         e3:13:6e:78:f1:9a:08:c0:17:b6:94:e1:12:dc:7d:60:82:07:
         0b:c4:5c:7a:e5:d3:de:e0:90:3c:95:ea:42:8a:28:21:cf:8f:
         7a:e2:66:59:82:76:d6:0a
-----BEGIN CERTIFICATE-----
MIIGXDCCBESgAwIBAgIQDMv8w6Y/IcVog+P9XSqrJjANBgkqhkiG9w0BAQsFADBt
MQswCQYDVQQGEwJmcjEMMAoGA1UECAwDaWRmMQ4wDAYDVQQHDAVwYXJpczEQMA4G
A1UECgwHdml0YW11aTEUMBIGA1UECwwLYXV0aG9yaXRpZXMxGDAWBgNVBAMMD2Nh
X3Jvb3Rfdml0YW11aTAeFw0yMDAyMDMxNDI4NTNaFw0yMzAyMDIxNDI4NTNaMFcx
CzAJBgNVBAYTAmZyMQwwCgYDVQQIDANpZGYxDjAMBgNVBAcMBXBhcmlzMRAwDgYD
VQQKDAd2aXRhbXVpMRgwFgYDVQQDDA9kZXYudml0YW11aS5jb20wggIiMA0GCSqG
SIb3DQEBAQUAA4ICDwAwggIKAoICAQDKOcCU31e2nuR2YETY4gpsrNax6YpiHNfq
LnKwhWTjo3Lp1Z0hFGaj3IOYj6p6cTM95471/g+7ctqJphGtpcYRTxdE8HAcSQjr
XC3BcTeqIBvXcEs+tYcXIxd25gxXPntM46OOrNrt7DreLyCy+z9rpIVTkJZTHLUJ
Pey0KS9nh/eC8EkFhGebztJnfhNzgfFD+q3tFs6sr2fOCKrVba+Rrk5XFoOoVtmS
lERldYaE9DCZex454uZomEjzd6w6jOUyYNr767iT5PaIwAwkJlo8JBOfT/oDxYGa
i6tbXb0GD8ZtGy27beYtl2MSTdIVvdwOjw/WBFfTDAclyfPEyb6lznnF06oRcUX6
THue/LHuet5gesRDxZUSsj5T5BMsOaNN4jVuPfw1dVpaAnMKdLKLJVh5Y4t57jcY
pyX15c/j7iRcF1vsmaHxkTLsK5pq9gy9+KIh/1hdjJwRGhsNUR09DILr+rBahrSj
KcTRFDisZeXuhdyrXT6ROfCmhQHmohwC2FNJyVY257ubs3wmzsOEV7KVJ9iQF5ip
3aBre669HhwD7kbmtJ9BSVGK3JKGp0crAQtmOOolrQIQ23bC2ETHTilUdHrC7+Uv
a6IR7AXbz1Psp8Zex1wDUZP/OlTbbsfwFdAWGaxXRrN6NzRweP8lovfz4+LFiKWo
Rk6T+pMYRQIDAQABo4IBDDCCAQgwJQYJYIZIAYb4QgENBBgWFkNlcnRpZmljYXQg
U1NMIFZJVEFNVUkwHQYDVR0OBBYEFEX892PlLUgSOhl2Jk2XzCbvNGefMIGmBgNV
HSMEgZ4wgZuAFA1C0QFpsWtl4a+0ADeJLmIcXcP8oXGkbzBtMQswCQYDVQQGEwJm
cjEMMAoGA1UECAwDaWRmMQ4wDAYDVQQHDAVwYXJpczEQMA4GA1UECgwHdml0YW11
aTEUMBIGA1UECwwLYXV0aG9yaXRpZXMxGDAWBgNVBAMMD2NhX3Jvb3Rfdml0YW11
aYIQDMv8w6Y/IcVog+P9XSqrFjAJBgNVHRIEAjAAMAwGA1UdEwEB/wQCMAAwDQYJ
KoZIhvcNAQELBQADggIBAFWOs6MNJ46r8kYtgEfU2Wlsqbn9X4URSXSy2V90GZpV
DsxYyRlTDzFU1bxDLG1cYfX0RHG7FsGudsirj9xnicvgvG3UO832YL2J6fz/hIAM
cwDqm+q9qil2pxhsqFgqSVEU7/J8d8mLY0ZRFE2T4vgMpYNflBWaSLfF54YNBqT7
p90zykI10YS+GZlX5YTTxMx5jGbrWKlODY+wWfUNZRexFKtxe1DwyPl6p0MU/Ire
HTjiBP2R9l0XARLyyB/4Bl/6vpwjQSxm3NAsfMsVPMUi0egyC5A+ixikComWIEQH
Nn4M4A2VctLQDhPDL2pYYhKek/CuD7FJmHIBt5gld53aMA7sLcYkabU5LLUHSMYA
o5NXFiwrKXJz0FO6NK4FRn6KWUKNuB430FyZMNGEIE1cWqDKdR74rm8Qj0j4Zwq/
2+aLl0Y+ELgA4JP1oSdd+SpgzbmH97G3xrtbmUSNcQVTaZBbXIuScCsI9dBVHaRa
VwskUFglZztJqBtyKtaquSAusu/dRu1gS2VyWEkZmMX7CoVxFbAMoS4ygOLdxpiu
uEa5WTVMpJLpgjEVQOAM9PUPrb8Go9LJYYivOCPEce0+Vx2Wt5yTeh61Ei3FzwVZ
3y97jeMTbnjxmgjAF7aU4RLcfWCCBwvEXHrl097gkDyV6kKKKCHPj3riZlmCdtYK
-----END CERTIFICATE-----
