Certificate:
    Data:
        Version: 3 (0x2)
        Serial Number: 333 (0x14d)
    Signature Algorithm: sha256WithRSAEncryption
        Issuer: C=fr, ST=idf, L=paris, O=vitam, OU=authorities, CN=ca_root_client-iam
        Validity
            Not Before: Dec 12 10:42:46 2019 GMT
            Not After : Dec  9 10:42:46 2029 GMT
        Subject: C=fr, ST=idf, L=paris, O=vitam, OU=authorities, CN=ca_intermediate_client-iam
        Subject Public Key Info:
            Public Key Algorithm: rsaEncryption
                Public-Key: (4096 bit)
                Modulus:
                    00:d0:0d:94:2f:89:71:05:49:bb:cd:54:4a:a9:8b:
                    96:41:92:03:ea:2f:3b:77:84:e1:2e:4a:8b:75:96:
                    57:b8:7e:ed:bf:53:49:d6:73:6e:02:7f:cd:f8:dd:
                    7c:9c:c4:a2:9f:d7:ce:50:23:f7:be:00:af:0e:50:
                    ef:2f:cb:f6:0d:e2:57:58:21:e4:9e:3d:16:f5:1e:
                    31:70:09:ca:0e:df:2d:59:1f:de:e1:d0:d4:fd:c9:
                    d9:a5:5f:ec:08:b0:d1:08:6e:46:58:49:33:0a:17:
                    39:53:9a:e3:83:9c:10:18:a5:55:b0:7a:69:1f:8d:
                    9a:da:00:ec:2f:c9:5e:28:b5:65:69:16:8c:10:a9:
                    3d:c7:f7:04:5b:4a:00:5e:27:06:c5:a4:7e:fe:0c:
                    65:57:a5:ea:cd:b1:61:9b:37:74:06:e8:9e:23:08:
                    2c:31:e3:fb:d7:80:5f:1e:ad:d4:ea:3b:a3:5a:c3:
                    00:61:bc:ba:15:fa:c8:4f:cd:df:39:c9:6e:e6:72:
                    8d:cc:de:ea:ed:39:05:10:31:fb:96:8f:6f:b2:71:
                    b2:28:37:2e:23:fc:0e:06:5c:cb:34:f0:6a:72:67:
                    64:a3:34:18:0e:68:0d:d6:df:22:fd:f6:b7:d2:28:
                    eb:c0:f1:ea:7f:80:5d:91:89:ea:4d:69:da:35:d0:
                    ff:6d:76:c4:bb:44:9d:fe:aa:c4:38:55:b2:e9:7e:
                    3b:79:e6:6c:32:f5:59:12:11:9c:e9:19:ba:c4:62:
                    8a:2f:f8:a3:67:c9:cb:58:99:a4:8b:cf:03:1f:f3:
                    35:dd:0a:16:55:20:3b:b4:dd:9e:1f:1e:d6:5f:9e:
                    4c:62:c7:85:21:8c:2f:c5:e1:08:dc:be:ba:ea:5b:
                    68:9d:82:8a:0b:47:e8:60:53:73:4c:0a:3d:92:76:
                    d4:b0:22:4e:2d:a4:b5:5b:f5:ec:bb:ab:24:24:76:
                    90:a0:37:54:78:7c:5a:e0:29:e8:1b:44:2b:6f:75:
                    23:bf:a2:18:38:44:1e:a2:d1:28:92:d2:d3:a6:2f:
                    28:7d:0e:ce:1c:ab:a6:aa:71:5c:aa:34:cb:84:b7:
                    29:d5:b3:fa:77:c2:8b:15:60:11:7e:59:2e:0d:f4:
                    2c:2b:e8:c0:4d:79:1f:1b:0f:58:40:6d:4c:fd:4b:
                    7e:4e:e4:8a:3b:45:0c:c2:04:56:7c:1b:50:83:0e:
                    ad:af:87:e2:17:a3:06:42:d5:47:47:8e:e4:1b:d9:
                    6f:ec:56:c2:c1:b2:18:14:24:b6:61:9e:a9:7d:4a:
                    63:b6:2f:f0:39:8f:39:99:99:8f:64:4c:5a:cb:b5:
                    81:35:2c:f4:a9:70:bb:eb:5f:2c:53:ef:77:fd:17:
                    24:4c:17
                Exponent: 65537 (0x10001)
        X509v3 extensions:
            Netscape Comment:
                CA Intermediate
            X509v3 Subject Key Identifier:
                7B:18:08:2E:95:8A:91:4C:77:F3:8C:25:18:0E:F3:91:60:4A:7B:D7
            X509v3 Authority Key Identifier:
                keyid:55:E4:84:92:4D:2F:90:1B:CE:E4:F2:3B:D0:81:D1:20:C4:0A:1B:DC
                DirName:/C=fr/ST=idf/L=paris/O=vitam/OU=authorities/CN=ca_root_client-iam
                serial:01:4C

            X509v3 Basic Constraints: critical
                CA:TRUE, pathlen:0
            X509v3 Issuer Alternative Name:
                <EMPTY>

            X509v3 Key Usage:
                Certificate Sign, CRL Sign
            Netscape Cert Type:
                SSL CA
    Signature Algorithm: sha256WithRSAEncryption
         0d:2e:65:5c:00:6a:4d:d5:c1:11:ea:2c:27:c8:7b:c8:64:fd:
         65:8a:ad:47:c2:25:e3:c7:ef:0a:92:4a:58:6e:d6:ce:13:0e:
         65:b1:a1:7a:b0:dd:3a:16:96:59:c4:62:e1:4d:91:82:7a:be:
         cb:a1:4a:42:7a:1b:75:14:74:7e:13:fc:6f:17:72:6e:7a:fa:
         61:5d:2b:c9:98:5b:14:eb:a0:30:98:26:f0:97:03:7c:9f:a6:
         04:42:ec:ef:38:ea:ee:dd:cb:e9:58:1b:f5:f1:93:e2:19:a8:
         17:8a:55:b2:4a:b9:aa:d1:d8:ed:0c:47:04:78:00:0c:44:1e:
         6c:3b:dd:ca:71:4a:83:09:4a:e6:27:46:36:bf:0c:85:25:ee:
         37:e8:02:13:01:05:5b:b8:a1:5a:04:c0:6a:b7:77:8f:5a:3e:
         d0:f6:af:1c:dd:35:86:40:10:6e:dd:bd:db:c2:ae:ac:65:b0:
         2b:35:7a:92:bc:d1:07:c8:8a:ba:70:19:c6:18:0d:1f:4a:d0:
         77:3b:e8:dd:9d:06:06:ac:8e:5f:b4:41:0a:49:88:d5:87:d8:
         c1:8b:25:8f:61:47:09:4e:e5:90:b0:a6:49:73:f9:9c:34:b6:
         f3:32:a8:1d:5e:de:47:c1:39:39:bf:3f:20:94:38:27:c8:85:
         56:78:77:13:5f:f2:09:2c:59:d0:ad:d5:d2:0d:0b:de:3e:07:
         66:1f:3c:0f:ae:58:69:83:e9:4c:f9:32:44:64:cb:49:ff:80:
         b7:36:f7:f0:58:15:cd:01:13:e3:7e:6d:80:1d:41:26:1e:10:
         69:c7:73:43:23:51:e0:43:39:31:51:8c:0d:15:d0:c2:f8:73:
         74:5c:8e:98:9c:e3:65:b5:3d:3e:c4:24:13:9c:ae:0d:c6:10:
         62:f3:92:af:d7:99:e7:84:6f:73:1b:4f:5e:8d:bd:e9:62:81:
         47:85:3e:7b:0f:20:07:b5:72:c5:d3:d4:82:96:32:d8:4e:12:
         dc:93:a0:76:b2:41:34:97:1d:09:b8:8f:c6:43:93:f8:7d:ba:
         f2:8f:81:db:c6:eb:0e:1c:6c:b1:2b:b0:74:ab:05:30:7c:00:
         d5:7b:4e:9e:96:27:a4:5c:c3:1c:bb:d2:13:d1:f8:05:b2:ed:
         e6:63:be:8b:63:80:9a:46:cb:34:1b:63:39:5f:4c:d1:14:5d:
         2a:cd:8d:97:8c:c9:c1:44:93:33:57:f8:0f:12:a3:54:a4:9e:
         1e:d6:d8:b2:b3:c9:07:5b:eb:a5:83:00:34:a8:e2:f9:98:4a:
         a5:cc:9b:fe:b3:4c:29:47:73:6f:de:c0:81:a4:a1:33:e6:05:
         ba:bd:69:69:3d:6c:e5:1c
-----BEGIN CERTIFICATE-----
MIIGgDCCBGigAwIBAgICAU0wDQYJKoZIhvcNAQELBQAwbjELMAkGA1UEBhMCZnIx
DDAKBgNVBAgMA2lkZjEOMAwGA1UEBwwFcGFyaXMxDjAMBgNVBAoMBXZpdGFtMRQw
EgYDVQQLDAthdXRob3JpdGllczEbMBkGA1UEAwwSY2Ffcm9vdF9jbGllbnQtaWFt
MB4XDTE5MTIxMjEwNDI0NloXDTI5MTIwOTEwNDI0NlowdjELMAkGA1UEBhMCZnIx
DDAKBgNVBAgMA2lkZjEOMAwGA1UEBwwFcGFyaXMxDjAMBgNVBAoMBXZpdGFtMRQw
EgYDVQQLDAthdXRob3JpdGllczEjMCEGA1UEAwwaY2FfaW50ZXJtZWRpYXRlX2Ns
aWVudC1pYW0wggIiMA0GCSqGSIb3DQEBAQUAA4ICDwAwggIKAoICAQDQDZQviXEF
SbvNVEqpi5ZBkgPqLzt3hOEuSot1lle4fu2/U0nWc24Cf8343XycxKKf185QI/e+
AK8OUO8vy/YN4ldYIeSePRb1HjFwCcoO3y1ZH97h0NT9ydmlX+wIsNEIbkZYSTMK
FzlTmuODnBAYpVWwemkfjZraAOwvyV4otWVpFowQqT3H9wRbSgBeJwbFpH7+DGVX
perNsWGbN3QG6J4jCCwx4/vXgF8erdTqO6NawwBhvLoV+shPzd85yW7mco3M3urt
OQUQMfuWj2+ycbIoNy4j/A4GXMs08GpyZ2SjNBgOaA3W3yL99rfSKOvA8ep/gF2R
iepNado10P9tdsS7RJ3+qsQ4VbLpfjt55mwy9VkSEZzpGbrEYoov+KNnyctYmaSL
zwMf8zXdChZVIDu03Z4fHtZfnkxix4UhjC/F4QjcvrrqW2idgooLR+hgU3NMCj2S
dtSwIk4tpLVb9ey7qyQkdpCgN1R4fFrgKegbRCtvdSO/ohg4RB6i0SiS0tOmLyh9
Ds4cq6aqcVyqNMuEtynVs/p3wosVYBF+WS4N9Cwr6MBNeR8bD1hAbUz9S35O5Io7
RQzCBFZ8G1CDDq2vh+IXowZC1UdHjuQb2W/sVsLBshgUJLZhnql9SmO2L/A5jzmZ
mY9kTFrLtYE1LPSpcLvrXyxT73f9FyRMFwIDAQABo4IBHjCCARowHgYJYIZIAYb4
QgENBBEWD0NBIEludGVybWVkaWF0ZTAdBgNVHQ4EFgQUexgILpWKkUx384wlGA7z
kWBKe9cwgZkGA1UdIwSBkTCBjoAUVeSEkk0vkBvO5PI70IHRIMQKG9yhcqRwMG4x
CzAJBgNVBAYTAmZyMQwwCgYDVQQIDANpZGYxDjAMBgNVBAcMBXBhcmlzMQ4wDAYD
VQQKDAV2aXRhbTEUMBIGA1UECwwLYXV0aG9yaXRpZXMxGzAZBgNVBAMMEmNhX3Jv
b3RfY2xpZW50LWlhbYICAUwwEgYDVR0TAQH/BAgwBgEB/wIBADAJBgNVHRIEAjAA
MAsGA1UdDwQEAwIBBjARBglghkgBhvhCAQEEBAMCAgQwDQYJKoZIhvcNAQELBQAD
ggIBAA0uZVwAak3VwRHqLCfIe8hk/WWKrUfCJePH7wqSSlhu1s4TDmWxoXqw3ToW
llnEYuFNkYJ6vsuhSkJ6G3UUdH4T/G8Xcm56+mFdK8mYWxTroDCYJvCXA3yfpgRC
7O846u7dy+lYG/Xxk+IZqBeKVbJKuarR2O0MRwR4AAxEHmw73cpxSoMJSuYnRja/
DIUl7jfoAhMBBVu4oVoEwGq3d49aPtD2rxzdNYZAEG7dvdvCrqxlsCs1epK80QfI
irpwGcYYDR9K0Hc76N2dBgasjl+0QQpJiNWH2MGLJY9hRwlO5ZCwpklz+Zw0tvMy
qB1e3kfBOTm/PyCUOCfIhVZ4dxNf8gksWdCt1dINC94+B2YfPA+uWGmD6Uz5MkRk
y0n/gLc29/BYFc0BE+N+bYAdQSYeEGnHc0MjUeBDOTFRjA0V0ML4c3Rcjpic42W1
PT7EJBOcrg3GEGLzkq/XmeeEb3MbT16NveligUeFPnsPIAe1csXT1IKWMthOEtyT
oHayQTSXHQm4j8ZDk/h9uvKPgdvG6w4cbLErsHSrBTB8ANV7Tp6WJ6Rcwxy70hPR
+AWy7eZjvotjgJpGyzQbYzlfTNEUXSrNjZeMycFEkzNX+A8So1Sknh7W2LKzyQdb
66WDADSo4vmYSqXMm/6zTClHc2/ewIGkoTPmBbq9aWk9bOUc
-----END CERTIFICATE-----
