Certificate:
    Data:
        Version: 1 (0x0)
        Serial Number: 516 (0x204)
    Signature Algorithm: sha256WithRSAEncryption
        Issuer: C=fr, ST=idf, L=paris, O=vitam, OU=authorities, CN=ca_intermediate_server
        Validity
            Not Before: Dec 19 12:45:57 2019 GMT
            Not After : Dec 18 12:45:57 2022 GMT
        Subject: C=fr, ST=idf, L=paris, O=vitam, CN=iam-internal.service.consul
        Subject Public Key Info:
            Public Key Algorithm: rsaEncryption
                Public-Key: (4096 bit)
                Modulus:
                    00:df:8c:c9:1c:d2:21:65:8c:8c:e2:c3:f4:73:80:
                    4f:c9:09:83:33:7e:94:2f:f6:fc:ae:d6:b8:38:b6:
                    03:09:b8:23:4d:37:08:48:c1:2e:75:64:00:70:de:
                    04:c4:3c:fc:71:6d:69:da:5f:33:8f:94:e7:77:12:
                    68:41:ce:ed:30:13:91:c9:a8:9f:b4:28:0f:ea:db:
                    41:4c:7b:72:05:6c:81:4a:d4:e4:4a:c4:3f:70:11:
                    25:97:bb:29:4a:86:67:24:85:2f:8a:1d:86:da:1a:
                    a8:d3:6b:6c:66:7f:b1:22:37:94:40:50:01:4b:69:
                    95:c7:b0:a4:41:96:ea:fa:62:b9:4c:d4:7e:47:11:
                    46:2c:67:53:f8:7b:31:11:84:a2:b0:f0:da:07:87:
                    bf:f7:54:d2:82:d3:6a:02:f5:4a:bb:b1:60:60:c6:
                    8b:74:dc:70:05:62:ff:8b:50:78:e1:6c:3f:b1:e5:
                    62:83:35:c5:bf:79:d3:c1:a8:44:33:27:f9:08:b3:
                    b8:ef:3e:05:98:57:d4:fc:6d:41:8e:4e:69:b3:cb:
                    d9:66:4c:49:5c:4f:9a:ec:f0:a6:b5:58:be:9a:7a:
                    b9:a6:dc:ec:33:bb:f8:e7:81:e8:84:06:4b:cb:31:
                    6a:3c:e7:90:29:b1:00:3b:77:7d:41:88:6f:07:9d:
                    d0:c4:82:f3:d1:94:b8:87:51:21:90:b5:58:a8:44:
                    78:4f:00:88:b0:f4:f3:97:3a:42:f8:b8:f8:82:bb:
                    e1:e1:03:a7:8b:02:d4:a0:5c:ca:e3:a3:90:80:5e:
                    de:0e:ca:47:2a:76:10:be:ae:8a:11:ee:3d:d2:57:
                    95:a9:59:72:ec:7b:db:d9:9d:fe:c8:94:62:a3:75:
                    2f:4c:c2:a9:c5:d6:b6:e5:48:69:24:38:49:b4:eb:
                    3c:71:31:e1:64:be:a1:59:4f:03:8f:f4:99:49:b7:
                    5e:88:b9:0f:74:a4:00:27:5d:c9:dd:a5:f7:de:c6:
                    f3:69:2e:ed:80:0d:e3:72:f7:76:0f:d0:85:76:25:
                    ae:70:3c:7b:8a:23:b2:2f:e9:71:92:15:39:67:5d:
                    b2:1a:f6:d2:e3:a3:f2:b3:f1:f0:34:4e:13:ef:e2:
                    9e:36:e8:d8:7a:c0:8c:41:63:06:f9:f5:40:8b:eb:
                    73:18:67:92:b9:9b:0d:a8:09:93:6a:a5:60:0b:e5:
                    cb:59:b4:13:34:7f:68:22:5b:46:7a:26:01:7f:10:
                    fc:cd:cc:ee:60:0b:52:3a:dd:4c:4a:3e:4f:2f:b3:
                    a8:77:d8:fd:c1:76:a8:d6:2f:8e:9f:ca:2e:f9:97:
                    39:4e:95:8a:e9:7b:57:3c:a0:a4:83:62:29:f9:83:
                    3f:1e:47
                Exponent: 65537 (0x10001)
    Signature Algorithm: sha256WithRSAEncryption
         66:c5:f9:0f:65:ad:d7:c5:de:0f:b4:79:2d:e6:01:ed:4f:0f:
         3a:df:5a:01:ff:ba:7b:85:b3:45:51:ac:37:15:b9:34:0c:1f:
         19:71:60:07:bf:76:18:25:8b:e3:bd:01:36:7a:4a:d4:eb:1d:
         4f:b5:ed:4e:25:bd:a9:91:d0:8a:56:9c:a6:c2:13:66:89:75:
         51:f8:71:9d:52:11:19:25:25:8f:e0:2e:5c:ec:4a:ff:8a:9a:
         a5:17:ca:2f:b9:b7:83:90:bb:d7:f2:d2:29:c0:33:35:bc:09:
         50:e2:19:46:f1:53:91:7f:cc:f3:31:95:8d:b4:8e:e9:3d:93:
         45:ee:ba:6e:9a:fd:be:bf:a2:d3:87:6e:8d:00:4e:37:05:88:
         99:3b:14:8e:8e:81:da:e9:7f:f8:c8:f6:a7:ee:77:ea:ba:1a:
         1e:5f:85:15:2e:3c:9a:8e:94:59:fc:1b:55:54:ed:08:db:36:
         f2:dc:bd:59:8c:81:6d:d0:cf:d3:34:e3:2e:4f:b3:bc:cd:e5:
         aa:7f:c7:54:7a:6c:24:88:7e:44:b0:be:a9:49:68:ca:52:8a:
         ac:32:54:bc:f4:4e:2c:05:f4:de:3b:4a:04:ed:3a:ef:23:ab:
         cd:74:73:55:00:c1:33:3f:ce:2a:4a:12:a1:8a:63:6d:01:67:
         d6:c6:62:0e:53:db:d0:1e:1e:d9:d8:13:08:fb:85:16:e1:e8:
         3c:a5:c4:3a:3c:df:88:a0:a9:c8:ca:fb:26:4a:08:5c:a4:85:
         38:ec:ea:9c:f4:2e:1c:45:d8:81:2c:6b:8e:49:f1:61:1f:c9:
         d7:71:3a:0f:22:4c:bf:f4:00:90:24:a3:9c:a2:16:ab:36:e8:
         5c:44:d8:fb:36:b6:d1:90:47:23:8d:d4:d2:46:c5:62:0c:62:
         bc:b2:4e:ec:03:7a:21:87:ae:21:ae:f7:d5:74:e9:7d:0d:48:
         a8:9b:28:de:ba:31:28:a0:da:61:7e:94:ce:e9:10:a6:02:9d:
         f9:91:fe:ee:fc:cc:91:9c:88:76:55:00:98:d1:de:fc:e5:2f:
         b0:b3:27:a3:4a:a1:be:31:7a:b0:77:f0:1f:9f:b0:4e:3e:a9:
         a7:67:cb:e9:8d:d2:3b:98:ae:ab:3f:50:7d:20:e8:fc:cc:03:
         cf:33:94:7a:b7:fc:65:4f:f8:35:72:c8:41:7d:19:32:10:09:
         59:62:25:ca:f4:f2:72:2f:ce:17:08:27:27:8e:3a:aa:b9:3d:
         6c:41:03:b1:32:af:d3:9a:88:be:8c:6d:8f:0c:98:d3:33:71:
         fb:d3:8c:97:a4:82:7c:3d:6d:43:aa:47:a4:1f:05:fc:54:78:
         06:4a:96:7f:63:dd:17:da
-----BEGIN CERTIFICATE-----
MIIFSDCCAzACAgIEMA0GCSqGSIb3DQEBCwUAMHIxCzAJBgNVBAYTAmZyMQwwCgYD
VQQIDANpZGYxDjAMBgNVBAcMBXBhcmlzMQ4wDAYDVQQKDAV2aXRhbTEUMBIGA1UE
CwwLYXV0aG9yaXRpZXMxHzAdBgNVBAMMFmNhX2ludGVybWVkaWF0ZV9zZXJ2ZXIw
HhcNMTkxMjE5MTI0NTU3WhcNMjIxMjE4MTI0NTU3WjBhMQswCQYDVQQGEwJmcjEM
MAoGA1UECAwDaWRmMQ4wDAYDVQQHDAVwYXJpczEOMAwGA1UECgwFdml0YW0xJDAi
BgNVBAMMG2lhbS1pbnRlcm5hbC5zZXJ2aWNlLmNvbnN1bDCCAiIwDQYJKoZIhvcN
AQEBBQADggIPADCCAgoCggIBAN+MyRzSIWWMjOLD9HOAT8kJgzN+lC/2/K7WuDi2
Awm4I003CEjBLnVkAHDeBMQ8/HFtadpfM4+U53cSaEHO7TATkcmon7QoD+rbQUx7
cgVsgUrU5ErEP3ARJZe7KUqGZySFL4odhtoaqNNrbGZ/sSI3lEBQAUtplcewpEGW
6vpiuUzUfkcRRixnU/h7MRGEorDw2geHv/dU0oLTagL1SruxYGDGi3TccAVi/4tQ
eOFsP7HlYoM1xb9508GoRDMn+QizuO8+BZhX1PxtQY5OabPL2WZMSVxPmuzwprVY
vpp6uabc7DO7+OeB6IQGS8sxajznkCmxADt3fUGIbwed0MSC89GUuIdRIZC1WKhE
eE8AiLD085c6Qvi4+IK74eEDp4sC1KBcyuOjkIBe3g7KRyp2EL6uihHuPdJXlalZ
cux729md/siUYqN1L0zCqcXWtuVIaSQ4SbTrPHEx4WS+oVlPA4/0mUm3Xoi5D3Sk
ACddyd2l997G82ku7YAN43L3dg/QhXYlrnA8e4ojsi/pcZIVOWddshr20uOj8rPx
8DROE+/injbo2HrAjEFjBvn1QIvrcxhnkrmbDagJk2qlYAvly1m0EzR/aCJbRnom
AX8Q/M3M7mALUjrdTEo+Ty+zqHfY/cF2qNYvjp/KLvmXOU6Viul7VzygpINiKfmD
Px5HAgMBAAEwDQYJKoZIhvcNAQELBQADggIBAGbF+Q9lrdfF3g+0eS3mAe1PDzrf
WgH/unuFs0VRrDcVuTQMHxlxYAe/dhgli+O9ATZ6StTrHU+17U4lvamR0IpWnKbC
E2aJdVH4cZ1SERklJY/gLlzsSv+KmqUXyi+5t4OQu9fy0inAMzW8CVDiGUbxU5F/
zPMxlY20juk9k0Xuum6a/b6/otOHbo0ATjcFiJk7FI6Ogdrpf/jI9qfud+q6Gh5f
hRUuPJqOlFn8G1VU7QjbNvLcvVmMgW3Qz9M04y5Ps7zN5ap/x1R6bCSIfkSwvqlJ
aMpSiqwyVLz0TiwF9N47SgTtOu8jq810c1UAwTM/zipKEqGKY20BZ9bGYg5T29Ae
HtnYEwj7hRbh6DylxDo834igqcjK+yZKCFykhTjs6pz0LhxF2IEsa45J8WEfyddx
Og8iTL/0AJAko5yiFqs26FxE2Ps2ttGQRyON1NJGxWIMYryyTuwDeiGHriGu99V0
6X0NSKibKN66MSig2mF+lM7pEKYCnfmR/u78zJGciHZVAJjR3vzlL7CzJ6NKob4x
erB38B+fsE4+qadny+mN0juYrqs/UH0g6PzMA88zlHq3/GVP+DVyyEF9GTIQCVli
Jcr08nIvzhcIJyeOOqq5PWxBA7Eyr9OaiL6MbY8MmNMzcfvTjJekgnw9bUOqR6Qf
BfxUeAZKln9j3Rfa
-----END CERTIFICATE-----
