Certificate:
    Data:
        Version: 3 (0x2)
        Serial Number: 331 (0x14b)
    Signature Algorithm: sha256WithRSAEncryption
        Issuer: C=fr, ST=idf, L=paris, O=vitam, OU=authorities, CN=ca_root_client-iam-internal
        Validity
            Not Before: Dec 12 10:42:48 2019 GMT
            Not After : Dec  9 10:42:48 2029 GMT
        Subject: C=fr, ST=idf, L=paris, O=vitam, OU=authorities, CN=ca_intermediate_client-iam-internal
        Subject Public Key Info:
            Public Key Algorithm: rsaEncryption
                Public-Key: (4096 bit)
                Modulus:
                    00:a9:56:f2:c1:8a:9f:37:97:14:65:e6:ff:30:55:
                    90:af:17:d4:a2:b7:4c:00:42:51:e9:1f:80:c3:27:
                    01:6a:b4:ca:58:20:1a:cf:46:8c:04:c6:0e:b3:23:
                    de:1d:c0:84:2a:d5:a8:18:53:d8:93:7b:4c:4f:5c:
                    c7:8c:95:2c:3e:da:0f:74:2c:e1:9d:06:41:d9:a9:
                    d5:5a:d9:14:cc:15:2b:50:50:ea:d2:c6:23:50:63:
                    02:05:3d:9e:8a:c2:47:45:73:9c:c2:ae:18:c9:c5:
                    b5:7b:cb:8b:11:b1:69:3e:8d:e3:37:4b:37:c4:ad:
                    59:65:53:4c:19:e2:f1:6f:d1:a0:ac:74:4a:f1:52:
                    26:72:7d:91:a5:1f:1f:ef:07:f1:08:db:48:e2:77:
                    d5:36:ea:db:d6:e9:8f:9a:67:e4:fa:c8:ce:49:cb:
                    de:4a:09:f7:5a:ed:16:ce:02:c5:46:09:7b:0f:50:
                    7c:74:db:09:b9:16:b5:5f:f2:e0:6b:b3:9c:7e:c5:
                    4c:22:60:de:ce:3d:49:ca:21:f2:01:be:8e:9c:7c:
                    b3:b7:c6:64:2c:10:00:25:34:ce:79:d6:3c:89:a5:
                    87:5a:ec:4d:57:dd:f4:a5:cf:4a:67:ed:fd:46:ad:
                    03:7d:9e:1a:99:88:06:57:0f:ae:e8:8e:1f:c1:72:
                    92:34:75:4a:0b:fa:d2:b5:9a:24:82:4a:b2:9b:21:
                    1b:cc:d4:72:bd:cb:5b:dd:1c:61:b9:41:83:33:6b:
                    91:8a:44:11:bf:e5:9d:41:0a:d6:cf:e5:4d:1f:b4:
                    96:ed:0a:d7:ef:68:f7:99:62:4b:9a:82:a4:54:8c:
                    35:0e:9a:b2:12:05:df:3c:00:59:05:c2:8b:ac:a8:
                    94:ba:5a:63:50:a6:ed:67:3e:53:b3:ee:ba:92:75:
                    54:b3:ac:21:f9:68:8f:0c:14:f2:bc:0d:a4:20:5e:
                    1d:de:af:1c:04:4c:84:6d:e4:23:04:24:91:3f:5d:
                    82:39:7d:27:52:b0:e6:b5:2b:34:bb:96:07:2e:8f:
                    c5:60:4c:79:4e:40:5a:fd:0d:4a:32:e8:3d:09:01:
                    a3:16:20:78:3d:1d:03:56:ba:a2:53:6e:e1:65:42:
                    5e:7b:fa:77:8a:c9:50:a7:ea:3c:5c:da:75:25:a6:
                    43:d8:50:bc:5d:96:65:09:41:e9:9d:c3:44:8f:6c:
                    9a:dd:aa:c2:08:2d:7b:23:07:b4:a6:1a:23:e8:03:
                    28:71:91:74:f6:7e:e9:f6:5f:2c:bf:c2:c4:62:21:
                    cd:b6:13:30:31:74:ae:1b:e0:ef:92:77:f0:87:08:
                    f3:38:f6:69:fd:b9:b4:88:4e:14:4b:2c:b8:e9:e2:
                    53:ab:1f
                Exponent: 65537 (0x10001)
        X509v3 extensions:
            Netscape Comment:
                CA Intermediate
            X509v3 Subject Key Identifier:
                43:5B:E8:68:7B:38:34:7D:3A:D3:0A:A3:6B:6D:A5:A9:1F:A0:DF:79
            X509v3 Authority Key Identifier:
                keyid:B9:5C:ED:B2:87:11:1B:A1:ED:A1:BE:57:E1:83:8B:92:88:35:99:2B
                DirName:/C=fr/ST=idf/L=paris/O=vitam/OU=authorities/CN=ca_root_client-iam-internal
                serial:01:4A

            X509v3 Basic Constraints: critical
                CA:TRUE, pathlen:0
            X509v3 Issuer Alternative Name:
                <EMPTY>

            X509v3 Key Usage:
                Certificate Sign, CRL Sign
            Netscape Cert Type:
                SSL CA
    Signature Algorithm: sha256WithRSAEncryption
         7f:fb:ea:e3:24:b6:34:28:6f:9e:58:39:d4:ea:71:ee:ac:8a:
         cd:15:a5:85:67:f6:eb:88:3b:a6:67:4d:89:62:b9:1a:5b:31:
         f5:1e:be:fb:a5:1c:5d:93:6b:7c:39:a2:20:88:6d:0d:c7:33:
         1e:52:39:39:38:c1:84:76:b7:96:3b:05:df:c4:7e:3a:c5:42:
         f6:ab:ad:28:f2:e5:6f:3f:46:f2:5a:38:eb:5a:1b:0c:c1:aa:
         0e:cd:7d:d7:18:ed:70:68:6e:ec:f3:e1:11:b3:b3:06:96:2d:
         a1:d6:1f:e1:59:43:f8:47:ba:a5:bf:5a:46:3b:f6:23:c1:48:
         95:6a:39:2e:49:6f:18:0f:95:ab:36:35:8d:fe:95:d4:2f:2c:
         82:1c:21:14:11:cd:69:50:f5:24:56:90:7e:16:79:81:55:42:
         84:2c:b6:86:b4:7b:a6:4c:ef:b1:2e:d5:22:1e:87:cc:84:82:
         9b:bf:99:07:71:a4:32:e0:55:61:4c:f3:e2:32:a3:ab:c0:80:
         5d:dd:5d:21:a6:ee:45:60:b6:d9:eb:b0:7b:28:28:4f:ea:90:
         82:36:71:cb:da:dc:72:15:fc:51:28:02:95:61:4f:76:96:e4:
         ad:49:c5:76:24:16:33:98:ae:85:ed:4c:7b:fe:dc:9b:b1:95:
         20:99:97:0f:5c:6f:94:6c:01:5f:f2:f7:1d:bc:12:cc:ca:d8:
         94:32:2b:65:16:81:f1:e5:d8:9f:1a:70:bf:eb:28:25:a6:5f:
         a1:b2:04:ad:7a:17:19:98:61:1e:08:83:81:0f:ef:3e:56:d8:
         1b:49:b5:40:c6:fe:2f:eb:b2:32:33:45:07:7b:2c:8e:79:ec:
         a1:72:e6:48:b1:6d:fc:ea:d9:30:69:d1:d3:2a:ac:03:17:6f:
         c6:8d:e1:ee:5c:88:53:c5:3e:77:bb:7a:b6:46:e7:1c:27:7e:
         a3:1c:00:95:22:3a:66:d5:6a:b6:9d:ce:6b:e3:67:98:9e:57:
         77:6e:b5:48:7b:50:5d:b6:16:63:0d:7b:d9:a9:33:0d:56:c8:
         32:5c:c0:f4:82:da:02:19:0f:ce:c4:34:47:5e:ea:3a:af:13:
         d7:d1:b4:79:2a:66:67:84:3e:d3:af:3f:1a:1c:e3:22:f6:cf:
         39:ad:79:90:0c:f4:8a:48:cf:42:0f:85:b8:7e:41:3b:21:31:
         60:76:31:39:3a:e1:a1:17:fb:b8:ea:1a:4d:55:ac:ad:92:6d:
         c8:5f:b7:07:37:2a:c4:ab:f7:28:05:84:aa:77:1f:60:81:a0:
         44:e4:f1:49:f8:49:48:02:e2:2c:ca:e7:10:a7:c7:22:67:19:
         0d:5f:80:fa:6f:a9:47:63
-----BEGIN CERTIFICATE-----
MIIGmzCCBIOgAwIBAgICAUswDQYJKoZIhvcNAQELBQAwdzELMAkGA1UEBhMCZnIx
DDAKBgNVBAgMA2lkZjEOMAwGA1UEBwwFcGFyaXMxDjAMBgNVBAoMBXZpdGFtMRQw
EgYDVQQLDAthdXRob3JpdGllczEkMCIGA1UEAwwbY2Ffcm9vdF9jbGllbnQtaWFt
LWludGVybmFsMB4XDTE5MTIxMjEwNDI0OFoXDTI5MTIwOTEwNDI0OFowfzELMAkG
A1UEBhMCZnIxDDAKBgNVBAgMA2lkZjEOMAwGA1UEBwwFcGFyaXMxDjAMBgNVBAoM
BXZpdGFtMRQwEgYDVQQLDAthdXRob3JpdGllczEsMCoGA1UEAwwjY2FfaW50ZXJt
ZWRpYXRlX2NsaWVudC1pYW0taW50ZXJuYWwwggIiMA0GCSqGSIb3DQEBAQUAA4IC
DwAwggIKAoICAQCpVvLBip83lxRl5v8wVZCvF9Sit0wAQlHpH4DDJwFqtMpYIBrP
RowExg6zI94dwIQq1agYU9iTe0xPXMeMlSw+2g90LOGdBkHZqdVa2RTMFStQUOrS
xiNQYwIFPZ6KwkdFc5zCrhjJxbV7y4sRsWk+jeM3SzfErVllU0wZ4vFv0aCsdErx
UiZyfZGlHx/vB/EI20jid9U26tvW6Y+aZ+T6yM5Jy95KCfda7RbOAsVGCXsPUHx0
2wm5FrVf8uBrs5x+xUwiYN7OPUnKIfIBvo6cfLO3xmQsEAAlNM551jyJpYda7E1X
3fSlz0pn7f1GrQN9nhqZiAZXD67ojh/BcpI0dUoL+tK1miSCSrKbIRvM1HK9y1vd
HGG5QYMza5GKRBG/5Z1BCtbP5U0ftJbtCtfvaPeZYkuagqRUjDUOmrISBd88AFkF
wousqJS6WmNQpu1nPlOz7rqSdVSzrCH5aI8MFPK8DaQgXh3erxwETIRt5CMEJJE/
XYI5fSdSsOa1KzS7lgcuj8VgTHlOQFr9DUoy6D0JAaMWIHg9HQNWuqJTbuFlQl57
+neKyVCn6jxc2nUlpkPYULxdlmUJQemdw0SPbJrdqsIILXsjB7SmGiPoAyhxkXT2
fun2Xyy/wsRiIc22EzAxdK4b4O+Sd/CHCPM49mn9ubSIThRLLLjp4lOrHwIDAQAB
o4IBJzCCASMwHgYJYIZIAYb4QgENBBEWD0NBIEludGVybWVkaWF0ZTAdBgNVHQ4E
FgQUQ1voaHs4NH060wqja22lqR+g33kwgaIGA1UdIwSBmjCBl4AUuVztsocRG6Ht
ob5X4YOLkog1mSuhe6R5MHcxCzAJBgNVBAYTAmZyMQwwCgYDVQQIDANpZGYxDjAM
BgNVBAcMBXBhcmlzMQ4wDAYDVQQKDAV2aXRhbTEUMBIGA1UECwwLYXV0aG9yaXRp
ZXMxJDAiBgNVBAMMG2NhX3Jvb3RfY2xpZW50LWlhbS1pbnRlcm5hbIICAUowEgYD
VR0TAQH/BAgwBgEB/wIBADAJBgNVHRIEAjAAMAsGA1UdDwQEAwIBBjARBglghkgB
hvhCAQEEBAMCAgQwDQYJKoZIhvcNAQELBQADggIBAH/76uMktjQob55YOdTqce6s
is0VpYVn9uuIO6ZnTYliuRpbMfUevvulHF2Ta3w5oiCIbQ3HMx5SOTk4wYR2t5Y7
Bd/EfjrFQvarrSjy5W8/RvJaOOtaGwzBqg7NfdcY7XBobuzz4RGzswaWLaHWH+FZ
Q/hHuqW/WkY79iPBSJVqOS5JbxgPlas2NY3+ldQvLIIcIRQRzWlQ9SRWkH4WeYFV
QoQstoa0e6ZM77Eu1SIeh8yEgpu/mQdxpDLgVWFM8+Iyo6vAgF3dXSGm7kVgttnr
sHsoKE/qkII2ccva3HIV/FEoApVhT3aW5K1JxXYkFjOYroXtTHv+3JuxlSCZlw9c
b5RsAV/y9x28EszK2JQyK2UWgfHl2J8acL/rKCWmX6GyBK16FxmYYR4Ig4EP7z5W
2BtJtUDG/i/rsjIzRQd7LI557KFy5kixbfzq2TBp0dMqrAMXb8aN4e5ciFPFPne7
erZG5xwnfqMcAJUiOmbVaradzmvjZ5ieV3dutUh7UF22FmMNe9mpMw1WyDJcwPSC
2gIZD87ENEde6jqvE9fRtHkqZmeEPtOvPxoc4yL2zzmteZAM9IpIz0IPhbh+QTsh
MWB2MTk64aEX+7jqGk1VrK2Sbchftwc3KsSr9ygFhKp3H2CBoETk8Un4SUgC4izK
5xCnxyJnGQ1fgPpvqUdj
-----END CERTIFICATE-----
