Certificate:
    Data:
        Version: 3 (0x2)
        Serial Number: 255 (0xff)
    Signature Algorithm: sha256WithRSAEncryption
        Issuer: C=fr, ST=idf, L=paris, O=vitam, OU=authorities, CN=ca_root_client-storage
        Validity
            Not Before: Nov 22 08:53:35 2019 GMT
            Not After : Nov 19 08:53:35 2029 GMT
        Subject: C=fr, ST=idf, L=paris, O=vitam, OU=authorities, CN=ca_root_client-storage
        Subject Public Key Info:
            Public Key Algorithm: rsaEncryption
                Public-Key: (4096 bit)
                Modulus:
                    00:a0:4e:7b:9b:fd:dd:60:fc:94:f8:b4:ce:66:2d:
                    bb:e2:aa:e0:7b:58:37:19:0b:50:b5:10:ea:a9:f8:
                    ae:45:53:99:32:ff:66:23:5f:f6:a0:94:8e:48:00:
                    b8:ba:fe:6f:59:0a:24:4c:5b:c9:19:d6:73:ce:f1:
                    aa:75:9e:46:bf:9d:46:40:97:df:cf:34:d6:e0:49:
                    2b:67:7a:aa:b5:03:ed:b3:ff:0b:3f:10:a6:4b:38:
                    34:89:60:85:7b:0c:e6:e3:b7:4f:56:3c:f4:b6:9e:
                    95:00:8e:46:cd:23:8b:5a:36:cd:0c:7d:08:06:37:
                    da:f1:d9:1b:9c:3e:c9:c3:8c:36:54:a8:71:83:18:
                    27:52:c1:9d:19:93:0e:bc:52:20:e1:15:10:55:d6:
                    d5:a4:29:c4:d4:77:a0:1a:93:dc:d5:39:dc:a0:35:
                    02:59:c8:cc:0f:b3:3c:f7:ee:f9:79:1c:cf:8c:9d:
                    fa:21:b0:30:f8:89:45:84:3c:91:81:41:68:94:3e:
                    00:d2:d0:3a:c2:d0:d4:ca:c0:84:a2:b3:74:64:b0:
                    c2:e5:6c:63:6d:f5:a6:26:02:68:89:d6:1f:ad:2a:
                    d7:d1:15:0b:5c:e7:c0:cc:85:c9:a2:65:71:20:7e:
                    e9:53:1d:b1:f0:16:83:74:3f:12:1d:7b:41:97:b7:
                    ce:c4:13:c0:c7:45:71:b6:17:03:29:80:6e:2f:b8:
                    92:59:0e:03:75:32:52:9e:b8:1e:3a:a5:39:2d:9f:
                    b7:eb:82:48:1d:cf:a4:fc:ba:ef:25:3f:40:08:5d:
                    d1:f1:f9:5b:cd:35:46:57:2f:fd:d4:70:f0:d8:a5:
                    5b:81:89:8f:95:63:5d:3b:13:64:95:82:6d:17:05:
                    a9:70:2f:3d:9a:03:ad:61:df:55:4b:d1:89:73:d1:
                    a5:40:d4:17:c1:bf:3b:5b:72:4d:28:9c:b9:9a:fc:
                    36:24:ea:ea:07:09:b5:13:d1:e0:51:c1:ef:da:c0:
                    eb:e1:9f:0f:8e:5c:8c:1b:ff:82:5c:8e:af:c4:40:
                    20:f9:33:00:2f:5a:3a:d1:f9:a6:31:ca:ab:0d:ed:
                    ff:42:3f:d9:22:36:e6:d9:76:35:0e:db:59:f1:32:
                    01:f0:b6:34:9f:1d:6d:98:6f:b3:21:a3:ed:ed:6c:
                    67:98:c3:7e:bb:b6:bd:77:59:85:59:9c:04:2d:73:
                    c4:44:40:09:e8:66:41:d8:cb:0d:21:12:26:07:e7:
                    86:88:34:7e:70:fe:0c:86:97:86:96:17:4e:7d:f9:
                    15:d5:64:60:af:d5:18:45:cf:10:a4:8c:2a:c7:0a:
                    50:de:80:27:a2:d3:37:83:1c:ce:14:ed:89:58:5c:
                    e0:f6:1d
                Exponent: 65537 (0x10001)
        X509v3 extensions:
            Netscape Comment:
                CA Root
            X509v3 Subject Key Identifier:
                CD:07:41:EF:62:B7:F0:79:3D:A7:A6:EE:38:60:EF:FE:89:8F:68:54
            X509v3 Authority Key Identifier:
                keyid:CD:07:41:EF:62:B7:F0:79:3D:A7:A6:EE:38:60:EF:FE:89:8F:68:54

            X509v3 Basic Constraints: critical
                CA:TRUE, pathlen:1
            X509v3 Key Usage:
                Certificate Sign, CRL Sign
            Netscape Cert Type:
                SSL CA
    Signature Algorithm: sha256WithRSAEncryption
         5a:74:61:7b:c6:fa:49:5d:e6:91:f9:5d:6c:fc:00:db:11:cf:
         0f:86:e1:1b:71:9b:5a:91:86:b3:f7:84:3b:cd:f9:59:75:08:
         a3:50:30:b2:43:5e:ff:b8:ce:e6:1d:2a:d6:14:83:76:0e:04:
         e2:17:43:51:4e:17:5b:cb:d2:ec:37:ce:30:98:10:ec:94:49:
         45:64:43:73:b9:af:02:6b:66:16:37:e6:db:c9:1f:38:d7:a9:
         b7:40:26:20:0d:04:03:db:55:01:52:90:d9:7f:a9:57:2d:c5:
         28:e9:03:7e:15:ea:52:4b:4b:c9:c0:32:f1:28:c8:e5:0a:2f:
         32:54:52:c4:18:8e:bb:52:ef:e2:0b:14:23:0b:02:b0:d7:51:
         64:96:53:af:d7:c8:32:b4:30:41:e4:56:a4:2b:09:c9:1f:ab:
         97:3e:40:2b:14:f1:bc:8f:64:9d:51:59:76:9b:f5:ed:60:a7:
         7e:de:e3:33:a4:5a:30:4f:e6:95:e5:36:be:f0:6d:cf:79:ef:
         f2:c0:9a:fd:30:ee:a7:5f:25:5e:0a:32:a1:91:d8:7c:9d:20:
         1b:c6:49:11:4a:da:0a:4e:ab:8e:28:11:b6:e9:0b:d2:81:f0:
         f2:3a:67:1e:10:b7:7d:4d:7a:bf:ca:a2:00:23:ed:16:95:2a:
         6f:d7:e0:36:be:1e:a8:e7:ed:db:f9:9a:cb:f9:67:97:5a:fe:
         22:98:b9:48:e0:48:1d:d4:f9:5b:07:4f:a8:44:cf:52:c5:99:
         79:42:55:a2:28:bf:dc:a9:42:ff:2a:cf:bc:0c:26:90:3e:45:
         39:d8:32:6b:f9:dc:92:03:1d:d3:bb:07:eb:4c:74:ae:97:b7:
         c3:f2:2b:78:05:b7:ed:9d:3e:4c:b1:19:e6:0b:9a:b4:8b:81:
         3b:bc:17:8e:ec:b6:25:52:31:87:35:72:1d:b0:d3:ee:de:91:
         03:91:1f:4c:58:cb:ff:1b:4e:a0:01:f6:98:06:7a:ec:3c:4e:
         02:6e:26:58:cc:be:40:5a:19:20:85:c2:73:44:7a:22:42:81:
         9c:23:ad:e0:cf:5f:5a:20:53:c2:fa:20:26:3d:33:cf:f3:7f:
         f8:65:b9:ec:f7:d9:e2:87:de:b2:65:f9:fe:3d:37:7c:3d:2e:
         53:2e:90:f5:22:c6:43:ad:60:73:4a:25:24:13:f5:c3:e2:2e:
         3e:6c:c3:ec:88:b7:93:04:e0:a3:3b:15:ef:a3:fc:45:aa:37:
         10:9d:95:fb:5e:4c:48:3f:6e:f5:59:64:ab:8b:d6:43:2f:f5:
         e1:03:b0:7a:8a:5e:f8:2a:be:16:83:4e:56:83:c2:dd:3b:77:
         12:c9:d8:95:05:6b:2e:23
-----BEGIN CERTIFICATE-----
MIIF8DCCA9igAwIBAgICAP8wDQYJKoZIhvcNAQELBQAwcjELMAkGA1UEBhMCZnIx
DDAKBgNVBAgMA2lkZjEOMAwGA1UEBwwFcGFyaXMxDjAMBgNVBAoMBXZpdGFtMRQw
EgYDVQQLDAthdXRob3JpdGllczEfMB0GA1UEAwwWY2Ffcm9vdF9jbGllbnQtc3Rv
cmFnZTAeFw0xOTExMjIwODUzMzVaFw0yOTExMTkwODUzMzVaMHIxCzAJBgNVBAYT
AmZyMQwwCgYDVQQIDANpZGYxDjAMBgNVBAcMBXBhcmlzMQ4wDAYDVQQKDAV2aXRh
bTEUMBIGA1UECwwLYXV0aG9yaXRpZXMxHzAdBgNVBAMMFmNhX3Jvb3RfY2xpZW50
LXN0b3JhZ2UwggIiMA0GCSqGSIb3DQEBAQUAA4ICDwAwggIKAoICAQCgTnub/d1g
/JT4tM5mLbviquB7WDcZC1C1EOqp+K5FU5ky/2YjX/aglI5IALi6/m9ZCiRMW8kZ
1nPO8ap1nka/nUZAl9/PNNbgSStneqq1A+2z/ws/EKZLODSJYIV7DObjt09WPPS2
npUAjkbNI4taNs0MfQgGN9rx2RucPsnDjDZUqHGDGCdSwZ0Zkw68UiDhFRBV1tWk
KcTUd6Aak9zVOdygNQJZyMwPszz37vl5HM+MnfohsDD4iUWEPJGBQWiUPgDS0DrC
0NTKwISis3RksMLlbGNt9aYmAmiJ1h+tKtfRFQtc58DMhcmiZXEgfulTHbHwFoN0
PxIde0GXt87EE8DHRXG2FwMpgG4vuJJZDgN1MlKeuB46pTktn7frgkgdz6T8uu8l
P0AIXdHx+VvNNUZXL/3UcPDYpVuBiY+VY107E2SVgm0XBalwLz2aA61h31VL0Ylz
0aVA1BfBvztbck0onLma/DYk6uoHCbUT0eBRwe/awOvhnw+OXIwb/4Jcjq/EQCD5
MwAvWjrR+aYxyqsN7f9CP9kiNubZdjUO21nxMgHwtjSfHW2Yb7Mho+3tbGeYw367
tr13WYVZnAQtc8REQAnoZkHYyw0hEiYH54aINH5w/gyGl4aWF059+RXVZGCv1RhF
zxCkjCrHClDegCei0zeDHM4U7YlYXOD2HQIDAQABo4GPMIGMMBYGCWCGSAGG+EIB
DQQJFgdDQSBSb290MB0GA1UdDgQWBBTNB0HvYrfweT2npu44YO/+iY9oVDAfBgNV
HSMEGDAWgBTNB0HvYrfweT2npu44YO/+iY9oVDASBgNVHRMBAf8ECDAGAQH/AgEB
MAsGA1UdDwQEAwIBBjARBglghkgBhvhCAQEEBAMCAgQwDQYJKoZIhvcNAQELBQAD
ggIBAFp0YXvG+kld5pH5XWz8ANsRzw+G4Rtxm1qRhrP3hDvN+Vl1CKNQMLJDXv+4
zuYdKtYUg3YOBOIXQ1FOF1vL0uw3zjCYEOyUSUVkQ3O5rwJrZhY35tvJHzjXqbdA
JiANBAPbVQFSkNl/qVctxSjpA34V6lJLS8nAMvEoyOUKLzJUUsQYjrtS7+ILFCML
ArDXUWSWU6/XyDK0MEHkVqQrCckfq5c+QCsU8byPZJ1RWXab9e1gp37e4zOkWjBP
5pXlNr7wbc957/LAmv0w7qdfJV4KMqGR2HydIBvGSRFK2gpOq44oEbbpC9KB8PI6
Zx4Qt31Ner/KogAj7RaVKm/X4Da+Hqjn7dv5msv5Z5da/iKYuUjgSB3U+VsHT6hE
z1LFmXlCVaIov9ypQv8qz7wMJpA+RTnYMmv53JIDHdO7B+tMdK6Xt8PyK3gFt+2d
PkyxGeYLmrSLgTu8F47stiVSMYc1ch2w0+7ekQORH0xYy/8bTqAB9pgGeuw8TgJu
JljMvkBaGSCFwnNEeiJCgZwjreDPX1ogU8L6ICY9M8/zf/hluez32eKH3rJl+f49
N3w9LlMukPUixkOtYHNKJSQT9cPiLj5sw+yIt5ME4KM7Fe+j/EWqNxCdlfteTEg/
bvVZZKuL1kMv9eEDsHqKXvgqvhaDTlaDwt07dxLJ2JUFay4j
-----END CERTIFICATE-----
