Certificate:
    Data:
        Version: 3 (0x2)
        Serial Number: 334 (0x14e)
    Signature Algorithm: sha256WithRSAEncryption
        Issuer: C=fr, ST=idf, L=paris, O=vitam, OU=authorities, CN=ca_intermediate_client-iam-internal
        Validity
            Not Before: Dec 16 10:45:25 2019 GMT
            Not After : Dec 15 10:45:25 2022 GMT
        Subject: C=fr, ST=idf, L=paris, O=vitam, CN=reverse
        Subject Public Key Info:
            Public Key Algorithm: rsaEncryption
                Public-Key: (4096 bit)
                Modulus:
                    00:a0:c1:c7:90:8c:18:f6:aa:22:3c:3f:7e:83:51:
                    f5:58:0b:ee:ed:60:8d:7b:c2:80:a7:c5:19:1a:64:
                    53:81:d5:a9:11:f0:f3:46:c7:88:f3:49:6b:66:22:
                    46:8b:70:61:72:28:0d:dd:06:77:4f:1e:df:1b:0a:
                    04:1c:3a:8b:23:d3:48:80:e7:89:03:7d:bd:fa:2b:
                    f2:1b:37:ef:80:35:74:d5:6a:65:23:b6:19:18:c3:
                    59:90:86:e0:b8:3a:de:5f:1a:fe:b2:b3:a5:9a:37:
                    54:ae:6e:43:8d:23:b8:51:d5:06:82:2c:44:d5:bf:
                    92:e3:a6:c6:19:52:53:a1:17:6d:c0:ad:b0:c3:da:
                    d0:82:5e:c4:90:ea:d9:03:25:8d:da:a3:3d:dd:88:
                    ac:86:e9:2d:58:ec:c1:f2:2f:6a:8b:92:30:9b:82:
                    51:06:d2:aa:65:c5:72:93:55:7a:76:c3:e8:e0:7d:
                    bb:ea:49:8c:85:2c:af:d4:ba:b1:0f:7b:0b:b4:88:
                    ea:cb:8f:eb:e2:e5:bb:00:dd:92:3e:89:3f:37:92:
                    65:7e:68:42:fd:3b:94:12:a8:9f:13:fc:fa:ca:eb:
                    b6:68:c7:61:34:b0:01:62:73:69:ea:30:ac:0d:3d:
                    0c:64:24:04:0f:a9:7c:d9:72:5f:b1:63:fa:25:a9:
                    1b:dd:d9:43:f4:ff:e8:50:d4:26:f8:cf:3c:b1:eb:
                    95:0e:a2:42:73:a7:ac:00:5d:01:ad:a1:fb:0a:b9:
                    4b:8d:08:b2:53:d1:82:fd:93:63:47:d0:dd:7e:fc:
                    b5:3e:ae:f4:8d:d3:81:fb:89:6d:39:d9:2c:26:6c:
                    93:70:78:fb:9d:c0:fc:7c:8c:6e:2e:c3:e7:6d:01:
                    02:58:dc:92:46:b8:b5:2e:e6:81:4f:28:7c:13:0e:
                    29:35:35:2b:bc:26:35:34:49:9f:7a:fc:5b:c4:84:
                    49:e1:5d:08:48:5a:9b:3b:d5:28:2c:6a:56:89:2f:
                    5e:ac:91:60:03:a5:99:5c:e0:67:80:af:ee:45:82:
                    8d:96:3a:e0:f6:2d:90:19:7e:b7:81:79:b1:bd:5d:
                    e5:f3:ae:ae:6b:88:12:5d:f7:75:fe:65:d7:5a:08:
                    9e:66:64:6f:75:f8:f9:d7:44:11:a9:be:35:5a:b1:
                    b9:e2:b4:bb:4b:4f:f1:68:e7:ac:04:03:f7:d4:bf:
                    4a:64:9c:4e:40:c5:bd:29:8a:37:0e:ff:02:e6:d2:
                    90:ab:be:37:72:51:dd:c0:47:91:f2:fd:8d:97:7d:
                    da:a8:f1:3a:da:bc:45:9e:5c:33:1a:b9:19:1c:57:
                    6d:89:06:8e:23:74:e4:71:98:38:0d:8c:87:5f:5a:
                    e4:4a:b5
                Exponent: 65537 (0x10001)
        X509v3 extensions:
            Netscape Comment:
                Certificat Client SSL
            X509v3 Subject Key Identifier:
                8E:94:5B:49:6B:30:50:9E:AF:07:5C:C0:8B:B5:A9:56:32:18:B5:8B
            X509v3 Authority Key Identifier:
                keyid:43:5B:E8:68:7B:38:34:7D:3A:D3:0A:A3:6B:6D:A5:A9:1F:A0:DF:79
                DirName:/C=fr/ST=idf/L=paris/O=vitam/OU=authorities/CN=ca_root_client-iam-internal
                serial:01:4B

            X509v3 Issuer Alternative Name:
                <EMPTY>

            X509v3 Basic Constraints: critical
                CA:FALSE
            X509v3 Key Usage:
                Digital Signature
            Netscape Cert Type:
                SSL Client
            X509v3 Extended Key Usage:
                TLS Web Client Authentication
    Signature Algorithm: sha256WithRSAEncryption
         99:70:e7:49:8b:2f:27:b6:d6:73:d5:ed:b5:b1:2c:4b:88:7e:
         c1:73:41:9a:b2:89:b2:54:dc:6a:3b:7f:1e:29:19:96:7e:04:
         bb:16:77:3b:87:07:aa:04:78:e1:bf:fc:ef:0e:1d:2f:73:99:
         91:36:86:a1:fd:13:eb:54:29:83:d6:67:08:7a:84:d0:b3:d6:
         a3:c3:81:d8:bd:fb:ca:bf:1d:ed:fe:37:2c:44:7e:f1:e5:50:
         41:70:f6:2f:b8:98:92:60:4a:2e:42:17:d3:4e:31:dd:eb:cd:
         2c:5a:6e:b5:7d:51:53:76:78:36:10:69:8a:64:3d:d8:7b:6b:
         a0:74:91:d5:01:b9:3f:f4:50:be:04:34:ae:7f:0c:24:7b:6f:
         5c:78:ce:c0:17:6d:a4:42:a7:8e:ce:fc:b5:68:ec:a0:4c:46:
         52:e5:f1:69:15:61:8a:6e:5a:7f:93:07:62:cb:dc:26:80:65:
         7f:72:ad:c6:0d:c0:c7:90:37:b5:f3:69:bd:15:b6:b4:e9:67:
         85:53:7d:42:9f:1d:3e:1b:f6:bf:b7:d2:1e:23:80:61:8d:94:
         9a:bb:72:f0:b9:87:c3:2c:b1:6a:9c:cd:ac:ae:f7:e2:5d:ae:
         89:27:78:55:d0:d9:f9:7d:db:c9:23:2f:a1:1a:4b:2f:f0:2d:
         4b:14:b3:93:6a:85:9f:d0:7b:db:eb:f2:02:d8:42:ca:dc:c2:
         e9:3e:51:43:fd:b5:0a:76:eb:f4:ea:68:b6:a4:71:52:62:63:
         70:8f:f0:ae:f8:62:86:c3:af:24:ee:ce:13:8d:a7:24:8e:42:
         94:3a:d8:c7:31:bf:45:40:b3:44:f3:d5:88:ad:c5:0d:61:0d:
         f3:52:29:9d:22:25:a5:73:6a:84:e6:f7:5e:51:24:0a:81:c1:
         37:73:62:67:bc:59:f8:0e:5c:b9:65:b2:87:76:8a:28:b2:88:
         5c:4d:82:3e:7f:65:f9:8d:ec:a2:27:37:76:4b:31:81:43:48:
         03:f3:f0:03:60:06:38:ae:39:e7:9b:f1:cf:63:49:ec:f1:93:
         4d:12:39:a8:7e:4a:07:2d:d4:92:5f:ec:75:f5:fe:29:66:2c:
         cf:f4:df:75:75:20:ca:16:5a:88:1f:9d:93:4a:77:12:ce:95:
         cf:15:7c:3f:66:63:6d:a3:bc:3e:53:71:05:cc:2e:c8:f1:77:
         de:89:a3:38:77:95:df:c1:f5:5f:75:21:44:68:14:92:e8:0e:
         c6:27:1f:07:03:d8:27:6f:fd:fc:fa:4e:00:07:98:0d:2a:10:
         94:2e:49:74:70:61:36:16:ed:cc:52:1d:08:e5:45:e7:63:6b:
         78:2c:82:57:57:52:57:9b
-----BEGIN CERTIFICATE-----
MIIGhjCCBG6gAwIBAgICAU4wDQYJKoZIhvcNAQELBQAwfzELMAkGA1UEBhMCZnIx
DDAKBgNVBAgMA2lkZjEOMAwGA1UEBwwFcGFyaXMxDjAMBgNVBAoMBXZpdGFtMRQw
EgYDVQQLDAthdXRob3JpdGllczEsMCoGA1UEAwwjY2FfaW50ZXJtZWRpYXRlX2Ns
aWVudC1pYW0taW50ZXJuYWwwHhcNMTkxMjE2MTA0NTI1WhcNMjIxMjE1MTA0NTI1
WjBNMQswCQYDVQQGEwJmcjEMMAoGA1UECAwDaWRmMQ4wDAYDVQQHDAVwYXJpczEO
MAwGA1UECgwFdml0YW0xEDAOBgNVBAMMB3JldmVyc2UwggIiMA0GCSqGSIb3DQEB
AQUAA4ICDwAwggIKAoICAQCgwceQjBj2qiI8P36DUfVYC+7tYI17woCnxRkaZFOB
1akR8PNGx4jzSWtmIkaLcGFyKA3dBndPHt8bCgQcOosj00iA54kDfb36K/IbN++A
NXTVamUjthkYw1mQhuC4Ot5fGv6ys6WaN1SubkONI7hR1QaCLETVv5LjpsYZUlOh
F23ArbDD2tCCXsSQ6tkDJY3aoz3diKyG6S1Y7MHyL2qLkjCbglEG0qplxXKTVXp2
w+jgfbvqSYyFLK/UurEPewu0iOrLj+vi5bsA3ZI+iT83kmV+aEL9O5QSqJ8T/PrK
67Zox2E0sAFic2nqMKwNPQxkJAQPqXzZcl+xY/olqRvd2UP0/+hQ1Cb4zzyx65UO
okJzp6wAXQGtofsKuUuNCLJT0YL9k2NH0N1+/LU+rvSN04H7iW052SwmbJNwePud
wPx8jG4uw+dtAQJY3JJGuLUu5oFPKHwTDik1NSu8JjU0SZ96/FvEhEnhXQhIWps7
1SgsalaJL16skWADpZlc4GeAr+5Fgo2WOuD2LZAZfreBebG9XeXzrq5riBJd93X+
ZddaCJ5mZG91+PnXRBGpvjVasbnitLtLT/Fo56wEA/fUv0pknE5Axb0pijcO/wLm
0pCrvjdyUd3AR5Hy/Y2Xfdqo8TravEWeXDMauRkcV22JBo4jdORxmDgNjIdfWuRK
tQIDAQABo4IBPDCCATgwJAYJYIZIAYb4QgENBBcWFUNlcnRpZmljYXQgQ2xpZW50
IFNTTDAdBgNVHQ4EFgQUjpRbSWswUJ6vB1zAi7WpVjIYtYswgaIGA1UdIwSBmjCB
l4AUQ1voaHs4NH060wqja22lqR+g33mhe6R5MHcxCzAJBgNVBAYTAmZyMQwwCgYD
VQQIDANpZGYxDjAMBgNVBAcMBXBhcmlzMQ4wDAYDVQQKDAV2aXRhbTEUMBIGA1UE
CwwLYXV0aG9yaXRpZXMxJDAiBgNVBAMMG2NhX3Jvb3RfY2xpZW50LWlhbS1pbnRl
cm5hbIICAUswCQYDVR0SBAIwADAMBgNVHRMBAf8EAjAAMAsGA1UdDwQEAwIHgDAR
BglghkgBhvhCAQEEBAMCB4AwEwYDVR0lBAwwCgYIKwYBBQUHAwIwDQYJKoZIhvcN
AQELBQADggIBAJlw50mLLye21nPV7bWxLEuIfsFzQZqyibJU3Go7fx4pGZZ+BLsW
dzuHB6oEeOG//O8OHS9zmZE2hqH9E+tUKYPWZwh6hNCz1qPDgdi9+8q/He3+NyxE
fvHlUEFw9i+4mJJgSi5CF9NOMd3rzSxabrV9UVN2eDYQaYpkPdh7a6B0kdUBuT/0
UL4ENK5/DCR7b1x4zsAXbaRCp47O/LVo7KBMRlLl8WkVYYpuWn+TB2LL3CaAZX9y
rcYNwMeQN7Xzab0VtrTpZ4VTfUKfHT4b9r+30h4jgGGNlJq7cvC5h8MssWqczayu
9+JdrokneFXQ2fl928kjL6EaSy/wLUsUs5NqhZ/Qe9vr8gLYQsrcwuk+UUP9tQp2
6/TqaLakcVJiY3CP8K74YobDryTuzhONpySOQpQ62Mcxv0VAs0Tz1YitxQ1hDfNS
KZ0iJaVzaoTm915RJAqBwTdzYme8WfgOXLllsod2iiiyiFxNgj5/ZfmN7KInN3ZL
MYFDSAPz8ANgBjiuOeeb8c9jSezxk00SOah+Sgct1JJf7HX1/ilmLM/033V1IMoW
WogfnZNKdxLOlc8VfD9mY22jvD5TcQXMLsjxd96Jozh3ld/B9V91IURoFJLoDsYn
HwcD2Cdv/fz6TgAHmA0qEJQuSXRwYTYW7cxSHQjlRedja3gsgldXUleb
-----END CERTIFICATE-----
