Certificate:
    Data:
        Version: 3 (0x2)
        Serial Number: 330 (0x14a)
    Signature Algorithm: sha256WithRSAEncryption
        Issuer: C=fr, ST=idf, L=paris, O=vitam, OU=authorities, CN=ca_root_client-iam-internal
        Validity
            Not Before: Dec 12 10:42:47 2019 GMT
            Not After : Dec  9 10:42:47 2029 GMT
        Subject: C=fr, ST=idf, L=paris, O=vitam, OU=authorities, CN=ca_root_client-iam-internal
        Subject Public Key Info:
            Public Key Algorithm: rsaEncryption
                Public-Key: (4096 bit)
                Modulus:
                    00:aa:f4:98:52:78:df:cb:73:49:33:de:d2:44:4e:
                    d8:23:64:b9:d5:0c:a4:7f:49:56:58:f7:61:2e:ce:
                    e6:c1:be:16:4d:2c:79:17:5b:ab:12:f8:a6:75:62:
                    f9:3a:d4:fa:00:e4:5c:2d:b3:8a:40:87:b1:03:c3:
                    ae:28:c3:af:bd:2f:c3:36:ed:90:76:16:68:92:df:
                    41:94:52:e7:78:0b:a6:f4:5f:1a:b0:84:8f:ed:50:
                    ea:0f:5c:6b:b0:89:16:ee:4d:fc:96:1f:42:2d:28:
                    03:63:e2:06:b2:0f:fa:2f:7d:d6:88:6a:6e:a1:c4:
                    ef:1a:f6:8c:94:03:e5:3a:75:d6:d6:97:ba:11:1c:
                    55:c8:1d:1c:2e:f8:1a:5a:52:eb:7e:79:2f:36:ec:
                    e9:54:c1:40:bc:e6:b1:18:8f:f7:65:80:9c:4f:55:
                    c5:01:9a:30:fa:db:2e:8a:0f:f9:f1:67:63:d5:ec:
                    de:7c:23:f9:93:89:56:84:7c:32:6f:fc:ab:71:8e:
                    a4:79:45:7b:a4:80:1d:e2:ed:4c:e7:74:ad:96:73:
                    78:06:30:1c:f8:79:9a:04:81:a9:00:dd:5b:5a:26:
                    cb:65:62:9f:f0:8d:09:ce:02:2f:7f:95:9d:01:9d:
                    0b:aa:17:e2:4d:80:aa:31:c1:35:59:31:b4:07:05:
                    ae:1a:72:49:ea:2f:a9:23:62:68:04:a2:f9:2a:d5:
                    b4:98:c7:9b:e6:e5:e3:d2:7d:05:9f:fa:3d:1c:c8:
                    d3:d1:2c:d1:db:76:58:03:ba:31:ea:b8:a3:f3:83:
                    cb:d2:2d:66:b5:89:9f:94:25:d7:84:ed:8c:30:16:
                    8c:f0:68:f8:ef:ea:86:0b:e8:f2:0c:93:d5:94:dd:
                    78:15:5a:66:bf:b5:91:23:b6:f8:e2:12:f7:22:06:
                    10:03:74:c0:ac:a7:85:df:26:98:dd:53:27:cc:15:
                    71:58:bf:23:9a:c0:99:46:04:70:13:bd:0f:e0:11:
                    a4:62:1b:4c:9a:95:7b:05:71:57:9b:0a:1e:72:47:
                    6a:49:84:43:7a:6e:d2:66:14:7a:7a:2f:f1:c3:66:
                    cd:e6:af:e7:49:2d:2e:1b:d2:58:38:38:a9:ce:ef:
                    3c:fa:97:a0:a2:b2:20:93:bb:f3:de:aa:68:d0:bb:
                    12:c9:e4:bf:59:a1:d7:48:a2:8b:8d:07:08:11:d9:
                    fb:1f:0f:42:6b:90:64:b3:f7:aa:86:5f:fb:06:2e:
                    32:45:b6:4b:bc:91:c7:e6:cc:d3:3d:0f:04:49:6a:
                    e2:a5:c0:84:03:25:3b:64:0f:b6:bc:2c:c4:97:9b:
                    06:11:56:a0:73:34:af:f7:ae:16:7f:82:b7:be:cf:
                    00:a7:2f
                Exponent: 65537 (0x10001)
        X509v3 extensions:
            Netscape Comment:
                CA Root
            X509v3 Subject Key Identifier:
                B9:5C:ED:B2:87:11:1B:A1:ED:A1:BE:57:E1:83:8B:92:88:35:99:2B
            X509v3 Authority Key Identifier:
                keyid:B9:5C:ED:B2:87:11:1B:A1:ED:A1:BE:57:E1:83:8B:92:88:35:99:2B

            X509v3 Basic Constraints: critical
                CA:TRUE, pathlen:1
            X509v3 Key Usage:
                Certificate Sign, CRL Sign
            Netscape Cert Type:
                SSL CA
    Signature Algorithm: sha256WithRSAEncryption
         2a:b4:7d:3b:6e:06:d7:02:e7:b0:08:ae:63:42:85:7c:65:27:
         27:49:35:fe:df:71:54:b3:fd:48:fc:9d:62:c6:ec:d6:dd:fc:
         58:0c:be:7a:8c:e4:0d:1f:bc:0b:0f:ee:1e:19:a1:06:b3:99:
         c5:7a:3d:b5:d2:2c:10:dd:2e:23:4f:35:6c:5d:16:39:54:0f:
         92:75:1e:dd:eb:b0:97:6f:7e:c3:2d:47:a9:fc:ae:b0:ad:3e:
         f0:41:bb:0e:2a:e8:73:f0:70:d5:9c:cd:77:a5:64:3c:5e:89:
         8f:b0:11:b4:bc:27:a7:39:ef:03:88:3f:7a:14:26:f8:79:f1:
         ec:98:c9:2e:67:1e:0a:65:6b:2a:66:d7:09:61:88:58:59:5a:
         78:bc:01:2b:a3:f5:05:43:da:68:69:02:4b:de:f7:49:ea:91:
         68:5b:85:12:1d:d9:6f:6d:6a:a3:68:ea:cc:88:7d:61:71:37:
         bb:0a:de:5f:ff:bd:1a:03:bb:1b:36:c5:87:b8:b0:e2:bd:4e:
         a1:60:3c:20:a1:b2:44:9c:ce:0f:46:21:ed:4f:53:b6:d6:6d:
         a3:1d:0b:e1:0f:6b:93:94:f4:32:0f:55:c2:bf:fd:51:af:79:
         13:14:57:f0:68:ea:68:d3:01:4e:88:1c:6d:4a:d5:f1:c3:f6:
         fc:82:f3:f4:8f:b1:c7:c0:8f:fb:34:02:31:e3:d9:48:54:b6:
         3e:44:4d:6b:4a:53:83:9c:c1:7b:75:60:cb:9e:11:23:c8:9a:
         12:09:3c:5b:08:9e:3b:ac:b6:64:cb:60:cc:e2:83:1c:ff:cd:
         59:a7:0e:36:3c:d6:2f:35:d0:4d:40:ab:b3:fd:3a:57:d2:2a:
         87:7f:de:4f:9d:2a:11:19:35:0f:7c:d0:23:98:a5:67:f5:60:
         16:f6:3a:83:a8:f4:3f:8a:50:f3:1c:6d:ea:eb:ed:1f:24:94:
         60:ca:d5:b7:a3:4e:f8:de:8a:a9:bb:f8:02:68:cd:18:11:7b:
         4f:4e:fb:09:5e:00:0a:f7:61:c2:c6:7a:7a:66:8b:01:99:9a:
         36:fd:d9:31:7b:dd:4f:38:a8:b6:36:e0:77:44:92:5d:eb:f6:
         73:c3:56:ac:fb:ab:fc:3f:1d:a1:82:8f:c2:f2:55:73:c2:5f:
         a6:55:23:0f:3d:85:0b:96:c8:d5:e4:a8:aa:fa:b4:d3:05:a2:
         cf:e1:a5:95:18:5e:7e:13:44:cf:be:c5:34:d1:e2:b7:69:9a:
         f6:e3:85:6a:82:12:a6:5f:08:ad:4e:e9:ee:63:a1:73:7c:cd:
         35:8c:e8:27:1d:1b:46:34:e7:ae:36:4a:7a:fb:3f:e5:9c:71:
         64:39:90:8f:d9:ed:93:2b
-----BEGIN CERTIFICATE-----
MIIF+jCCA+KgAwIBAgICAUowDQYJKoZIhvcNAQELBQAwdzELMAkGA1UEBhMCZnIx
DDAKBgNVBAgMA2lkZjEOMAwGA1UEBwwFcGFyaXMxDjAMBgNVBAoMBXZpdGFtMRQw
EgYDVQQLDAthdXRob3JpdGllczEkMCIGA1UEAwwbY2Ffcm9vdF9jbGllbnQtaWFt
LWludGVybmFsMB4XDTE5MTIxMjEwNDI0N1oXDTI5MTIwOTEwNDI0N1owdzELMAkG
A1UEBhMCZnIxDDAKBgNVBAgMA2lkZjEOMAwGA1UEBwwFcGFyaXMxDjAMBgNVBAoM
BXZpdGFtMRQwEgYDVQQLDAthdXRob3JpdGllczEkMCIGA1UEAwwbY2Ffcm9vdF9j
bGllbnQtaWFtLWludGVybmFsMIICIjANBgkqhkiG9w0BAQEFAAOCAg8AMIICCgKC
AgEAqvSYUnjfy3NJM97SRE7YI2S51Qykf0lWWPdhLs7mwb4WTSx5F1urEvimdWL5
OtT6AORcLbOKQIexA8OuKMOvvS/DNu2QdhZokt9BlFLneAum9F8asISP7VDqD1xr
sIkW7k38lh9CLSgDY+IGsg/6L33WiGpuocTvGvaMlAPlOnXW1pe6ERxVyB0cLvga
WlLrfnkvNuzpVMFAvOaxGI/3ZYCcT1XFAZow+tsuig/58Wdj1ezefCP5k4lWhHwy
b/yrcY6keUV7pIAd4u1M53StlnN4BjAc+HmaBIGpAN1bWibLZWKf8I0JzgIvf5Wd
AZ0LqhfiTYCqMcE1WTG0BwWuGnJJ6i+pI2JoBKL5KtW0mMeb5uXj0n0Fn/o9HMjT
0SzR23ZYA7ox6rij84PL0i1mtYmflCXXhO2MMBaM8Gj47+qGC+jyDJPVlN14FVpm
v7WRI7b44hL3IgYQA3TArKeF3yaY3VMnzBVxWL8jmsCZRgRwE70P4BGkYhtMmpV7
BXFXmwoeckdqSYRDem7SZhR6ei/xw2bN5q/nSS0uG9JYODipzu88+pegorIgk7vz
3qpo0LsSyeS/WaHXSKKLjQcIEdn7Hw9Ca5Bks/eqhl/7Bi4yRbZLvJHH5szTPQ8E
SWripcCEAyU7ZA+2vCzEl5sGEVagczSv964Wf4K3vs8Apy8CAwEAAaOBjzCBjDAW
BglghkgBhvhCAQ0ECRYHQ0EgUm9vdDAdBgNVHQ4EFgQUuVztsocRG6Htob5X4YOL
kog1mSswHwYDVR0jBBgwFoAUuVztsocRG6Htob5X4YOLkog1mSswEgYDVR0TAQH/
BAgwBgEB/wIBATALBgNVHQ8EBAMCAQYwEQYJYIZIAYb4QgEBBAQDAgIEMA0GCSqG
SIb3DQEBCwUAA4ICAQAqtH07bgbXAuewCK5jQoV8ZScnSTX+33FUs/1I/J1ixuzW
3fxYDL56jOQNH7wLD+4eGaEGs5nFej210iwQ3S4jTzVsXRY5VA+SdR7d67CXb37D
LUep/K6wrT7wQbsOKuhz8HDVnM13pWQ8XomPsBG0vCenOe8DiD96FCb4efHsmMku
Zx4KZWsqZtcJYYhYWVp4vAEro/UFQ9poaQJL3vdJ6pFoW4USHdlvbWqjaOrMiH1h
cTe7Ct5f/70aA7sbNsWHuLDivU6hYDwgobJEnM4PRiHtT1O21m2jHQvhD2uTlPQy
D1XCv/1Rr3kTFFfwaOpo0wFOiBxtStXxw/b8gvP0j7HHwI/7NAIx49lIVLY+RE1r
SlODnMF7dWDLnhEjyJoSCTxbCJ47rLZky2DM4oMc/81Zpw42PNYvNdBNQKuz/TpX
0iqHf95PnSoRGTUPfNAjmKVn9WAW9jqDqPQ/ilDzHG3q6+0fJJRgytW3o0743oqp
u/gCaM0YEXtPTvsJXgAK92HCxnp6ZosBmZo2/dkxe91POKi2NuB3RJJd6/Zzw1as
+6v8Px2hgo/C8lVzwl+mVSMPPYULlsjV5Kiq+rTTBaLP4aWVGF5+E0TPvsU00eK3
aZr244VqghKmXwitTunuY6FzfM01jOgnHRtGNOeuNkp6+z/lnHFkOZCP2e2TKw==
-----END CERTIFICATE-----
