Certificate:
    Data:
        Version: 3 (0x2)
        Serial Number: 3 (0x3)
        Signature Algorithm: sha256WithRSAEncryption
        Issuer: C=fr, ST=idf, L=paris, O=vitamui, OU=authorities, CN=ca_intermediate_client-external
        Validity
            Not Before: May  5 12:35:09 2020 GMT
            Not After : May  5 12:35:09 2023 GMT
        Subject: C=fr, ST=idf, L=paris, O=vitamui, CN=customer_x
        Subject Public Key Info:
            Public Key Algorithm: rsaEncryption
                RSA Public-Key: (4096 bit)
                Modulus:
                    00:d2:7e:77:5d:71:1f:71:0e:c1:18:b6:cb:35:60:
                    72:b9:00:91:c6:a1:71:df:06:5d:93:23:7e:f3:4d:
                    8d:c0:1c:98:63:60:89:81:64:d1:d3:ef:06:c5:62:
                    8a:17:66:02:eb:96:ec:7c:73:cf:40:7d:6a:f2:b7:
                    c5:ec:b6:10:32:9b:6f:6f:15:3a:51:7b:9d:c9:86:
                    2e:d4:41:24:7e:db:d0:46:53:8f:40:27:ef:e7:a0:
                    13:05:9b:4e:8d:a9:c1:0d:b1:3a:d2:27:6e:a4:20:
                    1b:1f:31:fc:59:4d:f0:69:f2:f3:48:a9:60:f2:bf:
                    09:e4:58:7b:05:8a:6b:51:98:42:20:4c:9e:e7:09:
                    c7:a1:b7:7b:c7:1f:36:87:67:f4:29:fa:59:10:7d:
                    d4:19:12:f0:96:78:fb:f5:69:af:ff:4f:28:f5:a1:
                    40:dc:43:01:a0:ae:3f:a0:80:f4:4f:4f:8e:af:8d:
                    49:66:c6:2e:84:61:c4:7d:61:e9:ef:a5:b7:3e:71:
                    36:93:a2:a6:fe:1a:86:fa:28:84:1e:d3:96:e7:46:
                    b8:f1:f3:80:a0:6c:df:51:e0:5a:85:b8:e6:c1:a4:
                    03:f4:8e:cf:c7:0e:7f:95:ef:e5:45:f0:03:43:dd:
                    70:ce:69:d4:e0:0b:6f:ad:66:84:df:14:de:6c:2f:
                    fa:4d:9a:8b:d8:8d:8e:61:43:0c:21:cf:c2:4d:e6:
                    95:2a:ea:bb:72:0c:46:8e:a7:8a:24:5a:9c:b4:fe:
                    5f:be:31:5a:f4:2b:22:b8:62:4c:40:b3:fc:df:90:
                    2f:e0:64:e9:36:a5:b8:5c:37:40:eb:c7:de:0b:9c:
                    a7:f1:4d:5c:17:c9:03:8b:91:84:49:af:de:08:17:
                    e7:41:a4:15:ba:d7:32:89:fe:7c:90:f2:11:0d:1e:
                    e9:52:55:f2:c5:88:09:03:ef:3f:59:17:ea:a3:5f:
                    6c:4b:2f:25:b9:ee:0a:96:67:61:ba:03:14:93:de:
                    fc:80:d9:3b:ee:86:48:e9:89:a7:af:b9:e3:ac:73:
                    bb:6d:1e:dc:c2:a3:cd:89:e2:9e:9c:9f:8b:bf:83:
                    97:c7:97:37:7b:a7:ee:e4:84:8f:7e:80:cd:59:01:
                    ed:c1:1f:ac:3f:de:3b:52:7a:90:6e:4e:40:65:74:
                    ad:17:cf:af:77:6e:9e:e7:2d:d5:69:33:4e:7c:ee:
                    04:90:5f:56:ad:83:ed:9f:b9:ef:0e:d5:ef:fd:cd:
                    a5:9a:8d:86:c1:87:03:e6:34:ee:7c:67:47:43:82:
                    eb:06:31:a5:b1:62:fa:0d:a4:b5:5f:71:84:8f:c2:
                    06:d4:ed:7f:ad:b4:20:9d:f3:bd:42:47:8e:45:08:
                    a5:c0:47
                Exponent: 65537 (0x10001)
        X509v3 extensions:
            Netscape Comment: 
                Certificat Client SSL
            X509v3 Subject Key Identifier: 
                65:07:42:1A:4C:22:9B:50:69:E7:84:87:26:70:E1:A4:5C:4E:F2:6D
            X509v3 Authority Key Identifier: 
                keyid:24:0C:1B:40:0F:9A:EC:7E:53:52:6E:DD:75:D7:47:6F:B2:84:21:B4
                DirName:/C=fr/ST=idf/L=paris/O=vitamui/OU=authorities/CN=ca_root_client-external
                serial:02

            X509v3 Issuer Alternative Name: 
                <EMPTY>

            X509v3 Basic Constraints: critical
                CA:FALSE
            X509v3 Key Usage: 
                Digital Signature
            Netscape Cert Type: 
                SSL Client
            X509v3 Extended Key Usage: 
                TLS Web Client Authentication
    Signature Algorithm: sha256WithRSAEncryption
         93:5c:65:7d:f2:fc:7d:fb:0b:fd:cf:b3:8e:eb:15:6c:2d:5f:
         18:43:2d:0e:8c:a3:df:dd:27:4f:ed:5f:cb:9b:40:a9:84:70:
         25:66:13:ef:01:ff:08:28:09:98:7e:37:b9:9c:bd:7b:40:9f:
         05:da:08:e8:63:83:c7:ae:37:37:7e:50:04:9c:41:67:34:1b:
         95:9b:af:5a:9e:6d:5c:e9:66:00:4d:18:01:2c:92:52:9d:fa:
         d2:a8:66:20:ad:de:f0:2e:79:71:50:4b:f9:8c:db:56:7f:23:
         ec:ed:7b:37:41:14:18:b4:fd:25:97:e4:89:49:a9:24:6c:25:
         ad:61:63:71:5c:6e:29:e3:e0:a1:aa:33:d0:29:3d:58:bc:7d:
         7d:8b:49:4f:3e:e3:a6:57:6e:68:c3:93:54:29:85:b5:89:a8:
         2b:1f:e1:5e:03:5f:da:83:da:ee:e4:fd:ff:64:3f:69:33:59:
         f8:9a:51:0f:d9:90:58:ee:0b:f6:0b:1c:0d:31:a0:eb:c2:ca:
         9f:94:7c:20:46:72:09:1d:74:63:01:cf:25:42:48:4d:49:fd:
         96:ea:36:60:29:ef:62:75:c6:fe:a5:01:9a:e2:37:74:61:3c:
         fe:9f:fc:d3:e3:09:d6:a8:79:6a:99:e1:df:59:cc:05:fb:ac:
         d4:7f:00:40:02:29:d1:43:aa:2d:2a:96:84:a2:20:14:9e:fe:
         62:54:f5:5c:1d:c5:9a:9c:00:9d:c0:9d:63:18:0f:2d:ff:0f:
         fc:86:22:4b:8d:4e:fe:ef:49:ea:27:29:19:8d:17:9e:71:fd:
         69:6b:eb:c3:fa:25:bf:54:28:ec:1a:dd:38:89:b6:e1:ee:b8:
         16:29:6b:02:4d:9c:fa:10:23:9a:d9:e2:99:5c:ff:cc:90:03:
         a9:8e:38:e9:67:55:fd:51:7f:c5:64:62:97:59:08:51:3c:ad:
         12:f5:25:d6:5a:b3:e3:d6:28:34:c2:66:bd:36:72:70:ef:0d:
         6b:16:83:89:5d:26:68:80:8a:37:23:8e:9e:1e:4a:64:53:e4:
         8a:3b:62:92:30:b7:7b:be:52:c9:98:7f:d7:8f:4d:52:68:da:
         6e:1c:c9:d2:1e:1a:cc:8c:09:17:7c:9e:7b:a6:46:e2:12:fd:
         12:21:87:67:6e:1c:da:58:b0:b8:c4:75:f1:52:ec:74:dc:9d:
         af:4a:d2:fe:d1:01:70:b6:6d:42:89:b0:83:50:9d:66:bf:a1:
         da:76:d4:2e:d0:92:43:f1:b6:44:c5:b0:50:9c:39:a5:b7:eb:
         07:8d:63:1d:55:f4:2f:bd:14:2f:6f:5b:2c:5e:19:6a:b1:0d:
         c5:00:44:79:f7:6c:2e:fb
-----BEGIN CERTIFICATE-----
MIIGhTCCBG2gAwIBAgIBAzANBgkqhkiG9w0BAQsFADB9MQswCQYDVQQGEwJmcjEM
MAoGA1UECAwDaWRmMQ4wDAYDVQQHDAVwYXJpczEQMA4GA1UECgwHdml0YW11aTEU
MBIGA1UECwwLYXV0aG9yaXRpZXMxKDAmBgNVBAMMH2NhX2ludGVybWVkaWF0ZV9j
bGllbnQtZXh0ZXJuYWwwHhcNMjAwNTA1MTIzNTA5WhcNMjMwNTA1MTIzNTA5WjBS
MQswCQYDVQQGEwJmcjEMMAoGA1UECAwDaWRmMQ4wDAYDVQQHDAVwYXJpczEQMA4G
A1UECgwHdml0YW11aTETMBEGA1UEAwwKY3VzdG9tZXJfeDCCAiIwDQYJKoZIhvcN
AQEBBQADggIPADCCAgoCggIBANJ+d11xH3EOwRi2yzVgcrkAkcahcd8GXZMjfvNN
jcAcmGNgiYFk0dPvBsViihdmAuuW7Hxzz0B9avK3xey2EDKbb28VOlF7ncmGLtRB
JH7b0EZTj0An7+egEwWbTo2pwQ2xOtInbqQgGx8x/FlN8Gny80ipYPK/CeRYewWK
a1GYQiBMnucJx6G3e8cfNodn9Cn6WRB91BkS8JZ4+/Vpr/9PKPWhQNxDAaCuP6CA
9E9Pjq+NSWbGLoRhxH1h6e+ltz5xNpOipv4ahvoohB7TludGuPHzgKBs31HgWoW4
5sGkA/SOz8cOf5Xv5UXwA0PdcM5p1OALb61mhN8U3mwv+k2ai9iNjmFDDCHPwk3m
lSrqu3IMRo6niiRanLT+X74xWvQrIrhiTECz/N+QL+Bk6TaluFw3QOvH3gucp/FN
XBfJA4uRhEmv3ggX50GkFbrXMon+fJDyEQ0e6VJV8sWICQPvP1kX6qNfbEsvJbnu
CpZnYboDFJPe/IDZO+6GSOmJp6+546xzu20e3MKjzYninpyfi7+Dl8eXN3un7uSE
j36AzVkB7cEfrD/eO1J6kG5OQGV0rRfPr3dunuct1WkzTnzuBJBfVq2D7Z+57w7V
7/3NpZqNhsGHA+Y07nxnR0OC6wYxpbFi+g2ktV9xhI/CBtTtf620IJ3zvUJHjkUI
pcBHAgMBAAGjggE5MIIBNTAkBglghkgBhvhCAQ0EFxYVQ2VydGlmaWNhdCBDbGll
bnQgU1NMMB0GA1UdDgQWBBRlB0IaTCKbUGnnhIcmcOGkXE7ybTCBnwYDVR0jBIGX
MIGUgBQkDBtAD5rsflNSbt1110dvsoQhtKF5pHcwdTELMAkGA1UEBhMCZnIxDDAK
BgNVBAgMA2lkZjEOMAwGA1UEBwwFcGFyaXMxEDAOBgNVBAoMB3ZpdGFtdWkxFDAS
BgNVBAsMC2F1dGhvcml0aWVzMSAwHgYDVQQDDBdjYV9yb290X2NsaWVudC1leHRl
cm5hbIIBAjAJBgNVHRIEAjAAMAwGA1UdEwEB/wQCMAAwCwYDVR0PBAQDAgeAMBEG
CWCGSAGG+EIBAQQEAwIHgDATBgNVHSUEDDAKBggrBgEFBQcDAjANBgkqhkiG9w0B
AQsFAAOCAgEAk1xlffL8ffsL/c+zjusVbC1fGEMtDoyj390nT+1fy5tAqYRwJWYT
7wH/CCgJmH43uZy9e0CfBdoI6GODx643N35QBJxBZzQblZuvWp5tXOlmAE0YASyS
Up360qhmIK3e8C55cVBL+YzbVn8j7O17N0EUGLT9JZfkiUmpJGwlrWFjcVxuKePg
oaoz0Ck9WLx9fYtJTz7jplduaMOTVCmFtYmoKx/hXgNf2oPa7uT9/2Q/aTNZ+JpR
D9mQWO4L9gscDTGg68LKn5R8IEZyCR10YwHPJUJITUn9luo2YCnvYnXG/qUBmuI3
dGE8/p/80+MJ1qh5apnh31nMBfus1H8AQAIp0UOqLSqWhKIgFJ7+YlT1XB3FmpwA
ncCdYxgPLf8P/IYiS41O/u9J6icpGY0XnnH9aWvrw/olv1Qo7BrdOIm24e64Filr
Ak2c+hAjmtnimVz/zJADqY446WdV/VF/xWRil1kIUTytEvUl1lqz49YoNMJmvTZy
cO8NaxaDiV0maICKNyOOnh5KZFPkijtikjC3e75SyZh/149NUmjabhzJ0h4azIwJ
F3yee6ZG4hL9EiGHZ24c2liwuMR18VLsdNydr0rS/tEBcLZtQomwg1CdZr+h2nbU
LtCSQ/G2RMWwUJw5pbfrB41jHVX0L70UL29bLF4ZarENxQBEefdsLvs=
-----END CERTIFICATE-----
