Certificate:
    Data:
        Version: 3 (0x2)
        Serial Number: 2 (0x2)
        Signature Algorithm: sha256WithRSAEncryption
        Issuer: C=fr, ST=idf, L=paris, O=vitamui, OU=authorities, CN=ca_root_client-external
        Validity
            Not Before: Apr 21 08:36:33 2020 GMT
            Not After : Apr 19 08:36:33 2030 GMT
        Subject: C=fr, ST=idf, L=paris, O=vitamui, OU=authorities, CN=ca_intermediate_client-external
        Subject Public Key Info:
            Public Key Algorithm: rsaEncryption
                RSA Public-Key: (4096 bit)
                Modulus:
                    00:bd:66:92:4c:c6:7e:2f:ef:b1:56:dd:d0:73:8d:
                    78:3a:d0:c4:fa:4c:b5:e0:93:18:81:d4:da:e4:e5:
                    bc:57:cf:ee:e8:e8:2a:fd:2b:30:b7:cf:b8:45:d8:
                    18:b0:40:b7:cd:6f:f7:7c:65:19:a5:a9:5e:a6:15:
                    cf:96:cd:7d:d4:b1:43:ca:e1:6d:23:62:a9:46:3d:
                    1c:bf:ea:23:0c:92:f5:ab:91:8b:e6:e5:42:7d:74:
                    e9:0e:47:54:dd:f2:83:ea:9d:49:cc:94:d8:0b:bc:
                    2d:51:cd:42:74:73:0c:04:76:f6:bf:b0:bd:ae:81:
                    6b:56:f8:17:e1:f0:67:e6:fc:6c:ef:f9:54:41:65:
                    28:6f:09:bf:c0:db:c5:ea:bc:28:54:52:81:70:6e:
                    cf:02:21:cf:0f:09:08:2e:2d:b2:44:12:b6:6e:54:
                    7d:33:b7:91:2a:04:7a:9b:b7:68:db:2a:ff:84:73:
                    69:98:24:93:2a:06:77:98:0a:5e:ed:cb:3d:74:1e:
                    1f:77:52:e7:5f:8f:f5:39:c9:21:34:7a:98:f0:4f:
                    83:dc:48:f3:f2:1a:f5:b5:f9:db:50:f0:7f:6e:3b:
                    b9:71:e1:cb:2d:5a:c9:1e:02:50:78:e1:3c:18:14:
                    4c:6f:67:3f:40:0e:6d:57:f3:04:42:c4:be:2e:28:
                    8e:08:cd:c8:cb:40:6c:27:a9:0a:16:4d:be:f6:6d:
                    4c:10:de:0f:25:f4:06:76:73:b3:2b:62:80:d3:0f:
                    76:79:32:89:c7:e2:b4:8f:76:fa:f7:19:3a:df:97:
                    fb:d9:c9:10:89:50:fc:53:ab:d7:b6:bf:19:3e:cb:
                    b7:43:b2:37:9f:5a:4f:e2:d2:74:85:96:ba:a2:72:
                    17:90:45:39:90:ce:fd:c2:3b:f3:e4:88:ed:1c:09:
                    99:e3:d9:2f:1e:f6:eb:f1:f9:f4:81:df:e5:76:cc:
                    51:f7:d8:d0:e1:5e:4c:a1:7c:93:5e:80:76:91:f2:
                    d9:e5:22:4d:cf:03:ca:70:c0:28:58:20:68:91:f5:
                    6e:af:6f:26:a8:c6:fc:52:37:67:34:68:d2:a8:10:
                    42:cf:09:e9:bf:2e:36:14:6e:f0:ec:92:ed:f8:f1:
                    f8:d8:b2:3a:aa:da:52:a8:a2:6d:71:1a:82:05:cf:
                    10:22:e2:0f:04:80:d1:56:4f:bf:73:03:55:a6:74:
                    e4:69:77:82:e2:04:de:85:71:2c:3c:ab:4f:a0:f2:
                    16:52:3f:38:9e:04:71:b3:4c:14:da:ef:98:fc:70:
                    7e:9d:8f:44:fd:26:f4:7f:1e:3b:f8:64:f0:13:ef:
                    49:40:86:db:0d:67:c5:89:54:a0:35:ba:74:a3:a7:
                    b1:7d:3f
                Exponent: 65537 (0x10001)
        X509v3 extensions:
            Netscape Comment: 
                CA Intermediate
            X509v3 Subject Key Identifier: 
                CA:45:36:B6:48:CB:67:A6:DB:4A:A9:40:88:3D:46:BA:8C:7B:1F:6B
            X509v3 Authority Key Identifier: 
                keyid:A3:A6:B9:75:15:F1:2E:70:B1:23:91:D2:3C:61:41:FB:55:F1:97:9B
                DirName:/C=fr/ST=idf/L=paris/O=vitamui/OU=authorities/CN=ca_root_client-external
                serial:01

            X509v3 Basic Constraints: critical
                CA:TRUE, pathlen:0
            X509v3 Issuer Alternative Name: 
                <EMPTY>

            X509v3 Key Usage: 
                Certificate Sign, CRL Sign
            Netscape Cert Type: 
                SSL CA
    Signature Algorithm: sha256WithRSAEncryption
         9a:d1:2f:cd:4b:20:97:14:f4:eb:05:e9:34:62:34:a8:c7:b4:
         0e:06:40:bf:b2:5f:d1:c6:f1:c1:65:86:60:83:06:8c:6e:9c:
         f8:ee:1c:52:04:f1:d3:7e:73:12:63:5c:d7:fe:4b:d3:12:b0:
         9c:6b:c5:7e:b9:39:c4:8b:3e:56:a6:20:5f:dd:3f:7d:a8:aa:
         da:9a:97:a9:51:22:47:7c:21:0f:ad:94:50:8e:f2:30:29:b8:
         57:26:f5:16:53:32:bf:27:58:20:3b:de:92:bf:bb:7d:93:d7:
         59:e8:c2:2d:db:39:96:a9:6c:43:5b:c4:91:7d:ef:38:f3:80:
         10:b4:17:f6:0f:57:39:49:4f:64:d9:8d:31:cd:90:45:6d:a0:
         ae:5c:07:80:be:61:53:7d:25:28:07:bd:9c:9d:40:22:ca:6d:
         8f:1a:94:33:e9:55:62:2d:9b:67:ca:aa:4c:4c:b0:d2:bf:40:
         07:cb:0a:81:58:32:b2:66:c9:b8:b0:14:69:ca:c9:26:e9:39:
         cb:93:f9:cd:a7:8e:0f:54:79:d0:63:76:a2:b1:b1:63:23:e5:
         ed:1f:3f:18:b0:2a:a7:2d:d4:29:3f:86:cf:fc:9f:af:36:65:
         3b:a8:bc:51:e0:bf:94:19:7b:b6:df:2d:04:9d:aa:38:62:3b:
         cc:28:02:7e:e5:ef:40:81:75:8a:b3:34:5c:cd:db:41:ed:6c:
         9b:e2:8a:d9:03:e1:4b:fb:67:fb:e8:4b:a3:cd:b7:80:9e:53:
         c9:9c:8d:71:e9:83:b0:2c:3f:d8:ba:d9:62:79:8a:6e:62:11:
         31:f1:1e:82:97:93:2e:40:c1:ba:54:8b:52:8c:5d:01:93:2a:
         ad:b0:4e:7a:4a:41:f9:d6:c2:e7:58:c9:89:df:31:fc:81:44:
         ae:7d:d4:39:f4:cb:43:e9:11:85:21:18:bd:ec:dc:24:c5:04:
         d8:48:9a:8c:31:4a:be:0b:f0:5d:fc:7c:de:b2:f4:24:75:7a:
         86:39:2d:1c:58:ec:66:e9:65:57:03:47:86:08:1d:74:7f:07:
         a6:d3:75:13:e4:ea:27:87:30:a1:59:86:ea:7f:3d:5d:03:bd:
         58:93:d9:c2:62:19:ae:58:77:f4:c0:47:fe:93:7e:37:67:ad:
         c4:ce:ac:a6:5b:6c:36:24:3f:aa:4f:a6:67:3d:20:20:f1:e6:
         0d:77:ed:9f:5e:b1:c8:fa:6d:a3:d4:66:6e:31:03:02:09:9c:
         78:fe:81:dc:74:8f:32:6e:52:e7:79:a8:57:48:1b:2f:d1:89:
         ab:8c:36:32:04:8a:7e:e8:d6:a5:e7:01:15:af:9b:9a:50:b4:
         41:14:04:2c:39:7f:0e:49
-----BEGIN CERTIFICATE-----
MIIGkzCCBHugAwIBAgIBAjANBgkqhkiG9w0BAQsFADB1MQswCQYDVQQGEwJmcjEM
MAoGA1UECAwDaWRmMQ4wDAYDVQQHDAVwYXJpczEQMA4GA1UECgwHdml0YW11aTEU
MBIGA1UECwwLYXV0aG9yaXRpZXMxIDAeBgNVBAMMF2NhX3Jvb3RfY2xpZW50LWV4
dGVybmFsMB4XDTIwMDQyMTA4MzYzM1oXDTMwMDQxOTA4MzYzM1owfTELMAkGA1UE
BhMCZnIxDDAKBgNVBAgMA2lkZjEOMAwGA1UEBwwFcGFyaXMxEDAOBgNVBAoMB3Zp
dGFtdWkxFDASBgNVBAsMC2F1dGhvcml0aWVzMSgwJgYDVQQDDB9jYV9pbnRlcm1l
ZGlhdGVfY2xpZW50LWV4dGVybmFsMIICIjANBgkqhkiG9w0BAQEFAAOCAg8AMIIC
CgKCAgEAvWaSTMZ+L++xVt3Qc414OtDE+ky14JMYgdTa5OW8V8/u6Ogq/Sswt8+4
RdgYsEC3zW/3fGUZpalephXPls191LFDyuFtI2KpRj0cv+ojDJL1q5GL5uVCfXTp
DkdU3fKD6p1JzJTYC7wtUc1CdHMMBHb2v7C9roFrVvgX4fBn5vxs7/lUQWUobwm/
wNvF6rwoVFKBcG7PAiHPDwkILi2yRBK2blR9M7eRKgR6m7do2yr/hHNpmCSTKgZ3
mApe7cs9dB4fd1LnX4/1OckhNHqY8E+D3Ejz8hr1tfnbUPB/bju5ceHLLVrJHgJQ
eOE8GBRMb2c/QA5tV/MEQsS+LiiOCM3Iy0BsJ6kKFk2+9m1MEN4PJfQGdnOzK2KA
0w92eTKJx+K0j3b69xk635f72ckQiVD8U6vXtr8ZPsu3Q7I3n1pP4tJ0hZa6onIX
kEU5kM79wjvz5IjtHAmZ49kvHvbr8fn0gd/ldsxR99jQ4V5MoXyTXoB2kfLZ5SJN
zwPKcMAoWCBokfVur28mqMb8UjdnNGjSqBBCzwnpvy42FG7w7JLt+PH42LI6qtpS
qKJtcRqCBc8QIuIPBIDRVk+/cwNVpnTkaXeC4gTehXEsPKtPoPIWUj84ngRxs0wU
2u+Y/HB+nY9E/Sb0fx47+GTwE+9JQIbbDWfFiVSgNbp0o6exfT8CAwEAAaOCASQw
ggEgMB4GCWCGSAGG+EIBDQQRFg9DQSBJbnRlcm1lZGlhdGUwHQYDVR0OBBYEFMpF
NrZIy2em20qpQIg9RrqMex9rMIGfBgNVHSMEgZcwgZSAFKOmuXUV8S5wsSOR0jxh
QftV8ZeboXmkdzB1MQswCQYDVQQGEwJmcjEMMAoGA1UECAwDaWRmMQ4wDAYDVQQH
DAVwYXJpczEQMA4GA1UECgwHdml0YW11aTEUMBIGA1UECwwLYXV0aG9yaXRpZXMx
IDAeBgNVBAMMF2NhX3Jvb3RfY2xpZW50LWV4dGVybmFsggEBMBIGA1UdEwEB/wQI
MAYBAf8CAQAwCQYDVR0SBAIwADALBgNVHQ8EBAMCAQYwEQYJYIZIAYb4QgEBBAQD
AgIEMA0GCSqGSIb3DQEBCwUAA4ICAQCa0S/NSyCXFPTrBek0YjSox7QOBkC/sl/R
xvHBZYZggwaMbpz47hxSBPHTfnMSY1zX/kvTErCca8V+uTnEiz5WpiBf3T99qKra
mpepUSJHfCEPrZRQjvIwKbhXJvUWUzK/J1ggO96Sv7t9k9dZ6MIt2zmWqWxDW8SR
fe8484AQtBf2D1c5SU9k2Y0xzZBFbaCuXAeAvmFTfSUoB72cnUAiym2PGpQz6VVi
LZtnyqpMTLDSv0AHywqBWDKyZsm4sBRpyskm6TnLk/nNp44PVHnQY3aisbFjI+Xt
Hz8YsCqnLdQpP4bP/J+vNmU7qLxR4L+UGXu23y0Enao4YjvMKAJ+5e9AgXWKszRc
zdtB7Wyb4orZA+FL+2f76EujzbeAnlPJnI1x6YOwLD/YutlieYpuYhEx8R6Cl5Mu
QMG6VItSjF0BkyqtsE56SkH51sLnWMmJ3zH8gUSufdQ59MtD6RGFIRi97NwkxQTY
SJqMMUq+C/Bd/HzesvQkdXqGOS0cWOxm6WVXA0eGCB10fwem03UT5OonhzChWYbq
fz1dA71Yk9nCYhmuWHf0wEf+k343Z63EzqymW2w2JD+qT6ZnPSAg8eYNd+2fXrHI
+m2j1GZuMQMCCZx4/oHcdI8yblLneahXSBsv0YmrjDYyBIp+6Nal5wEVr5uaULRB
FAQsOX8OSQ==
-----END CERTIFICATE-----
