Certificate:
    Data:
        Version: 3 (0x2)
        Serial Number: 2 (0x2)
        Signature Algorithm: sha256WithRSAEncryption
        Issuer: C=fr, ST=idf, L=paris, O=vitamui, OU=authorities, CN=ca_root_client-external
        Validity
            Not Before: May  5 09:13:44 2020 GMT
            Not After : May  3 09:13:44 2030 GMT
        Subject: C=fr, ST=idf, L=paris, O=vitamui, OU=authorities, CN=ca_intermediate_client-external
        Subject Public Key Info:
            Public Key Algorithm: rsaEncryption
                RSA Public-Key: (4096 bit)
                Modulus:
                    00:eb:26:d9:1e:69:fc:3d:e5:7d:ff:49:a7:53:4b:
                    88:2f:bd:d7:1d:0a:54:c1:38:cb:8f:49:39:2b:82:
                    81:ea:b4:d7:58:59:6a:89:fe:31:9b:9e:32:89:62:
                    db:99:89:1b:1d:6c:71:2c:55:1f:7c:b9:80:d6:04:
                    ce:4f:08:c3:f5:87:90:ea:1c:d7:5c:f1:fb:2c:52:
                    9e:95:74:12:16:98:bf:d9:09:dc:24:eb:a7:f4:80:
                    dd:b6:3a:1c:43:dc:6d:71:26:a9:3b:35:21:02:39:
                    50:83:30:44:26:03:b1:2b:46:c3:ee:ad:9a:c8:18:
                    10:1a:80:8f:8b:89:45:27:91:ab:a5:dd:8e:c3:93:
                    a4:b9:22:56:70:0e:d6:ee:09:11:53:da:5d:09:35:
                    43:68:0c:56:f9:66:91:5c:dc:a9:a9:c1:67:aa:79:
                    17:64:2e:30:96:17:8e:2f:6f:f1:fe:20:38:42:03:
                    a5:55:1e:17:02:b5:62:59:63:bd:04:34:82:25:54:
                    56:db:89:5f:a4:6c:af:1b:d2:03:32:98:7a:2d:e0:
                    25:5a:8b:3b:f2:5f:38:8e:78:44:d0:6c:df:d2:29:
                    2b:51:8e:5b:ad:80:01:52:83:b9:a1:dd:83:3f:38:
                    b9:37:2d:5e:a8:46:29:b7:75:fe:8a:a8:0f:42:01:
                    b9:61:c2:cc:b8:44:b8:cf:50:8c:e8:65:ef:0f:0a:
                    e7:52:4a:5d:46:e1:14:76:72:a9:11:47:46:cb:3b:
                    81:4c:db:7c:49:42:ac:84:e5:0e:46:2a:6f:04:87:
                    02:33:f7:76:af:38:86:fa:c3:e4:10:57:b0:6d:90:
                    02:5f:75:18:03:c0:4d:52:34:9a:03:c1:7b:a1:d9:
                    ad:0e:ac:00:a2:a1:02:69:6d:7c:81:5a:4f:d0:9f:
                    71:b7:86:60:d5:35:7d:6d:38:d2:b6:63:96:ae:04:
                    60:a9:96:0f:55:77:bb:54:a6:bb:51:81:68:1a:d3:
                    94:b6:bd:3e:37:2e:f9:40:d1:52:20:8a:5c:0d:8f:
                    a8:6c:c0:72:bf:b8:c8:c9:7d:e5:ee:a6:ee:09:15:
                    d2:a4:a1:12:2a:c1:a1:eb:be:c1:fa:c0:b3:02:9b:
                    83:3c:35:6f:f5:7e:1b:68:64:3a:5e:ee:5f:c6:c0:
                    47:2b:21:c7:b6:06:9d:56:2e:be:43:fb:5e:aa:1a:
                    38:55:41:9a:67:06:da:5b:77:b7:4f:1b:9e:39:59:
                    74:fc:d5:39:5c:dd:2e:c4:58:76:97:1c:41:41:dd:
                    27:2c:f2:8a:3d:ab:99:1b:39:2a:9e:b3:61:af:58:
                    14:04:cd:f9:51:f9:cd:d3:84:eb:b1:33:6d:58:b3:
                    23:ec:a1
                Exponent: 65537 (0x10001)
        X509v3 extensions:
            Netscape Comment: 
                CA Intermediate
            X509v3 Subject Key Identifier: 
                79:40:DE:1C:BE:4E:6F:37:00:94:B1:23:B1:2F:44:D5:C4:3E:7A:EF
            X509v3 Authority Key Identifier: 
                keyid:33:AC:54:7E:E9:5B:9C:62:4A:FF:3E:17:3E:F9:EA:C6:3E:6C:C4:83
                DirName:/C=fr/ST=idf/L=paris/O=vitamui/OU=authorities/CN=ca_root_client-external
                serial:01

            X509v3 Basic Constraints: critical
                CA:TRUE, pathlen:0
            X509v3 Issuer Alternative Name: 
                <EMPTY>

            X509v3 Key Usage: 
                Certificate Sign, CRL Sign
            Netscape Cert Type: 
                SSL CA
    Signature Algorithm: sha256WithRSAEncryption
         13:2f:f3:16:55:a3:c7:42:30:80:71:45:7f:9a:8b:8c:cd:e2:
         39:27:44:b2:46:a0:90:6c:36:13:bc:0e:99:34:b3:0f:a0:b6:
         85:ba:ef:f5:53:b5:63:e7:b0:64:16:ed:be:dd:9c:08:41:7c:
         74:a5:6d:0b:12:0a:bf:e2:e3:28:dd:1d:d7:a9:42:a2:f8:bb:
         0d:0d:ae:45:a2:f3:a7:c7:22:bd:d3:80:b2:fe:41:af:79:31:
         13:c7:78:cf:5a:ea:3e:f9:a7:04:ed:86:32:c9:2e:93:46:af:
         03:f4:fd:2b:96:2f:6b:9c:9a:a5:db:3b:b9:6b:24:03:5b:21:
         96:40:9a:fa:f0:25:a1:52:5d:5a:e5:bc:8d:18:3f:54:c3:f1:
         f5:c8:e1:3e:52:5b:fc:ee:ea:64:0e:67:be:80:d6:38:76:de:
         cb:dc:dd:3f:3f:5e:37:8c:d4:af:0b:f7:74:39:6c:42:68:34:
         a4:94:23:6c:dc:07:d9:5d:8e:61:08:bc:6b:4f:cc:81:69:f3:
         1f:66:81:80:0e:ba:80:a2:9a:65:1e:ea:73:0b:0e:74:35:0e:
         ad:dc:66:14:f7:2b:9e:09:b8:ed:df:a1:e1:16:3a:cb:af:d0:
         5d:1c:5d:fb:f9:9a:e2:a5:a3:14:f5:70:3e:a9:79:f5:2a:81:
         7e:6c:b2:0d:61:31:de:38:5a:8a:1e:f3:d4:60:04:6b:5a:bf:
         6f:de:dc:09:d0:6d:3e:51:7a:c3:5c:fb:66:a3:6d:ce:51:8d:
         d9:7d:74:17:63:8d:7a:b0:bd:b3:41:1e:fd:d2:74:c9:40:08:
         65:d3:73:5c:41:d1:a4:ff:f9:ee:e2:41:be:5b:fe:7c:b3:f1:
         d0:71:26:9f:9d:7f:b2:5d:ac:89:c4:04:04:d0:a6:ec:6d:37:
         55:60:b2:d6:ff:36:fd:ad:0b:ba:13:9a:88:c0:73:80:fb:76:
         51:6c:83:00:13:32:81:29:ab:1c:ea:75:8e:60:74:73:79:40:
         5a:fd:c5:48:a0:4b:6e:54:59:31:10:a6:7e:67:c3:a2:f6:37:
         5f:72:d9:4d:26:f5:eb:1a:47:41:87:33:e8:3d:06:e2:67:b4:
         2a:ca:96:41:3f:f0:28:e8:d6:9a:4f:b2:a2:3b:4e:86:2b:16:
         98:3d:e4:da:3e:28:53:88:b3:cd:5e:d5:6d:2a:90:eb:d5:98:
         cb:95:3c:8f:c2:4b:a8:13:c7:65:0b:4e:72:3d:0c:fa:f2:5b:
         10:47:60:22:23:16:d3:7f:df:13:c4:a3:6f:05:0b:e6:cb:a1:
         12:8c:b6:b8:e1:c8:03:98:e0:ac:53:8d:dd:63:cd:1c:58:ab:
         b7:50:44:65:8e:46:fe:80
-----BEGIN CERTIFICATE-----
MIIGkzCCBHugAwIBAgIBAjANBgkqhkiG9w0BAQsFADB1MQswCQYDVQQGEwJmcjEM
MAoGA1UECAwDaWRmMQ4wDAYDVQQHDAVwYXJpczEQMA4GA1UECgwHdml0YW11aTEU
MBIGA1UECwwLYXV0aG9yaXRpZXMxIDAeBgNVBAMMF2NhX3Jvb3RfY2xpZW50LWV4
dGVybmFsMB4XDTIwMDUwNTA5MTM0NFoXDTMwMDUwMzA5MTM0NFowfTELMAkGA1UE
BhMCZnIxDDAKBgNVBAgMA2lkZjEOMAwGA1UEBwwFcGFyaXMxEDAOBgNVBAoMB3Zp
dGFtdWkxFDASBgNVBAsMC2F1dGhvcml0aWVzMSgwJgYDVQQDDB9jYV9pbnRlcm1l
ZGlhdGVfY2xpZW50LWV4dGVybmFsMIICIjANBgkqhkiG9w0BAQEFAAOCAg8AMIIC
CgKCAgEA6ybZHmn8PeV9/0mnU0uIL73XHQpUwTjLj0k5K4KB6rTXWFlqif4xm54y
iWLbmYkbHWxxLFUffLmA1gTOTwjD9YeQ6hzXXPH7LFKelXQSFpi/2QncJOun9IDd
tjocQ9xtcSapOzUhAjlQgzBEJgOxK0bD7q2ayBgQGoCPi4lFJ5Grpd2Ow5OkuSJW
cA7W7gkRU9pdCTVDaAxW+WaRXNypqcFnqnkXZC4wlheOL2/x/iA4QgOlVR4XArVi
WWO9BDSCJVRW24lfpGyvG9IDMph6LeAlWos78l84jnhE0Gzf0ikrUY5brYABUoO5
od2DPzi5Ny1eqEYpt3X+iqgPQgG5YcLMuES4z1CM6GXvDwrnUkpdRuEUdnKpEUdG
yzuBTNt8SUKshOUORipvBIcCM/d2rziG+sPkEFewbZACX3UYA8BNUjSaA8F7odmt
DqwAoqECaW18gVpP0J9xt4Zg1TV9bTjStmOWrgRgqZYPVXe7VKa7UYFoGtOUtr0+
Ny75QNFSIIpcDY+obMByv7jIyX3l7qbuCRXSpKESKsGh677B+sCzApuDPDVv9X4b
aGQ6Xu5fxsBHKyHHtgadVi6+Q/teqho4VUGaZwbaW3e3TxueOVl0/NU5XN0uxFh2
lxxBQd0nLPKKPauZGzkqnrNhr1gUBM35UfnN04TrsTNtWLMj7KECAwEAAaOCASQw
ggEgMB4GCWCGSAGG+EIBDQQRFg9DQSBJbnRlcm1lZGlhdGUwHQYDVR0OBBYEFHlA
3hy+Tm83AJSxI7EvRNXEPnrvMIGfBgNVHSMEgZcwgZSAFDOsVH7pW5xiSv8+Fz75
6sY+bMSDoXmkdzB1MQswCQYDVQQGEwJmcjEMMAoGA1UECAwDaWRmMQ4wDAYDVQQH
DAVwYXJpczEQMA4GA1UECgwHdml0YW11aTEUMBIGA1UECwwLYXV0aG9yaXRpZXMx
IDAeBgNVBAMMF2NhX3Jvb3RfY2xpZW50LWV4dGVybmFsggEBMBIGA1UdEwEB/wQI
MAYBAf8CAQAwCQYDVR0SBAIwADALBgNVHQ8EBAMCAQYwEQYJYIZIAYb4QgEBBAQD
AgIEMA0GCSqGSIb3DQEBCwUAA4ICAQATL/MWVaPHQjCAcUV/mouMzeI5J0SyRqCQ
bDYTvA6ZNLMPoLaFuu/1U7Vj57BkFu2+3ZwIQXx0pW0LEgq/4uMo3R3XqUKi+LsN
Da5FovOnxyK904Cy/kGveTETx3jPWuo++acE7YYyyS6TRq8D9P0rli9rnJql2zu5
ayQDWyGWQJr68CWhUl1a5byNGD9Uw/H1yOE+Ulv87upkDme+gNY4dt7L3N0/P143
jNSvC/d0OWxCaDSklCNs3AfZXY5hCLxrT8yBafMfZoGADrqAopplHupzCw50NQ6t
3GYU9yueCbjt36HhFjrLr9BdHF37+ZripaMU9XA+qXn1KoF+bLINYTHeOFqKHvPU
YARrWr9v3twJ0G0+UXrDXPtmo23OUY3ZfXQXY416sL2zQR790nTJQAhl03NcQdGk
//nu4kG+W/58s/HQcSafnX+yXayJxAQE0KbsbTdVYLLW/zb9rQu6E5qIwHOA+3ZR
bIMAEzKBKasc6nWOYHRzeUBa/cVIoEtuVFkxEKZ+Z8Oi9jdfctlNJvXrGkdBhzPo
PQbiZ7QqypZBP/Ao6NaaT7KiO06GKxaYPeTaPihTiLPNXtVtKpDr1ZjLlTyPwkuo
E8dlC05yPQz68lsQR2AiIxbTf98TxKNvBQvmy6ESjLa44cgDmOCsU43dY80cWKu3
UERljkb+gA==
-----END CERTIFICATE-----
