Certificate:
    Data:
        Version: 3 (0x2)
        Serial Number: 1 (0x1)
        Signature Algorithm: sha256WithRSAEncryption
        Issuer: C=fr, ST=idf, L=paris, O=vitamui, OU=authorities, CN=ca_root_client-external
        Validity
            Not Before: Apr 21 08:36:31 2020 GMT
            Not After : Apr 19 08:36:31 2030 GMT
        Subject: C=fr, ST=idf, L=paris, O=vitamui, OU=authorities, CN=ca_root_client-external
        Subject Public Key Info:
            Public Key Algorithm: rsaEncryption
                RSA Public-Key: (4096 bit)
                Modulus:
                    00:c0:b0:f3:50:82:34:9c:99:ef:9b:23:e4:68:49:
                    04:91:78:80:9d:ab:35:55:c4:73:c4:4e:58:4c:a4:
                    3b:d9:ea:91:60:75:12:f7:fd:b6:52:e8:94:79:60:
                    55:fd:ff:20:70:7f:c7:70:06:10:05:70:b9:ae:2d:
                    77:a9:d7:da:b3:a5:b2:2d:a2:19:1a:d0:fa:8d:9c:
                    64:83:e5:f5:10:d1:90:10:7b:a7:86:2a:65:7c:40:
                    3c:86:b0:fa:c0:4b:a9:72:b2:0d:c1:e4:4d:c9:9e:
                    50:d2:1b:8d:75:0b:09:88:3e:0d:61:6e:46:45:86:
                    7d:87:29:c3:0c:e3:1b:c8:43:d9:1d:cc:d7:e2:ba:
                    5c:72:ff:37:c1:e4:91:6e:96:b1:62:3d:dd:20:19:
                    19:d1:b0:3a:14:fb:26:33:06:a6:2e:61:93:0e:39:
                    31:19:ff:55:b1:04:77:30:21:11:b1:20:a6:91:0a:
                    15:27:3e:2a:d7:3a:d3:34:40:5f:04:60:69:3e:7f:
                    c1:72:96:ed:06:cd:4c:7a:bd:2c:e5:ee:c0:91:bb:
                    7c:aa:18:6e:9c:12:54:29:12:fa:95:4a:af:1f:0a:
                    f1:cd:35:be:a4:12:47:53:6b:fc:22:8a:cb:1d:dc:
                    19:30:68:00:7d:c3:c0:c6:b8:13:78:c8:f3:ae:40:
                    9f:fd:e2:4c:7a:76:6d:8f:31:d3:18:ac:7f:48:e6:
                    2a:77:17:85:ca:32:0b:9c:f9:d8:42:c3:94:2d:20:
                    88:91:f6:57:4a:aa:88:4a:b0:11:5d:77:7b:50:a7:
                    96:9d:c5:2a:44:1a:28:f0:b1:98:fd:a6:2a:c8:82:
                    f0:fd:10:99:fe:93:a1:ab:72:48:6d:f6:8d:09:b8:
                    f4:f4:62:f8:a9:78:34:79:69:2a:0a:14:a4:ae:ec:
                    6b:a2:2f:1d:42:e0:a7:26:c4:9e:65:36:01:2f:66:
                    1f:b8:ef:75:b4:d3:4b:e7:be:24:1b:fa:e9:85:60:
                    ed:e8:db:c5:c3:e9:0b:db:d6:da:69:07:bb:83:8e:
                    95:d0:82:45:be:c4:12:2e:f9:19:23:b6:92:78:e6:
                    c4:eb:9d:66:fd:c1:ab:e2:2f:12:73:9b:4d:bd:6b:
                    37:d1:53:b1:4b:8f:48:5d:58:dc:fe:b5:50:00:75:
                    ef:24:7a:9e:bc:9f:f5:38:60:06:09:1f:75:94:be:
                    d8:1a:94:14:b1:8c:21:df:e5:d5:c1:ef:63:58:4d:
                    3f:4c:78:22:fe:5d:44:42:c3:98:68:fd:cd:1a:3b:
                    78:98:1e:f1:1c:c3:f9:42:fc:3e:6d:62:b2:ee:c9:
                    e4:0c:a0:f7:7d:36:28:b8:53:bd:de:40:4d:1a:c3:
                    01:b7:cd
                Exponent: 65537 (0x10001)
        X509v3 extensions:
            Netscape Comment: 
                CA Root
            X509v3 Subject Key Identifier: 
                A3:A6:B9:75:15:F1:2E:70:B1:23:91:D2:3C:61:41:FB:55:F1:97:9B
            X509v3 Authority Key Identifier: 
                keyid:A3:A6:B9:75:15:F1:2E:70:B1:23:91:D2:3C:61:41:FB:55:F1:97:9B

            X509v3 Basic Constraints: critical
                CA:TRUE, pathlen:1
            X509v3 Key Usage: 
                Certificate Sign, CRL Sign
            Netscape Cert Type: 
                SSL CA
    Signature Algorithm: sha256WithRSAEncryption
         99:05:a9:46:6c:23:12:79:b5:04:bf:60:1f:3b:f4:3f:52:bd:
         9e:8d:b4:45:40:5f:c4:0d:25:9b:e4:2b:4c:0e:db:92:6e:2b:
         06:d8:79:59:64:42:b8:5a:56:d1:cc:a4:47:27:8d:41:38:b0:
         92:b8:e8:35:94:c1:28:c6:f9:bc:13:0e:5f:f4:d4:a3:2c:68:
         2c:16:b8:2c:4f:97:fc:ee:e3:ac:6d:8c:4e:8a:29:5e:e7:7a:
         89:6c:01:55:7f:fe:66:39:7f:a8:d7:f1:0f:e9:bb:8b:42:0a:
         55:0d:ce:e9:16:cc:97:77:3b:c2:cb:21:7b:cf:2a:7c:91:7b:
         32:cb:c8:b9:a8:6d:0f:46:dc:0d:f1:11:00:e0:53:9b:d2:77:
         8f:38:9d:c3:a7:74:e6:ab:20:96:27:58:c8:16:a4:91:2c:18:
         da:66:56:e4:c2:f9:e9:a0:14:d8:b6:18:55:2c:fe:26:87:f1:
         e3:5e:cc:2c:7b:db:8c:92:84:3e:48:b6:55:20:f8:24:61:8b:
         1a:9c:fb:32:0f:84:04:a5:71:dd:d9:0a:6d:66:f0:71:94:49:
         75:dc:ed:5f:37:4c:32:df:d5:e5:e7:dd:34:56:7e:28:f7:d0:
         05:42:97:46:3d:c2:60:13:5a:44:e2:5d:9e:46:d4:55:fa:19:
         36:ed:5e:8d:09:36:9d:35:2f:fb:b4:fa:31:ff:3b:2d:4d:60:
         ba:e3:31:28:b5:cc:a6:5c:c2:9f:14:a1:b7:3e:0f:b5:d0:0b:
         da:db:60:56:4b:26:1a:43:ae:67:92:aa:4e:72:47:1b:2b:4a:
         67:e1:92:18:ea:78:ac:74:ca:1b:84:4b:a7:aa:5e:d1:db:ff:
         da:13:71:63:31:43:4b:c0:43:4c:62:87:85:fc:74:28:fa:7b:
         c2:19:41:97:01:fc:07:ab:16:70:77:ff:8e:ed:67:d6:b4:cb:
         3c:c2:8b:5d:7c:b0:ed:79:04:25:80:f2:a6:ed:78:91:29:1f:
         dc:74:86:a7:d9:68:35:a0:fd:08:01:df:fa:94:04:7b:f5:46:
         4c:45:ca:6b:71:6e:ad:b0:a9:64:f3:0d:b8:88:2d:bc:04:3d:
         f0:a1:ee:33:03:e9:43:54:f1:9a:90:bd:2a:a9:0f:8d:90:b4:
         46:56:1c:10:cf:81:0e:bd:b5:51:f4:99:2b:59:09:35:d5:f4:
         6a:6f:77:62:45:26:c1:d4:5d:82:55:40:81:46:aa:f8:1b:16:
         ae:c5:76:db:fd:8f:13:68:ef:10:6a:71:b6:14:c7:48:32:34:
         b7:2a:09:a9:15:d8:3c:95:2f:26:53:8d:91:9c:36:b1:93:08:
         4e:f6:b8:36:da:f5:67:91
-----BEGIN CERTIFICATE-----
MIIF9TCCA92gAwIBAgIBATANBgkqhkiG9w0BAQsFADB1MQswCQYDVQQGEwJmcjEM
MAoGA1UECAwDaWRmMQ4wDAYDVQQHDAVwYXJpczEQMA4GA1UECgwHdml0YW11aTEU
MBIGA1UECwwLYXV0aG9yaXRpZXMxIDAeBgNVBAMMF2NhX3Jvb3RfY2xpZW50LWV4
dGVybmFsMB4XDTIwMDQyMTA4MzYzMVoXDTMwMDQxOTA4MzYzMVowdTELMAkGA1UE
BhMCZnIxDDAKBgNVBAgMA2lkZjEOMAwGA1UEBwwFcGFyaXMxEDAOBgNVBAoMB3Zp
dGFtdWkxFDASBgNVBAsMC2F1dGhvcml0aWVzMSAwHgYDVQQDDBdjYV9yb290X2Ns
aWVudC1leHRlcm5hbDCCAiIwDQYJKoZIhvcNAQEBBQADggIPADCCAgoCggIBAMCw
81CCNJyZ75sj5GhJBJF4gJ2rNVXEc8ROWEykO9nqkWB1Evf9tlLolHlgVf3/IHB/
x3AGEAVwua4td6nX2rOlsi2iGRrQ+o2cZIPl9RDRkBB7p4YqZXxAPIaw+sBLqXKy
DcHkTcmeUNIbjXULCYg+DWFuRkWGfYcpwwzjG8hD2R3M1+K6XHL/N8HkkW6WsWI9
3SAZGdGwOhT7JjMGpi5hkw45MRn/VbEEdzAhEbEgppEKFSc+Ktc60zRAXwRgaT5/
wXKW7QbNTHq9LOXuwJG7fKoYbpwSVCkS+pVKrx8K8c01vqQSR1Nr/CKKyx3cGTBo
AH3DwMa4E3jI865An/3iTHp2bY8x0xisf0jmKncXhcoyC5z52ELDlC0giJH2V0qq
iEqwEV13e1Cnlp3FKkQaKPCxmP2mKsiC8P0Qmf6ToatySG32jQm49PRi+Kl4NHlp
KgoUpK7sa6IvHULgpybEnmU2AS9mH7jvdbTTS+e+JBv66YVg7ejbxcPpC9vW2mkH
u4OOldCCRb7EEi75GSO2knjmxOudZv3Bq+IvEnObTb1rN9FTsUuPSF1Y3P61UAB1
7yR6nryf9ThgBgkfdZS+2BqUFLGMId/l1cHvY1hNP0x4Iv5dRELDmGj9zRo7eJge
8RzD+UL8Pm1isu7J5Ayg9302KLhTvd5ATRrDAbfNAgMBAAGjgY8wgYwwFgYJYIZI
AYb4QgENBAkWB0NBIFJvb3QwHQYDVR0OBBYEFKOmuXUV8S5wsSOR0jxhQftV8Zeb
MB8GA1UdIwQYMBaAFKOmuXUV8S5wsSOR0jxhQftV8ZebMBIGA1UdEwEB/wQIMAYB
Af8CAQEwCwYDVR0PBAQDAgEGMBEGCWCGSAGG+EIBAQQEAwICBDANBgkqhkiG9w0B
AQsFAAOCAgEAmQWpRmwjEnm1BL9gHzv0P1K9no20RUBfxA0lm+QrTA7bkm4rBth5
WWRCuFpW0cykRyeNQTiwkrjoNZTBKMb5vBMOX/TUoyxoLBa4LE+X/O7jrG2MToop
Xud6iWwBVX/+Zjl/qNfxD+m7i0IKVQ3O6RbMl3c7wsshe88qfJF7MsvIuahtD0bc
DfERAOBTm9J3jzidw6d05qsglidYyBakkSwY2mZW5ML56aAU2LYYVSz+Jofx417M
LHvbjJKEPki2VSD4JGGLGpz7Mg+EBKVx3dkKbWbwcZRJddztXzdMMt/V5efdNFZ+
KPfQBUKXRj3CYBNaROJdnkbUVfoZNu1ejQk2nTUv+7T6Mf87LU1guuMxKLXMplzC
nxShtz4PtdAL2ttgVksmGkOuZ5KqTnJHGytKZ+GSGOp4rHTKG4RLp6pe0dv/2hNx
YzFDS8BDTGKHhfx0KPp7whlBlwH8B6sWcHf/ju1n1rTLPMKLXXyw7XkEJYDypu14
kSkf3HSGp9loNaD9CAHf+pQEe/VGTEXKa3FurbCpZPMNuIgtvAQ98KHuMwPpQ1Tx
mpC9KqkPjZC0RlYcEM+BDr21UfSZK1kJNdX0am93YkUmwdRdglVAgUaq+BsWrsV2
2/2PE2jvEGpxthTHSDI0tyoJqRXYPJUvJlONkZw2sZMITva4Ntr1Z5E=
-----END CERTIFICATE-----
