Certificate:
    Data:
        Version: 3 (0x2)
        Serial Number: 4 (0x4)
        Signature Algorithm: sha256WithRSAEncryption
        Issuer: C=fr, ST=idf, L=paris, O=vitamui, OU=authorities, CN=ca_intermediate_client-external
        Validity
            Not Before: May  5 11:44:25 2020 GMT
            Not After : May  5 11:44:25 2023 GMT
        Subject: C=fr, ST=idf, L=paris, O=vitamui, CN=customer_x
        Subject Public Key Info:
            Public Key Algorithm: rsaEncryption
                RSA Public-Key: (4096 bit)
                Modulus:
                    00:9c:ef:bc:79:7f:77:69:4d:1b:c6:9f:25:a8:d1:
                    2e:d8:4a:09:02:5d:89:8a:a4:c4:eb:c8:36:7f:1a:
                    e9:16:07:e7:08:7b:76:7b:8c:9e:25:8a:a8:e1:5c:
                    80:99:15:ad:5c:29:98:ac:a7:5d:9d:23:c9:16:54:
                    74:fc:d0:ba:2b:7e:ed:8a:60:11:9d:3d:ea:a7:34:
                    4f:03:8b:5e:7d:a7:22:e4:b0:50:f1:6f:0b:c8:60:
                    b9:61:35:dd:f1:27:ef:3d:ee:b2:f8:0c:8f:df:b7:
                    dd:1f:9d:67:9f:5b:cf:bc:9e:82:16:08:cd:81:41:
                    4b:c9:3c:10:7c:10:1f:29:14:53:0d:bc:67:15:de:
                    52:c0:78:d5:05:ae:29:43:67:1e:21:e0:6f:9f:bd:
                    db:af:c0:0a:f8:e2:13:e4:24:f2:45:4e:b9:40:69:
                    06:4f:74:5b:68:fb:dd:4f:e2:10:14:cc:fb:57:13:
                    a6:1f:b9:3a:9f:9f:e0:a5:30:df:3b:81:88:97:5b:
                    8b:f9:a9:77:a0:a4:96:52:7d:14:1e:7b:de:93:6d:
                    71:a6:a8:0c:5c:f5:a5:66:54:d0:e0:57:fd:d2:ce:
                    0d:c0:2f:f6:20:76:86:d4:8a:da:0d:5a:11:09:bb:
                    06:68:39:31:c9:c3:95:a6:49:a7:68:54:0d:1a:ff:
                    0e:c2:19:51:4a:c9:48:bf:51:fe:e7:e1:fe:c7:fc:
                    62:22:bd:91:83:9d:e9:f8:41:ca:47:97:3f:1f:17:
                    ba:5b:35:98:fc:62:95:77:f9:ed:70:87:9a:d6:0d:
                    29:51:97:45:89:a8:0a:c4:80:21:2c:35:07:e4:7d:
                    0a:4d:85:6a:b4:1e:37:15:65:4e:57:38:f4:1c:0b:
                    d7:96:23:2e:ca:c3:00:90:b9:9d:f2:8d:f2:5e:81:
                    7c:09:80:70:77:18:7f:a1:c5:77:30:2b:c9:72:a4:
                    48:fb:d7:47:6c:ad:1a:d4:be:06:3d:19:98:94:7b:
                    39:64:06:ae:aa:d3:d2:c7:a4:a4:5f:15:e9:34:28:
                    09:54:d7:2b:c1:38:57:aa:54:0b:67:db:06:b4:49:
                    44:8f:fe:2d:b4:08:b1:82:0d:3b:aa:d2:a3:ca:8a:
                    3d:ba:bc:16:ab:1b:49:2e:10:41:e0:1a:b8:64:6f:
                    7f:ba:56:9d:47:60:7f:63:7d:79:22:4b:da:db:15:
                    70:7a:af:3d:16:57:60:ed:e7:06:f3:cd:66:c0:4f:
                    68:be:66:ca:48:fb:97:bd:92:c0:4c:2d:e7:f7:2c:
                    8f:00:15:b6:4d:a0:55:f9:9c:df:59:de:2c:42:bf:
                    11:a2:fa:f0:92:ee:cd:c5:8d:32:2d:dc:87:47:2c:
                    29:4d:df
                Exponent: 65537 (0x10001)
        X509v3 extensions:
            Netscape Comment: 
                Certificat Client SSL
            X509v3 Subject Key Identifier: 
                42:F9:82:F1:31:2B:CE:2E:21:E3:74:11:ED:C3:8D:46:B4:B3:1A:CE
            X509v3 Authority Key Identifier: 
                keyid:79:40:DE:1C:BE:4E:6F:37:00:94:B1:23:B1:2F:44:D5:C4:3E:7A:EF
                DirName:/C=fr/ST=idf/L=paris/O=vitamui/OU=authorities/CN=ca_root_client-external
                serial:02

            X509v3 Issuer Alternative Name: 
                <EMPTY>

            X509v3 Basic Constraints: critical
                CA:FALSE
            X509v3 Key Usage: 
                Digital Signature
            Netscape Cert Type: 
                SSL Client
            X509v3 Extended Key Usage: 
                TLS Web Client Authentication
    Signature Algorithm: sha256WithRSAEncryption
         60:46:8d:b4:3b:92:1c:a3:d1:2d:8f:a6:71:f4:68:ce:df:3f:
         87:06:52:d9:ce:b7:d0:d2:cb:4b:fb:0e:b6:8d:ea:94:95:77:
         5b:57:5b:e6:bc:ea:61:b8:f7:ab:8a:f3:1c:30:89:77:47:05:
         d6:e4:1d:1e:7a:47:7d:d2:e4:3f:50:03:6a:b7:93:3f:c5:ef:
         2c:ee:8b:81:45:30:34:5a:11:c9:5b:a4:1a:d5:c5:5b:c3:66:
         ba:88:74:e5:55:14:4f:86:7b:a8:e2:5d:89:1d:c7:cd:b7:25:
         35:08:39:21:9f:34:54:90:92:7c:a0:3d:85:cf:ec:38:d8:7a:
         0b:18:39:b1:89:bb:e9:98:81:b6:3e:4e:09:54:bd:d8:89:90:
         2a:42:af:40:95:db:84:0d:f8:ca:5f:c5:8b:a8:29:56:0e:06:
         57:45:0b:4c:64:44:56:ad:ee:d5:26:05:3c:9f:a6:3a:e4:6c:
         e4:e1:91:58:43:a8:23:3f:14:da:24:16:31:94:a8:87:4f:a9:
         8f:6a:ef:37:06:21:3e:2a:3d:53:fd:0d:14:f6:92:2d:06:75:
         8e:89:47:b9:d8:21:da:a9:b8:8c:4d:59:5c:4e:41:d5:f0:8c:
         78:64:f4:ba:2d:aa:04:91:c9:85:5c:7e:eb:ed:10:d5:f6:53:
         29:9e:79:64:f8:9b:76:49:df:d9:15:e9:8a:c3:2e:ab:ae:7b:
         e7:e9:83:00:77:0c:df:b8:6d:05:41:b3:80:fa:bf:1f:31:82:
         91:e5:81:f7:8f:4c:01:6c:e1:88:b3:e3:ba:a3:8f:32:ac:1a:
         d5:b9:67:93:16:ad:28:9a:93:0f:e6:25:b0:cd:62:d5:69:ea:
         dd:33:70:c1:54:1c:7f:da:cd:8e:fd:17:30:ed:97:be:ba:dd:
         69:a3:63:72:a9:d4:c0:58:3e:fb:d1:8a:ca:97:aa:a5:77:fb:
         2f:0a:63:8a:5f:ad:4d:9c:53:5b:55:41:2b:71:47:76:95:6d:
         5f:fa:6a:99:19:b9:fe:18:3c:f9:32:de:2f:d5:7c:07:63:62:
         cb:50:13:5e:38:04:68:c4:aa:15:3c:45:b5:c5:3a:cf:ed:ea:
         38:9a:5b:d6:26:c3:45:9f:da:d8:6d:61:b4:1c:b9:99:e5:07:
         49:31:75:cd:dc:a8:5a:90:13:47:18:8d:59:55:65:ec:61:4d:
         3e:d6:1a:07:f0:2e:12:5b:f2:5e:1c:42:d4:4f:ed:6a:ba:60:
         f7:6d:e3:da:61:a7:d8:32:7b:5c:b6:5b:f4:69:42:cb:14:69:
         3b:b6:f8:a1:3b:00:6d:54:0d:fc:28:70:7c:94:3a:ff:f0:e1:
         b3:81:65:1d:c3:bc:c5:45
-----BEGIN CERTIFICATE-----
MIIGhTCCBG2gAwIBAgIBBDANBgkqhkiG9w0BAQsFADB9MQswCQYDVQQGEwJmcjEM
MAoGA1UECAwDaWRmMQ4wDAYDVQQHDAVwYXJpczEQMA4GA1UECgwHdml0YW11aTEU
MBIGA1UECwwLYXV0aG9yaXRpZXMxKDAmBgNVBAMMH2NhX2ludGVybWVkaWF0ZV9j
bGllbnQtZXh0ZXJuYWwwHhcNMjAwNTA1MTE0NDI1WhcNMjMwNTA1MTE0NDI1WjBS
MQswCQYDVQQGEwJmcjEMMAoGA1UECAwDaWRmMQ4wDAYDVQQHDAVwYXJpczEQMA4G
A1UECgwHdml0YW11aTETMBEGA1UEAwwKY3VzdG9tZXJfeDCCAiIwDQYJKoZIhvcN
AQEBBQADggIPADCCAgoCggIBAJzvvHl/d2lNG8afJajRLthKCQJdiYqkxOvINn8a
6RYH5wh7dnuMniWKqOFcgJkVrVwpmKynXZ0jyRZUdPzQuit+7YpgEZ096qc0TwOL
Xn2nIuSwUPFvC8hguWE13fEn7z3usvgMj9+33R+dZ59bz7yeghYIzYFBS8k8EHwQ
HykUUw28ZxXeUsB41QWuKUNnHiHgb5+926/ACvjiE+Qk8kVOuUBpBk90W2j73U/i
EBTM+1cTph+5Op+f4KUw3zuBiJdbi/mpd6CkllJ9FB573pNtcaaoDFz1pWZU0OBX
/dLODcAv9iB2htSK2g1aEQm7Bmg5McnDlaZJp2hUDRr/DsIZUUrJSL9R/ufh/sf8
YiK9kYOd6fhBykeXPx8Xuls1mPxilXf57XCHmtYNKVGXRYmoCsSAISw1B+R9Ck2F
arQeNxVlTlc49BwL15YjLsrDAJC5nfKN8l6BfAmAcHcYf6HFdzAryXKkSPvXR2yt
GtS+Bj0ZmJR7OWQGrqrT0sekpF8V6TQoCVTXK8E4V6pUC2fbBrRJRI/+LbQIsYIN
O6rSo8qKPbq8FqsbSS4QQeAauGRvf7pWnUdgf2N9eSJL2tsVcHqvPRZXYO3nBvPN
ZsBPaL5mykj7l72SwEwt5/csjwAVtk2gVfmc31neLEK/EaL68JLuzcWNMi3ch0cs
KU3fAgMBAAGjggE5MIIBNTAkBglghkgBhvhCAQ0EFxYVQ2VydGlmaWNhdCBDbGll
bnQgU1NMMB0GA1UdDgQWBBRC+YLxMSvOLiHjdBHtw41GtLMazjCBnwYDVR0jBIGX
MIGUgBR5QN4cvk5vNwCUsSOxL0TVxD5676F5pHcwdTELMAkGA1UEBhMCZnIxDDAK
BgNVBAgMA2lkZjEOMAwGA1UEBwwFcGFyaXMxEDAOBgNVBAoMB3ZpdGFtdWkxFDAS
BgNVBAsMC2F1dGhvcml0aWVzMSAwHgYDVQQDDBdjYV9yb290X2NsaWVudC1leHRl
cm5hbIIBAjAJBgNVHRIEAjAAMAwGA1UdEwEB/wQCMAAwCwYDVR0PBAQDAgeAMBEG
CWCGSAGG+EIBAQQEAwIHgDATBgNVHSUEDDAKBggrBgEFBQcDAjANBgkqhkiG9w0B
AQsFAAOCAgEAYEaNtDuSHKPRLY+mcfRozt8/hwZS2c630NLLS/sOto3qlJV3W1db
5rzqYbj3q4rzHDCJd0cF1uQdHnpHfdLkP1ADareTP8XvLO6LgUUwNFoRyVukGtXF
W8Nmuoh05VUUT4Z7qOJdiR3HzbclNQg5IZ80VJCSfKA9hc/sONh6Cxg5sYm76ZiB
tj5OCVS92ImQKkKvQJXbhA34yl/Fi6gpVg4GV0ULTGREVq3u1SYFPJ+mOuRs5OGR
WEOoIz8U2iQWMZSoh0+pj2rvNwYhPio9U/0NFPaSLQZ1jolHudgh2qm4jE1ZXE5B
1fCMeGT0ui2qBJHJhVx+6+0Q1fZTKZ55ZPibdknf2RXpisMuq6575+mDAHcM37ht
BUGzgPq/HzGCkeWB949MAWzhiLPjuqOPMqwa1blnkxatKJqTD+YlsM1i1Wnq3TNw
wVQcf9rNjv0XMO2XvrrdaaNjcqnUwFg++9GKypeqpXf7Lwpjil+tTZxTW1VBK3FH
dpVtX/pqmRm5/hg8+TLeL9V8B2Niy1ATXjgEaMSqFTxFtcU6z+3qOJpb1ibDRZ/a
2G1htBy5meUHSTF1zdyoWpATRxiNWVVl7GFNPtYaB/AuElvyXhxC1E/tarpg923j
2mGn2DJ7XLZb9GlCyxRpO7b4oTsAbVQN/ChwfJQ6//Dhs4FlHcO8xUU=
-----END CERTIFICATE-----
