Certificate:
    Data:
        Version: 3 (0x2)
        Serial Number: 3 (0x3)
        Signature Algorithm: sha256WithRSAEncryption
        Issuer: C=fr, ST=idf, L=paris, O=vitamui, OU=authorities, CN=ca_intermediate_client-external
        Validity
            Not Before: Apr 21 08:37:59 2020 GMT
            Not After : Apr 21 08:37:59 2023 GMT
        Subject: C=fr, ST=idf, L=paris, O=vitamui, CN=customer_x
        Subject Public Key Info:
            Public Key Algorithm: rsaEncryption
                RSA Public-Key: (4096 bit)
                Modulus:
                    00:db:c8:71:74:06:17:ca:f2:b8:a5:3a:56:72:09:
                    eb:af:3a:24:df:fd:61:dc:e2:3c:48:a3:04:80:80:
                    51:b9:15:48:15:50:52:57:1f:94:99:8e:71:8d:ad:
                    a0:9a:e2:c8:46:b2:f4:b0:1e:f3:20:6c:6c:60:bd:
                    08:3c:e1:e5:bd:cb:de:4b:91:45:69:4f:c4:df:2b:
                    13:fe:84:7b:6e:5f:18:5b:49:cb:b7:9b:09:53:d2:
                    18:68:1e:85:46:e0:7c:4b:e9:d9:e5:f4:f9:ea:cf:
                    97:e0:a1:ab:25:dd:de:cc:03:2e:5e:e8:29:15:ac:
                    11:37:40:e6:9e:73:ca:91:74:02:ea:58:da:91:b1:
                    ac:1b:7c:29:65:ca:39:52:0e:03:87:e8:f9:55:bd:
                    85:26:2a:f0:3a:c8:5f:0e:68:75:8b:81:a1:43:4e:
                    7f:1c:b5:c2:3e:c1:5e:94:f8:cc:c4:33:82:2e:09:
                    63:66:eb:e9:32:2b:b8:55:58:09:c9:92:0a:e8:ce:
                    45:fd:0e:61:0d:31:e4:6c:ae:21:c9:da:1c:1c:87:
                    57:b8:9b:03:e9:c8:4c:6a:a9:db:17:7d:63:54:bd:
                    bd:ff:d2:b2:6f:70:a9:5b:69:d0:c7:4e:32:28:bd:
                    dc:24:c9:d7:8a:75:42:f1:10:5e:b1:a7:5b:78:6f:
                    fd:9d:56:4b:c1:d1:13:c2:62:82:e2:39:de:4e:10:
                    56:c1:65:ce:ee:c9:75:e5:a5:02:88:ba:64:71:13:
                    ef:7c:39:d7:e0:2f:c4:aa:17:61:f6:4e:2c:98:da:
                    98:a0:bf:91:d8:7e:cb:f5:e1:57:df:2a:51:fb:34:
                    8b:88:68:ad:52:fd:28:91:a4:6a:4e:02:e3:cd:ee:
                    68:53:51:c0:fc:e5:ab:89:f5:63:e4:94:8b:10:1c:
                    b3:9d:6e:38:47:a4:fa:64:b6:d9:07:c8:21:61:ee:
                    88:36:a2:f7:ca:30:bd:4c:5f:1e:6c:2a:fd:0c:14:
                    b5:0b:e4:4b:89:0a:d0:42:dc:1c:aa:4a:b2:ec:94:
                    11:8a:f3:a3:26:b3:3f:36:be:37:21:36:d1:7f:fe:
                    6a:45:0e:c7:59:51:62:ee:1a:17:b1:7f:f6:12:d3:
                    dc:31:04:09:c5:a3:84:c7:af:0c:85:f6:ab:31:b4:
                    2d:0b:67:02:89:1d:98:47:2f:46:76:f5:3a:e4:2b:
                    e4:9b:d6:fa:75:95:c1:05:6a:1e:45:50:27:e1:ae:
                    92:37:a6:a3:8f:b2:6f:e5:56:87:48:d9:2d:aa:bf:
                    bc:04:67:52:16:bd:86:a4:4d:04:f6:38:fb:0b:67:
                    74:e8:41:c1:e9:01:18:f6:56:2a:31:b9:d1:a2:bd:
                    9f:7a:dd
                Exponent: 65537 (0x10001)
        X509v3 extensions:
            Netscape Comment: 
                Certificat Client SSL
            X509v3 Subject Key Identifier: 
                F1:A4:88:63:C3:0F:39:53:46:AC:5B:6D:C1:C8:61:D0:CE:B4:44:97
            X509v3 Authority Key Identifier: 
                keyid:CA:45:36:B6:48:CB:67:A6:DB:4A:A9:40:88:3D:46:BA:8C:7B:1F:6B
                DirName:/C=fr/ST=idf/L=paris/O=vitamui/OU=authorities/CN=ca_root_client-external
                serial:02

            X509v3 Issuer Alternative Name: 
                <EMPTY>

            X509v3 Basic Constraints: critical
                CA:FALSE
            X509v3 Key Usage: 
                Digital Signature
            Netscape Cert Type: 
                SSL Client
            X509v3 Extended Key Usage: 
                TLS Web Client Authentication
    Signature Algorithm: sha256WithRSAEncryption
         35:0c:98:53:ec:d7:73:09:4f:d1:cc:b5:ad:c2:67:af:1c:a3:
         dd:64:37:58:e6:97:ab:c0:e1:7f:30:21:13:a8:99:ad:88:2d:
         bf:3f:57:12:28:4e:21:14:47:33:ae:c2:7e:99:80:9e:0a:19:
         78:ed:bf:38:c9:8a:76:b2:db:9e:b7:63:81:0e:5b:0c:0f:ed:
         b7:00:ff:e9:e8:0f:bb:7d:fd:ab:af:5e:45:2d:8e:ea:37:84:
         06:6a:46:ff:d8:b3:7c:d0:3d:53:b8:1a:5f:17:e6:95:c7:cf:
         d2:84:2f:c1:fa:d5:2a:d9:b3:31:55:0b:d7:81:30:0d:9a:60:
         b6:0e:10:a5:63:62:03:aa:4f:bf:13:e5:a1:5b:28:6a:b2:22:
         e0:14:d5:2f:25:3b:31:c5:6a:16:0d:db:04:6b:88:81:67:46:
         87:de:fb:e3:21:f9:42:87:9c:89:e0:a7:0d:d4:98:11:62:97:
         20:27:89:43:ea:24:1e:f4:de:12:f5:79:bd:3d:b4:7e:d2:70:
         bb:52:d8:44:e2:b6:14:a3:6e:47:60:9a:cd:1f:7f:38:bf:bd:
         23:0c:48:3f:c3:07:ad:81:0d:a2:41:1d:82:93:de:52:10:58:
         97:6d:e2:55:94:07:18:fe:66:00:64:89:93:d0:5a:62:0d:ad:
         65:1f:54:78:28:f5:be:5f:4a:51:d2:62:e5:5e:7e:bd:7e:d1:
         a3:22:bb:43:27:66:2f:46:15:64:6e:ba:f7:90:e2:38:39:be:
         6e:d8:93:e5:86:91:b6:cb:b1:90:49:bd:3b:62:4d:4b:87:f8:
         a8:27:59:44:b5:18:41:ab:47:6f:66:b5:e1:8d:af:76:fc:c7:
         bd:a7:9f:65:98:0b:d2:f3:bc:9e:1e:d8:76:21:54:00:8b:5d:
         2e:27:61:78:1c:cd:a0:a5:2c:b7:5f:e7:be:d6:c2:f0:41:3e:
         d5:57:03:15:7c:7c:52:75:81:06:77:ce:77:0d:c6:46:17:fc:
         f3:bc:e2:59:2f:7f:2f:50:6a:67:c1:72:c6:d7:01:82:13:38:
         10:2a:06:d4:86:df:2f:5a:0e:5a:d7:a8:13:e5:9b:f9:df:3c:
         3e:71:31:8d:f6:bd:8c:35:bc:d3:18:c2:09:e5:76:a1:71:19:
         07:22:cc:a0:78:fb:3f:be:dc:c8:40:89:44:81:33:ea:32:ae:
         cd:06:c6:02:c1:bb:80:62:02:21:e1:fb:f2:16:e8:23:a1:17:
         08:d1:1c:d8:a4:ba:9b:ae:50:5b:d4:2d:92:9e:31:08:25:1f:
         75:b0:4d:01:5d:1c:0e:0e:6a:e1:e4:7e:bb:e8:4d:c8:2c:7f:
         7e:83:75:1e:9b:d2:83:f3
-----BEGIN CERTIFICATE-----
MIIGhTCCBG2gAwIBAgIBAzANBgkqhkiG9w0BAQsFADB9MQswCQYDVQQGEwJmcjEM
MAoGA1UECAwDaWRmMQ4wDAYDVQQHDAVwYXJpczEQMA4GA1UECgwHdml0YW11aTEU
MBIGA1UECwwLYXV0aG9yaXRpZXMxKDAmBgNVBAMMH2NhX2ludGVybWVkaWF0ZV9j
bGllbnQtZXh0ZXJuYWwwHhcNMjAwNDIxMDgzNzU5WhcNMjMwNDIxMDgzNzU5WjBS
MQswCQYDVQQGEwJmcjEMMAoGA1UECAwDaWRmMQ4wDAYDVQQHDAVwYXJpczEQMA4G
A1UECgwHdml0YW11aTETMBEGA1UEAwwKY3VzdG9tZXJfeDCCAiIwDQYJKoZIhvcN
AQEBBQADggIPADCCAgoCggIBANvIcXQGF8ryuKU6VnIJ6686JN/9YdziPEijBICA
UbkVSBVQUlcflJmOcY2toJriyEay9LAe8yBsbGC9CDzh5b3L3kuRRWlPxN8rE/6E
e25fGFtJy7ebCVPSGGgehUbgfEvp2eX0+erPl+ChqyXd3swDLl7oKRWsETdA5p5z
ypF0AupY2pGxrBt8KWXKOVIOA4fo+VW9hSYq8DrIXw5odYuBoUNOfxy1wj7BXpT4
zMQzgi4JY2br6TIruFVYCcmSCujORf0OYQ0x5GyuIcnaHByHV7ibA+nITGqp2xd9
Y1S9vf/Ssm9wqVtp0MdOMii93CTJ14p1QvEQXrGnW3hv/Z1WS8HRE8JiguI53k4Q
VsFlzu7JdeWlAoi6ZHET73w51+AvxKoXYfZOLJjamKC/kdh+y/XhV98qUfs0i4ho
rVL9KJGkak4C483uaFNRwPzlq4n1Y+SUixAcs51uOEek+mS22QfIIWHuiDai98ow
vUxfHmwq/QwUtQvkS4kK0ELcHKpKsuyUEYrzoyazPza+NyE20X/+akUOx1lRYu4a
F7F/9hLT3DEECcWjhMevDIX2qzG0LQtnAokdmEcvRnb1OuQr5JvW+nWVwQVqHkVQ
J+Gukjemo4+yb+VWh0jZLaq/vARnUha9hqRNBPY4+wtndOhBwekBGPZWKjG50aK9
n3rdAgMBAAGjggE5MIIBNTAkBglghkgBhvhCAQ0EFxYVQ2VydGlmaWNhdCBDbGll
bnQgU1NMMB0GA1UdDgQWBBTxpIhjww85U0asW23ByGHQzrRElzCBnwYDVR0jBIGX
MIGUgBTKRTa2SMtnpttKqUCIPUa6jHsfa6F5pHcwdTELMAkGA1UEBhMCZnIxDDAK
BgNVBAgMA2lkZjEOMAwGA1UEBwwFcGFyaXMxEDAOBgNVBAoMB3ZpdGFtdWkxFDAS
BgNVBAsMC2F1dGhvcml0aWVzMSAwHgYDVQQDDBdjYV9yb290X2NsaWVudC1leHRl
cm5hbIIBAjAJBgNVHRIEAjAAMAwGA1UdEwEB/wQCMAAwCwYDVR0PBAQDAgeAMBEG
CWCGSAGG+EIBAQQEAwIHgDATBgNVHSUEDDAKBggrBgEFBQcDAjANBgkqhkiG9w0B
AQsFAAOCAgEANQyYU+zXcwlP0cy1rcJnrxyj3WQ3WOaXq8DhfzAhE6iZrYgtvz9X
EihOIRRHM67CfpmAngoZeO2/OMmKdrLbnrdjgQ5bDA/ttwD/6egPu339q69eRS2O
6jeEBmpG/9izfNA9U7gaXxfmlcfP0oQvwfrVKtmzMVUL14EwDZpgtg4QpWNiA6pP
vxPloVsoarIi4BTVLyU7McVqFg3bBGuIgWdGh9774yH5QoecieCnDdSYEWKXICeJ
Q+okHvTeEvV5vT20ftJwu1LYROK2FKNuR2CazR9/OL+9IwxIP8MHrYENokEdgpPe
UhBYl23iVZQHGP5mAGSJk9BaYg2tZR9UeCj1vl9KUdJi5V5+vX7RoyK7QydmL0YV
ZG6695DiODm+btiT5YaRtsuxkEm9O2JNS4f4qCdZRLUYQatHb2a14Y2vdvzHvaef
ZZgL0vO8nh7YdiFUAItdLidheBzNoKUst1/nvtbC8EE+1VcDFXx8UnWBBnfOdw3G
Rhf887ziWS9/L1BqZ8FyxtcBghM4ECoG1IbfL1oOWteoE+Wb+d88PnExjfa9jDW8
0xjCCeV2oXEZByLMoHj7P77cyECJRIEz6jKuzQbGAsG7gGICIeH78hboI6EXCNEc
2KS6m65QW9Qtkp4xCCUfdbBNAV0cDg5q4eR+u+hNyCx/foN1HpvSg/M=
-----END CERTIFICATE-----
