Certificate:
    Data:
        Version: 3 (0x2)
        Serial Number: 219 (0xdb)
    Signature Algorithm: sha256WithRSAEncryption
        Issuer: C=fr, ST=idf, L=paris, O=vitam, OU=authorities, CN=ca_root_timestamping
        Validity
            Not Before: Nov 22 08:53:40 2019 GMT
            Not After : Nov 19 08:53:40 2029 GMT
        Subject: C=fr, ST=idf, L=paris, O=vitam, OU=authorities, CN=ca_intermediate_timestamping
        Subject Public Key Info:
            Public Key Algorithm: rsaEncryption
                Public-Key: (4096 bit)
                Modulus:
                    00:a0:8c:9a:27:40:97:96:53:c5:31:f4:98:be:a2:
                    47:5c:52:6a:67:e1:43:4e:b9:fd:e5:aa:b1:58:18:
                    3d:94:f5:bd:d6:ea:a8:37:d9:82:a6:e3:94:20:b3:
                    63:89:7c:76:da:8e:50:e9:c7:c4:04:e3:62:2c:8f:
                    cb:ce:32:4a:3c:6e:5f:56:1e:87:58:c9:af:62:56:
                    90:6d:b9:b1:54:41:df:30:d1:90:f4:91:e3:16:0f:
                    4d:c2:ea:98:16:ff:93:2c:01:13:e9:c6:12:68:c0:
                    ff:15:be:21:be:c2:bc:be:db:4b:06:7d:95:a2:80:
                    87:b7:c5:cc:46:15:e7:19:fd:b3:3d:08:0e:34:66:
                    71:8c:3a:b7:b0:40:25:eb:96:02:d8:72:29:0d:fc:
                    f9:e7:35:58:1a:c5:87:0f:82:77:73:04:bd:4c:bc:
                    cb:19:18:2c:28:33:eb:53:3b:c7:98:64:da:3a:74:
                    af:42:a4:6d:64:d9:54:4a:1f:b8:7d:a2:d4:e4:01:
                    20:34:32:ca:20:c2:0e:0d:5c:d4:ec:94:fb:7d:c7:
                    7b:89:11:01:d4:32:bb:f8:22:d2:e3:3d:8a:b6:35:
                    7a:cc:3e:a5:ad:2e:35:23:12:33:53:37:d4:1f:7f:
                    b4:b3:ef:e5:21:b4:e5:0b:60:b1:10:8b:16:db:85:
                    14:c9:12:59:6e:ab:95:d2:85:61:a2:86:a9:2f:1d:
                    28:09:06:33:83:13:58:aa:73:0a:41:8a:b6:26:c6:
                    25:3b:02:38:06:54:7d:bb:d7:d0:16:a5:96:d8:13:
                    c8:75:8e:10:d0:6c:33:47:49:28:ae:8c:77:c5:9b:
                    09:56:6e:1e:5a:3a:f2:f9:36:01:fe:fa:7a:b6:7e:
                    a4:c8:6f:8c:87:f2:d8:55:c0:d3:ad:eb:8c:d8:bb:
                    fd:3d:f6:3b:62:af:bf:b1:e8:60:0b:7f:44:4e:a0:
                    f1:8b:40:22:80:37:9a:9a:b3:de:3e:fe:04:e5:85:
                    c9:58:8b:a1:18:6f:ea:cd:d8:99:e5:1a:4e:28:74:
                    a7:69:ca:de:2f:5c:38:a7:b4:a4:8f:9d:2d:6e:9d:
                    9b:43:90:85:91:55:7a:27:21:78:84:1b:b0:b6:1a:
                    2a:97:71:61:6b:8f:bb:c2:9f:aa:3f:08:1b:7a:98:
                    e0:17:77:83:21:36:3b:cb:96:f4:02:e0:a1:f7:98:
                    c1:65:ba:4a:d8:12:4d:13:75:1d:81:57:d8:62:f9:
                    cd:06:d3:96:73:61:a4:62:11:d3:1a:b3:9f:ed:a0:
                    0e:33:31:56:37:d4:28:c5:2d:8f:c8:7d:ad:79:80:
                    e0:17:a7:52:55:34:f4:e9:ca:0f:3f:a2:ce:f9:23:
                    49:57:61
                Exponent: 65537 (0x10001)
        X509v3 extensions:
            Netscape Comment:
                CA Intermediate
            X509v3 Subject Key Identifier:
                71:79:25:BD:14:A9:7A:A5:49:C3:F6:51:B7:B5:36:A4:D6:04:CF:2D
            X509v3 Authority Key Identifier:
                keyid:B3:B4:54:D9:35:6A:F9:9E:C8:65:00:11:20:7D:9A:66:30:96:14:D2
                DirName:/C=fr/ST=idf/L=paris/O=vitam/OU=authorities/CN=ca_root_timestamping
                serial:DA

            X509v3 Basic Constraints: critical
                CA:TRUE, pathlen:0
            X509v3 Issuer Alternative Name:
                <EMPTY>

            X509v3 Key Usage:
                Certificate Sign, CRL Sign
            Netscape Cert Type:
                SSL CA
    Signature Algorithm: sha256WithRSAEncryption
         9b:0e:95:5f:79:7e:a0:ef:bd:bb:79:05:14:79:55:e9:0d:e0:
         ba:6a:99:69:49:5e:ee:fe:b9:b5:9d:7f:ec:cc:fd:b9:2e:72:
         27:20:9a:03:57:e8:5b:af:fc:f8:36:2b:ad:21:f4:5b:31:46:
         6d:3a:92:c4:42:b5:09:e4:11:21:97:09:cd:72:71:ba:a1:25:
         fd:78:7a:73:b2:4a:a4:4a:53:a3:fa:ca:dc:f2:3c:03:c6:51:
         d8:34:f3:d8:e5:ef:c3:4c:28:26:8e:d9:95:75:fc:5a:3b:4f:
         18:9d:83:ef:b8:9f:09:3e:cc:26:e5:d6:b5:a7:6c:1e:c5:7a:
         88:63:2e:8b:e3:df:ba:0c:2a:41:0c:4b:53:30:a1:2c:48:c4:
         f9:43:c1:fd:a9:8a:9b:ed:8a:d6:0d:3c:cf:7f:25:23:c7:d1:
         6c:5e:3f:68:fc:b6:6b:6a:35:4d:7e:ea:42:6f:a6:a6:94:83:
         74:f8:29:32:0a:28:d3:03:31:3e:12:ed:35:07:e1:4f:4b:e5:
         49:52:e2:7e:22:31:b9:2d:c1:8b:14:47:f7:6d:90:82:28:e1:
         41:b5:f7:d8:26:60:84:12:56:ca:29:ec:f9:b5:34:b5:f7:cc:
         62:7f:6a:ef:a7:ff:05:01:64:32:8c:73:ea:e5:ad:8e:3b:17:
         04:e8:80:10:54:4d:f8:9f:f4:c5:d2:65:cd:60:e8:a9:3a:f7:
         72:c3:a6:49:1e:55:ff:f4:50:b7:d6:a4:d8:14:fb:17:fa:b1:
         29:ea:57:38:41:0a:05:4f:1e:68:70:bd:96:81:84:4e:1b:cd:
         3e:3a:43:28:6b:3c:6b:a7:1a:56:e6:cd:7d:a2:be:a8:c9:ff:
         54:b4:b6:10:af:77:4b:2b:3b:ee:57:8d:be:aa:33:60:05:ae:
         12:a2:56:58:47:42:61:72:71:33:cb:2a:31:c3:a3:aa:34:13:
         96:6f:8e:e5:ce:19:2f:20:9e:c5:bc:b1:c6:7b:df:49:fa:66:
         e8:30:14:0c:be:04:0e:60:57:c0:2f:66:eb:39:14:08:85:bd:
         9d:bd:70:7f:e9:28:2a:31:fe:61:d0:90:19:ee:27:f3:e1:e0:
         f1:16:95:1a:c5:ae:47:b0:71:0c:53:8f:87:a4:a1:6f:98:a0:
         05:64:36:ca:b9:35:10:69:aa:3d:a9:e6:1f:d2:79:5d:3a:d4:
         fe:59:92:b3:c7:26:94:26:58:d5:9e:91:87:31:ef:9a:56:f4:
         88:5a:b6:96:ff:82:2a:c4:84:06:b8:d2:cd:87:1c:9d:53:be:
         4d:ea:2c:67:6e:d3:52:ff:7d:d9:35:c3:3d:8a:9a:61:12:5d:
         e7:2a:0f:3b:a7:08:a7:ab
-----BEGIN CERTIFICATE-----
MIIGhjCCBG6gAwIBAgICANswDQYJKoZIhvcNAQELBQAwcDELMAkGA1UEBhMCZnIx
DDAKBgNVBAgMA2lkZjEOMAwGA1UEBwwFcGFyaXMxDjAMBgNVBAoMBXZpdGFtMRQw
EgYDVQQLDAthdXRob3JpdGllczEdMBsGA1UEAwwUY2Ffcm9vdF90aW1lc3RhbXBp
bmcwHhcNMTkxMTIyMDg1MzQwWhcNMjkxMTE5MDg1MzQwWjB4MQswCQYDVQQGEwJm
cjEMMAoGA1UECAwDaWRmMQ4wDAYDVQQHDAVwYXJpczEOMAwGA1UECgwFdml0YW0x
FDASBgNVBAsMC2F1dGhvcml0aWVzMSUwIwYDVQQDDBxjYV9pbnRlcm1lZGlhdGVf
dGltZXN0YW1waW5nMIICIjANBgkqhkiG9w0BAQEFAAOCAg8AMIICCgKCAgEAoIya
J0CXllPFMfSYvqJHXFJqZ+FDTrn95aqxWBg9lPW91uqoN9mCpuOUILNjiXx22o5Q
6cfEBONiLI/LzjJKPG5fVh6HWMmvYlaQbbmxVEHfMNGQ9JHjFg9NwuqYFv+TLAET
6cYSaMD/Fb4hvsK8vttLBn2VooCHt8XMRhXnGf2zPQgONGZxjDq3sEAl65YC2HIp
Dfz55zVYGsWHD4J3cwS9TLzLGRgsKDPrUzvHmGTaOnSvQqRtZNlUSh+4faLU5AEg
NDLKIMIODVzU7JT7fcd7iREB1DK7+CLS4z2KtjV6zD6lrS41IxIzUzfUH3+0s+/l
IbTlC2CxEIsW24UUyRJZbquV0oVhooapLx0oCQYzgxNYqnMKQYq2JsYlOwI4BlR9
u9fQFqWW2BPIdY4Q0GwzR0korox3xZsJVm4eWjry+TYB/vp6tn6kyG+Mh/LYVcDT
reuM2Lv9PfY7Yq+/sehgC39ETqDxi0AigDeamrPePv4E5YXJWIuhGG/qzdiZ5RpO
KHSnacreL1w4p7Skj50tbp2bQ5CFkVV6JyF4hBuwthoql3Fha4+7wp+qPwgbepjg
F3eDITY7y5b0AuCh95jBZbpK2BJNE3UdgVfYYvnNBtOWc2GkYhHTGrOf7aAOMzFW
N9QoxS2PyH2teYDgF6dSVTT06coPP6LO+SNJV2ECAwEAAaOCASAwggEcMB4GCWCG
SAGG+EIBDQQRFg9DQSBJbnRlcm1lZGlhdGUwHQYDVR0OBBYEFHF5Jb0UqXqlScP2
Ube1NqTWBM8tMIGbBgNVHSMEgZMwgZCAFLO0VNk1avmeyGUAESB9mmYwlhTSoXSk
cjBwMQswCQYDVQQGEwJmcjEMMAoGA1UECAwDaWRmMQ4wDAYDVQQHDAVwYXJpczEO
MAwGA1UECgwFdml0YW0xFDASBgNVBAsMC2F1dGhvcml0aWVzMR0wGwYDVQQDDBRj
YV9yb290X3RpbWVzdGFtcGluZ4ICANowEgYDVR0TAQH/BAgwBgEB/wIBADAJBgNV
HRIEAjAAMAsGA1UdDwQEAwIBBjARBglghkgBhvhCAQEEBAMCAgQwDQYJKoZIhvcN
AQELBQADggIBAJsOlV95fqDvvbt5BRR5VekN4LpqmWlJXu7+ubWdf+zM/bkucicg
mgNX6Fuv/Pg2K60h9FsxRm06ksRCtQnkESGXCc1ycbqhJf14enOySqRKU6P6ytzy
PAPGUdg089jl78NMKCaO2ZV1/Fo7Txidg++4nwk+zCbl1rWnbB7FeohjLovj37oM
KkEMS1MwoSxIxPlDwf2pipvtitYNPM9/JSPH0WxeP2j8tmtqNU1+6kJvpqaUg3T4
KTIKKNMDMT4S7TUH4U9L5UlS4n4iMbktwYsUR/dtkIIo4UG199gmYIQSVsop7Pm1
NLX3zGJ/au+n/wUBZDKMc+rlrY47FwTogBBUTfif9MXSZc1g6Kk693LDpkkeVf/0
ULfWpNgU+xf6sSnqVzhBCgVPHmhwvZaBhE4bzT46QyhrPGunGlbmzX2ivqjJ/1S0
thCvd0srO+5Xjb6qM2AFrhKiVlhHQmFycTPLKjHDo6o0E5ZvjuXOGS8gnsW8scZ7
30n6ZugwFAy+BA5gV8AvZus5FAiFvZ29cH/pKCox/mHQkBnuJ/Ph4PEWlRrFrkew
cQxTj4ekoW+YoAVkNsq5NRBpqj2p5h/SeV061P5ZkrPHJpQmWNWekYcx75pW9Iha
tpb/girEhAa40s2HHJ1Tvk3qLGdu01L/fdk1wz2KmmESXecqDzunCKer
-----END CERTIFICATE-----
