Certificate:
    Data:
        Version: 3 (0x2)
        Serial Number: 218 (0xda)
    Signature Algorithm: sha256WithRSAEncryption
        Issuer: C=fr, ST=idf, L=paris, O=vitam, OU=authorities, CN=ca_root_timestamping
        Validity
            Not Before: Nov 22 08:53:39 2019 GMT
            Not After : Nov 19 08:53:39 2029 GMT
        Subject: C=fr, ST=idf, L=paris, O=vitam, OU=authorities, CN=ca_root_timestamping
        Subject Public Key Info:
            Public Key Algorithm: rsaEncryption
                Public-Key: (4096 bit)
                Modulus:
                    00:ba:75:32:29:cb:32:26:58:92:65:29:35:d3:a9:
                    bc:72:7a:1d:3d:5d:f5:5d:bd:b5:5f:a8:7c:05:c7:
                    58:80:1b:75:a9:33:b4:50:a8:18:52:63:c7:3e:0b:
                    29:6a:d3:65:09:fa:e1:d6:9a:63:83:c4:6d:0e:0d:
                    81:ca:95:c1:c3:c2:b4:d6:39:dd:8b:82:e6:64:10:
                    51:eb:41:4f:68:e4:b1:ec:cb:f2:80:02:51:ef:c1:
                    63:ac:cb:10:59:12:c5:44:4c:6c:b2:c0:fd:33:5e:
                    96:0e:73:22:4b:7c:b7:0b:a2:48:c1:ab:fc:6b:fa:
                    c2:16:58:a8:7b:ba:8b:7f:42:2a:79:21:c8:d5:b3:
                    f3:bc:99:76:ca:0d:cc:ab:ed:7a:b3:a0:44:cf:0b:
                    bd:ab:32:d5:58:54:bf:a9:3b:80:1b:bd:55:18:4f:
                    09:c4:b4:8a:9a:73:c8:0d:07:7a:b9:2c:aa:1f:88:
                    c6:ff:37:32:20:04:75:13:e7:80:db:2a:95:8d:86:
                    f1:48:65:70:52:0f:2f:62:f9:de:ac:10:f6:9e:c3:
                    a2:30:2e:a2:51:e1:d5:d4:0a:36:97:c8:f3:35:c3:
                    ea:74:4d:49:c9:10:c5:56:14:15:c4:08:a5:4f:aa:
                    cd:e0:05:25:6d:d3:30:25:eb:e4:01:e8:d1:59:54:
                    16:8e:22:06:f6:11:b7:16:a6:ee:07:0a:66:12:db:
                    e9:7c:3e:9d:60:fd:22:31:ed:51:1e:3a:33:39:16:
                    c2:3d:0b:9b:b4:95:49:61:81:92:8a:49:61:e4:04:
                    22:40:27:8d:c4:0a:5f:c5:64:44:7f:bf:a7:4a:09:
                    a6:36:ee:23:24:aa:46:44:50:46:a1:83:eb:48:e7:
                    fe:80:70:67:b0:8e:78:29:19:a1:55:56:69:60:4e:
                    75:13:34:f5:5d:33:78:2b:74:e7:ba:6f:44:9c:14:
                    e6:40:4a:3c:97:c8:be:a3:54:b3:b0:f1:5d:0d:69:
                    d8:0e:26:18:b5:67:4f:e0:a6:79:ac:13:f7:2c:c6:
                    08:09:5c:ef:e9:9e:7c:4a:ea:49:8e:26:9b:73:bf:
                    84:c9:14:c5:94:c3:27:46:c9:65:38:9f:aa:1c:b8:
                    c3:6e:42:94:0e:2e:93:66:24:58:b3:fc:98:62:9c:
                    ab:42:4e:bd:4f:93:a6:1f:2d:31:87:41:b2:26:19:
                    f6:f6:a5:d0:5b:32:81:1f:14:85:79:4f:7a:cf:bd:
                    ff:f4:25:be:b0:f4:07:4d:54:79:df:77:8f:ff:fa:
                    14:5a:ca:42:4c:2c:8a:89:08:f5:18:8c:17:9e:09:
                    34:a5:8e:77:b4:e1:59:11:9f:ff:b9:e2:ac:3c:c1:
                    d9:71:17
                Exponent: 65537 (0x10001)
        X509v3 extensions:
            Netscape Comment:
                CA Root
            X509v3 Subject Key Identifier:
                B3:B4:54:D9:35:6A:F9:9E:C8:65:00:11:20:7D:9A:66:30:96:14:D2
            X509v3 Authority Key Identifier:
                keyid:B3:B4:54:D9:35:6A:F9:9E:C8:65:00:11:20:7D:9A:66:30:96:14:D2

            X509v3 Basic Constraints: critical
                CA:TRUE, pathlen:1
            X509v3 Key Usage:
                Certificate Sign, CRL Sign
            Netscape Cert Type:
                SSL CA
    Signature Algorithm: sha256WithRSAEncryption
         28:a6:3b:44:6a:1f:13:8e:5e:5c:6d:58:86:bd:fc:68:cc:c3:
         1d:54:0a:4b:41:7c:a8:3e:aa:c0:b2:d3:fb:a0:34:5a:40:ba:
         2e:4d:41:1f:fe:23:ab:db:34:b5:ad:de:81:c7:b9:0f:47:47:
         96:42:41:ad:2a:93:65:9d:08:cc:c1:97:3e:46:a6:70:de:bc:
         64:9f:40:b5:19:88:89:8a:a5:de:70:85:a6:b2:df:7c:72:b5:
         47:d4:a5:d7:52:bf:ea:32:78:0e:a9:82:ea:8e:4c:6b:83:63:
         17:e9:36:df:4f:62:a3:87:8b:4f:3b:55:7f:8e:64:80:ea:e3:
         69:7b:d6:43:d0:c8:8f:f2:98:6b:f1:08:dc:1c:a6:b6:06:9b:
         45:18:7b:ca:20:06:6f:7a:82:87:57:21:bb:5a:f6:81:9f:f7:
         ec:26:71:b7:cd:b5:4d:c7:de:4d:07:06:d3:80:0a:bd:36:6e:
         eb:e4:ad:f8:8a:41:46:3c:6c:88:72:d9:a3:1c:30:e2:fc:8c:
         8f:a9:8c:60:84:94:62:17:f5:9f:08:27:6b:78:fc:e2:65:ae:
         03:66:19:94:9b:1b:3f:93:43:7d:76:e7:6c:fe:32:19:3c:d4:
         ca:cd:19:4f:ca:43:5a:ce:44:29:79:58:55:91:f1:10:3f:79:
         38:46:0e:5b:f8:1f:4a:e1:53:43:dc:6b:f3:00:2b:9f:dd:25:
         55:ae:e1:5f:b5:7b:19:f1:0c:22:6d:13:c6:c9:39:4d:75:73:
         eb:bc:89:bf:56:eb:05:87:27:2f:d8:27:55:32:79:61:d1:ad:
         ea:cc:1e:f2:9b:b9:c6:25:13:d5:6c:01:4b:2a:9e:93:f8:d0:
         13:88:46:3c:27:bc:af:bd:a6:1e:93:f8:a2:2d:3f:6b:8b:d4:
         41:2e:b3:a4:00:62:5c:d7:d7:07:7d:e6:a1:7a:44:4b:92:65:
         eb:7a:02:4e:b2:98:62:6a:42:1a:05:3a:91:aa:0b:11:b3:f5:
         0e:f7:6d:7c:d4:1e:b8:03:9f:dd:a7:c6:a1:05:90:f9:f8:99:
         6b:2d:8b:68:ae:5c:78:ed:1b:eb:40:a8:ee:11:e4:bf:de:f2:
         9e:2a:de:e6:d2:13:b9:c0:91:45:bb:2f:49:e4:58:db:8c:86:
         f3:76:25:67:87:e3:05:1e:3c:61:62:f8:3d:71:63:21:06:20:
         cc:df:09:53:d8:c5:15:a0:82:98:7c:72:4b:44:f7:81:04:1e:
         8b:7e:fd:60:90:a5:38:c5:6f:ec:79:db:d6:fd:4e:b6:7b:f9:
         27:9c:29:3e:0c:6f:d4:2e:32:d8:0a:9b:ef:52:e5:90:14:d8:
         54:f0:3a:c8:25:e1:df:1c
-----BEGIN CERTIFICATE-----
MIIF7DCCA9SgAwIBAgICANowDQYJKoZIhvcNAQELBQAwcDELMAkGA1UEBhMCZnIx
DDAKBgNVBAgMA2lkZjEOMAwGA1UEBwwFcGFyaXMxDjAMBgNVBAoMBXZpdGFtMRQw
EgYDVQQLDAthdXRob3JpdGllczEdMBsGA1UEAwwUY2Ffcm9vdF90aW1lc3RhbXBp
bmcwHhcNMTkxMTIyMDg1MzM5WhcNMjkxMTE5MDg1MzM5WjBwMQswCQYDVQQGEwJm
cjEMMAoGA1UECAwDaWRmMQ4wDAYDVQQHDAVwYXJpczEOMAwGA1UECgwFdml0YW0x
FDASBgNVBAsMC2F1dGhvcml0aWVzMR0wGwYDVQQDDBRjYV9yb290X3RpbWVzdGFt
cGluZzCCAiIwDQYJKoZIhvcNAQEBBQADggIPADCCAgoCggIBALp1MinLMiZYkmUp
NdOpvHJ6HT1d9V29tV+ofAXHWIAbdakztFCoGFJjxz4LKWrTZQn64daaY4PEbQ4N
gcqVwcPCtNY53YuC5mQQUetBT2jksezL8oACUe/BY6zLEFkSxURMbLLA/TNelg5z
Ikt8twuiSMGr/Gv6whZYqHu6i39CKnkhyNWz87yZdsoNzKvterOgRM8Lvasy1VhU
v6k7gBu9VRhPCcS0ippzyA0Herksqh+Ixv83MiAEdRPngNsqlY2G8UhlcFIPL2L5
3qwQ9p7DojAuolHh1dQKNpfI8zXD6nRNSckQxVYUFcQIpU+qzeAFJW3TMCXr5AHo
0VlUFo4iBvYRtxam7gcKZhLb6Xw+nWD9IjHtUR46MzkWwj0Lm7SVSWGBkopJYeQE
IkAnjcQKX8VkRH+/p0oJpjbuIySqRkRQRqGD60jn/oBwZ7COeCkZoVVWaWBOdRM0
9V0zeCt057pvRJwU5kBKPJfIvqNUs7DxXQ1p2A4mGLVnT+CmeawT9yzGCAlc7+me
fErqSY4mm3O/hMkUxZTDJ0bJZTifqhy4w25ClA4uk2YkWLP8mGKcq0JOvU+Tph8t
MYdBsiYZ9val0FsygR8UhXlPes+9//QlvrD0B01Ued93j//6FFrKQkwsiokI9RiM
F54JNKWOd7ThWRGf/7nirDzB2XEXAgMBAAGjgY8wgYwwFgYJYIZIAYb4QgENBAkW
B0NBIFJvb3QwHQYDVR0OBBYEFLO0VNk1avmeyGUAESB9mmYwlhTSMB8GA1UdIwQY
MBaAFLO0VNk1avmeyGUAESB9mmYwlhTSMBIGA1UdEwEB/wQIMAYBAf8CAQEwCwYD
VR0PBAQDAgEGMBEGCWCGSAGG+EIBAQQEAwICBDANBgkqhkiG9w0BAQsFAAOCAgEA
KKY7RGofE45eXG1Yhr38aMzDHVQKS0F8qD6qwLLT+6A0WkC6Lk1BH/4jq9s0ta3e
gce5D0dHlkJBrSqTZZ0IzMGXPkamcN68ZJ9AtRmIiYql3nCFprLffHK1R9Sl11K/
6jJ4DqmC6o5Ma4NjF+k2309io4eLTztVf45kgOrjaXvWQ9DIj/KYa/EI3Bymtgab
RRh7yiAGb3qCh1chu1r2gZ/37CZxt821TcfeTQcG04AKvTZu6+St+IpBRjxsiHLZ
oxww4vyMj6mMYISUYhf1nwgna3j84mWuA2YZlJsbP5NDfXbnbP4yGTzUys0ZT8pD
Ws5EKXlYVZHxED95OEYOW/gfSuFTQ9xr8wArn90lVa7hX7V7GfEMIm0Txsk5TXVz
67yJv1brBYcnL9gnVTJ5YdGt6swe8pu5xiUT1WwBSyqek/jQE4hGPCe8r72mHpP4
oi0/a4vUQS6zpABiXNfXB33moXpES5Jl63oCTrKYYmpCGgU6kaoLEbP1DvdtfNQe
uAOf3afGoQWQ+fiZay2LaK5ceO0b60Co7hHkv97ynire5tITucCRRbsvSeRY24yG
83YlZ4fjBR48YWL4PXFjIQYgzN8JU9jFFaCCmHxyS0T3gQQei379YJClOMVv7Hnb
1v1Otnv5J5wpPgxv1C4y2Aqb71LlkBTYVPA6yCXh3xw=
-----END CERTIFICATE-----
