Certificate:
    Data:
        Version: 3 (0x2)
        Serial Number: 256 (0x100)
    Signature Algorithm: sha256WithRSAEncryption
        Issuer: C=fr, ST=idf, L=paris, O=vitam, OU=authorities, CN=ca_root_client-storage
        Validity
            Not Before: Nov 22 08:53:37 2019 GMT
            Not After : Nov 19 08:53:37 2029 GMT
        Subject: C=fr, ST=idf, L=paris, O=vitam, OU=authorities, CN=ca_intermediate_client-storage
        Subject Public Key Info:
            Public Key Algorithm: rsaEncryption
                Public-Key: (4096 bit)
                Modulus:
                    00:cc:9f:44:87:1b:82:68:60:69:6e:64:24:25:14:
                    84:c7:8b:02:3b:ac:20:6c:47:b3:04:ba:50:55:a9:
                    f9:ea:a7:cb:10:d4:92:40:2d:c7:25:83:49:f6:93:
                    86:04:93:9a:a0:c2:4a:99:be:68:74:b7:13:d6:ae:
                    1c:c9:e4:aa:57:7b:80:a7:f3:27:f7:c5:e5:a0:14:
                    ca:ac:9b:20:3e:f7:fc:94:5d:7c:a1:74:2c:39:9c:
                    91:c1:da:39:db:aa:a0:c9:79:09:48:a6:91:8a:09:
                    92:5b:d2:ea:a9:4d:18:c1:ae:00:d5:a1:5d:f1:b3:
                    1d:8b:f2:e7:f7:3a:fe:18:63:45:70:a9:1b:75:d1:
                    fc:20:fe:0b:8d:72:47:1c:83:f8:f7:d7:50:7a:07:
                    2d:65:b7:f3:03:57:a6:a2:7a:1d:2b:6e:c8:66:6c:
                    83:cf:f9:74:b3:f8:ab:1c:ab:d7:24:5e:6d:bc:98:
                    ee:96:69:16:10:30:02:a3:ea:8e:ed:40:a4:ba:70:
                    01:16:39:f8:f5:87:5d:79:e4:7d:96:3c:85:97:e9:
                    b6:f4:16:43:5a:8f:5a:60:ac:04:f6:11:1a:07:9c:
                    05:5f:6a:d8:86:c6:81:e8:9d:b2:a1:6e:87:de:a1:
                    7b:f7:eb:07:98:d3:24:67:5e:a9:4c:a7:93:d7:30:
                    46:e1:ee:81:1c:24:ba:17:c0:81:6c:a2:d6:fd:d3:
                    35:d0:a9:b6:4a:86:d4:68:03:10:f9:cd:22:bb:88:
                    67:65:5b:38:1f:e0:0c:2b:96:ca:79:15:90:9d:c2:
                    35:47:ad:67:47:86:5d:ec:ca:cb:77:c9:fe:ba:c6:
                    86:31:76:73:32:18:76:69:35:c8:94:91:33:14:51:
                    45:c2:41:02:d5:95:55:18:1d:cd:51:9b:9f:34:b1:
                    04:5b:6d:bc:d8:b8:73:6c:ef:e8:54:1b:f6:ed:db:
                    64:a1:05:e6:6c:2a:34:be:1d:08:c3:db:e6:14:ab:
                    29:b3:0c:19:91:43:55:fa:32:d3:99:64:b6:57:0c:
                    99:a2:c5:99:24:dd:ae:dc:38:cc:4e:93:bd:2e:6a:
                    5a:a8:22:6a:64:96:73:9f:00:47:6b:36:a5:81:09:
                    a2:ce:f6:91:02:d2:9f:9a:c2:07:66:eb:e7:0f:7e:
                    3d:82:c4:53:99:25:69:b5:d6:1d:98:f1:28:61:e7:
                    7a:0b:6c:78:1b:58:a9:23:7b:06:e7:4d:c1:34:ee:
                    db:5b:3a:d4:04:6c:2d:6a:30:33:a4:4f:b4:1f:7d:
                    71:40:ac:11:5e:37:0d:03:47:f3:65:38:31:37:57:
                    7c:ae:89:39:51:84:0b:75:3a:1a:95:34:0d:2d:25:
                    35:af:3b
                Exponent: 65537 (0x10001)
        X509v3 extensions:
            Netscape Comment:
                CA Intermediate
            X509v3 Subject Key Identifier:
                4A:7A:F1:76:63:65:9F:FC:D1:27:32:3F:D1:EA:1A:10:F2:32:CF:16
            X509v3 Authority Key Identifier:
                keyid:CD:07:41:EF:62:B7:F0:79:3D:A7:A6:EE:38:60:EF:FE:89:8F:68:54
                DirName:/C=fr/ST=idf/L=paris/O=vitam/OU=authorities/CN=ca_root_client-storage
                serial:FF

            X509v3 Basic Constraints: critical
                CA:TRUE, pathlen:0
            X509v3 Issuer Alternative Name:
                <EMPTY>

            X509v3 Key Usage:
                Certificate Sign, CRL Sign
            Netscape Cert Type:
                SSL CA
    Signature Algorithm: sha256WithRSAEncryption
         05:81:57:b6:74:b0:ad:a8:05:c4:fc:2e:0f:16:23:82:f7:f7:
         f8:39:e3:bb:19:79:ad:82:09:b6:c2:9c:c5:99:cc:37:39:e7:
         a6:23:35:0c:b4:26:09:b0:7c:41:4e:d3:85:9e:62:2b:52:94:
         52:42:ef:ef:63:7e:9b:ca:78:b3:7e:ec:64:a3:c8:8d:45:e5:
         09:4c:58:47:72:e2:3e:18:9c:8d:cf:29:2e:1a:3c:52:7d:f5:
         aa:36:78:46:34:92:70:68:20:f3:b3:5e:7f:41:3d:ba:9c:67:
         2e:87:37:6e:9d:5d:03:bf:52:84:c3:a1:61:33:c0:8c:a1:32:
         f2:4c:ed:5f:b5:bd:25:47:e1:51:46:f8:ea:a5:45:f2:06:a8:
         13:3e:da:03:d6:0d:ba:bd:6f:9a:e4:4b:9a:a5:e4:22:b0:45:
         98:9b:99:ad:96:f9:7e:dc:c4:f1:bb:54:d5:7f:44:95:ba:2f:
         6a:f6:a9:3e:42:d1:ae:df:64:ca:49:39:7e:a9:67:e2:9e:c8:
         fa:34:b7:2c:3f:89:fa:80:21:72:7d:75:f5:4a:8b:d6:1d:cb:
         c9:dc:53:11:3b:63:df:ea:2a:1b:82:d0:71:82:9b:95:e2:d3:
         50:5e:8d:65:14:4a:24:d6:7b:48:8c:28:ac:b1:e8:b9:8d:76:
         7e:6d:0d:ca:49:c4:89:fa:c9:34:96:bc:15:4f:c9:7f:66:3f:
         73:7d:96:f9:68:75:f9:a6:7c:21:a5:5b:40:16:96:2e:a0:94:
         a5:03:8b:91:4d:28:22:18:db:b8:33:7e:18:12:7c:ae:36:15:
         7f:e6:3d:c1:5f:2f:57:c9:84:75:58:04:50:ff:6d:7a:e7:c8:
         ca:65:bb:45:56:fa:ae:9a:a8:6f:72:b5:a7:d4:ff:18:7f:86:
         97:28:29:3b:4a:30:2e:40:3a:8c:c3:23:df:5d:ac:a6:07:27:
         ae:92:58:12:bd:32:ee:b1:6a:1f:7e:cb:3b:29:0e:c9:4a:e4:
         1c:26:ee:94:c3:60:cd:fc:a4:f5:d8:7a:6d:35:c4:0f:25:39:
         4e:06:96:6a:16:a4:13:b1:e4:87:d0:f5:54:c2:23:35:00:b8:
         44:b9:4f:e2:b7:3e:be:fd:d7:3f:f2:9b:cd:41:17:e0:87:0b:
         a8:5d:22:fd:68:c9:56:87:02:d5:fb:fe:ef:65:2e:49:40:5c:
         24:40:c3:85:b9:25:ea:9f:2f:a6:fb:4f:cf:cf:1b:1f:70:71:
         09:23:e0:00:49:a6:36:27:42:76:eb:47:62:2c:98:db:f7:01:
         70:dc:90:18:cf:7f:1b:28:87:31:b9:e7:9d:57:cb:62:19:f9:
         ab:c2:e0:b3:9d:7e:1b:cf
-----BEGIN CERTIFICATE-----
MIIGjDCCBHSgAwIBAgICAQAwDQYJKoZIhvcNAQELBQAwcjELMAkGA1UEBhMCZnIx
DDAKBgNVBAgMA2lkZjEOMAwGA1UEBwwFcGFyaXMxDjAMBgNVBAoMBXZpdGFtMRQw
EgYDVQQLDAthdXRob3JpdGllczEfMB0GA1UEAwwWY2Ffcm9vdF9jbGllbnQtc3Rv
cmFnZTAeFw0xOTExMjIwODUzMzdaFw0yOTExMTkwODUzMzdaMHoxCzAJBgNVBAYT
AmZyMQwwCgYDVQQIDANpZGYxDjAMBgNVBAcMBXBhcmlzMQ4wDAYDVQQKDAV2aXRh
bTEUMBIGA1UECwwLYXV0aG9yaXRpZXMxJzAlBgNVBAMMHmNhX2ludGVybWVkaWF0
ZV9jbGllbnQtc3RvcmFnZTCCAiIwDQYJKoZIhvcNAQEBBQADggIPADCCAgoCggIB
AMyfRIcbgmhgaW5kJCUUhMeLAjusIGxHswS6UFWp+eqnyxDUkkAtxyWDSfaThgST
mqDCSpm+aHS3E9auHMnkqld7gKfzJ/fF5aAUyqybID73/JRdfKF0LDmckcHaOduq
oMl5CUimkYoJklvS6qlNGMGuANWhXfGzHYvy5/c6/hhjRXCpG3XR/CD+C41yRxyD
+PfXUHoHLWW38wNXpqJ6HStuyGZsg8/5dLP4qxyr1yRebbyY7pZpFhAwAqPqju1A
pLpwARY5+PWHXXnkfZY8hZfptvQWQ1qPWmCsBPYRGgecBV9q2IbGgeidsqFuh96h
e/frB5jTJGdeqUynk9cwRuHugRwkuhfAgWyi1v3TNdCptkqG1GgDEPnNIruIZ2Vb
OB/gDCuWynkVkJ3CNUetZ0eGXezKy3fJ/rrGhjF2czIYdmk1yJSRMxRRRcJBAtWV
VRgdzVGbnzSxBFttvNi4c2zv6FQb9u3bZKEF5mwqNL4dCMPb5hSrKbMMGZFDVfoy
05lktlcMmaLFmSTdrtw4zE6TvS5qWqgiamSWc58AR2s2pYEJos72kQLSn5rCB2br
5w9+PYLEU5klabXWHZjxKGHnegtseBtYqSN7BudNwTTu21s61ARsLWowM6RPtB99
cUCsEV43DQNH82U4MTdXfK6JOVGEC3U6GpU0DS0lNa87AgMBAAGjggEiMIIBHjAe
BglghkgBhvhCAQ0EERYPQ0EgSW50ZXJtZWRpYXRlMB0GA1UdDgQWBBRKevF2Y2Wf
/NEnMj/R6hoQ8jLPFjCBnQYDVR0jBIGVMIGSgBTNB0HvYrfweT2npu44YO/+iY9o
VKF2pHQwcjELMAkGA1UEBhMCZnIxDDAKBgNVBAgMA2lkZjEOMAwGA1UEBwwFcGFy
aXMxDjAMBgNVBAoMBXZpdGFtMRQwEgYDVQQLDAthdXRob3JpdGllczEfMB0GA1UE
AwwWY2Ffcm9vdF9jbGllbnQtc3RvcmFnZYICAP8wEgYDVR0TAQH/BAgwBgEB/wIB
ADAJBgNVHRIEAjAAMAsGA1UdDwQEAwIBBjARBglghkgBhvhCAQEEBAMCAgQwDQYJ
KoZIhvcNAQELBQADggIBAAWBV7Z0sK2oBcT8Lg8WI4L39/g547sZea2CCbbCnMWZ
zDc556YjNQy0JgmwfEFO04WeYitSlFJC7+9jfpvKeLN+7GSjyI1F5QlMWEdy4j4Y
nI3PKS4aPFJ99ao2eEY0knBoIPOzXn9BPbqcZy6HN26dXQO/UoTDoWEzwIyhMvJM
7V+1vSVH4VFG+OqlRfIGqBM+2gPWDbq9b5rkS5ql5CKwRZibma2W+X7cxPG7VNV/
RJW6L2r2qT5C0a7fZMpJOX6pZ+KeyPo0tyw/ifqAIXJ9dfVKi9Ydy8ncUxE7Y9/q
KhuC0HGCm5Xi01BejWUUSiTWe0iMKKyx6LmNdn5tDcpJxIn6yTSWvBVPyX9mP3N9
lvlodfmmfCGlW0AWli6glKUDi5FNKCIY27gzfhgSfK42FX/mPcFfL1fJhHVYBFD/
bXrnyMplu0VW+q6aqG9ytafU/xh/hpcoKTtKMC5AOozDI99drKYHJ66SWBK9Mu6x
ah9+yzspDslK5Bwm7pTDYM38pPXYem01xA8lOU4GlmoWpBOx5IfQ9VTCIzUAuES5
T+K3Pr791z/ym81BF+CHC6hdIv1oyVaHAtX7/u9lLklAXCRAw4W5JeqfL6b7T8/P
Gx9wcQkj4ABJpjYnQnbrR2IsmNv3AXDckBjPfxsohzG5551Xy2IZ+avC4LOdfhvP
-----END CERTIFICATE-----
