Certificate:
    Data:
        Version: 3 (0x2)
        Serial Number: 287 (0x11f)
    Signature Algorithm: sha256WithRSAEncryption
        Issuer: C=fr, ST=idf, L=paris, O=vitam, OU=authorities, CN=ca_root_iam-external
        Validity
            Not Before: Nov 22 15:20:52 2019 GMT
            Not After : Nov 19 15:20:52 2029 GMT
        Subject: C=fr, ST=idf, L=paris, O=vitam, OU=authorities, CN=ca_root_iam-external
        Subject Public Key Info:
            Public Key Algorithm: rsaEncryption
                Public-Key: (4096 bit)
                Modulus:
                    00:c8:84:4d:9f:ff:c4:ef:3b:6c:22:15:0a:ba:58:
                    8b:03:87:4d:29:5f:8b:60:6c:3c:e4:0c:6c:97:28:
                    36:9f:30:b9:bd:3d:85:51:c6:69:ff:65:2e:a8:0f:
                    7d:1e:8c:7a:21:d0:95:85:5b:9e:20:3b:d0:f4:e4:
                    94:14:ed:ef:b1:3a:a5:d9:3e:f0:e2:f6:38:fb:70:
                    5c:b6:e9:db:2e:df:b9:05:18:8f:88:96:93:5f:62:
                    ef:e9:31:ca:21:a5:1f:bb:43:71:67:85:04:33:c5:
                    bd:2b:e9:c2:57:56:95:e5:19:c9:32:c1:90:34:ee:
                    76:94:3a:12:50:e4:ef:6b:13:bc:61:40:89:04:cd:
                    ec:91:c7:88:36:5c:4b:11:8d:42:5c:d4:3e:fb:09:
                    3f:1d:c3:71:15:52:3a:70:7b:18:2f:b2:40:dd:3a:
                    7e:b6:b3:00:98:3d:94:06:42:93:d2:0e:2a:8f:c6:
                    b1:31:55:7b:25:a1:fb:30:8c:dd:34:43:7c:f8:58:
                    a7:50:41:fc:47:6b:46:d2:8d:d4:1e:bf:b6:64:0b:
                    88:96:25:a5:f3:0e:ff:8b:06:13:fb:29:5d:95:9e:
                    26:66:bb:8f:ee:73:9d:da:54:b9:5a:23:54:4f:b4:
                    1c:89:c1:e1:0e:22:75:af:6a:71:19:2b:a4:7b:56:
                    ce:21:7b:08:ed:58:89:15:6e:d5:a4:5d:7b:96:39:
                    6e:0e:e4:d8:13:07:d1:26:f0:a3:15:c5:fd:d0:a5:
                    64:c0:20:07:e6:00:cb:78:4c:d1:1f:53:57:46:cf:
                    cc:3b:d6:73:10:ea:19:31:9f:3a:fd:13:95:f9:83:
                    f2:0a:e6:29:ec:b5:6e:b5:f4:54:a5:d0:aa:3d:ea:
                    a5:96:ff:78:75:9b:15:bc:72:be:c1:1d:47:30:87:
                    28:6f:df:8e:2e:a1:3d:bd:b5:ff:5d:7b:34:3a:63:
                    0d:b9:39:c8:3f:2a:02:dc:1d:e9:de:8b:05:fa:d7:
                    8e:f0:9a:2e:ee:28:a7:dd:18:2c:21:c9:c7:75:6a:
                    e8:cd:84:bd:85:74:e5:cb:96:8f:fa:36:c6:57:0d:
                    5b:38:3f:a3:72:7c:bb:b0:c4:da:74:2d:86:30:da:
                    72:3e:8d:68:c9:c0:3a:f0:8e:39:e2:4e:57:83:ea:
                    56:38:b8:2d:ad:81:7c:ba:70:84:d2:bd:b5:69:73:
                    54:b5:ec:42:ce:0f:a3:c2:03:ba:42:00:02:0d:32:
                    2a:f0:63:73:5a:04:b4:a0:b0:23:1c:da:db:81:5c:
                    94:a1:1a:42:40:37:bf:ff:23:3b:aa:09:46:5f:ca:
                    64:0e:dc:13:64:b6:91:4c:63:1d:aa:23:3b:7b:aa:
                    02:22:79
                Exponent: 65537 (0x10001)
        X509v3 extensions:
            Netscape Comment:
                CA Root
            X509v3 Subject Key Identifier:
                D7:C3:37:02:D3:F8:1F:FE:02:00:42:5F:7B:D0:B3:7E:BE:F3:4B:B2
            X509v3 Authority Key Identifier:
                keyid:D7:C3:37:02:D3:F8:1F:FE:02:00:42:5F:7B:D0:B3:7E:BE:F3:4B:B2

            X509v3 Basic Constraints: critical
                CA:TRUE, pathlen:1
            X509v3 Key Usage:
                Certificate Sign, CRL Sign
            Netscape Cert Type:
                SSL CA
    Signature Algorithm: sha256WithRSAEncryption
         25:3b:c3:6e:db:6b:d9:50:e8:77:53:3d:67:db:ba:36:36:4d:
         ea:78:34:f2:0e:7b:52:eb:2c:f3:f2:12:0b:8a:02:d5:46:d4:
         84:fa:bd:9e:09:0a:91:cf:59:8c:5d:14:dc:dd:0f:de:b4:e3:
         01:d3:b7:1b:7d:79:7a:e0:97:df:19:9a:d7:3e:1b:af:75:a6:
         9d:a5:d9:cd:29:79:96:44:d9:0f:b9:87:6c:db:b6:bd:04:3c:
         59:52:00:2b:5c:06:65:35:16:a3:d8:59:11:1b:6c:3a:55:1e:
         b8:75:f3:c7:09:5c:b2:ea:be:19:17:f4:2f:af:94:02:e6:a3:
         4d:0e:23:61:a6:e8:0a:12:96:e2:b4:e0:14:d1:90:8a:b9:17:
         02:b9:da:37:93:e1:6c:6f:ab:a0:85:15:73:4d:94:ae:d7:69:
         79:91:ca:f0:00:ca:03:c2:9c:9c:9c:23:2d:6d:92:e4:6e:87:
         3b:18:46:51:49:13:71:be:b1:ef:34:6c:f6:89:5f:2d:68:c8:
         4f:66:84:28:ca:38:d2:93:d2:16:b3:65:01:72:f2:b0:24:96:
         cb:13:9a:b6:00:6a:e0:84:b5:d4:73:7a:43:c4:ad:dc:a6:18:
         f4:6a:01:44:f9:6b:3c:53:c2:1b:be:9c:fe:5d:82:2e:29:cb:
         7c:42:db:e8:8e:25:cb:d1:e7:b2:83:08:78:94:ef:6e:36:3e:
         64:ef:63:1f:75:30:6d:a4:9a:44:50:e7:f8:20:09:ac:a3:12:
         bf:19:9e:a7:0e:93:a2:51:8b:bf:7f:e0:d2:86:49:2e:61:33:
         88:34:43:93:c9:31:ad:78:b7:eb:cf:f6:4e:71:8d:1c:ba:8f:
         a6:54:cf:f2:ce:46:ba:68:3f:76:85:be:d8:ed:e5:f2:2a:36:
         a3:ff:ff:7c:c4:53:39:b6:4f:1e:4e:83:c1:6f:27:6d:a5:6f:
         eb:4f:dc:6e:77:82:b9:1b:65:d0:19:90:db:40:36:d9:e1:13:
         4e:36:8f:21:40:8a:eb:18:3f:f4:83:d2:54:f8:a5:84:81:aa:
         a7:c9:b1:ce:97:c8:04:db:26:f6:51:4d:0f:23:84:26:c3:5c:
         1e:7d:71:af:d7:c4:1b:12:41:48:f1:80:a7:79:ba:99:36:27:
         34:db:b2:9c:a9:b7:48:3b:3a:76:47:83:9f:de:6a:ac:1e:0a:
         16:b6:5a:cd:bd:bd:f4:39:13:27:1b:33:c9:43:8b:5a:de:ae:
         0b:9c:c2:72:d4:c6:23:84:a9:43:0d:db:d8:f1:6d:81:21:28:
         f9:c1:c1:ce:eb:9e:ac:a0:e3:72:13:da:36:f3:82:c7:2f:09:
         67:cb:73:58:b8:25:59:cf
-----BEGIN CERTIFICATE-----
MIIF7DCCA9SgAwIBAgICAR8wDQYJKoZIhvcNAQELBQAwcDELMAkGA1UEBhMCZnIx
DDAKBgNVBAgMA2lkZjEOMAwGA1UEBwwFcGFyaXMxDjAMBgNVBAoMBXZpdGFtMRQw
EgYDVQQLDAthdXRob3JpdGllczEdMBsGA1UEAwwUY2Ffcm9vdF9pYW0tZXh0ZXJu
YWwwHhcNMTkxMTIyMTUyMDUyWhcNMjkxMTE5MTUyMDUyWjBwMQswCQYDVQQGEwJm
cjEMMAoGA1UECAwDaWRmMQ4wDAYDVQQHDAVwYXJpczEOMAwGA1UECgwFdml0YW0x
FDASBgNVBAsMC2F1dGhvcml0aWVzMR0wGwYDVQQDDBRjYV9yb290X2lhbS1leHRl
cm5hbDCCAiIwDQYJKoZIhvcNAQEBBQADggIPADCCAgoCggIBAMiETZ//xO87bCIV
CrpYiwOHTSlfi2BsPOQMbJcoNp8wub09hVHGaf9lLqgPfR6MeiHQlYVbniA70PTk
lBTt77E6pdk+8OL2OPtwXLbp2y7fuQUYj4iWk19i7+kxyiGlH7tDcWeFBDPFvSvp
wldWleUZyTLBkDTudpQ6ElDk72sTvGFAiQTN7JHHiDZcSxGNQlzUPvsJPx3DcRVS
OnB7GC+yQN06frazAJg9lAZCk9IOKo/GsTFVeyWh+zCM3TRDfPhYp1BB/EdrRtKN
1B6/tmQLiJYlpfMO/4sGE/spXZWeJma7j+5zndpUuVojVE+0HInB4Q4ida9qcRkr
pHtWziF7CO1YiRVu1aRde5Y5bg7k2BMH0SbwoxXF/dClZMAgB+YAy3hM0R9TV0bP
zDvWcxDqGTGfOv0TlfmD8grmKey1brX0VKXQqj3qpZb/eHWbFbxyvsEdRzCHKG/f
ji6hPb21/117NDpjDbk5yD8qAtwd6d6LBfrXjvCaLu4op90YLCHJx3Vq6M2EvYV0
5cuWj/o2xlcNWzg/o3J8u7DE2nQthjDacj6NaMnAOvCOOeJOV4PqVji4La2BfLpw
hNK9tWlzVLXsQs4Po8IDukIAAg0yKvBjc1oEtKCwIxza24FclKEaQkA3v/8jO6oJ
Rl/KZA7cE2S2kUxjHaojO3uqAiJ5AgMBAAGjgY8wgYwwFgYJYIZIAYb4QgENBAkW
B0NBIFJvb3QwHQYDVR0OBBYEFNfDNwLT+B/+AgBCX3vQs36+80uyMB8GA1UdIwQY
MBaAFNfDNwLT+B/+AgBCX3vQs36+80uyMBIGA1UdEwEB/wQIMAYBAf8CAQEwCwYD
VR0PBAQDAgEGMBEGCWCGSAGG+EIBAQQEAwICBDANBgkqhkiG9w0BAQsFAAOCAgEA
JTvDbttr2VDod1M9Z9u6NjZN6ng08g57Uuss8/ISC4oC1UbUhPq9ngkKkc9ZjF0U
3N0P3rTjAdO3G315euCX3xma1z4br3WmnaXZzSl5lkTZD7mHbNu2vQQ8WVIAK1wG
ZTUWo9hZERtsOlUeuHXzxwlcsuq+GRf0L6+UAuajTQ4jYaboChKW4rTgFNGQirkX
ArnaN5PhbG+roIUVc02UrtdpeZHK8ADKA8KcnJwjLW2S5G6HOxhGUUkTcb6x7zRs
9olfLWjIT2aEKMo40pPSFrNlAXLysCSWyxOatgBq4IS11HN6Q8St3KYY9GoBRPlr
PFPCG76c/l2CLinLfELb6I4ly9HnsoMIeJTvbjY+ZO9jH3UwbaSaRFDn+CAJrKMS
vxmepw6TolGLv3/g0oZJLmEziDRDk8kxrXi368/2TnGNHLqPplTP8s5Gumg/doW+
2O3l8io2o///fMRTObZPHk6DwW8nbaVv60/cbneCuRtl0BmQ20A22eETTjaPIUCK
6xg/9IPSVPilhIGqp8mxzpfIBNsm9lFNDyOEJsNcHn1xr9fEGxJBSPGAp3m6mTYn
NNuynKm3SDs6dkeDn95qrB4KFrZazb299DkTJxszyUOLWt6uC5zCctTGI4SpQw3b
2PFtgSEo+cHBzuuerKDjchPaNvOCxy8JZ8tzWLglWc8=
-----END CERTIFICATE-----
