Certificate:
    Data:
        Version: 3 (0x2)
        Serial Number: 288 (0x120)
    Signature Algorithm: sha256WithRSAEncryption
        Issuer: C=fr, ST=idf, L=paris, O=vitam, OU=authorities, CN=ca_root_cas-server
        Validity
            Not Before: Nov 22 15:20:59 2019 GMT
            Not After : Nov 19 15:20:59 2029 GMT
        Subject: C=fr, ST=idf, L=paris, O=vitam, OU=authorities, CN=ca_intermediate_cas-server
        Subject Public Key Info:
            Public Key Algorithm: rsaEncryption
                Public-Key: (4096 bit)
                Modulus:
                    00:ba:68:67:fc:21:16:30:91:d9:03:70:b2:a0:44:
                    e8:14:c5:f9:12:d8:aa:5a:86:b6:ba:ba:7d:cf:1b:
                    f0:4c:1b:92:40:78:04:56:8a:57:e6:f5:79:fe:95:
                    95:e3:38:a9:3c:59:32:b0:81:0d:e5:c3:ae:cf:9f:
                    44:9a:f4:83:15:ac:8f:18:09:43:2d:96:59:9f:0f:
                    7a:6a:e3:d6:85:2c:eb:2f:f9:69:87:3e:28:b0:d2:
                    d4:34:bf:40:d2:2c:ae:59:7f:4d:a8:3a:08:43:22:
                    5d:42:f1:dc:81:27:36:5d:1d:41:9f:53:2e:94:d0:
                    a0:54:5d:13:0d:ee:98:10:8c:75:89:b7:4b:c1:44:
                    49:79:83:58:99:94:a1:27:4f:0d:a1:3c:b1:44:fb:
                    1a:5a:af:e2:d5:4a:16:5b:ac:02:e0:4e:6b:0a:92:
                    63:a2:3d:f2:51:86:23:e0:c4:29:34:c3:91:f7:ae:
                    eb:5d:ce:52:a0:1f:14:c6:4e:fc:a2:7e:35:99:b6:
                    08:e5:a7:a4:34:75:2c:cd:eb:b2:e6:56:02:b0:ac:
                    e8:4f:40:26:3a:93:a5:6f:87:3b:8a:a3:03:9e:e1:
                    2f:db:69:cb:f4:d3:9d:67:98:d3:73:25:83:a5:2a:
                    a3:97:85:11:f0:ec:d4:a6:b9:89:47:91:a6:0d:68:
                    03:d1:32:43:a0:03:6f:d1:f4:17:fd:d9:66:b9:2f:
                    05:68:22:ab:18:7e:a9:57:16:ff:e2:c3:d2:ac:8c:
                    ab:e7:27:1d:66:4b:d5:c2:cc:8e:cf:a9:ca:ad:2e:
                    43:2f:14:69:6a:56:ae:4f:5a:28:4e:92:f7:42:b5:
                    8f:50:f6:c4:52:9d:9a:3e:f4:e6:1f:8a:51:27:dc:
                    a6:f3:f7:60:0f:48:e6:a5:c7:92:97:59:7a:25:cc:
                    8c:12:b3:cf:fa:74:02:0c:89:47:56:2e:7e:84:fa:
                    bf:17:39:40:66:b8:94:e0:2d:d6:70:33:05:d1:db:
                    4f:cb:14:08:99:8b:79:f7:fc:56:15:a0:8e:fd:af:
                    0b:f7:a4:03:df:9a:77:ba:9a:e9:e3:6e:35:fa:6f:
                    a6:fb:51:7d:f5:e5:89:49:c2:10:ed:9b:63:33:fd:
                    d7:99:19:e7:c6:fb:91:dc:43:6f:13:cb:89:fc:b4:
                    01:da:68:9d:ce:b1:da:87:01:13:38:fe:78:0b:16:
                    43:5f:88:5a:17:87:0e:05:68:a3:56:96:c5:ed:77:
                    cf:d2:42:0b:f5:7b:8b:d3:fd:43:a1:5b:e5:37:55:
                    04:94:c9:85:7d:e1:37:87:3b:b7:cd:be:0f:d7:4f:
                    7e:4b:65:3b:c5:9b:ea:ed:0d:ba:69:e7:71:9a:59:
                    76:2e:17
                Exponent: 65537 (0x10001)
        X509v3 extensions:
            Netscape Comment:
                CA Intermediate
            X509v3 Subject Key Identifier:
                A0:2C:EF:A2:00:C3:24:A3:BF:12:9F:81:33:7F:51:B4:B5:AA:09:DE
            X509v3 Authority Key Identifier:
                keyid:A1:F0:C5:95:76:9D:78:74:52:73:8B:69:DA:2F:4D:CE:0A:42:8B:38
                DirName:/C=fr/ST=idf/L=paris/O=vitam/OU=authorities/CN=ca_root_cas-server
                serial:01:1F

            X509v3 Basic Constraints: critical
                CA:TRUE, pathlen:0
            X509v3 Issuer Alternative Name:
                <EMPTY>

            X509v3 Key Usage:
                Certificate Sign, CRL Sign
            Netscape Cert Type:
                SSL CA
    Signature Algorithm: sha256WithRSAEncryption
         ae:1c:17:e3:cb:ae:76:90:d4:dd:9d:87:f7:98:e7:b8:9d:88:
         85:02:a3:ae:04:6d:b2:73:f2:17:48:71:f3:be:b0:3f:53:26:
         6f:26:e7:4e:8c:93:33:10:73:cc:68:12:a5:be:56:d7:52:e6:
         7a:8c:73:59:94:7a:60:59:87:4b:11:24:43:a7:bc:7d:99:19:
         36:e0:9c:24:21:13:31:35:b9:93:4e:96:7a:72:e0:d4:3d:af:
         99:cb:fb:fc:25:36:a2:f1:88:16:fd:b6:f4:63:03:26:d3:ea:
         5a:18:fd:3c:c8:d7:9c:aa:e0:23:59:c3:66:6c:53:24:4d:70:
         9e:ca:72:bc:ba:bb:df:f1:61:e0:34:ba:a5:d9:c9:c2:8b:40:
         01:27:83:16:19:2a:2b:00:52:f2:2a:b5:0c:ba:7c:fd:c9:48:
         d8:3f:b5:dd:7b:91:98:0a:f9:71:3c:c7:5f:69:40:94:d6:ec:
         a1:1a:8b:eb:82:e9:11:61:4d:56:82:eb:4f:cf:d1:aa:0e:0b:
         cf:f2:fa:a2:a2:75:11:9f:04:09:8b:50:bb:b5:55:6c:95:37:
         65:62:ea:f6:c9:b7:4d:69:88:a8:d9:95:dd:99:09:6e:9b:59:
         63:3f:f8:49:df:eb:7a:14:cd:d8:56:46:b4:90:ab:37:ef:2f:
         f7:fe:0b:4b:47:a6:58:77:2d:bf:5c:fb:00:da:40:e1:45:80:
         7e:69:db:b2:6f:96:57:49:90:a6:15:1b:44:51:8d:71:40:18:
         84:2a:25:b7:ee:e6:64:e3:93:e9:c9:a5:34:09:ab:79:36:df:
         73:d3:eb:16:1f:6f:0f:29:5d:14:50:3d:ac:19:59:2b:d3:a9:
         a3:bd:3c:9a:07:bf:38:a0:77:21:c2:08:fc:a0:25:bd:22:62:
         46:d6:78:4e:31:f7:27:72:1e:bf:1c:6b:2d:3a:56:50:5a:12:
         14:26:40:77:94:fd:c1:a5:0f:52:17:63:17:62:3b:d5:fd:eb:
         14:c4:65:eb:bc:e3:67:e0:ba:79:9b:57:98:6e:41:e0:98:79:
         cf:e5:08:a1:d3:60:f2:18:91:89:81:29:cf:7d:3f:35:27:61:
         96:d7:62:54:51:95:aa:b3:16:70:24:09:01:f6:f9:0c:b8:60:
         46:a8:8e:23:95:95:52:3a:37:7c:05:5c:b1:3e:ec:3d:d4:8d:
         cd:b7:38:e0:d8:7e:ea:bc:14:75:5c:e5:24:59:7a:c8:16:9a:
         3e:8a:0f:cb:7e:cb:af:9c:06:4e:83:31:fc:f0:b8:e1:f4:2c:
         1b:02:85:ec:4a:e7:af:7d:d8:dd:24:36:84:36:34:83:26:7b:
         f1:f4:db:0d:5b:45:41:79
-----BEGIN CERTIFICATE-----
MIIGgDCCBGigAwIBAgICASAwDQYJKoZIhvcNAQELBQAwbjELMAkGA1UEBhMCZnIx
DDAKBgNVBAgMA2lkZjEOMAwGA1UEBwwFcGFyaXMxDjAMBgNVBAoMBXZpdGFtMRQw
EgYDVQQLDAthdXRob3JpdGllczEbMBkGA1UEAwwSY2Ffcm9vdF9jYXMtc2VydmVy
MB4XDTE5MTEyMjE1MjA1OVoXDTI5MTExOTE1MjA1OVowdjELMAkGA1UEBhMCZnIx
DDAKBgNVBAgMA2lkZjEOMAwGA1UEBwwFcGFyaXMxDjAMBgNVBAoMBXZpdGFtMRQw
EgYDVQQLDAthdXRob3JpdGllczEjMCEGA1UEAwwaY2FfaW50ZXJtZWRpYXRlX2Nh
cy1zZXJ2ZXIwggIiMA0GCSqGSIb3DQEBAQUAA4ICDwAwggIKAoICAQC6aGf8IRYw
kdkDcLKgROgUxfkS2Kpahra6un3PG/BMG5JAeARWilfm9Xn+lZXjOKk8WTKwgQ3l
w67Pn0Sa9IMVrI8YCUMtllmfD3pq49aFLOsv+WmHPiiw0tQ0v0DSLK5Zf02oOghD
Il1C8dyBJzZdHUGfUy6U0KBUXRMN7pgQjHWJt0vBREl5g1iZlKEnTw2hPLFE+xpa
r+LVShZbrALgTmsKkmOiPfJRhiPgxCk0w5H3rutdzlKgHxTGTvyifjWZtgjlp6Q0
dSzN67LmVgKwrOhPQCY6k6VvhzuKowOe4S/bacv0051nmNNzJYOlKqOXhRHw7NSm
uYlHkaYNaAPRMkOgA2/R9Bf92Wa5LwVoIqsYfqlXFv/iw9KsjKvnJx1mS9XCzI7P
qcqtLkMvFGlqVq5PWihOkvdCtY9Q9sRSnZo+9OYfilEn3Kbz92APSOalx5KXWXol
zIwSs8/6dAIMiUdWLn6E+r8XOUBmuJTgLdZwMwXR20/LFAiZi3n3/FYVoI79rwv3
pAPfmne6munjbjX6b6b7UX315YlJwhDtm2Mz/deZGefG+5HcQ28Ty4n8tAHaaJ3O
sdqHARM4/ngLFkNfiFoXhw4FaKNWlsXtd8/SQgv1e4vT/UOhW+U3VQSUyYV94TeH
O7fNvg/XT35LZTvFm+rtDbpp53GaWXYuFwIDAQABo4IBHjCCARowHgYJYIZIAYb4
QgENBBEWD0NBIEludGVybWVkaWF0ZTAdBgNVHQ4EFgQUoCzvogDDJKO/Ep+BM39R
tLWqCd4wgZkGA1UdIwSBkTCBjoAUofDFlXadeHRSc4tp2i9NzgpCizihcqRwMG4x
CzAJBgNVBAYTAmZyMQwwCgYDVQQIDANpZGYxDjAMBgNVBAcMBXBhcmlzMQ4wDAYD
VQQKDAV2aXRhbTEUMBIGA1UECwwLYXV0aG9yaXRpZXMxGzAZBgNVBAMMEmNhX3Jv
b3RfY2FzLXNlcnZlcoICAR8wEgYDVR0TAQH/BAgwBgEB/wIBADAJBgNVHRIEAjAA
MAsGA1UdDwQEAwIBBjARBglghkgBhvhCAQEEBAMCAgQwDQYJKoZIhvcNAQELBQAD
ggIBAK4cF+PLrnaQ1N2dh/eY57idiIUCo64EbbJz8hdIcfO+sD9TJm8m506MkzMQ
c8xoEqW+VtdS5nqMc1mUemBZh0sRJEOnvH2ZGTbgnCQhEzE1uZNOlnpy4NQ9r5nL
+/wlNqLxiBb9tvRjAybT6loY/TzI15yq4CNZw2ZsUyRNcJ7Kcry6u9/xYeA0uqXZ
ycKLQAEngxYZKisAUvIqtQy6fP3JSNg/td17kZgK+XE8x19pQJTW7KEai+uC6RFh
TVaC60/P0aoOC8/y+qKidRGfBAmLULu1VWyVN2Vi6vbJt01piKjZld2ZCW6bWWM/
+Enf63oUzdhWRrSQqzfvL/f+C0tHplh3Lb9c+wDaQOFFgH5p27JvlldJkKYVG0RR
jXFAGIQqJbfu5mTjk+nJpTQJq3k233PT6xYfbw8pXRRQPawZWSvTqaO9PJoHvzig
dyHCCPygJb0iYkbWeE4x9ydyHr8cay06VlBaEhQmQHeU/cGlD1IXYxdiO9X96xTE
Zeu842fgunmbV5huQeCYec/lCKHTYPIYkYmBKc99PzUnYZbXYlRRlaqzFnAkCQH2
+Qy4YEaojiOVlVI6N3wFXLE+7D3Ujc23OODYfuq8FHVc5SRZesgWmj6KD8t+y6+c
Bk6DMfzwuOH0LBsChexK56992N0kNoQ2NIMme/H02w1bRUF5
-----END CERTIFICATE-----
