Certificate:
    Data:
        Version: 3 (0x2)
        Serial Number: 287 (0x11f)
    Signature Algorithm: sha256WithRSAEncryption
        Issuer: C=fr, ST=idf, L=paris, O=vitam, OU=authorities, CN=ca_root_cas-server
        Validity
            Not Before: Nov 22 15:20:58 2019 GMT
            Not After : Nov 19 15:20:58 2029 GMT
        Subject: C=fr, ST=idf, L=paris, O=vitam, OU=authorities, CN=ca_root_cas-server
        Subject Public Key Info:
            Public Key Algorithm: rsaEncryption
                Public-Key: (4096 bit)
                Modulus:
                    00:d5:78:76:f5:55:eb:e4:ab:26:dd:6b:99:f1:f0:
                    ef:02:95:2b:2a:8c:c1:a5:61:f0:32:3a:76:5e:52:
                    b5:a7:81:4e:be:b8:d7:db:1f:3e:e0:3c:08:16:55:
                    53:a4:3d:c8:93:d4:d4:1c:c1:a3:14:e1:c2:ab:05:
                    79:a5:f8:a6:56:f4:56:83:b4:5e:f9:08:30:44:3b:
                    cf:7a:06:66:9c:a6:e4:ec:f4:0f:9d:a5:5f:f7:73:
                    72:fb:58:9f:e1:60:37:91:24:8f:bf:d0:ad:25:02:
                    b0:17:68:02:74:3a:12:98:a2:7f:6b:1d:3a:09:7a:
                    02:a2:86:60:32:e8:7d:e2:44:29:9c:8a:10:65:24:
                    b5:73:88:dd:34:09:dd:47:b9:08:ee:01:ba:5e:24:
                    d7:0d:25:49:43:8c:b3:4f:06:3e:94:26:24:24:9b:
                    f2:4e:5a:f4:29:ff:83:5e:f4:7f:10:a2:32:56:69:
                    04:5b:77:7f:c5:f7:ee:22:46:74:2b:3f:10:8c:09:
                    b4:9c:02:97:ed:07:00:7c:2b:9c:aa:33:7e:61:5a:
                    55:be:2e:00:cb:ad:41:7d:cc:e8:11:7f:71:72:42:
                    7a:73:47:da:b4:ed:ff:d2:77:f2:48:cd:ce:9e:9e:
                    33:16:c9:b8:71:ca:ab:b1:30:c8:28:40:17:39:d1:
                    a1:51:0d:08:7a:a5:48:ba:0f:2d:60:af:6e:02:41:
                    40:a8:a9:73:5b:45:57:8b:72:28:d7:83:88:c8:48:
                    9c:8f:f7:6b:67:dd:8e:1b:9d:09:c7:e8:99:9e:85:
                    92:92:32:14:98:3d:c0:12:6f:35:88:42:f8:3b:eb:
                    97:30:3f:8a:61:c8:75:4a:c3:5d:bd:38:06:2c:d6:
                    64:cf:7a:16:bf:7d:db:15:43:80:d8:1f:4b:d6:98:
                    41:e9:d4:91:c7:68:ea:52:f3:33:ba:f6:7b:1f:05:
                    12:8f:3f:19:1b:ef:b9:67:fe:49:7d:49:e1:bf:25:
                    c3:8e:61:62:dc:c3:fb:87:37:c1:2e:74:76:a1:ee:
                    62:14:65:3a:5b:e0:3e:82:27:f1:62:9d:76:d1:c2:
                    51:1a:eb:e8:b8:7e:1b:75:2e:ba:e5:9c:00:e6:ee:
                    bd:8f:91:1a:d9:f7:97:0c:f0:43:3f:fb:0f:53:00:
                    21:43:12:88:36:28:3e:d0:f4:57:2c:da:60:e7:63:
                    95:98:6c:d8:70:33:37:56:69:16:e0:f0:f9:45:91:
                    89:db:a0:60:02:77:58:82:e3:ed:92:8c:5e:a5:cc:
                    51:f6:cf:e1:b9:35:55:5c:5f:d8:f3:8c:9e:a1:77:
                    8d:11:28:d3:c6:e4:63:23:ce:df:37:f6:cc:47:3a:
                    4a:c0:c5
                Exponent: 65537 (0x10001)
        X509v3 extensions:
            Netscape Comment:
                CA Root
            X509v3 Subject Key Identifier:
                A1:F0:C5:95:76:9D:78:74:52:73:8B:69:DA:2F:4D:CE:0A:42:8B:38
            X509v3 Authority Key Identifier:
                keyid:A1:F0:C5:95:76:9D:78:74:52:73:8B:69:DA:2F:4D:CE:0A:42:8B:38

            X509v3 Basic Constraints: critical
                CA:TRUE, pathlen:1
            X509v3 Key Usage:
                Certificate Sign, CRL Sign
            Netscape Cert Type:
                SSL CA
    Signature Algorithm: sha256WithRSAEncryption
         99:2b:bf:c4:0b:24:cb:42:a6:0a:07:fc:19:67:04:ef:61:61:
         31:75:6a:03:29:a2:35:89:c9:28:74:b1:af:95:4c:45:51:12:
         1b:d7:14:88:9b:50:1c:2d:0c:b2:9a:1e:67:57:44:81:9a:33:
         70:66:72:4f:95:4c:0f:1b:84:88:41:23:09:be:82:55:c5:d6:
         68:6c:69:02:6d:2f:46:cf:e2:72:af:cc:36:f7:b2:02:8d:3f:
         29:f4:db:df:c4:25:1b:8c:69:09:38:0e:66:0a:6b:73:fd:ae:
         5f:3f:0b:50:2b:47:e1:a1:b1:bc:7b:00:26:91:57:1c:f3:5a:
         75:df:93:de:3b:47:49:f2:80:5f:f9:7c:40:9d:81:c6:7a:0b:
         8f:ff:0f:e6:53:df:74:8f:43:a1:78:62:8f:c0:6c:61:93:65:
         b8:de:58:2b:d3:be:11:0e:f2:d6:f4:6f:b2:9f:5f:57:37:de:
         bd:06:d0:63:dc:cd:4f:d0:42:2e:91:e9:4c:a7:83:1a:37:c7:
         a4:90:a4:b7:6d:40:94:97:ec:f2:69:b9:cd:a3:3c:7e:86:fe:
         95:88:af:68:97:fb:0b:2d:8a:f5:8a:81:b3:95:19:3e:76:55:
         23:5f:4a:e9:0a:71:8d:e1:6b:1a:12:44:88:ca:b9:f1:a6:25:
         cd:f3:a2:d9:8f:ca:09:ce:35:5f:28:97:a7:47:3e:db:5c:12:
         34:b2:07:fb:eb:b6:20:a8:05:7d:e7:a0:a3:fb:f2:54:ba:28:
         ed:e0:2e:c1:fe:53:ee:54:c3:1d:e6:87:9b:3b:ec:c1:37:12:
         8d:df:fa:3a:cf:04:fa:e0:89:d5:fa:0a:3f:57:e2:57:5a:95:
         8a:2b:a8:3a:12:a5:5a:a8:64:86:b3:75:0f:66:5b:1f:eb:7f:
         a9:05:e8:fe:a5:c1:c8:2f:e3:ad:b0:73:71:8e:17:bc:84:9f:
         d1:35:d3:3b:02:1d:28:09:75:3d:28:88:00:49:0d:70:b1:ab:
         6f:75:42:1a:95:be:3d:9d:80:ba:6a:79:cb:c6:83:27:c6:ab:
         2e:57:fd:01:aa:85:b2:09:9e:08:7e:b9:ae:53:6f:32:7b:5c:
         84:48:4c:93:92:dc:69:70:74:33:e7:cc:76:ba:1a:ca:36:73:
         b5:90:5a:64:d9:1d:15:16:34:9c:33:8e:2a:55:82:74:23:2d:
         97:34:86:0b:7a:a6:f5:3a:1e:b7:e6:61:fd:a3:c2:59:6a:ec:
         38:7e:14:8c:78:7c:48:da:31:49:66:28:97:68:db:ca:3c:b4:
         44:cf:07:30:e4:01:62:57:d3:5b:54:03:3b:15:c3:b2:26:b7:
         6c:e0:c6:be:08:a6:22:1e
-----BEGIN CERTIFICATE-----
MIIF6DCCA9CgAwIBAgICAR8wDQYJKoZIhvcNAQELBQAwbjELMAkGA1UEBhMCZnIx
DDAKBgNVBAgMA2lkZjEOMAwGA1UEBwwFcGFyaXMxDjAMBgNVBAoMBXZpdGFtMRQw
EgYDVQQLDAthdXRob3JpdGllczEbMBkGA1UEAwwSY2Ffcm9vdF9jYXMtc2VydmVy
MB4XDTE5MTEyMjE1MjA1OFoXDTI5MTExOTE1MjA1OFowbjELMAkGA1UEBhMCZnIx
DDAKBgNVBAgMA2lkZjEOMAwGA1UEBwwFcGFyaXMxDjAMBgNVBAoMBXZpdGFtMRQw
EgYDVQQLDAthdXRob3JpdGllczEbMBkGA1UEAwwSY2Ffcm9vdF9jYXMtc2VydmVy
MIICIjANBgkqhkiG9w0BAQEFAAOCAg8AMIICCgKCAgEA1Xh29VXr5Ksm3WuZ8fDv
ApUrKozBpWHwMjp2XlK1p4FOvrjX2x8+4DwIFlVTpD3Ik9TUHMGjFOHCqwV5pfim
VvRWg7Re+QgwRDvPegZmnKbk7PQPnaVf93Ny+1if4WA3kSSPv9CtJQKwF2gCdDoS
mKJ/ax06CXoCooZgMuh94kQpnIoQZSS1c4jdNAndR7kI7gG6XiTXDSVJQ4yzTwY+
lCYkJJvyTlr0Kf+DXvR/EKIyVmkEW3d/xffuIkZ0Kz8QjAm0nAKX7QcAfCucqjN+
YVpVvi4Ay61BfczoEX9xckJ6c0fatO3/0nfySM3Onp4zFsm4ccqrsTDIKEAXOdGh
UQ0IeqVIug8tYK9uAkFAqKlzW0VXi3Io14OIyEicj/drZ92OG50Jx+iZnoWSkjIU
mD3AEm81iEL4O+uXMD+KYch1SsNdvTgGLNZkz3oWv33bFUOA2B9L1phB6dSRx2jq
UvMzuvZ7HwUSjz8ZG++5Z/5JfUnhvyXDjmFi3MP7hzfBLnR2oe5iFGU6W+A+gifx
Yp120cJRGuvouH4bdS665ZwA5u69j5Ea2feXDPBDP/sPUwAhQxKINig+0PRXLNpg
52OVmGzYcDM3VmkW4PD5RZGJ26BgAndYguPtkoxepcxR9s/huTVVXF/Y84yeoXeN
ESjTxuRjI87fN/bMRzpKwMUCAwEAAaOBjzCBjDAWBglghkgBhvhCAQ0ECRYHQ0Eg
Um9vdDAdBgNVHQ4EFgQUofDFlXadeHRSc4tp2i9NzgpCizgwHwYDVR0jBBgwFoAU
ofDFlXadeHRSc4tp2i9NzgpCizgwEgYDVR0TAQH/BAgwBgEB/wIBATALBgNVHQ8E
BAMCAQYwEQYJYIZIAYb4QgEBBAQDAgIEMA0GCSqGSIb3DQEBCwUAA4ICAQCZK7/E
CyTLQqYKB/wZZwTvYWExdWoDKaI1ickodLGvlUxFURIb1xSIm1AcLQyymh5nV0SB
mjNwZnJPlUwPG4SIQSMJvoJVxdZobGkCbS9Gz+Jyr8w297ICjT8p9NvfxCUbjGkJ
OA5mCmtz/a5fPwtQK0fhobG8ewAmkVcc81p135PeO0dJ8oBf+XxAnYHGeguP/w/m
U990j0OheGKPwGxhk2W43lgr074RDvLW9G+yn19XN969BtBj3M1P0EIukelMp4Ma
N8ekkKS3bUCUl+zyabnNozx+hv6ViK9ol/sLLYr1ioGzlRk+dlUjX0rpCnGN4Wsa
EkSIyrnxpiXN86LZj8oJzjVfKJenRz7bXBI0sgf767YgqAV956Cj+/JUuijt4C7B
/lPuVMMd5oebO+zBNxKN3/o6zwT64InV+go/V+JXWpWKK6g6EqVaqGSGs3UPZlsf
63+pBej+pcHIL+OtsHNxjhe8hJ/RNdM7Ah0oCXU9KIgASQ1wsatvdUIalb49nYC6
annLxoMnxqsuV/0BqoWyCZ4IfrmuU28ye1yESEyTktxpcHQz58x2uhrKNnO1kFpk
2R0VFjScM44qVYJ0Iy2XNIYLeqb1Oh635mH9o8JZauw4fhSMeHxI2jFJZiiXaNvK
PLREzwcw5AFiV9NbVAM7FcOyJrds4Ma+CKYiHg==
-----END CERTIFICATE-----
