Certificate:
    Data:
        Version: 3 (0x2)
        Serial Number: 332 (0x14c)
    Signature Algorithm: sha256WithRSAEncryption
        Issuer: C=fr, ST=idf, L=paris, O=vitam, OU=authorities, CN=ca_root_client-iam
        Validity
            Not Before: Dec 12 10:42:44 2019 GMT
            Not After : Dec  9 10:42:44 2029 GMT
        Subject: C=fr, ST=idf, L=paris, O=vitam, OU=authorities, CN=ca_root_client-iam
        Subject Public Key Info:
            Public Key Algorithm: rsaEncryption
                Public-Key: (4096 bit)
                Modulus:
                    00:a5:7a:ce:c7:4f:58:c3:76:06:f5:59:6f:c3:0b:
                    86:95:c0:c7:68:dd:20:fa:a3:ea:4d:6a:8d:ff:f7:
                    0a:1c:a4:20:79:26:bf:d3:51:d9:2a:f4:6f:7c:7f:
                    b6:5d:52:3c:cd:0c:db:44:3a:6a:b4:72:d0:c1:de:
                    58:ad:62:31:a4:46:1c:bb:76:b1:a7:46:5b:7b:e7:
                    98:55:be:27:1e:d3:f9:95:44:4b:c5:6e:e5:dd:d9:
                    e2:79:ac:93:fe:dc:db:45:b8:0a:a4:eb:f4:3c:53:
                    cb:3e:fb:2c:b9:0a:19:e2:9e:b6:0c:ca:b2:f3:1d:
                    08:27:fc:6c:23:54:91:66:c8:73:4e:7b:fe:2b:40:
                    4d:92:09:0b:2c:e1:db:a6:dc:50:6d:1a:e1:15:f2:
                    88:cc:39:ff:28:e6:32:c1:3e:7d:7b:ce:8f:0c:0f:
                    d0:67:b1:c5:86:bc:48:ff:71:3f:bb:24:58:ec:d5:
                    68:c0:e6:78:ed:3c:75:8c:22:fa:56:df:f0:94:a6:
                    6f:21:34:90:dd:33:67:b2:e9:24:58:c6:6e:70:e3:
                    41:20:42:3e:c3:92:47:73:9b:88:82:dc:26:ba:0c:
                    96:d1:cf:3a:9c:19:20:74:ee:92:1e:17:8d:5c:9d:
                    a9:30:d1:a9:c1:11:c3:cf:29:0f:4c:04:9f:a1:c7:
                    99:fc:0d:bd:2b:01:53:51:a8:3f:63:fe:a1:2f:95:
                    98:9a:22:35:99:db:c9:8c:2e:43:01:69:73:be:14:
                    59:1f:24:f3:26:46:fc:96:57:53:0b:7e:05:6b:c9:
                    62:75:1c:01:03:b6:28:a9:83:2b:04:4c:6c:b3:85:
                    c7:79:13:8e:dd:00:97:7b:c9:a4:62:97:1f:be:b8:
                    4f:62:91:e7:b2:69:a7:f2:2c:6c:a5:b0:71:d8:d8:
                    7a:2b:08:27:87:34:9d:2f:8f:bc:b5:0c:ca:04:d7:
                    16:68:ef:84:7f:71:93:e7:95:d0:22:1d:81:1c:65:
                    47:51:ac:b9:e8:14:53:08:a2:9d:6c:26:d0:4b:0f:
                    b2:99:ff:2a:81:3f:12:3b:26:b2:95:2b:98:be:3a:
                    e8:5d:32:ff:8e:3c:eb:c6:f5:dc:51:44:90:97:52:
                    3a:5d:5e:0e:45:f9:ea:47:27:ef:49:b1:1e:e7:d1:
                    b6:e7:0a:c9:f0:f1:38:a1:c9:7f:62:a5:43:4d:1f:
                    6f:46:9a:12:1d:40:86:49:12:46:45:e8:b6:7e:ff:
                    04:ea:cd:20:45:32:aa:5b:23:eb:97:b8:32:e9:6a:
                    21:61:aa:17:09:33:93:c7:ad:b5:db:7d:06:f1:86:
                    ba:4b:18:4b:8d:74:72:22:24:5a:ad:b2:e2:65:4e:
                    b0:2b:85
                Exponent: 65537 (0x10001)
        X509v3 extensions:
            Netscape Comment:
                CA Root
            X509v3 Subject Key Identifier:
                55:E4:84:92:4D:2F:90:1B:CE:E4:F2:3B:D0:81:D1:20:C4:0A:1B:DC
            X509v3 Authority Key Identifier:
                keyid:55:E4:84:92:4D:2F:90:1B:CE:E4:F2:3B:D0:81:D1:20:C4:0A:1B:DC

            X509v3 Basic Constraints: critical
                CA:TRUE, pathlen:1
            X509v3 Key Usage:
                Certificate Sign, CRL Sign
            Netscape Cert Type:
                SSL CA
    Signature Algorithm: sha256WithRSAEncryption
         9e:d6:ac:bd:5a:39:3a:f3:76:a0:f9:17:0c:d4:09:8f:7a:aa:
         60:9d:31:37:a2:98:51:93:75:95:97:9b:bb:1d:b7:f5:bd:29:
         82:16:bb:b2:2c:79:23:08:2a:e7:a9:fd:47:93:a5:22:7e:bd:
         4c:07:08:4e:8f:c7:d3:ff:90:e5:6c:cd:b7:45:ed:cc:ad:ba:
         93:31:cf:77:04:3f:44:60:39:94:73:0c:b6:38:5a:26:79:da:
         6b:79:23:55:d6:a8:5d:be:1e:72:db:d6:b2:a9:1b:83:61:a2:
         3d:ff:1f:2b:8a:57:40:30:62:73:a5:86:22:77:78:c2:1b:ab:
         6c:cf:eb:ca:67:14:fe:88:9c:3d:0d:27:e4:04:2d:5f:b5:8f:
         16:c7:16:f3:9c:39:00:ef:f0:a5:2f:a9:12:a9:3b:4c:10:1d:
         f3:72:13:c2:e0:6b:87:05:dd:04:48:31:1d:9e:81:36:1d:34:
         b5:73:a5:74:18:bb:ba:35:ac:fd:33:26:ac:66:77:05:5a:e4:
         0a:f5:b1:7f:92:42:0f:6d:7d:ed:55:7f:28:ee:fc:00:db:48:
         4b:10:e2:94:76:fb:00:d3:51:24:68:cd:af:f0:37:f6:12:92:
         85:d1:46:37:5b:58:0b:46:17:42:c4:d2:93:cf:63:11:78:c6:
         fa:37:ea:c3:23:a8:85:b3:67:eb:f3:b6:9e:3d:26:81:5f:e6:
         85:ca:b2:3d:44:64:62:61:7f:b4:d3:cd:43:97:62:2a:cf:64:
         17:51:20:db:91:7f:33:5f:1d:af:13:21:63:91:66:a7:a9:13:
         cc:2e:b3:ec:05:d8:02:ff:c2:6a:71:ab:7d:c1:18:83:95:e9:
         fe:86:21:9c:7e:54:82:89:43:6c:c7:5e:32:1b:3c:a5:98:09:
         c7:67:89:4c:06:0a:40:d3:62:cb:ff:01:a1:a5:ae:2b:91:e2:
         c6:fc:3e:da:dc:dd:b2:03:35:f8:9c:89:85:ad:eb:e8:36:1d:
         16:6a:d5:c8:96:bf:9f:19:7d:37:53:07:0d:bf:07:d1:f8:6c:
         e4:93:e1:c0:d4:4c:0e:1f:c0:7a:9f:8f:d0:0b:d5:7d:d9:d1:
         ed:f6:d0:58:4f:65:00:dc:ca:f1:7e:e0:76:3c:90:5e:c9:3b:
         58:0b:54:28:0b:5c:03:05:56:70:73:d1:97:c8:d1:45:d1:a5:
         4b:1e:d4:52:00:ca:53:e5:ac:7f:09:21:4f:24:dd:5f:fd:ed:
         c4:4a:79:f6:01:c7:02:8c:bf:58:a1:a8:ff:cb:8e:79:45:16:
         46:e6:78:4a:3e:3d:a6:fc:40:9b:7d:77:6e:c2:61:97:c9:e8:
         b6:dc:16:fd:6e:49:11:09
-----BEGIN CERTIFICATE-----
MIIF6DCCA9CgAwIBAgICAUwwDQYJKoZIhvcNAQELBQAwbjELMAkGA1UEBhMCZnIx
DDAKBgNVBAgMA2lkZjEOMAwGA1UEBwwFcGFyaXMxDjAMBgNVBAoMBXZpdGFtMRQw
EgYDVQQLDAthdXRob3JpdGllczEbMBkGA1UEAwwSY2Ffcm9vdF9jbGllbnQtaWFt
MB4XDTE5MTIxMjEwNDI0NFoXDTI5MTIwOTEwNDI0NFowbjELMAkGA1UEBhMCZnIx
DDAKBgNVBAgMA2lkZjEOMAwGA1UEBwwFcGFyaXMxDjAMBgNVBAoMBXZpdGFtMRQw
EgYDVQQLDAthdXRob3JpdGllczEbMBkGA1UEAwwSY2Ffcm9vdF9jbGllbnQtaWFt
MIICIjANBgkqhkiG9w0BAQEFAAOCAg8AMIICCgKCAgEApXrOx09Yw3YG9VlvwwuG
lcDHaN0g+qPqTWqN//cKHKQgeSa/01HZKvRvfH+2XVI8zQzbRDpqtHLQwd5YrWIx
pEYcu3axp0Zbe+eYVb4nHtP5lURLxW7l3dnieayT/tzbRbgKpOv0PFPLPvssuQoZ
4p62DMqy8x0IJ/xsI1SRZshzTnv+K0BNkgkLLOHbptxQbRrhFfKIzDn/KOYywT59
e86PDA/QZ7HFhrxI/3E/uyRY7NVowOZ47Tx1jCL6Vt/wlKZvITSQ3TNnsukkWMZu
cONBIEI+w5JHc5uIgtwmugyW0c86nBkgdO6SHheNXJ2pMNGpwRHDzykPTASfoceZ
/A29KwFTUag/Y/6hL5WYmiI1mdvJjC5DAWlzvhRZHyTzJkb8lldTC34Fa8lidRwB
A7YoqYMrBExss4XHeROO3QCXe8mkYpcfvrhPYpHnsmmn8ixspbBx2Nh6KwgnhzSd
L4+8tQzKBNcWaO+Ef3GT55XQIh2BHGVHUay56BRTCKKdbCbQSw+ymf8qgT8SOyay
lSuYvjroXTL/jjzrxvXcUUSQl1I6XV4ORfnqRyfvSbEe59G25wrJ8PE4ocl/YqVD
TR9vRpoSHUCGSRJGRei2fv8E6s0gRTKqWyPrl7gy6WohYaoXCTOTx621230G8Ya6
SxhLjXRyIiRarbLiZU6wK4UCAwEAAaOBjzCBjDAWBglghkgBhvhCAQ0ECRYHQ0Eg
Um9vdDAdBgNVHQ4EFgQUVeSEkk0vkBvO5PI70IHRIMQKG9wwHwYDVR0jBBgwFoAU
VeSEkk0vkBvO5PI70IHRIMQKG9wwEgYDVR0TAQH/BAgwBgEB/wIBATALBgNVHQ8E
BAMCAQYwEQYJYIZIAYb4QgEBBAQDAgIEMA0GCSqGSIb3DQEBCwUAA4ICAQCe1qy9
Wjk683ag+RcM1AmPeqpgnTE3ophRk3WVl5u7Hbf1vSmCFruyLHkjCCrnqf1Hk6Ui
fr1MBwhOj8fT/5DlbM23Re3MrbqTMc93BD9EYDmUcwy2OFomedpreSNV1qhdvh5y
29ayqRuDYaI9/x8rildAMGJzpYYid3jCG6tsz+vKZxT+iJw9DSfkBC1ftY8Wxxbz
nDkA7/ClL6kSqTtMEB3zchPC4GuHBd0ESDEdnoE2HTS1c6V0GLu6Naz9MyasZncF
WuQK9bF/kkIPbX3tVX8o7vwA20hLEOKUdvsA01EkaM2v8Df2EpKF0UY3W1gLRhdC
xNKTz2MReMb6N+rDI6iFs2fr87aePSaBX+aFyrI9RGRiYX+0081Dl2Iqz2QXUSDb
kX8zXx2vEyFjkWanqRPMLrPsBdgC/8Jqcat9wRiDlen+hiGcflSCiUNsx14yGzyl
mAnHZ4lMBgpA02LL/wGhpa4rkeLG/D7a3N2yAzX4nImFrevoNh0WatXIlr+fGX03
UwcNvwfR+Gzkk+HA1EwOH8B6n4/QC9V92dHt9tBYT2UA3MrxfuB2PJBeyTtYC1Qo
C1wDBVZwc9GXyNFF0aVLHtRSAMpT5ax/CSFPJN1f/e3ESnn2AccCjL9Yoaj/y455
RRZG5nhKPj2m/ECbfXduwmGXyei23Bb9bkkRCQ==
-----END CERTIFICATE-----
