Certificate:
    Data:
        Version: 3 (0x2)
        Serial Number: 1 (0x1)
        Signature Algorithm: sha256WithRSAEncryption
        Issuer: C=fr, ST=idf, L=paris, O=vitamui, OU=authorities, CN=ca_root_client-external
        Validity
            Not Before: May  5 12:15:16 2020 GMT
            Not After : May  3 12:15:16 2030 GMT
        Subject: C=fr, ST=idf, L=paris, O=vitamui, OU=authorities, CN=ca_root_client-external
        Subject Public Key Info:
            Public Key Algorithm: rsaEncryption
                RSA Public-Key: (4096 bit)
                Modulus:
                    00:cc:21:da:50:ef:43:e7:3f:3a:a8:f7:be:ad:ca:
                    c3:24:88:8a:38:09:3a:9e:73:8f:9a:0e:c8:e6:4d:
                    27:50:a6:df:d1:4f:e5:cc:df:9f:f0:ef:51:45:2a:
                    e1:66:65:a1:92:49:34:69:0b:45:7f:70:82:74:1a:
                    dd:50:61:ba:6b:ff:51:d1:c3:2e:11:c7:bc:88:3e:
                    1b:58:f0:c6:56:24:eb:93:65:8c:37:4e:b6:8f:8f:
                    56:dd:8b:b6:23:bb:79:18:2f:8f:7d:ea:60:47:f3:
                    35:db:a5:8b:dd:f1:e4:aa:53:61:22:53:cc:93:38:
                    4b:ed:43:cd:fd:ac:8c:49:90:0c:f3:8e:bd:b0:6e:
                    3b:c3:e3:f0:9d:f9:22:0c:c7:2d:4b:8f:5c:67:82:
                    db:0e:85:01:cb:19:0d:d0:62:87:66:d2:86:00:2e:
                    56:2d:b9:88:9e:a0:61:4c:ba:3c:a5:9a:ee:f5:c7:
                    cd:fa:27:e3:44:12:4a:47:92:52:7d:46:27:f1:9c:
                    86:49:45:58:6c:f0:12:c1:7b:61:d1:d6:c8:96:22:
                    cc:46:ff:c1:32:80:51:71:c9:8d:34:e3:ac:12:b7:
                    40:88:4b:ba:65:3d:7a:c5:35:41:77:06:c6:05:97:
                    92:a0:1a:da:b4:c1:78:ed:8c:25:74:14:fe:ca:72:
                    b0:a8:9b:ae:94:66:1e:a8:8d:ed:e0:38:af:05:10:
                    7d:b2:fe:f0:bb:bd:4a:08:c2:9f:e3:58:77:d6:94:
                    a4:7c:8e:d2:32:79:50:78:d8:3e:e0:ed:38:83:a7:
                    14:8a:4f:7a:63:46:be:3c:3a:1a:b3:5b:05:d0:8c:
                    07:5f:5b:81:6f:96:8e:89:e6:f5:bc:6a:ff:af:fa:
                    a4:4c:d7:55:12:62:69:3f:82:6f:d9:4d:55:82:e6:
                    ae:b5:c9:3f:45:cd:7c:0f:c2:01:73:57:cb:94:b1:
                    b6:ce:46:09:b6:78:80:9b:8a:f0:1e:0e:02:bd:65:
                    2a:f3:af:81:c1:e0:61:27:00:1c:0b:62:7f:3b:60:
                    8f:17:d9:3c:ed:79:5c:bb:cc:e2:c3:27:95:5d:3c:
                    d2:6c:2e:c0:16:e6:6b:75:9f:e7:f8:6c:fb:58:80:
                    b9:d4:5b:28:69:e1:d0:ae:7a:0b:08:f8:ee:b5:73:
                    22:bf:41:ed:22:45:a4:e6:fe:4a:d4:69:8e:3d:ed:
                    39:a9:d2:08:0f:8e:13:80:1b:ef:ed:26:3d:3b:4c:
                    fa:49:74:1c:80:36:e1:9f:c7:27:e2:e5:8e:e1:ba:
                    c0:dc:17:f6:2f:ea:3e:ef:97:fd:3b:80:d8:7b:3b:
                    c4:47:d8:aa:eb:0a:f4:e4:17:78:cd:4b:60:0f:fa:
                    76:d9:e7
                Exponent: 65537 (0x10001)
        X509v3 extensions:
            Netscape Comment: 
                CA Root
            X509v3 Subject Key Identifier: 
                7C:4A:2C:F1:F4:F5:16:06:22:0F:74:19:38:BB:50:05:4E:19:53:20
            X509v3 Authority Key Identifier: 
                keyid:7C:4A:2C:F1:F4:F5:16:06:22:0F:74:19:38:BB:50:05:4E:19:53:20

            X509v3 Basic Constraints: critical
                CA:TRUE, pathlen:1
            X509v3 Key Usage: 
                Certificate Sign, CRL Sign
            Netscape Cert Type: 
                SSL CA
    Signature Algorithm: sha256WithRSAEncryption
         ac:66:03:4e:85:8a:d2:be:de:56:a1:51:ec:81:8e:cf:9b:5e:
         6f:a8:b8:05:cd:ea:dd:36:82:d1:74:f4:6a:06:73:39:1d:b6:
         63:13:6f:6b:43:fb:a8:04:28:65:3f:38:c2:42:75:ce:d6:54:
         36:93:bb:c5:c7:e4:0f:a5:5e:9d:94:19:5e:f6:0b:0c:9e:e2:
         0d:86:3f:ad:ac:fb:85:3b:fe:cd:23:ac:c7:06:f9:a5:bd:e3:
         03:e6:43:f2:5b:05:70:a9:67:e6:51:a3:9c:f2:00:b9:60:ce:
         8a:6a:86:b9:54:d9:af:cb:22:e2:4f:e6:ec:c0:85:a2:dc:19:
         32:f7:0f:5d:db:dd:79:70:dc:dd:ec:cf:bf:b4:08:71:26:84:
         3e:85:f4:78:bc:f4:49:a1:13:c6:e0:c3:e6:88:cc:42:62:3c:
         11:33:c8:c7:b0:cb:af:5e:54:c0:7e:13:a8:d2:ab:1d:4a:0e:
         2c:79:3d:d8:a3:f4:70:b0:f6:a3:3e:74:60:d7:3f:51:92:a6:
         a5:75:53:d0:7a:21:11:d3:68:c4:64:3b:91:39:76:c2:01:4e:
         16:da:2d:0e:d3:be:c1:5e:02:75:61:79:af:9d:5b:81:22:95:
         ff:cf:d6:73:9c:9a:80:a5:a6:13:0a:71:40:07:5e:d3:6f:08:
         4e:c6:21:e9:5d:9f:04:70:fa:6b:9a:07:38:82:0f:48:06:37:
         d5:7d:2c:77:6b:c4:6c:3d:be:15:9b:df:4c:90:e4:e2:9b:e5:
         8a:d1:bd:7a:05:8a:db:f3:49:8c:b0:4e:15:ed:24:aa:04:52:
         14:c2:fb:89:fd:9d:39:ea:e5:67:ec:8d:66:40:0b:ef:b7:58:
         bf:fd:13:1d:87:61:8d:e8:eb:e1:c0:19:65:3f:cb:49:f4:a7:
         ae:d7:2d:81:ae:b7:ca:31:c7:cf:56:55:86:f2:f9:71:f6:a9:
         49:fb:4f:0d:6d:a7:81:aa:f5:7a:e6:ae:19:f8:e9:02:5b:86:
         63:de:4b:68:32:e4:b5:e4:81:eb:2c:86:80:6e:b8:05:49:45:
         90:99:cf:c7:ad:54:7f:d6:6c:d9:c6:6f:5d:11:17:67:c3:c7:
         3c:41:32:f2:e7:30:8d:93:74:c0:df:70:ff:48:9f:26:96:f2:
         1f:22:44:f2:5c:82:5d:f6:0b:be:55:95:b8:a7:0c:b3:f7:04:
         37:b7:75:88:71:0a:f8:5e:7a:6a:a8:a5:cf:43:1a:68:84:59:
         b3:6b:30:3a:3b:b3:bb:66:54:2e:33:19:cf:12:d0:f0:11:b8:
         c2:fb:ee:f0:4e:0a:2a:c2:20:bb:3c:9f:71:8c:cb:b2:3d:8c:
         12:43:c7:37:37:f4:0d:68
-----BEGIN CERTIFICATE-----
MIIF9TCCA92gAwIBAgIBATANBgkqhkiG9w0BAQsFADB1MQswCQYDVQQGEwJmcjEM
MAoGA1UECAwDaWRmMQ4wDAYDVQQHDAVwYXJpczEQMA4GA1UECgwHdml0YW11aTEU
MBIGA1UECwwLYXV0aG9yaXRpZXMxIDAeBgNVBAMMF2NhX3Jvb3RfY2xpZW50LWV4
dGVybmFsMB4XDTIwMDUwNTEyMTUxNloXDTMwMDUwMzEyMTUxNlowdTELMAkGA1UE
BhMCZnIxDDAKBgNVBAgMA2lkZjEOMAwGA1UEBwwFcGFyaXMxEDAOBgNVBAoMB3Zp
dGFtdWkxFDASBgNVBAsMC2F1dGhvcml0aWVzMSAwHgYDVQQDDBdjYV9yb290X2Ns
aWVudC1leHRlcm5hbDCCAiIwDQYJKoZIhvcNAQEBBQADggIPADCCAgoCggIBAMwh
2lDvQ+c/Oqj3vq3KwySIijgJOp5zj5oOyOZNJ1Cm39FP5czfn/DvUUUq4WZloZJJ
NGkLRX9wgnQa3VBhumv/UdHDLhHHvIg+G1jwxlYk65NljDdOto+PVt2LtiO7eRgv
j33qYEfzNduli93x5KpTYSJTzJM4S+1Dzf2sjEmQDPOOvbBuO8Pj8J35IgzHLUuP
XGeC2w6FAcsZDdBih2bShgAuVi25iJ6gYUy6PKWa7vXHzfon40QSSkeSUn1GJ/Gc
hklFWGzwEsF7YdHWyJYizEb/wTKAUXHJjTTjrBK3QIhLumU9esU1QXcGxgWXkqAa
2rTBeO2MJXQU/spysKibrpRmHqiN7eA4rwUQfbL+8Lu9SgjCn+NYd9aUpHyO0jJ5
UHjYPuDtOIOnFIpPemNGvjw6GrNbBdCMB19bgW+Wjonm9bxq/6/6pEzXVRJiaT+C
b9lNVYLmrrXJP0XNfA/CAXNXy5Sxts5GCbZ4gJuK8B4OAr1lKvOvgcHgYScAHAti
fztgjxfZPO15XLvM4sMnlV080mwuwBbma3Wf5/hs+1iAudRbKGnh0K56Cwj47rVz
Ir9B7SJFpOb+StRpjj3tOanSCA+OE4Ab7+0mPTtM+kl0HIA24Z/HJ+LljuG6wNwX
9i/qPu+X/TuA2Hs7xEfYqusK9OQXeM1LYA/6dtnnAgMBAAGjgY8wgYwwFgYJYIZI
AYb4QgENBAkWB0NBIFJvb3QwHQYDVR0OBBYEFHxKLPH09RYGIg90GTi7UAVOGVMg
MB8GA1UdIwQYMBaAFHxKLPH09RYGIg90GTi7UAVOGVMgMBIGA1UdEwEB/wQIMAYB
Af8CAQEwCwYDVR0PBAQDAgEGMBEGCWCGSAGG+EIBAQQEAwICBDANBgkqhkiG9w0B
AQsFAAOCAgEArGYDToWK0r7eVqFR7IGOz5teb6i4Bc3q3TaC0XT0agZzOR22YxNv
a0P7qAQoZT84wkJ1ztZUNpO7xcfkD6VenZQZXvYLDJ7iDYY/raz7hTv+zSOsxwb5
pb3jA+ZD8lsFcKln5lGjnPIAuWDOimqGuVTZr8si4k/m7MCFotwZMvcPXdvdeXDc
3ezPv7QIcSaEPoX0eLz0SaETxuDD5ojMQmI8ETPIx7DLr15UwH4TqNKrHUoOLHk9
2KP0cLD2oz50YNc/UZKmpXVT0HohEdNoxGQ7kTl2wgFOFtotDtO+wV4CdWF5r51b
gSKV/8/Wc5yagKWmEwpxQAde028ITsYh6V2fBHD6a5oHOIIPSAY31X0sd2vEbD2+
FZvfTJDk4pvlitG9egWK2/NJjLBOFe0kqgRSFML7if2dOerlZ+yNZkAL77dYv/0T
HYdhjejr4cAZZT/LSfSnrtctga63yjHHz1ZVhvL5cfapSftPDW2ngar1euauGfjp
AluGY95LaDLkteSB6yyGgG64BUlFkJnPx61Uf9Zs2cZvXREXZ8PHPEEy8ucwjZN0
wN9w/0ifJpbyHyJE8lyCXfYLvlWVuKcMs/cEN7d1iHEK+F56aqilz0MaaIRZs2sw
Ojuzu2ZULjMZzxLQ8BG4wvvu8E4KKsIguzyfcYzLsj2MEkPHNzf0DWg=
-----END CERTIFICATE-----
